ARM GAS  C:\Users\yzy\AppData\Local\Temp\ccsak043.s 			page 1


   1              		.cpu cortex-m4
   2              		.eabi_attribute 20, 1
   3              		.eabi_attribute 21, 1
   4              		.eabi_attribute 23, 3
   5              		.eabi_attribute 24, 1
   6              		.eabi_attribute 25, 1
   7              		.eabi_attribute 26, 1
   8              		.eabi_attribute 30, 1
   9              		.eabi_attribute 34, 1
  10              		.eabi_attribute 18, 4
  11              		.file	"board.c"
  12              		.text
  13              	.Ltext0:
  14              		.cfi_sections	.debug_frame
  15              		.section	.text._SysTick_Config,"ax",%progbits
  16              		.align	1
  17              		.arch armv7e-m
  18              		.syntax unified
  19              		.thumb
  20              		.thumb_func
  21              		.fpu softvfp
  23              	_SysTick_Config:
  24              	.LVL0:
  25              	.LFB145:
  26              		.file 1 "RT-Thread/bsp/board.c"
   1:RT-Thread/bsp/board.c **** /*
   2:RT-Thread/bsp/board.c ****  * Copyright (c) 2006-2019, RT-Thread Development Team
   3:RT-Thread/bsp/board.c ****  *
   4:RT-Thread/bsp/board.c ****  * SPDX-License-Identifier: Apache-2.0
   5:RT-Thread/bsp/board.c ****  *
   6:RT-Thread/bsp/board.c ****  * Change Logs:
   7:RT-Thread/bsp/board.c ****  * Date           Author       Notes
   8:RT-Thread/bsp/board.c ****  * 2017-07-24     Tanek        the first version
   9:RT-Thread/bsp/board.c ****  * 2018-11-12     Ernest Chen  modify copyright
  10:RT-Thread/bsp/board.c ****  */
  11:RT-Thread/bsp/board.c ****  
  12:RT-Thread/bsp/board.c **** #include <stdint.h>
  13:RT-Thread/bsp/board.c **** #include <rthw.h>
  14:RT-Thread/bsp/board.c **** #include <rtthread.h>
  15:RT-Thread/bsp/board.c **** #include "main.h"
  16:RT-Thread/bsp/board.c **** #include "bsp_uart1.h"
  17:RT-Thread/bsp/board.c **** 
  18:RT-Thread/bsp/board.c **** #define _SCB_BASE       (0xE000E010UL)
  19:RT-Thread/bsp/board.c **** #define _SYSTICK_CTRL   (*(rt_uint32_t *)(_SCB_BASE + 0x0))
  20:RT-Thread/bsp/board.c **** #define _SYSTICK_LOAD   (*(rt_uint32_t *)(_SCB_BASE + 0x4))
  21:RT-Thread/bsp/board.c **** #define _SYSTICK_VAL    (*(rt_uint32_t *)(_SCB_BASE + 0x8))
  22:RT-Thread/bsp/board.c **** #define _SYSTICK_CALIB  (*(rt_uint32_t *)(_SCB_BASE + 0xC))
  23:RT-Thread/bsp/board.c **** #define _SYSTICK_PRI    (*(rt_uint8_t  *)(0xE000ED23UL))
  24:RT-Thread/bsp/board.c **** 
  25:RT-Thread/bsp/board.c **** // Updates the variable SystemCoreClock and must be called 
  26:RT-Thread/bsp/board.c **** // whenever the core clock is changed during program execution.
  27:RT-Thread/bsp/board.c **** extern void SystemCoreClockUpdate(void);
  28:RT-Thread/bsp/board.c **** 
  29:RT-Thread/bsp/board.c **** // Holds the system core clock, which is the system clock 
  30:RT-Thread/bsp/board.c **** // frequency supplied to the SysTick timer and the processor 
  31:RT-Thread/bsp/board.c **** // core clock.
  32:RT-Thread/bsp/board.c **** extern uint32_t SystemCoreClock;
ARM GAS  C:\Users\yzy\AppData\Local\Temp\ccsak043.s 			page 2


  33:RT-Thread/bsp/board.c **** 
  34:RT-Thread/bsp/board.c **** static uint32_t _SysTick_Config(rt_uint32_t ticks)
  35:RT-Thread/bsp/board.c **** {
  27              		.loc 1 35 1 view -0
  28              		.cfi_startproc
  29              		@ args = 0, pretend = 0, frame = 0
  30              		@ frame_needed = 0, uses_anonymous_args = 0
  31              		@ link register save eliminated.
  36:RT-Thread/bsp/board.c ****     if ((ticks - 1) > 0xFFFFFF)
  32              		.loc 1 36 5 view .LVU1
  33              		.loc 1 36 16 is_stmt 0 view .LVU2
  34 0000 0138     		subs	r0, r0, #1
  35              	.LVL1:
  36              		.loc 1 36 8 view .LVU3
  37 0002 B0F1807F 		cmp	r0, #16777216
  38 0006 0DD2     		bcs	.L3
  37:RT-Thread/bsp/board.c ****     {
  38:RT-Thread/bsp/board.c ****         return 1;
  39:RT-Thread/bsp/board.c ****     }
  40:RT-Thread/bsp/board.c ****     
  41:RT-Thread/bsp/board.c ****     _SYSTICK_LOAD = ticks - 1; 
  39              		.loc 1 41 5 is_stmt 1 view .LVU4
  40              		.loc 1 41 19 is_stmt 0 view .LVU5
  41 0008 074B     		ldr	r3, .L4
  42 000a 1860     		str	r0, [r3]
  42:RT-Thread/bsp/board.c ****     _SYSTICK_PRI = 0xFF;
  43              		.loc 1 42 5 is_stmt 1 view .LVU6
  44              		.loc 1 42 18 is_stmt 0 view .LVU7
  45 000c 03F60F53 		addw	r3, r3, #3343
  46 0010 FF22     		movs	r2, #255
  47 0012 1A70     		strb	r2, [r3]
  43:RT-Thread/bsp/board.c ****     _SYSTICK_VAL  = 0;
  48              		.loc 1 43 5 is_stmt 1 view .LVU8
  49              		.loc 1 43 19 is_stmt 0 view .LVU9
  50 0014 0020     		movs	r0, #0
  51              	.LVL2:
  52              		.loc 1 43 19 view .LVU10
  53 0016 A3F60B53 		subw	r3, r3, #3339
  54 001a 1860     		str	r0, [r3]
  44:RT-Thread/bsp/board.c ****     _SYSTICK_CTRL = 0x07;  
  55              		.loc 1 44 5 is_stmt 1 view .LVU11
  56              		.loc 1 44 19 is_stmt 0 view .LVU12
  57 001c 083B     		subs	r3, r3, #8
  58 001e 0722     		movs	r2, #7
  59 0020 1A60     		str	r2, [r3]
  45:RT-Thread/bsp/board.c ****     
  46:RT-Thread/bsp/board.c ****     return 0;
  60              		.loc 1 46 5 is_stmt 1 view .LVU13
  61              		.loc 1 46 12 is_stmt 0 view .LVU14
  62 0022 7047     		bx	lr
  63              	.LVL3:
  64              	.L3:
  38:RT-Thread/bsp/board.c ****     }
  65              		.loc 1 38 16 view .LVU15
  66 0024 0120     		movs	r0, #1
  67              	.LVL4:
  47:RT-Thread/bsp/board.c **** }
ARM GAS  C:\Users\yzy\AppData\Local\Temp\ccsak043.s 			page 3


  68              		.loc 1 47 1 view .LVU16
  69 0026 7047     		bx	lr
  70              	.L5:
  71              		.align	2
  72              	.L4:
  73 0028 14E000E0 		.word	-536813548
  74              		.cfi_endproc
  75              	.LFE145:
  77              		.section	.text.rt_heap_begin_get,"ax",%progbits
  78              		.align	1
  79              		.weak	rt_heap_begin_get
  80              		.syntax unified
  81              		.thumb
  82              		.thumb_func
  83              		.fpu softvfp
  85              	rt_heap_begin_get:
  86              	.LFB146:
  48:RT-Thread/bsp/board.c **** 
  49:RT-Thread/bsp/board.c **** #if defined(RT_USING_USER_MAIN) && defined(RT_USING_HEAP)
  50:RT-Thread/bsp/board.c **** #define RT_HEAP_SIZE 10240
  51:RT-Thread/bsp/board.c **** static uint32_t rt_heap[RT_HEAP_SIZE];     // heap default size: 4K(1024 * 4)
  52:RT-Thread/bsp/board.c **** RT_WEAK void *rt_heap_begin_get(void)
  53:RT-Thread/bsp/board.c **** {
  87              		.loc 1 53 1 is_stmt 1 view -0
  88              		.cfi_startproc
  89              		@ args = 0, pretend = 0, frame = 0
  90              		@ frame_needed = 0, uses_anonymous_args = 0
  91              		@ link register save eliminated.
  54:RT-Thread/bsp/board.c ****     return rt_heap;
  92              		.loc 1 54 5 view .LVU18
  55:RT-Thread/bsp/board.c **** }
  93              		.loc 1 55 1 is_stmt 0 view .LVU19
  94 0000 0048     		ldr	r0, .L7
  95 0002 7047     		bx	lr
  96              	.L8:
  97              		.align	2
  98              	.L7:
  99 0004 00000000 		.word	rt_heap
 100              		.cfi_endproc
 101              	.LFE146:
 103              		.section	.text.rt_heap_end_get,"ax",%progbits
 104              		.align	1
 105              		.weak	rt_heap_end_get
 106              		.syntax unified
 107              		.thumb
 108              		.thumb_func
 109              		.fpu softvfp
 111              	rt_heap_end_get:
 112              	.LFB147:
  56:RT-Thread/bsp/board.c **** 
  57:RT-Thread/bsp/board.c **** RT_WEAK void *rt_heap_end_get(void)
  58:RT-Thread/bsp/board.c **** {
 113              		.loc 1 58 1 is_stmt 1 view -0
 114              		.cfi_startproc
 115              		@ args = 0, pretend = 0, frame = 0
 116              		@ frame_needed = 0, uses_anonymous_args = 0
 117              		@ link register save eliminated.
ARM GAS  C:\Users\yzy\AppData\Local\Temp\ccsak043.s 			page 4


  59:RT-Thread/bsp/board.c ****     return rt_heap + RT_HEAP_SIZE;
 118              		.loc 1 59 5 view .LVU21
  60:RT-Thread/bsp/board.c **** }
 119              		.loc 1 60 1 is_stmt 0 view .LVU22
 120 0000 0048     		ldr	r0, .L10
 121 0002 7047     		bx	lr
 122              	.L11:
 123              		.align	2
 124              	.L10:
 125 0004 00A00000 		.word	rt_heap+40960
 126              		.cfi_endproc
 127              	.LFE147:
 129              		.section	.text.rt_hw_board_init,"ax",%progbits
 130              		.align	1
 131              		.global	rt_hw_board_init
 132              		.syntax unified
 133              		.thumb
 134              		.thumb_func
 135              		.fpu softvfp
 137              	rt_hw_board_init:
 138              	.LFB148:
  61:RT-Thread/bsp/board.c **** #endif
  62:RT-Thread/bsp/board.c **** 
  63:RT-Thread/bsp/board.c **** /**
  64:RT-Thread/bsp/board.c ****  * This function will initial your board.
  65:RT-Thread/bsp/board.c ****  */
  66:RT-Thread/bsp/board.c **** void rt_hw_board_init()
  67:RT-Thread/bsp/board.c **** {
 139              		.loc 1 67 1 is_stmt 1 view -0
 140              		.cfi_startproc
 141              		@ args = 0, pretend = 0, frame = 0
 142              		@ frame_needed = 0, uses_anonymous_args = 0
 143 0000 10B5     		push	{r4, lr}
 144              	.LCFI0:
 145              		.cfi_def_cfa_offset 8
 146              		.cfi_offset 4, -8
 147              		.cfi_offset 14, -4
  68:RT-Thread/bsp/board.c ****     /* System Clock Update */
  69:RT-Thread/bsp/board.c ****     HAL_Init();
 148              		.loc 1 69 5 view .LVU24
 149 0002 FFF7FEFF 		bl	HAL_Init
 150              	.LVL5:
  70:RT-Thread/bsp/board.c ****     SystemCoreClockUpdate(); 
 151              		.loc 1 70 5 view .LVU25
 152 0006 FFF7FEFF 		bl	SystemCoreClockUpdate
 153              	.LVL6:
  71:RT-Thread/bsp/board.c ****     SystemClock_Config();
 154              		.loc 1 71 5 view .LVU26
 155 000a FFF7FEFF 		bl	SystemClock_Config
 156              	.LVL7:
  72:RT-Thread/bsp/board.c ****     /* System Tick Configuration */
  73:RT-Thread/bsp/board.c ****     _SysTick_Config(SystemCoreClock / RT_TICK_PER_SECOND);
 157              		.loc 1 73 5 view .LVU27
 158 000e 0C4B     		ldr	r3, .L14
 159 0010 1868     		ldr	r0, [r3]
 160 0012 0C4B     		ldr	r3, .L14+4
 161 0014 A3FB0030 		umull	r3, r0, r3, r0
ARM GAS  C:\Users\yzy\AppData\Local\Temp\ccsak043.s 			page 5


 162 0018 8009     		lsrs	r0, r0, #6
 163 001a FFF7FEFF 		bl	_SysTick_Config
 164              	.LVL8:
  74:RT-Thread/bsp/board.c ****     bsp_uart1_init(115200);
 165              		.loc 1 74 5 view .LVU28
 166 001e 4FF4E130 		mov	r0, #115200
 167 0022 FFF7FEFF 		bl	bsp_uart1_init
 168              	.LVL9:
  75:RT-Thread/bsp/board.c **** 
  76:RT-Thread/bsp/board.c **** 
  77:RT-Thread/bsp/board.c ****     /* Call components board initial (use INIT_BOARD_EXPORT()) */
  78:RT-Thread/bsp/board.c **** #ifdef RT_USING_COMPONENTS_INIT
  79:RT-Thread/bsp/board.c ****     rt_components_board_init();
 169              		.loc 1 79 5 view .LVU29
 170 0026 FFF7FEFF 		bl	rt_components_board_init
 171              	.LVL10:
  80:RT-Thread/bsp/board.c **** #endif
  81:RT-Thread/bsp/board.c **** 
  82:RT-Thread/bsp/board.c **** #if defined(RT_USING_USER_MAIN) && defined(RT_USING_HEAP)
  83:RT-Thread/bsp/board.c ****     rt_system_heap_init(rt_heap_begin_get(), rt_heap_end_get());
 172              		.loc 1 83 5 view .LVU30
 173 002a FFF7FEFF 		bl	rt_heap_begin_get
 174              	.LVL11:
 175 002e 0446     		mov	r4, r0
 176 0030 FFF7FEFF 		bl	rt_heap_end_get
 177              	.LVL12:
 178 0034 0146     		mov	r1, r0
 179 0036 2046     		mov	r0, r4
 180 0038 FFF7FEFF 		bl	rt_system_heap_init
 181              	.LVL13:
  84:RT-Thread/bsp/board.c **** #endif
  85:RT-Thread/bsp/board.c **** 
  86:RT-Thread/bsp/board.c **** 
  87:RT-Thread/bsp/board.c **** }
 182              		.loc 1 87 1 is_stmt 0 view .LVU31
 183 003c 10BD     		pop	{r4, pc}
 184              	.L15:
 185 003e 00BF     		.align	2
 186              	.L14:
 187 0040 00000000 		.word	SystemCoreClock
 188 0044 D34D6210 		.word	274877907
 189              		.cfi_endproc
 190              	.LFE148:
 192              		.section	.text.SysTick_Handler,"ax",%progbits
 193              		.align	1
 194              		.global	SysTick_Handler
 195              		.syntax unified
 196              		.thumb
 197              		.thumb_func
 198              		.fpu softvfp
 200              	SysTick_Handler:
 201              	.LFB149:
  88:RT-Thread/bsp/board.c **** 
  89:RT-Thread/bsp/board.c **** void SysTick_Handler(void)
  90:RT-Thread/bsp/board.c **** {
 202              		.loc 1 90 1 is_stmt 1 view -0
 203              		.cfi_startproc
ARM GAS  C:\Users\yzy\AppData\Local\Temp\ccsak043.s 			page 6


 204              		@ args = 0, pretend = 0, frame = 0
 205              		@ frame_needed = 0, uses_anonymous_args = 0
 206 0000 08B5     		push	{r3, lr}
 207              	.LCFI1:
 208              		.cfi_def_cfa_offset 8
 209              		.cfi_offset 3, -8
 210              		.cfi_offset 14, -4
  91:RT-Thread/bsp/board.c ****     /* enter interrupt */
  92:RT-Thread/bsp/board.c ****     rt_interrupt_enter();
 211              		.loc 1 92 5 view .LVU33
 212 0002 FFF7FEFF 		bl	rt_interrupt_enter
 213              	.LVL14:
  93:RT-Thread/bsp/board.c **** 
  94:RT-Thread/bsp/board.c ****     rt_tick_increase();
 214              		.loc 1 94 5 view .LVU34
 215 0006 FFF7FEFF 		bl	rt_tick_increase
 216              	.LVL15:
  95:RT-Thread/bsp/board.c **** 
  96:RT-Thread/bsp/board.c ****     /* leave interrupt */
  97:RT-Thread/bsp/board.c ****     rt_interrupt_leave();
 217              		.loc 1 97 5 view .LVU35
 218 000a FFF7FEFF 		bl	rt_interrupt_leave
 219              	.LVL16:
  98:RT-Thread/bsp/board.c **** }
 220              		.loc 1 98 1 is_stmt 0 view .LVU36
 221 000e 08BD     		pop	{r3, pc}
 222              		.cfi_endproc
 223              	.LFE149:
 225              		.section	.bss.rt_heap,"aw",%nobits
 226              		.align	2
 229              	rt_heap:
 230 0000 00000000 		.space	40960
 230      00000000 
 230      00000000 
 230      00000000 
 230      00000000 
 231              		.text
 232              	.Letext0:
 233              		.file 2 "c:\\program files (x86)\\gnu arm embedded toolchain\\2020-q2-update\\arm-none-eabi\\inclu
 234              		.file 3 "c:\\program files (x86)\\gnu arm embedded toolchain\\2020-q2-update\\arm-none-eabi\\inclu
 235              		.file 4 "RT-Thread/include/rtdef.h"
 236              		.file 5 "Libraries/CMSIS/Include/core_cm4.h"
 237              		.file 6 "Libraries/CMSIS/Device/ST/STM32F4xx/Include/system_stm32f4xx.h"
 238              		.file 7 "Libraries/STM32F4xx_HAL_Driver/Inc/stm32f4xx_hal.h"
 239              		.file 8 "RT-Thread/include/rtthread.h"
 240              		.file 9 "Applications/include/main.h"
 241              		.file 10 "derivers/uart1/bsp_uart1.h"
ARM GAS  C:\Users\yzy\AppData\Local\Temp\ccsak043.s 			page 7

