ARM GAS  C:\Users\yzy\AppData\Local\Temp\ccetZuP3.s 			page 1


   1              		.cpu cortex-m4
   2              		.eabi_attribute 20, 1
   3              		.eabi_attribute 21, 1
   4              		.eabi_attribute 23, 3
   5              		.eabi_attribute 24, 1
   6              		.eabi_attribute 25, 1
   7              		.eabi_attribute 26, 1
   8              		.eabi_attribute 30, 1
   9              		.eabi_attribute 34, 1
  10              		.eabi_attribute 18, 4
  11              		.file	"bsp_uart1.c"
  12              		.text
  13              	.Ltext0:
  14              		.cfi_sections	.debug_frame
  15              		.section	.text.bsp_uart1_init,"ax",%progbits
  16              		.align	1
  17              		.global	bsp_uart1_init
  18              		.arch armv7e-m
  19              		.syntax unified
  20              		.thumb
  21              		.thumb_func
  22              		.fpu softvfp
  24              	bsp_uart1_init:
  25              	.LVL0:
  26              	.LFB145:
  27              		.file 1 "derivers/uart1/bsp_uart1.c"
   1:derivers/uart1/bsp_uart1.c **** /*
   2:derivers/uart1/bsp_uart1.c ****  * @Author: your name
   3:derivers/uart1/bsp_uart1.c ****  * @Date: 2020-10-15 16:02:27
   4:derivers/uart1/bsp_uart1.c ****  * @LastEditTime: 2020-10-15 17:38:40
   5:derivers/uart1/bsp_uart1.c ****  * @LastEditors: Please set LastEditors
   6:derivers/uart1/bsp_uart1.c ****  * @Description: In User Settings Edit
   7:derivers/uart1/bsp_uart1.c ****  * @FilePath: \F407_RT_HAL\derivers\uart1\bsp_uart1.c
   8:derivers/uart1/bsp_uart1.c ****  */
   9:derivers/uart1/bsp_uart1.c **** 
  10:derivers/uart1/bsp_uart1.c **** #include "bsp_uart1.h"
  11:derivers/uart1/bsp_uart1.c **** #include "rtthread.h"
  12:derivers/uart1/bsp_uart1.c **** 
  13:derivers/uart1/bsp_uart1.c **** USART_HandleTypeDef uart1_handler = {0};
  14:derivers/uart1/bsp_uart1.c **** 
  15:derivers/uart1/bsp_uart1.c **** void bsp_uart1_init(uint32_t BaudRate)
  16:derivers/uart1/bsp_uart1.c **** {
  28              		.loc 1 16 1 view -0
  29              		.cfi_startproc
  30              		@ args = 0, pretend = 0, frame = 0
  31              		@ frame_needed = 0, uses_anonymous_args = 0
  32              		.loc 1 16 1 is_stmt 0 view .LVU1
  33 0000 08B5     		push	{r3, lr}
  34              	.LCFI0:
  35              		.cfi_def_cfa_offset 8
  36              		.cfi_offset 3, -8
  37              		.cfi_offset 14, -4
  17:derivers/uart1/bsp_uart1.c ****     uart1_handler.Instance = USART1;
  38              		.loc 1 17 5 is_stmt 1 view .LVU2
  39              		.loc 1 17 28 is_stmt 0 view .LVU3
  40 0002 074B     		ldr	r3, .L3
  41 0004 074A     		ldr	r2, .L3+4
ARM GAS  C:\Users\yzy\AppData\Local\Temp\ccetZuP3.s 			page 2


  42 0006 1A60     		str	r2, [r3]
  18:derivers/uart1/bsp_uart1.c ****     uart1_handler.Init.BaudRate = BaudRate;
  43              		.loc 1 18 5 is_stmt 1 view .LVU4
  44              		.loc 1 18 33 is_stmt 0 view .LVU5
  45 0008 5860     		str	r0, [r3, #4]
  19:derivers/uart1/bsp_uart1.c ****     uart1_handler.Init.Mode = USART_MODE_TX_RX;
  46              		.loc 1 19 5 is_stmt 1 view .LVU6
  47              		.loc 1 19 29 is_stmt 0 view .LVU7
  48 000a 0C22     		movs	r2, #12
  49 000c 5A61     		str	r2, [r3, #20]
  20:derivers/uart1/bsp_uart1.c ****     uart1_handler.Init.Parity = USART_PARITY_NONE;
  50              		.loc 1 20 5 is_stmt 1 view .LVU8
  51              		.loc 1 20 31 is_stmt 0 view .LVU9
  52 000e 0022     		movs	r2, #0
  53 0010 1A61     		str	r2, [r3, #16]
  21:derivers/uart1/bsp_uart1.c ****     uart1_handler.Init.WordLength = USART_WORDLENGTH_8B;
  54              		.loc 1 21 5 is_stmt 1 view .LVU10
  55              		.loc 1 21 35 is_stmt 0 view .LVU11
  56 0012 9A60     		str	r2, [r3, #8]
  22:derivers/uart1/bsp_uart1.c ****     uart1_handler.Init.StopBits = USART_STOPBITS_1;
  57              		.loc 1 22 5 is_stmt 1 view .LVU12
  58              		.loc 1 22 33 is_stmt 0 view .LVU13
  59 0014 DA60     		str	r2, [r3, #12]
  23:derivers/uart1/bsp_uart1.c **** 
  24:derivers/uart1/bsp_uart1.c ****     HAL_USART_Init(&uart1_handler);
  60              		.loc 1 24 5 is_stmt 1 view .LVU14
  61 0016 1846     		mov	r0, r3
  62              	.LVL1:
  63              		.loc 1 24 5 is_stmt 0 view .LVU15
  64 0018 FFF7FEFF 		bl	HAL_USART_Init
  65              	.LVL2:
  25:derivers/uart1/bsp_uart1.c **** }
  66              		.loc 1 25 1 view .LVU16
  67 001c 08BD     		pop	{r3, pc}
  68              	.L4:
  69 001e 00BF     		.align	2
  70              	.L3:
  71 0020 00000000 		.word	.LANCHOR0
  72 0024 00100140 		.word	1073811456
  73              		.cfi_endproc
  74              	.LFE145:
  76              		.section	.text.HAL_UART_MspInit,"ax",%progbits
  77              		.align	1
  78              		.global	HAL_UART_MspInit
  79              		.syntax unified
  80              		.thumb
  81              		.thumb_func
  82              		.fpu softvfp
  84              	HAL_UART_MspInit:
  85              	.LVL3:
  86              	.LFB146:
  26:derivers/uart1/bsp_uart1.c **** 
  27:derivers/uart1/bsp_uart1.c **** void HAL_UART_MspInit(UART_HandleTypeDef *huart)
  28:derivers/uart1/bsp_uart1.c **** {
  87              		.loc 1 28 1 is_stmt 1 view -0
  88              		.cfi_startproc
  89              		@ args = 0, pretend = 0, frame = 32
ARM GAS  C:\Users\yzy\AppData\Local\Temp\ccetZuP3.s 			page 3


  90              		@ frame_needed = 0, uses_anonymous_args = 0
  91              		.loc 1 28 1 is_stmt 0 view .LVU18
  92 0000 F0B5     		push	{r4, r5, r6, r7, lr}
  93              	.LCFI1:
  94              		.cfi_def_cfa_offset 20
  95              		.cfi_offset 4, -20
  96              		.cfi_offset 5, -16
  97              		.cfi_offset 6, -12
  98              		.cfi_offset 7, -8
  99              		.cfi_offset 14, -4
 100 0002 89B0     		sub	sp, sp, #36
 101              	.LCFI2:
 102              		.cfi_def_cfa_offset 56
  29:derivers/uart1/bsp_uart1.c ****     GPIO_InitTypeDef GPIO_InitStruct = {0};
 103              		.loc 1 29 5 is_stmt 1 view .LVU19
 104              		.loc 1 29 22 is_stmt 0 view .LVU20
 105 0004 0023     		movs	r3, #0
 106 0006 0393     		str	r3, [sp, #12]
 107 0008 0493     		str	r3, [sp, #16]
 108 000a 0593     		str	r3, [sp, #20]
 109 000c 0693     		str	r3, [sp, #24]
 110 000e 0793     		str	r3, [sp, #28]
  30:derivers/uart1/bsp_uart1.c **** 
  31:derivers/uart1/bsp_uart1.c ****     if(huart->Instance == USART1) {
 111              		.loc 1 31 5 is_stmt 1 view .LVU21
 112              		.loc 1 31 13 is_stmt 0 view .LVU22
 113 0010 0268     		ldr	r2, [r0]
 114              		.loc 1 31 7 view .LVU23
 115 0012 03F18043 		add	r3, r3, #1073741824
 116 0016 03F58833 		add	r3, r3, #69632
 117 001a 9A42     		cmp	r2, r3
 118 001c 01D0     		beq	.L8
 119              	.LVL4:
 120              	.L5:
  32:derivers/uart1/bsp_uart1.c ****         __HAL_RCC_GPIOA_CLK_ENABLE();
  33:derivers/uart1/bsp_uart1.c ****         __HAL_RCC_USART1_CLK_ENABLE();
  34:derivers/uart1/bsp_uart1.c ****         //__HAL_RCC_SYSCFG_CLK_ENABLE();
  35:derivers/uart1/bsp_uart1.c **** 
  36:derivers/uart1/bsp_uart1.c **** 
  37:derivers/uart1/bsp_uart1.c ****         GPIO_InitStruct.Pin = GPIO_PIN_9;
  38:derivers/uart1/bsp_uart1.c ****         GPIO_InitStruct.Mode = GPIO_MODE_AF_PP;
  39:derivers/uart1/bsp_uart1.c ****         GPIO_InitStruct.Speed = GPIO_SPEED_FREQ_HIGH;
  40:derivers/uart1/bsp_uart1.c ****         GPIO_InitStruct.Pull = GPIO_PULLUP;
  41:derivers/uart1/bsp_uart1.c ****         HAL_GPIO_Init(GPIOA, &GPIO_InitStruct);
  42:derivers/uart1/bsp_uart1.c **** 
  43:derivers/uart1/bsp_uart1.c ****         GPIO_InitStruct.Pin = GPIO_PIN_10;
  44:derivers/uart1/bsp_uart1.c ****         GPIO_InitStruct.Mode = GPIO_MODE_INPUT;
  45:derivers/uart1/bsp_uart1.c ****         GPIO_InitStruct.Speed = GPIO_SPEED_FREQ_HIGH;
  46:derivers/uart1/bsp_uart1.c ****         GPIO_InitStruct.Pull = GPIO_PULLUP;
  47:derivers/uart1/bsp_uart1.c ****         HAL_GPIO_Init(GPIOA, &GPIO_InitStruct);
  48:derivers/uart1/bsp_uart1.c ****     }
  49:derivers/uart1/bsp_uart1.c **** 
  50:derivers/uart1/bsp_uart1.c **** 
  51:derivers/uart1/bsp_uart1.c **** 
  52:derivers/uart1/bsp_uart1.c **** }
 121              		.loc 1 52 1 view .LVU24
 122 001e 09B0     		add	sp, sp, #36
ARM GAS  C:\Users\yzy\AppData\Local\Temp\ccetZuP3.s 			page 4


 123              	.LCFI3:
 124              		.cfi_remember_state
 125              		.cfi_def_cfa_offset 20
 126              		@ sp needed
 127 0020 F0BD     		pop	{r4, r5, r6, r7, pc}
 128              	.LVL5:
 129              	.L8:
 130              	.LCFI4:
 131              		.cfi_restore_state
  32:derivers/uart1/bsp_uart1.c ****         __HAL_RCC_GPIOA_CLK_ENABLE();
 132              		.loc 1 32 9 is_stmt 1 view .LVU25
 133              	.LBB2:
  32:derivers/uart1/bsp_uart1.c ****         __HAL_RCC_GPIOA_CLK_ENABLE();
 134              		.loc 1 32 9 view .LVU26
 135 0022 0025     		movs	r5, #0
 136 0024 0195     		str	r5, [sp, #4]
  32:derivers/uart1/bsp_uart1.c ****         __HAL_RCC_GPIOA_CLK_ENABLE();
 137              		.loc 1 32 9 view .LVU27
 138 0026 03F59433 		add	r3, r3, #75776
 139 002a 1A6B     		ldr	r2, [r3, #48]
 140 002c 42F00102 		orr	r2, r2, #1
 141 0030 1A63     		str	r2, [r3, #48]
  32:derivers/uart1/bsp_uart1.c ****         __HAL_RCC_GPIOA_CLK_ENABLE();
 142              		.loc 1 32 9 view .LVU28
 143 0032 1A6B     		ldr	r2, [r3, #48]
 144 0034 02F00102 		and	r2, r2, #1
 145 0038 0192     		str	r2, [sp, #4]
  32:derivers/uart1/bsp_uart1.c ****         __HAL_RCC_GPIOA_CLK_ENABLE();
 146              		.loc 1 32 9 view .LVU29
 147 003a 019A     		ldr	r2, [sp, #4]
 148              	.LBE2:
  32:derivers/uart1/bsp_uart1.c ****         __HAL_RCC_GPIOA_CLK_ENABLE();
 149              		.loc 1 32 9 view .LVU30
  33:derivers/uart1/bsp_uart1.c ****         //__HAL_RCC_SYSCFG_CLK_ENABLE();
 150              		.loc 1 33 9 view .LVU31
 151              	.LBB3:
  33:derivers/uart1/bsp_uart1.c ****         //__HAL_RCC_SYSCFG_CLK_ENABLE();
 152              		.loc 1 33 9 view .LVU32
 153 003c 0295     		str	r5, [sp, #8]
  33:derivers/uart1/bsp_uart1.c ****         //__HAL_RCC_SYSCFG_CLK_ENABLE();
 154              		.loc 1 33 9 view .LVU33
 155 003e 5A6C     		ldr	r2, [r3, #68]
 156 0040 42F01002 		orr	r2, r2, #16
 157 0044 5A64     		str	r2, [r3, #68]
  33:derivers/uart1/bsp_uart1.c ****         //__HAL_RCC_SYSCFG_CLK_ENABLE();
 158              		.loc 1 33 9 view .LVU34
 159 0046 5B6C     		ldr	r3, [r3, #68]
 160 0048 03F01003 		and	r3, r3, #16
 161 004c 0293     		str	r3, [sp, #8]
  33:derivers/uart1/bsp_uart1.c ****         //__HAL_RCC_SYSCFG_CLK_ENABLE();
 162              		.loc 1 33 9 view .LVU35
 163 004e 029B     		ldr	r3, [sp, #8]
 164              	.LBE3:
  33:derivers/uart1/bsp_uart1.c ****         //__HAL_RCC_SYSCFG_CLK_ENABLE();
 165              		.loc 1 33 9 view .LVU36
  37:derivers/uart1/bsp_uart1.c ****         GPIO_InitStruct.Mode = GPIO_MODE_AF_PP;
 166              		.loc 1 37 9 view .LVU37
ARM GAS  C:\Users\yzy\AppData\Local\Temp\ccetZuP3.s 			page 5


  37:derivers/uart1/bsp_uart1.c ****         GPIO_InitStruct.Mode = GPIO_MODE_AF_PP;
 167              		.loc 1 37 29 is_stmt 0 view .LVU38
 168 0050 4FF40073 		mov	r3, #512
 169 0054 0393     		str	r3, [sp, #12]
  38:derivers/uart1/bsp_uart1.c ****         GPIO_InitStruct.Speed = GPIO_SPEED_FREQ_HIGH;
 170              		.loc 1 38 9 is_stmt 1 view .LVU39
  38:derivers/uart1/bsp_uart1.c ****         GPIO_InitStruct.Speed = GPIO_SPEED_FREQ_HIGH;
 171              		.loc 1 38 30 is_stmt 0 view .LVU40
 172 0056 0224     		movs	r4, #2
 173 0058 0494     		str	r4, [sp, #16]
  39:derivers/uart1/bsp_uart1.c ****         GPIO_InitStruct.Pull = GPIO_PULLUP;
 174              		.loc 1 39 9 is_stmt 1 view .LVU41
  39:derivers/uart1/bsp_uart1.c ****         GPIO_InitStruct.Pull = GPIO_PULLUP;
 175              		.loc 1 39 31 is_stmt 0 view .LVU42
 176 005a 0694     		str	r4, [sp, #24]
  40:derivers/uart1/bsp_uart1.c ****         HAL_GPIO_Init(GPIOA, &GPIO_InitStruct);
 177              		.loc 1 40 9 is_stmt 1 view .LVU43
  40:derivers/uart1/bsp_uart1.c ****         HAL_GPIO_Init(GPIOA, &GPIO_InitStruct);
 178              		.loc 1 40 30 is_stmt 0 view .LVU44
 179 005c 0127     		movs	r7, #1
 180 005e 0597     		str	r7, [sp, #20]
  41:derivers/uart1/bsp_uart1.c **** 
 181              		.loc 1 41 9 is_stmt 1 view .LVU45
 182 0060 074E     		ldr	r6, .L9
 183 0062 03A9     		add	r1, sp, #12
 184 0064 3046     		mov	r0, r6
 185              	.LVL6:
  41:derivers/uart1/bsp_uart1.c **** 
 186              		.loc 1 41 9 is_stmt 0 view .LVU46
 187 0066 FFF7FEFF 		bl	HAL_GPIO_Init
 188              	.LVL7:
  43:derivers/uart1/bsp_uart1.c ****         GPIO_InitStruct.Mode = GPIO_MODE_INPUT;
 189              		.loc 1 43 9 is_stmt 1 view .LVU47
  43:derivers/uart1/bsp_uart1.c ****         GPIO_InitStruct.Mode = GPIO_MODE_INPUT;
 190              		.loc 1 43 29 is_stmt 0 view .LVU48
 191 006a 4FF48063 		mov	r3, #1024
 192 006e 0393     		str	r3, [sp, #12]
  44:derivers/uart1/bsp_uart1.c ****         GPIO_InitStruct.Speed = GPIO_SPEED_FREQ_HIGH;
 193              		.loc 1 44 9 is_stmt 1 view .LVU49
  44:derivers/uart1/bsp_uart1.c ****         GPIO_InitStruct.Speed = GPIO_SPEED_FREQ_HIGH;
 194              		.loc 1 44 30 is_stmt 0 view .LVU50
 195 0070 0495     		str	r5, [sp, #16]
  45:derivers/uart1/bsp_uart1.c ****         GPIO_InitStruct.Pull = GPIO_PULLUP;
 196              		.loc 1 45 9 is_stmt 1 view .LVU51
  45:derivers/uart1/bsp_uart1.c ****         GPIO_InitStruct.Pull = GPIO_PULLUP;
 197              		.loc 1 45 31 is_stmt 0 view .LVU52
 198 0072 0694     		str	r4, [sp, #24]
  46:derivers/uart1/bsp_uart1.c ****         HAL_GPIO_Init(GPIOA, &GPIO_InitStruct);
 199              		.loc 1 46 9 is_stmt 1 view .LVU53
  46:derivers/uart1/bsp_uart1.c ****         HAL_GPIO_Init(GPIOA, &GPIO_InitStruct);
 200              		.loc 1 46 30 is_stmt 0 view .LVU54
 201 0074 0597     		str	r7, [sp, #20]
  47:derivers/uart1/bsp_uart1.c ****     }
 202              		.loc 1 47 9 is_stmt 1 view .LVU55
 203 0076 03A9     		add	r1, sp, #12
 204 0078 3046     		mov	r0, r6
 205 007a FFF7FEFF 		bl	HAL_GPIO_Init
ARM GAS  C:\Users\yzy\AppData\Local\Temp\ccetZuP3.s 			page 6


 206              	.LVL8:
 207              		.loc 1 52 1 is_stmt 0 view .LVU56
 208 007e CEE7     		b	.L5
 209              	.L10:
 210              		.align	2
 211              	.L9:
 212 0080 00000240 		.word	1073872896
 213              		.cfi_endproc
 214              	.LFE146:
 216              		.section	.text.rt_hw_console_output,"ax",%progbits
 217              		.align	1
 218              		.global	rt_hw_console_output
 219              		.syntax unified
 220              		.thumb
 221              		.thumb_func
 222              		.fpu softvfp
 224              	rt_hw_console_output:
 225              	.LVL9:
 226              	.LFB147:
  53:derivers/uart1/bsp_uart1.c **** 
  54:derivers/uart1/bsp_uart1.c **** 
  55:derivers/uart1/bsp_uart1.c **** void rt_hw_console_output(const char *str)
  56:derivers/uart1/bsp_uart1.c **** {
 227              		.loc 1 56 1 is_stmt 1 view -0
 228              		.cfi_startproc
 229              		@ args = 0, pretend = 0, frame = 8
 230              		@ frame_needed = 0, uses_anonymous_args = 0
 231              		.loc 1 56 1 is_stmt 0 view .LVU58
 232 0000 F0B5     		push	{r4, r5, r6, r7, lr}
 233              	.LCFI5:
 234              		.cfi_def_cfa_offset 20
 235              		.cfi_offset 4, -20
 236              		.cfi_offset 5, -16
 237              		.cfi_offset 6, -12
 238              		.cfi_offset 7, -8
 239              		.cfi_offset 14, -4
 240 0002 83B0     		sub	sp, sp, #12
 241              	.LCFI6:
 242              		.cfi_def_cfa_offset 32
 243 0004 0546     		mov	r5, r0
  57:derivers/uart1/bsp_uart1.c ****     rt_size_t i = 0, size = 0;
 244              		.loc 1 57 5 is_stmt 1 view .LVU59
 245              	.LVL10:
  58:derivers/uart1/bsp_uart1.c ****     char a = '\r';
 246              		.loc 1 58 5 view .LVU60
 247              		.loc 1 58 10 is_stmt 0 view .LVU61
 248 0006 0D23     		movs	r3, #13
 249 0008 8DF80730 		strb	r3, [sp, #7]
  59:derivers/uart1/bsp_uart1.c **** 
  60:derivers/uart1/bsp_uart1.c ****     size = rt_strlen(str);
 250              		.loc 1 60 5 is_stmt 1 view .LVU62
 251              		.loc 1 60 12 is_stmt 0 view .LVU63
 252 000c FFF7FEFF 		bl	rt_strlen
 253              	.LVL11:
 254              		.loc 1 60 12 view .LVU64
 255 0010 0746     		mov	r7, r0
 256              	.LVL12:
ARM GAS  C:\Users\yzy\AppData\Local\Temp\ccetZuP3.s 			page 7


  61:derivers/uart1/bsp_uart1.c ****     for (i = 0; i < size; i++)
 257              		.loc 1 61 5 is_stmt 1 view .LVU65
 258              		.loc 1 61 12 is_stmt 0 view .LVU66
 259 0012 0024     		movs	r4, #0
 260              		.loc 1 61 5 view .LVU67
 261 0014 0DE0     		b	.L12
 262              	.LVL13:
 263              	.L17:
  62:derivers/uart1/bsp_uart1.c ****     {
  63:derivers/uart1/bsp_uart1.c ****         if (*(str + i) == '\n')
  64:derivers/uart1/bsp_uart1.c ****         {
  65:derivers/uart1/bsp_uart1.c ****             HAL_UART_Transmit(&uart1_handler, (uint8_t *)&a, 1, 1);
 264              		.loc 1 65 13 is_stmt 1 view .LVU68
 265 0016 0123     		movs	r3, #1
 266 0018 1A46     		mov	r2, r3
 267 001a 0DF10701 		add	r1, sp, #7
 268 001e 0948     		ldr	r0, .L18
 269 0020 FFF7FEFF 		bl	HAL_UART_Transmit
 270              	.LVL14:
 271              	.L13:
  66:derivers/uart1/bsp_uart1.c ****         }
  67:derivers/uart1/bsp_uart1.c ****         HAL_UART_Transmit(&uart1_handler, (uint8_t *)(str + i), 1, 1);
 272              		.loc 1 67 9 discriminator 2 view .LVU69
 273 0024 0123     		movs	r3, #1
 274 0026 1A46     		mov	r2, r3
 275 0028 3146     		mov	r1, r6
 276 002a 0648     		ldr	r0, .L18
 277 002c FFF7FEFF 		bl	HAL_UART_Transmit
 278              	.LVL15:
  61:derivers/uart1/bsp_uart1.c ****     {
 279              		.loc 1 61 27 discriminator 2 view .LVU70
  61:derivers/uart1/bsp_uart1.c ****     {
 280              		.loc 1 61 28 is_stmt 0 discriminator 2 view .LVU71
 281 0030 0134     		adds	r4, r4, #1
 282              	.LVL16:
 283              	.L12:
  61:derivers/uart1/bsp_uart1.c ****     {
 284              		.loc 1 61 17 is_stmt 1 discriminator 1 view .LVU72
  61:derivers/uart1/bsp_uart1.c ****     {
 285              		.loc 1 61 5 is_stmt 0 discriminator 1 view .LVU73
 286 0032 BC42     		cmp	r4, r7
 287 0034 04D2     		bcs	.L16
  63:derivers/uart1/bsp_uart1.c ****         {
 288              		.loc 1 63 9 is_stmt 1 view .LVU74
  63:derivers/uart1/bsp_uart1.c ****         {
 289              		.loc 1 63 19 is_stmt 0 view .LVU75
 290 0036 2E19     		adds	r6, r5, r4
  63:derivers/uart1/bsp_uart1.c ****         {
 291              		.loc 1 63 13 view .LVU76
 292 0038 2B5D     		ldrb	r3, [r5, r4]	@ zero_extendqisi2
  63:derivers/uart1/bsp_uart1.c ****         {
 293              		.loc 1 63 12 view .LVU77
 294 003a 0A2B     		cmp	r3, #10
 295 003c F2D1     		bne	.L13
 296 003e EAE7     		b	.L17
 297              	.L16:
  68:derivers/uart1/bsp_uart1.c ****     }
ARM GAS  C:\Users\yzy\AppData\Local\Temp\ccetZuP3.s 			page 8


  69:derivers/uart1/bsp_uart1.c **** }
 298              		.loc 1 69 1 view .LVU78
 299 0040 03B0     		add	sp, sp, #12
 300              	.LCFI7:
 301              		.cfi_def_cfa_offset 20
 302              		@ sp needed
 303 0042 F0BD     		pop	{r4, r5, r6, r7, pc}
 304              	.LVL17:
 305              	.L19:
 306              		.loc 1 69 1 view .LVU79
 307              		.align	2
 308              	.L18:
 309 0044 00000000 		.word	.LANCHOR0
 310              		.cfi_endproc
 311              	.LFE147:
 313              		.global	uart1_handler
 314              		.section	.bss.uart1_handler,"aw",%nobits
 315              		.align	2
 316              		.set	.LANCHOR0,. + 0
 319              	uart1_handler:
 320 0000 00000000 		.space	68
 320      00000000 
 320      00000000 
 320      00000000 
 320      00000000 
 321              		.text
 322              	.Letext0:
 323              		.file 2 "c:\\program files (x86)\\gnu arm embedded toolchain\\2020-q2-update\\arm-none-eabi\\inclu
 324              		.file 3 "c:\\program files (x86)\\gnu arm embedded toolchain\\2020-q2-update\\arm-none-eabi\\inclu
 325              		.file 4 "Libraries/CMSIS/Include/core_cm4.h"
 326              		.file 5 "Libraries/CMSIS/Device/ST/STM32F4xx/Include/system_stm32f4xx.h"
 327              		.file 6 "Libraries/CMSIS/Device/ST/STM32F4xx/Include/stm32f407xx.h"
 328              		.file 7 "Libraries/STM32F4xx_HAL_Driver/Inc/stm32f4xx_hal_def.h"
 329              		.file 8 "Libraries/STM32F4xx_HAL_Driver/Inc/stm32f4xx_hal_gpio.h"
 330              		.file 9 "Libraries/STM32F4xx_HAL_Driver/Inc/stm32f4xx_hal_dma.h"
 331              		.file 10 "Libraries/STM32F4xx_HAL_Driver/Inc/stm32f4xx_hal_uart.h"
 332              		.file 11 "Libraries/STM32F4xx_HAL_Driver/Inc/stm32f4xx_hal_usart.h"
 333              		.file 12 "Libraries/STM32F4xx_HAL_Driver/Inc/stm32f4xx_hal.h"
 334              		.file 13 "RT-Thread/include/rtdef.h"
 335              		.file 14 "RT-Thread/include/rtthread.h"
ARM GAS  C:\Users\yzy\AppData\Local\Temp\ccetZuP3.s 			page 9

