ARM GAS  C:\Users\yzy\AppData\Local\Temp\ccJhtlVZ.s 			page 1


   1              		.cpu cortex-m4
   2              		.eabi_attribute 20, 1
   3              		.eabi_attribute 21, 1
   4              		.eabi_attribute 23, 3
   5              		.eabi_attribute 24, 1
   6              		.eabi_attribute 25, 1
   7              		.eabi_attribute 26, 1
   8              		.eabi_attribute 30, 1
   9              		.eabi_attribute 34, 1
  10              		.eabi_attribute 18, 4
  11              		.file	"components.c"
  12              		.text
  13              	.Ltext0:
  14              		.cfi_sections	.debug_frame
  15              		.section	.text.rti_start,"ax",%progbits
  16              		.align	1
  17              		.arch armv7e-m
  18              		.syntax unified
  19              		.thumb
  20              		.thumb_func
  21              		.fpu softvfp
  23              	rti_start:
  24              	.LFB15:
  25              		.file 1 "RT-Thread/src/components.c"
   1:RT-Thread/src/components.c **** /*
   2:RT-Thread/src/components.c ****  * Copyright (c) 2006-2018, RT-Thread Development Team
   3:RT-Thread/src/components.c ****  *
   4:RT-Thread/src/components.c ****  * SPDX-License-Identifier: Apache-2.0
   5:RT-Thread/src/components.c ****  *
   6:RT-Thread/src/components.c ****  * Change Logs:
   7:RT-Thread/src/components.c ****  * Date           Author       Notes
   8:RT-Thread/src/components.c ****  * 2012-09-20     Bernard      Change the name to components.c
   9:RT-Thread/src/components.c ****  *                             And all components related header files.
  10:RT-Thread/src/components.c ****  * 2012-12-23     Bernard      fix the pthread initialization issue.
  11:RT-Thread/src/components.c ****  * 2013-06-23     Bernard      Add the init_call for components initialization.
  12:RT-Thread/src/components.c ****  * 2013-07-05     Bernard      Remove initialization feature for MS VC++ compiler
  13:RT-Thread/src/components.c ****  * 2015-02-06     Bernard      Remove the MS VC++ support and move to the kernel
  14:RT-Thread/src/components.c ****  * 2015-05-04     Bernard      Rename it to components.c because compiling issue
  15:RT-Thread/src/components.c ****  *                             in some IDEs.
  16:RT-Thread/src/components.c ****  * 2015-07-29     Arda.Fu      Add support to use RT_USING_USER_MAIN with IAR
  17:RT-Thread/src/components.c ****  */
  18:RT-Thread/src/components.c **** 
  19:RT-Thread/src/components.c **** #include <rthw.h>
  20:RT-Thread/src/components.c **** #include <rtthread.h>
  21:RT-Thread/src/components.c **** 
  22:RT-Thread/src/components.c **** #ifdef RT_USING_USER_MAIN
  23:RT-Thread/src/components.c **** #ifndef RT_MAIN_THREAD_STACK_SIZE
  24:RT-Thread/src/components.c **** #define RT_MAIN_THREAD_STACK_SIZE     2048
  25:RT-Thread/src/components.c **** #endif
  26:RT-Thread/src/components.c **** #ifndef RT_MAIN_THREAD_PRIORITY
  27:RT-Thread/src/components.c **** #define RT_MAIN_THREAD_PRIORITY       (RT_THREAD_PRIORITY_MAX / 3)
  28:RT-Thread/src/components.c **** #endif
  29:RT-Thread/src/components.c **** #endif
  30:RT-Thread/src/components.c **** 
  31:RT-Thread/src/components.c **** #ifdef RT_USING_COMPONENTS_INIT
  32:RT-Thread/src/components.c **** /*
  33:RT-Thread/src/components.c ****  * Components Initialization will initialize some driver and components as following
ARM GAS  C:\Users\yzy\AppData\Local\Temp\ccJhtlVZ.s 			page 2


  34:RT-Thread/src/components.c ****  * order:
  35:RT-Thread/src/components.c ****  * rti_start         --> 0
  36:RT-Thread/src/components.c ****  * BOARD_EXPORT      --> 1
  37:RT-Thread/src/components.c ****  * rti_board_end     --> 1.end
  38:RT-Thread/src/components.c ****  *
  39:RT-Thread/src/components.c ****  * DEVICE_EXPORT     --> 2
  40:RT-Thread/src/components.c ****  * COMPONENT_EXPORT  --> 3
  41:RT-Thread/src/components.c ****  * FS_EXPORT         --> 4
  42:RT-Thread/src/components.c ****  * ENV_EXPORT        --> 5
  43:RT-Thread/src/components.c ****  * APP_EXPORT        --> 6
  44:RT-Thread/src/components.c ****  *
  45:RT-Thread/src/components.c ****  * rti_end           --> 6.end
  46:RT-Thread/src/components.c ****  *
  47:RT-Thread/src/components.c ****  * These automatically initialization, the driver or component initial function must
  48:RT-Thread/src/components.c ****  * be defined with:
  49:RT-Thread/src/components.c ****  * INIT_BOARD_EXPORT(fn);
  50:RT-Thread/src/components.c ****  * INIT_DEVICE_EXPORT(fn);
  51:RT-Thread/src/components.c ****  * ...
  52:RT-Thread/src/components.c ****  * INIT_APP_EXPORT(fn);
  53:RT-Thread/src/components.c ****  * etc.
  54:RT-Thread/src/components.c ****  */
  55:RT-Thread/src/components.c **** static int rti_start(void)
  56:RT-Thread/src/components.c **** {
  26              		.loc 1 56 1 view -0
  27              		.cfi_startproc
  28              		@ args = 0, pretend = 0, frame = 0
  29              		@ frame_needed = 0, uses_anonymous_args = 0
  30              		@ link register save eliminated.
  57:RT-Thread/src/components.c ****     return 0;
  31              		.loc 1 57 5 view .LVU1
  58:RT-Thread/src/components.c **** }
  32              		.loc 1 58 1 is_stmt 0 view .LVU2
  33 0000 0020     		movs	r0, #0
  34 0002 7047     		bx	lr
  35              		.cfi_endproc
  36              	.LFE15:
  38              		.section	.text.rti_board_start,"ax",%progbits
  39              		.align	1
  40              		.syntax unified
  41              		.thumb
  42              		.thumb_func
  43              		.fpu softvfp
  45              	rti_board_start:
  46              	.LFB16:
  59:RT-Thread/src/components.c **** INIT_EXPORT(rti_start, "0");
  60:RT-Thread/src/components.c **** 
  61:RT-Thread/src/components.c **** static int rti_board_start(void)
  62:RT-Thread/src/components.c **** {
  47              		.loc 1 62 1 is_stmt 1 view -0
  48              		.cfi_startproc
  49              		@ args = 0, pretend = 0, frame = 0
  50              		@ frame_needed = 0, uses_anonymous_args = 0
  51              		@ link register save eliminated.
  63:RT-Thread/src/components.c ****     return 0;
  52              		.loc 1 63 5 view .LVU4
  64:RT-Thread/src/components.c **** }
  53              		.loc 1 64 1 is_stmt 0 view .LVU5
ARM GAS  C:\Users\yzy\AppData\Local\Temp\ccJhtlVZ.s 			page 3


  54 0000 0020     		movs	r0, #0
  55 0002 7047     		bx	lr
  56              		.cfi_endproc
  57              	.LFE16:
  59              		.section	.text.rti_board_end,"ax",%progbits
  60              		.align	1
  61              		.syntax unified
  62              		.thumb
  63              		.thumb_func
  64              		.fpu softvfp
  66              	rti_board_end:
  67              	.LFB17:
  65:RT-Thread/src/components.c **** INIT_EXPORT(rti_board_start, "0.end");
  66:RT-Thread/src/components.c **** 
  67:RT-Thread/src/components.c **** static int rti_board_end(void)
  68:RT-Thread/src/components.c **** {
  68              		.loc 1 68 1 is_stmt 1 view -0
  69              		.cfi_startproc
  70              		@ args = 0, pretend = 0, frame = 0
  71              		@ frame_needed = 0, uses_anonymous_args = 0
  72              		@ link register save eliminated.
  69:RT-Thread/src/components.c ****     return 0;
  73              		.loc 1 69 5 view .LVU7
  70:RT-Thread/src/components.c **** }
  74              		.loc 1 70 1 is_stmt 0 view .LVU8
  75 0000 0020     		movs	r0, #0
  76 0002 7047     		bx	lr
  77              		.cfi_endproc
  78              	.LFE17:
  80              		.section	.text.rti_end,"ax",%progbits
  81              		.align	1
  82              		.syntax unified
  83              		.thumb
  84              		.thumb_func
  85              		.fpu softvfp
  87              	rti_end:
  88              	.LFB18:
  71:RT-Thread/src/components.c **** INIT_EXPORT(rti_board_end, "1.end");
  72:RT-Thread/src/components.c **** 
  73:RT-Thread/src/components.c **** static int rti_end(void)
  74:RT-Thread/src/components.c **** {
  89              		.loc 1 74 1 is_stmt 1 view -0
  90              		.cfi_startproc
  91              		@ args = 0, pretend = 0, frame = 0
  92              		@ frame_needed = 0, uses_anonymous_args = 0
  93              		@ link register save eliminated.
  75:RT-Thread/src/components.c ****     return 0;
  94              		.loc 1 75 5 view .LVU10
  76:RT-Thread/src/components.c **** }
  95              		.loc 1 76 1 is_stmt 0 view .LVU11
  96 0000 0020     		movs	r0, #0
  97 0002 7047     		bx	lr
  98              		.cfi_endproc
  99              	.LFE18:
 101              		.section	.text.rt_components_board_init,"ax",%progbits
 102              		.align	1
 103              		.global	rt_components_board_init
ARM GAS  C:\Users\yzy\AppData\Local\Temp\ccJhtlVZ.s 			page 4


 104              		.syntax unified
 105              		.thumb
 106              		.thumb_func
 107              		.fpu softvfp
 109              	rt_components_board_init:
 110              	.LFB19:
  77:RT-Thread/src/components.c **** INIT_EXPORT(rti_end, "6.end");
  78:RT-Thread/src/components.c **** 
  79:RT-Thread/src/components.c **** /**
  80:RT-Thread/src/components.c ****  * RT-Thread Components Initialization for board
  81:RT-Thread/src/components.c ****  */
  82:RT-Thread/src/components.c **** void rt_components_board_init(void)
  83:RT-Thread/src/components.c **** {
 111              		.loc 1 83 1 is_stmt 1 view -0
 112              		.cfi_startproc
 113              		@ args = 0, pretend = 0, frame = 0
 114              		@ frame_needed = 0, uses_anonymous_args = 0
 115 0000 10B5     		push	{r4, lr}
 116              	.LCFI0:
 117              		.cfi_def_cfa_offset 8
 118              		.cfi_offset 4, -8
 119              		.cfi_offset 14, -4
  84:RT-Thread/src/components.c **** #if RT_DEBUG_INIT
  85:RT-Thread/src/components.c ****     int result;
  86:RT-Thread/src/components.c ****     const struct rt_init_desc *desc;
  87:RT-Thread/src/components.c ****     for (desc = &__rt_init_desc_rti_board_start; desc < &__rt_init_desc_rti_board_end; desc ++)
  88:RT-Thread/src/components.c ****     {
  89:RT-Thread/src/components.c ****         rt_kprintf("initialize %s", desc->fn_name);
  90:RT-Thread/src/components.c ****         result = desc->fn();
  91:RT-Thread/src/components.c ****         rt_kprintf(":%d done\n", result);
  92:RT-Thread/src/components.c ****     }
  93:RT-Thread/src/components.c **** #else
  94:RT-Thread/src/components.c ****     const init_fn_t *fn_ptr;
 120              		.loc 1 94 5 view .LVU13
  95:RT-Thread/src/components.c **** 
  96:RT-Thread/src/components.c ****     for (fn_ptr = &__rt_init_rti_board_start; fn_ptr < &__rt_init_rti_board_end; fn_ptr++)
 121              		.loc 1 96 5 view .LVU14
 122              		.loc 1 96 17 is_stmt 0 view .LVU15
 123 0002 044C     		ldr	r4, .L10
 124              	.L6:
 125              	.LVL0:
 126              		.loc 1 96 47 is_stmt 1 discriminator 1 view .LVU16
 127              		.loc 1 96 5 is_stmt 0 discriminator 1 view .LVU17
 128 0004 044B     		ldr	r3, .L10+4
 129 0006 9C42     		cmp	r4, r3
 130 0008 03D2     		bcs	.L9
  97:RT-Thread/src/components.c ****     {
  98:RT-Thread/src/components.c ****         (*fn_ptr)();
 131              		.loc 1 98 9 is_stmt 1 discriminator 3 view .LVU18
 132              		.loc 1 98 10 is_stmt 0 discriminator 3 view .LVU19
 133 000a 54F8043B 		ldr	r3, [r4], #4
 134              	.LVL1:
 135              		.loc 1 98 10 discriminator 3 view .LVU20
 136 000e 9847     		blx	r3
 137              	.LVL2:
  96:RT-Thread/src/components.c ****     {
 138              		.loc 1 96 82 is_stmt 1 discriminator 3 view .LVU21
ARM GAS  C:\Users\yzy\AppData\Local\Temp\ccJhtlVZ.s 			page 5


  96:RT-Thread/src/components.c ****     {
 139              		.loc 1 96 82 is_stmt 0 discriminator 3 view .LVU22
 140 0010 F8E7     		b	.L6
 141              	.L9:
  99:RT-Thread/src/components.c ****     }
 100:RT-Thread/src/components.c **** #endif
 101:RT-Thread/src/components.c **** }
 142              		.loc 1 101 1 view .LVU23
 143 0012 10BD     		pop	{r4, pc}
 144              	.LVL3:
 145              	.L11:
 146              		.loc 1 101 1 view .LVU24
 147              		.align	2
 148              	.L10:
 149 0014 00000000 		.word	.LANCHOR0
 150 0018 00000000 		.word	.LANCHOR1
 151              		.cfi_endproc
 152              	.LFE19:
 154              		.section	.text.rt_components_init,"ax",%progbits
 155              		.align	1
 156              		.global	rt_components_init
 157              		.syntax unified
 158              		.thumb
 159              		.thumb_func
 160              		.fpu softvfp
 162              	rt_components_init:
 163              	.LFB20:
 102:RT-Thread/src/components.c **** 
 103:RT-Thread/src/components.c **** /**
 104:RT-Thread/src/components.c ****  * RT-Thread Components Initialization
 105:RT-Thread/src/components.c ****  */
 106:RT-Thread/src/components.c **** void rt_components_init(void)
 107:RT-Thread/src/components.c **** {
 164              		.loc 1 107 1 is_stmt 1 view -0
 165              		.cfi_startproc
 166              		@ args = 0, pretend = 0, frame = 0
 167              		@ frame_needed = 0, uses_anonymous_args = 0
 168 0000 10B5     		push	{r4, lr}
 169              	.LCFI1:
 170              		.cfi_def_cfa_offset 8
 171              		.cfi_offset 4, -8
 172              		.cfi_offset 14, -4
 108:RT-Thread/src/components.c **** #if RT_DEBUG_INIT
 109:RT-Thread/src/components.c ****     int result;
 110:RT-Thread/src/components.c ****     const struct rt_init_desc *desc;
 111:RT-Thread/src/components.c **** 
 112:RT-Thread/src/components.c ****     rt_kprintf("do components initialization.\n");
 113:RT-Thread/src/components.c ****     for (desc = &__rt_init_desc_rti_board_end; desc < &__rt_init_desc_rti_end; desc ++)
 114:RT-Thread/src/components.c ****     {
 115:RT-Thread/src/components.c ****         rt_kprintf("initialize %s", desc->fn_name);
 116:RT-Thread/src/components.c ****         result = desc->fn();
 117:RT-Thread/src/components.c ****         rt_kprintf(":%d done\n", result);
 118:RT-Thread/src/components.c ****     }
 119:RT-Thread/src/components.c **** #else
 120:RT-Thread/src/components.c ****     const init_fn_t *fn_ptr;
 173              		.loc 1 120 5 view .LVU26
 121:RT-Thread/src/components.c **** 
ARM GAS  C:\Users\yzy\AppData\Local\Temp\ccJhtlVZ.s 			page 6


 122:RT-Thread/src/components.c ****     for (fn_ptr = &__rt_init_rti_board_end; fn_ptr < &__rt_init_rti_end; fn_ptr ++)
 174              		.loc 1 122 5 view .LVU27
 175              		.loc 1 122 17 is_stmt 0 view .LVU28
 176 0002 044C     		ldr	r4, .L17
 177              	.L13:
 178              	.LVL4:
 179              		.loc 1 122 45 is_stmt 1 discriminator 1 view .LVU29
 180              		.loc 1 122 5 is_stmt 0 discriminator 1 view .LVU30
 181 0004 044B     		ldr	r3, .L17+4
 182 0006 9C42     		cmp	r4, r3
 183 0008 03D2     		bcs	.L16
 123:RT-Thread/src/components.c ****     {
 124:RT-Thread/src/components.c ****         (*fn_ptr)();
 184              		.loc 1 124 9 is_stmt 1 discriminator 3 view .LVU31
 185              		.loc 1 124 10 is_stmt 0 discriminator 3 view .LVU32
 186 000a 54F8043B 		ldr	r3, [r4], #4
 187              	.LVL5:
 188              		.loc 1 124 10 discriminator 3 view .LVU33
 189 000e 9847     		blx	r3
 190              	.LVL6:
 122:RT-Thread/src/components.c ****     {
 191              		.loc 1 122 74 is_stmt 1 discriminator 3 view .LVU34
 122:RT-Thread/src/components.c ****     {
 192              		.loc 1 122 74 is_stmt 0 discriminator 3 view .LVU35
 193 0010 F8E7     		b	.L13
 194              	.L16:
 125:RT-Thread/src/components.c ****     }
 126:RT-Thread/src/components.c **** #endif
 127:RT-Thread/src/components.c **** }
 195              		.loc 1 127 1 view .LVU36
 196 0012 10BD     		pop	{r4, pc}
 197              	.LVL7:
 198              	.L18:
 199              		.loc 1 127 1 view .LVU37
 200              		.align	2
 201              	.L17:
 202 0014 00000000 		.word	.LANCHOR1
 203 0018 00000000 		.word	.LANCHOR2
 204              		.cfi_endproc
 205              	.LFE20:
 207              		.section	.text.main_thread_entry,"ax",%progbits
 208              		.align	1
 209              		.global	main_thread_entry
 210              		.syntax unified
 211              		.thumb
 212              		.thumb_func
 213              		.fpu softvfp
 215              	main_thread_entry:
 216              	.LVL8:
 217              	.LFB22:
 128:RT-Thread/src/components.c **** 
 129:RT-Thread/src/components.c **** #ifdef RT_USING_USER_MAIN
 130:RT-Thread/src/components.c **** 
 131:RT-Thread/src/components.c **** void rt_application_init(void);
 132:RT-Thread/src/components.c **** void rt_hw_board_init(void);
 133:RT-Thread/src/components.c **** int rtthread_startup(void);
 134:RT-Thread/src/components.c **** 
ARM GAS  C:\Users\yzy\AppData\Local\Temp\ccJhtlVZ.s 			page 7


 135:RT-Thread/src/components.c **** #if defined(__CC_ARM) || defined(__CLANG_ARM)
 136:RT-Thread/src/components.c **** extern int $Super$$main(void);
 137:RT-Thread/src/components.c **** /* re-define main function */
 138:RT-Thread/src/components.c **** int $Sub$$main(void)
 139:RT-Thread/src/components.c **** {
 140:RT-Thread/src/components.c ****     rtthread_startup();
 141:RT-Thread/src/components.c ****     return 0;
 142:RT-Thread/src/components.c **** }
 143:RT-Thread/src/components.c **** #elif defined(__ICCARM__)
 144:RT-Thread/src/components.c **** extern int main(void);
 145:RT-Thread/src/components.c **** /* __low_level_init will auto called by IAR cstartup */
 146:RT-Thread/src/components.c **** extern void __iar_data_init3(void);
 147:RT-Thread/src/components.c **** int __low_level_init(void)
 148:RT-Thread/src/components.c **** {
 149:RT-Thread/src/components.c ****     // call IAR table copy function.
 150:RT-Thread/src/components.c ****     __iar_data_init3();
 151:RT-Thread/src/components.c ****     rtthread_startup();
 152:RT-Thread/src/components.c ****     return 0;
 153:RT-Thread/src/components.c **** }
 154:RT-Thread/src/components.c **** #elif defined(__GNUC__)
 155:RT-Thread/src/components.c **** extern int main(void);
 156:RT-Thread/src/components.c **** /* Add -eentry to arm-none-eabi-gcc argument */
 157:RT-Thread/src/components.c **** int entry(void)
 158:RT-Thread/src/components.c **** {
 159:RT-Thread/src/components.c ****     rtthread_startup();
 160:RT-Thread/src/components.c ****     return 0;
 161:RT-Thread/src/components.c **** }
 162:RT-Thread/src/components.c **** #endif
 163:RT-Thread/src/components.c **** 
 164:RT-Thread/src/components.c **** #ifndef RT_USING_HEAP
 165:RT-Thread/src/components.c **** /* if there is not enable heap, we should use static thread and stack. */
 166:RT-Thread/src/components.c **** ALIGN(8)
 167:RT-Thread/src/components.c **** static rt_uint8_t main_stack[RT_MAIN_THREAD_STACK_SIZE];
 168:RT-Thread/src/components.c **** struct rt_thread main_thread;
 169:RT-Thread/src/components.c **** #endif
 170:RT-Thread/src/components.c **** 
 171:RT-Thread/src/components.c **** /* the system main thread */
 172:RT-Thread/src/components.c **** void main_thread_entry(void *parameter)
 173:RT-Thread/src/components.c **** {
 218              		.loc 1 173 1 is_stmt 1 view -0
 219              		.cfi_startproc
 220              		@ args = 0, pretend = 0, frame = 0
 221              		@ frame_needed = 0, uses_anonymous_args = 0
 222              		.loc 1 173 1 is_stmt 0 view .LVU39
 223 0000 08B5     		push	{r3, lr}
 224              	.LCFI2:
 225              		.cfi_def_cfa_offset 8
 226              		.cfi_offset 3, -8
 227              		.cfi_offset 14, -4
 174:RT-Thread/src/components.c ****     extern int main(void);
 228              		.loc 1 174 5 is_stmt 1 view .LVU40
 175:RT-Thread/src/components.c ****     extern int $Super$$main(void);
 229              		.loc 1 175 5 view .LVU41
 176:RT-Thread/src/components.c **** 
 177:RT-Thread/src/components.c ****     /* RT-Thread components initialization */
 178:RT-Thread/src/components.c ****     rt_components_init();
 230              		.loc 1 178 5 view .LVU42
ARM GAS  C:\Users\yzy\AppData\Local\Temp\ccJhtlVZ.s 			page 8


 231 0002 FFF7FEFF 		bl	rt_components_init
 232              	.LVL9:
 179:RT-Thread/src/components.c **** 
 180:RT-Thread/src/components.c ****     /* invoke system main function */
 181:RT-Thread/src/components.c **** #if defined(__CC_ARM) || defined(__CLANG_ARM)
 182:RT-Thread/src/components.c ****     $Super$$main(); /* for ARMCC. */
 183:RT-Thread/src/components.c **** #elif defined(__ICCARM__) || defined(__GNUC__)
 184:RT-Thread/src/components.c ****     main();
 233              		.loc 1 184 5 view .LVU43
 234 0006 FFF7FEFF 		bl	main
 235              	.LVL10:
 185:RT-Thread/src/components.c **** #endif
 186:RT-Thread/src/components.c **** }
 236              		.loc 1 186 1 is_stmt 0 view .LVU44
 237 000a 08BD     		pop	{r3, pc}
 238              		.cfi_endproc
 239              	.LFE22:
 241              		.section	.rodata.rt_application_init.str1.4,"aMS",%progbits,1
 242              		.align	2
 243              	.LC0:
 244 0000 6D61696E 		.ascii	"main\000"
 244      00
 245              		.section	.text.rt_application_init,"ax",%progbits
 246              		.align	1
 247              		.global	rt_application_init
 248              		.syntax unified
 249              		.thumb
 250              		.thumb_func
 251              		.fpu softvfp
 253              	rt_application_init:
 254              	.LFB23:
 187:RT-Thread/src/components.c **** 
 188:RT-Thread/src/components.c **** void rt_application_init(void)
 189:RT-Thread/src/components.c **** {
 255              		.loc 1 189 1 is_stmt 1 view -0
 256              		.cfi_startproc
 257              		@ args = 0, pretend = 0, frame = 0
 258              		@ frame_needed = 0, uses_anonymous_args = 0
 259 0000 00B5     		push	{lr}
 260              	.LCFI3:
 261              		.cfi_def_cfa_offset 4
 262              		.cfi_offset 14, -4
 263 0002 83B0     		sub	sp, sp, #12
 264              	.LCFI4:
 265              		.cfi_def_cfa_offset 16
 190:RT-Thread/src/components.c ****     rt_thread_t tid;
 266              		.loc 1 190 5 view .LVU46
 191:RT-Thread/src/components.c **** 
 192:RT-Thread/src/components.c **** #ifdef RT_USING_HEAP
 193:RT-Thread/src/components.c ****     tid = rt_thread_create("main", main_thread_entry, RT_NULL,
 267              		.loc 1 193 5 view .LVU47
 268              		.loc 1 193 11 is_stmt 0 view .LVU48
 269 0004 1423     		movs	r3, #20
 270 0006 0193     		str	r3, [sp, #4]
 271 0008 5523     		movs	r3, #85
 272 000a 0093     		str	r3, [sp]
 273 000c 4FF48063 		mov	r3, #1024
ARM GAS  C:\Users\yzy\AppData\Local\Temp\ccJhtlVZ.s 			page 9


 274 0010 0022     		movs	r2, #0
 275 0012 0449     		ldr	r1, .L23
 276 0014 0448     		ldr	r0, .L23+4
 277 0016 FFF7FEFF 		bl	rt_thread_create
 278              	.LVL11:
 194:RT-Thread/src/components.c ****                            RT_MAIN_THREAD_STACK_SIZE, RT_MAIN_THREAD_PRIORITY, 20);
 195:RT-Thread/src/components.c ****     RT_ASSERT(tid != RT_NULL);
 279              		.loc 1 195 30 is_stmt 1 view .LVU49
 196:RT-Thread/src/components.c **** #else
 197:RT-Thread/src/components.c ****     rt_err_t result;
 198:RT-Thread/src/components.c **** 
 199:RT-Thread/src/components.c ****     tid = &main_thread;
 200:RT-Thread/src/components.c ****     result = rt_thread_init(tid, "main", main_thread_entry, RT_NULL,
 201:RT-Thread/src/components.c ****                             main_stack, sizeof(main_stack), RT_MAIN_THREAD_PRIORITY, 20);
 202:RT-Thread/src/components.c ****     RT_ASSERT(result == RT_EOK);
 203:RT-Thread/src/components.c **** 	
 204:RT-Thread/src/components.c ****     /* if not define RT_USING_HEAP, using to eliminate the warning */
 205:RT-Thread/src/components.c ****     (void)result;
 206:RT-Thread/src/components.c **** #endif
 207:RT-Thread/src/components.c **** 
 208:RT-Thread/src/components.c ****     rt_thread_startup(tid);
 280              		.loc 1 208 5 view .LVU50
 281 001a FFF7FEFF 		bl	rt_thread_startup
 282              	.LVL12:
 209:RT-Thread/src/components.c **** }
 283              		.loc 1 209 1 is_stmt 0 view .LVU51
 284 001e 03B0     		add	sp, sp, #12
 285              	.LCFI5:
 286              		.cfi_def_cfa_offset 4
 287              		@ sp needed
 288 0020 5DF804FB 		ldr	pc, [sp], #4
 289              	.L24:
 290              		.align	2
 291              	.L23:
 292 0024 00000000 		.word	main_thread_entry
 293 0028 00000000 		.word	.LC0
 294              		.cfi_endproc
 295              	.LFE23:
 297              		.section	.text.rtthread_startup,"ax",%progbits
 298              		.align	1
 299              		.global	rtthread_startup
 300              		.syntax unified
 301              		.thumb
 302              		.thumb_func
 303              		.fpu softvfp
 305              	rtthread_startup:
 306              	.LFB24:
 210:RT-Thread/src/components.c **** 
 211:RT-Thread/src/components.c **** int rtthread_startup(void)
 212:RT-Thread/src/components.c **** {
 307              		.loc 1 212 1 is_stmt 1 view -0
 308              		.cfi_startproc
 309              		@ args = 0, pretend = 0, frame = 0
 310              		@ frame_needed = 0, uses_anonymous_args = 0
 311 0000 08B5     		push	{r3, lr}
 312              	.LCFI6:
 313              		.cfi_def_cfa_offset 8
ARM GAS  C:\Users\yzy\AppData\Local\Temp\ccJhtlVZ.s 			page 10


 314              		.cfi_offset 3, -8
 315              		.cfi_offset 14, -4
 213:RT-Thread/src/components.c ****     rt_hw_interrupt_disable();
 316              		.loc 1 213 5 view .LVU53
 317 0002 FFF7FEFF 		bl	rt_hw_interrupt_disable
 318              	.LVL13:
 214:RT-Thread/src/components.c **** 
 215:RT-Thread/src/components.c ****     /* board level initialization
 216:RT-Thread/src/components.c ****      * NOTE: please initialize heap inside board initialization.
 217:RT-Thread/src/components.c ****      */
 218:RT-Thread/src/components.c ****     rt_hw_board_init();
 319              		.loc 1 218 5 view .LVU54
 320 0006 FFF7FEFF 		bl	rt_hw_board_init
 321              	.LVL14:
 219:RT-Thread/src/components.c **** 
 220:RT-Thread/src/components.c ****     /* show RT-Thread version */
 221:RT-Thread/src/components.c ****     rt_show_version();
 322              		.loc 1 221 5 view .LVU55
 323 000a FFF7FEFF 		bl	rt_show_version
 324              	.LVL15:
 222:RT-Thread/src/components.c **** 
 223:RT-Thread/src/components.c ****     /* timer system initialization */
 224:RT-Thread/src/components.c ****     rt_system_timer_init();
 325              		.loc 1 224 5 view .LVU56
 326 000e FFF7FEFF 		bl	rt_system_timer_init
 327              	.LVL16:
 225:RT-Thread/src/components.c **** 
 226:RT-Thread/src/components.c ****     /* scheduler system initialization */
 227:RT-Thread/src/components.c ****     rt_system_scheduler_init();
 328              		.loc 1 227 5 view .LVU57
 329 0012 FFF7FEFF 		bl	rt_system_scheduler_init
 330              	.LVL17:
 228:RT-Thread/src/components.c **** 
 229:RT-Thread/src/components.c **** #ifdef RT_USING_SIGNALS
 230:RT-Thread/src/components.c ****     /* signal system initialization */
 231:RT-Thread/src/components.c ****     rt_system_signal_init();
 232:RT-Thread/src/components.c **** #endif
 233:RT-Thread/src/components.c **** 
 234:RT-Thread/src/components.c ****     /* create init_thread */
 235:RT-Thread/src/components.c ****     rt_application_init();
 331              		.loc 1 235 5 view .LVU58
 332 0016 FFF7FEFF 		bl	rt_application_init
 333              	.LVL18:
 236:RT-Thread/src/components.c **** 
 237:RT-Thread/src/components.c ****     /* timer thread initialization */
 238:RT-Thread/src/components.c ****     rt_system_timer_thread_init();
 334              		.loc 1 238 5 view .LVU59
 335 001a FFF7FEFF 		bl	rt_system_timer_thread_init
 336              	.LVL19:
 239:RT-Thread/src/components.c **** 
 240:RT-Thread/src/components.c ****     /* idle thread initialization */
 241:RT-Thread/src/components.c ****     rt_thread_idle_init();
 337              		.loc 1 241 5 view .LVU60
 338 001e FFF7FEFF 		bl	rt_thread_idle_init
 339              	.LVL20:
 242:RT-Thread/src/components.c **** 
 243:RT-Thread/src/components.c ****     /* start scheduler */
ARM GAS  C:\Users\yzy\AppData\Local\Temp\ccJhtlVZ.s 			page 11


 244:RT-Thread/src/components.c ****     rt_system_scheduler_start();
 340              		.loc 1 244 5 view .LVU61
 341 0022 FFF7FEFF 		bl	rt_system_scheduler_start
 342              	.LVL21:
 245:RT-Thread/src/components.c **** 
 246:RT-Thread/src/components.c ****     /* never reach here */
 247:RT-Thread/src/components.c ****     return 0;
 343              		.loc 1 247 5 view .LVU62
 248:RT-Thread/src/components.c **** }
 344              		.loc 1 248 1 is_stmt 0 view .LVU63
 345 0026 0020     		movs	r0, #0
 346 0028 08BD     		pop	{r3, pc}
 347              		.cfi_endproc
 348              	.LFE24:
 350              		.section	.text.entry,"ax",%progbits
 351              		.align	1
 352              		.global	entry
 353              		.syntax unified
 354              		.thumb
 355              		.thumb_func
 356              		.fpu softvfp
 358              	entry:
 359              	.LFB21:
 158:RT-Thread/src/components.c ****     rtthread_startup();
 360              		.loc 1 158 1 is_stmt 1 view -0
 361              		.cfi_startproc
 362              		@ args = 0, pretend = 0, frame = 0
 363              		@ frame_needed = 0, uses_anonymous_args = 0
 364 0000 08B5     		push	{r3, lr}
 365              	.LCFI7:
 366              		.cfi_def_cfa_offset 8
 367              		.cfi_offset 3, -8
 368              		.cfi_offset 14, -4
 159:RT-Thread/src/components.c ****     return 0;
 369              		.loc 1 159 5 view .LVU65
 370 0002 FFF7FEFF 		bl	rtthread_startup
 371              	.LVL22:
 160:RT-Thread/src/components.c **** }
 372              		.loc 1 160 5 view .LVU66
 161:RT-Thread/src/components.c **** #endif
 373              		.loc 1 161 1 is_stmt 0 view .LVU67
 374 0006 0020     		movs	r0, #0
 375 0008 08BD     		pop	{r3, pc}
 376              		.cfi_endproc
 377              	.LFE21:
 379              		.global	__rt_init_rti_end
 380              		.global	__rt_init_rti_board_end
 381              		.global	__rt_init_rti_board_start
 382              		.global	__rt_init_rti_start
 383              		.section	.rti_fn.0,"a"
 384              		.align	2
 387              	__rt_init_rti_start:
 388 0000 00000000 		.word	rti_start
 389              		.section	.rti_fn.0.end,"a"
 390              		.align	2
 391              		.set	.LANCHOR0,. + 0
 394              	__rt_init_rti_board_start:
ARM GAS  C:\Users\yzy\AppData\Local\Temp\ccJhtlVZ.s 			page 12


 395 0000 00000000 		.word	rti_board_start
 396              		.section	.rti_fn.1.end,"a"
 397              		.align	2
 398              		.set	.LANCHOR1,. + 0
 401              	__rt_init_rti_board_end:
 402 0000 00000000 		.word	rti_board_end
 403              		.section	.rti_fn.6.end,"a"
 404              		.align	2
 405              		.set	.LANCHOR2,. + 0
 408              	__rt_init_rti_end:
 409 0000 00000000 		.word	rti_end
 410              		.text
 411              	.Letext0:
 412              		.file 2 "RT-Thread/include/rtdef.h"
 413              		.file 3 "RT-Thread/include/rthw.h"
 414              		.file 4 "RT-Thread/include/rtthread.h"
ARM GAS  C:\Users\yzy\AppData\Local\Temp\ccJhtlVZ.s 			page 13

