ARM GAS  C:\Users\yzy\AppData\Local\Temp\ccN466ht.s 			page 1


   1              		.cpu cortex-m4
   2              		.eabi_attribute 20, 1
   3              		.eabi_attribute 21, 1
   4              		.eabi_attribute 23, 3
   5              		.eabi_attribute 24, 1
   6              		.eabi_attribute 25, 1
   7              		.eabi_attribute 26, 1
   8              		.eabi_attribute 30, 1
   9              		.eabi_attribute 34, 1
  10              		.eabi_attribute 18, 4
  11              		.file	"stm32f4xx_hal_adc_ex.c"
  12              		.text
  13              	.Ltext0:
  14              		.cfi_sections	.debug_frame
  15              		.section	.text.ADC_MultiModeDMAError,"ax",%progbits
  16              		.align	1
  17              		.arch armv7e-m
  18              		.syntax unified
  19              		.thumb
  20              		.thumb_func
  21              		.fpu softvfp
  23              	ADC_MultiModeDMAError:
  24              	.LVL0:
  25              	.LFB144:
  26              		.file 1 "Libraries/STM32F4xx_HAL_Driver/Src/stm32f4xx_hal_adc_ex.c"
   1:Libraries/STM32F4xx_HAL_Driver/Src/stm32f4xx_hal_adc_ex.c **** /**
   2:Libraries/STM32F4xx_HAL_Driver/Src/stm32f4xx_hal_adc_ex.c ****   ******************************************************************************
   3:Libraries/STM32F4xx_HAL_Driver/Src/stm32f4xx_hal_adc_ex.c ****   * @file    stm32f4xx_hal_adc_ex.c
   4:Libraries/STM32F4xx_HAL_Driver/Src/stm32f4xx_hal_adc_ex.c ****   * @author  MCD Application Team
   5:Libraries/STM32F4xx_HAL_Driver/Src/stm32f4xx_hal_adc_ex.c ****   * @brief   This file provides firmware functions to manage the following
   6:Libraries/STM32F4xx_HAL_Driver/Src/stm32f4xx_hal_adc_ex.c ****   *          functionalities of the ADC extension peripheral:
   7:Libraries/STM32F4xx_HAL_Driver/Src/stm32f4xx_hal_adc_ex.c ****   *           + Extended features functions
   8:Libraries/STM32F4xx_HAL_Driver/Src/stm32f4xx_hal_adc_ex.c ****   *
   9:Libraries/STM32F4xx_HAL_Driver/Src/stm32f4xx_hal_adc_ex.c ****   @verbatim
  10:Libraries/STM32F4xx_HAL_Driver/Src/stm32f4xx_hal_adc_ex.c ****   ==============================================================================
  11:Libraries/STM32F4xx_HAL_Driver/Src/stm32f4xx_hal_adc_ex.c ****                     ##### How to use this driver #####
  12:Libraries/STM32F4xx_HAL_Driver/Src/stm32f4xx_hal_adc_ex.c ****   ==============================================================================
  13:Libraries/STM32F4xx_HAL_Driver/Src/stm32f4xx_hal_adc_ex.c ****     [..]
  14:Libraries/STM32F4xx_HAL_Driver/Src/stm32f4xx_hal_adc_ex.c ****     (#)Initialize the ADC low level resources by implementing the HAL_ADC_MspInit():
  15:Libraries/STM32F4xx_HAL_Driver/Src/stm32f4xx_hal_adc_ex.c ****        (##) Enable the ADC interface clock using __HAL_RCC_ADC_CLK_ENABLE()
  16:Libraries/STM32F4xx_HAL_Driver/Src/stm32f4xx_hal_adc_ex.c ****        (##) ADC pins configuration
  17:Libraries/STM32F4xx_HAL_Driver/Src/stm32f4xx_hal_adc_ex.c ****              (+++) Enable the clock for the ADC GPIOs using the following function:
  18:Libraries/STM32F4xx_HAL_Driver/Src/stm32f4xx_hal_adc_ex.c ****                    __HAL_RCC_GPIOx_CLK_ENABLE()
  19:Libraries/STM32F4xx_HAL_Driver/Src/stm32f4xx_hal_adc_ex.c ****              (+++) Configure these ADC pins in analog mode using HAL_GPIO_Init()
  20:Libraries/STM32F4xx_HAL_Driver/Src/stm32f4xx_hal_adc_ex.c ****        (##) In case of using interrupts (e.g. HAL_ADC_Start_IT())
  21:Libraries/STM32F4xx_HAL_Driver/Src/stm32f4xx_hal_adc_ex.c ****              (+++) Configure the ADC interrupt priority using HAL_NVIC_SetPriority()
  22:Libraries/STM32F4xx_HAL_Driver/Src/stm32f4xx_hal_adc_ex.c ****              (+++) Enable the ADC IRQ handler using HAL_NVIC_EnableIRQ()
  23:Libraries/STM32F4xx_HAL_Driver/Src/stm32f4xx_hal_adc_ex.c ****              (+++) In ADC IRQ handler, call HAL_ADC_IRQHandler()
  24:Libraries/STM32F4xx_HAL_Driver/Src/stm32f4xx_hal_adc_ex.c ****       (##) In case of using DMA to control data transfer (e.g. HAL_ADC_Start_DMA())
  25:Libraries/STM32F4xx_HAL_Driver/Src/stm32f4xx_hal_adc_ex.c ****              (+++) Enable the DMAx interface clock using __HAL_RCC_DMAx_CLK_ENABLE()
  26:Libraries/STM32F4xx_HAL_Driver/Src/stm32f4xx_hal_adc_ex.c ****              (+++) Configure and enable two DMA streams stream for managing data
  27:Libraries/STM32F4xx_HAL_Driver/Src/stm32f4xx_hal_adc_ex.c ****                  transfer from peripheral to memory (output stream)
  28:Libraries/STM32F4xx_HAL_Driver/Src/stm32f4xx_hal_adc_ex.c ****              (+++) Associate the initialized DMA handle to the ADC DMA handle
  29:Libraries/STM32F4xx_HAL_Driver/Src/stm32f4xx_hal_adc_ex.c ****                  using  __HAL_LINKDMA()
  30:Libraries/STM32F4xx_HAL_Driver/Src/stm32f4xx_hal_adc_ex.c ****              (+++) Configure the priority and enable the NVIC for the transfer complete
  31:Libraries/STM32F4xx_HAL_Driver/Src/stm32f4xx_hal_adc_ex.c ****                  interrupt on the two DMA Streams. The output stream should have higher
  32:Libraries/STM32F4xx_HAL_Driver/Src/stm32f4xx_hal_adc_ex.c ****                  priority than the input stream.
ARM GAS  C:\Users\yzy\AppData\Local\Temp\ccN466ht.s 			page 2


  33:Libraries/STM32F4xx_HAL_Driver/Src/stm32f4xx_hal_adc_ex.c ****      (#) Configure the ADC Prescaler, conversion resolution and data alignment
  34:Libraries/STM32F4xx_HAL_Driver/Src/stm32f4xx_hal_adc_ex.c ****          using the HAL_ADC_Init() function.
  35:Libraries/STM32F4xx_HAL_Driver/Src/stm32f4xx_hal_adc_ex.c **** 
  36:Libraries/STM32F4xx_HAL_Driver/Src/stm32f4xx_hal_adc_ex.c ****      (#) Configure the ADC Injected channels group features, use HAL_ADC_Init()
  37:Libraries/STM32F4xx_HAL_Driver/Src/stm32f4xx_hal_adc_ex.c ****          and HAL_ADC_ConfigChannel() functions.
  38:Libraries/STM32F4xx_HAL_Driver/Src/stm32f4xx_hal_adc_ex.c **** 
  39:Libraries/STM32F4xx_HAL_Driver/Src/stm32f4xx_hal_adc_ex.c ****      (#) Three operation modes are available within this driver:
  40:Libraries/STM32F4xx_HAL_Driver/Src/stm32f4xx_hal_adc_ex.c **** 
  41:Libraries/STM32F4xx_HAL_Driver/Src/stm32f4xx_hal_adc_ex.c ****      *** Polling mode IO operation ***
  42:Libraries/STM32F4xx_HAL_Driver/Src/stm32f4xx_hal_adc_ex.c ****      =================================
  43:Libraries/STM32F4xx_HAL_Driver/Src/stm32f4xx_hal_adc_ex.c ****      [..]
  44:Libraries/STM32F4xx_HAL_Driver/Src/stm32f4xx_hal_adc_ex.c ****        (+) Start the ADC peripheral using HAL_ADCEx_InjectedStart()
  45:Libraries/STM32F4xx_HAL_Driver/Src/stm32f4xx_hal_adc_ex.c ****        (+) Wait for end of conversion using HAL_ADC_PollForConversion(), at this stage
  46:Libraries/STM32F4xx_HAL_Driver/Src/stm32f4xx_hal_adc_ex.c ****            user can specify the value of timeout according to his end application
  47:Libraries/STM32F4xx_HAL_Driver/Src/stm32f4xx_hal_adc_ex.c ****        (+) To read the ADC converted values, use the HAL_ADCEx_InjectedGetValue() function.
  48:Libraries/STM32F4xx_HAL_Driver/Src/stm32f4xx_hal_adc_ex.c ****        (+) Stop the ADC peripheral using HAL_ADCEx_InjectedStop()
  49:Libraries/STM32F4xx_HAL_Driver/Src/stm32f4xx_hal_adc_ex.c **** 
  50:Libraries/STM32F4xx_HAL_Driver/Src/stm32f4xx_hal_adc_ex.c ****      *** Interrupt mode IO operation ***
  51:Libraries/STM32F4xx_HAL_Driver/Src/stm32f4xx_hal_adc_ex.c ****      ===================================
  52:Libraries/STM32F4xx_HAL_Driver/Src/stm32f4xx_hal_adc_ex.c ****      [..]
  53:Libraries/STM32F4xx_HAL_Driver/Src/stm32f4xx_hal_adc_ex.c ****        (+) Start the ADC peripheral using HAL_ADCEx_InjectedStart_IT()
  54:Libraries/STM32F4xx_HAL_Driver/Src/stm32f4xx_hal_adc_ex.c ****        (+) Use HAL_ADC_IRQHandler() called under ADC_IRQHandler() Interrupt subroutine
  55:Libraries/STM32F4xx_HAL_Driver/Src/stm32f4xx_hal_adc_ex.c ****        (+) At ADC end of conversion HAL_ADCEx_InjectedConvCpltCallback() function is executed and u
  56:Libraries/STM32F4xx_HAL_Driver/Src/stm32f4xx_hal_adc_ex.c ****             add his own code by customization of function pointer HAL_ADCEx_InjectedConvCpltCallbac
  57:Libraries/STM32F4xx_HAL_Driver/Src/stm32f4xx_hal_adc_ex.c ****        (+) In case of ADC Error, HAL_ADCEx_InjectedErrorCallback() function is executed and user ca
  58:Libraries/STM32F4xx_HAL_Driver/Src/stm32f4xx_hal_adc_ex.c ****             add his own code by customization of function pointer HAL_ADCEx_InjectedErrorCallback
  59:Libraries/STM32F4xx_HAL_Driver/Src/stm32f4xx_hal_adc_ex.c ****        (+) Stop the ADC peripheral using HAL_ADCEx_InjectedStop_IT()
  60:Libraries/STM32F4xx_HAL_Driver/Src/stm32f4xx_hal_adc_ex.c **** 
  61:Libraries/STM32F4xx_HAL_Driver/Src/stm32f4xx_hal_adc_ex.c ****      *** Multi mode ADCs Regular channels configuration ***
  62:Libraries/STM32F4xx_HAL_Driver/Src/stm32f4xx_hal_adc_ex.c ****      ======================================================
  63:Libraries/STM32F4xx_HAL_Driver/Src/stm32f4xx_hal_adc_ex.c ****      [..]
  64:Libraries/STM32F4xx_HAL_Driver/Src/stm32f4xx_hal_adc_ex.c ****        (+) Select the Multi mode ADC regular channels features (dual or triple mode)
  65:Libraries/STM32F4xx_HAL_Driver/Src/stm32f4xx_hal_adc_ex.c ****           and configure the DMA mode using HAL_ADCEx_MultiModeConfigChannel() functions.
  66:Libraries/STM32F4xx_HAL_Driver/Src/stm32f4xx_hal_adc_ex.c ****        (+) Start the ADC peripheral using HAL_ADCEx_MultiModeStart_DMA(), at this stage the user sp
  67:Libraries/STM32F4xx_HAL_Driver/Src/stm32f4xx_hal_adc_ex.c ****            of data to be transferred at each end of conversion
  68:Libraries/STM32F4xx_HAL_Driver/Src/stm32f4xx_hal_adc_ex.c ****        (+) Read the ADCs converted values using the HAL_ADCEx_MultiModeGetValue() function.
  69:Libraries/STM32F4xx_HAL_Driver/Src/stm32f4xx_hal_adc_ex.c **** 
  70:Libraries/STM32F4xx_HAL_Driver/Src/stm32f4xx_hal_adc_ex.c **** 
  71:Libraries/STM32F4xx_HAL_Driver/Src/stm32f4xx_hal_adc_ex.c ****     @endverbatim
  72:Libraries/STM32F4xx_HAL_Driver/Src/stm32f4xx_hal_adc_ex.c ****   ******************************************************************************
  73:Libraries/STM32F4xx_HAL_Driver/Src/stm32f4xx_hal_adc_ex.c ****   * @attention
  74:Libraries/STM32F4xx_HAL_Driver/Src/stm32f4xx_hal_adc_ex.c ****   *
  75:Libraries/STM32F4xx_HAL_Driver/Src/stm32f4xx_hal_adc_ex.c ****   * <h2><center>&copy; Copyright (c) 2017 STMicroelectronics.
  76:Libraries/STM32F4xx_HAL_Driver/Src/stm32f4xx_hal_adc_ex.c ****   * All rights reserved.</center></h2>
  77:Libraries/STM32F4xx_HAL_Driver/Src/stm32f4xx_hal_adc_ex.c ****   *
  78:Libraries/STM32F4xx_HAL_Driver/Src/stm32f4xx_hal_adc_ex.c ****   * This software component is licensed by ST under BSD 3-Clause license,
  79:Libraries/STM32F4xx_HAL_Driver/Src/stm32f4xx_hal_adc_ex.c ****   * the "License"; You may not use this file except in compliance with the
  80:Libraries/STM32F4xx_HAL_Driver/Src/stm32f4xx_hal_adc_ex.c ****   * License. You may obtain a copy of the License at:
  81:Libraries/STM32F4xx_HAL_Driver/Src/stm32f4xx_hal_adc_ex.c ****   *                        opensource.org/licenses/BSD-3-Clause
  82:Libraries/STM32F4xx_HAL_Driver/Src/stm32f4xx_hal_adc_ex.c ****   *
  83:Libraries/STM32F4xx_HAL_Driver/Src/stm32f4xx_hal_adc_ex.c ****   ******************************************************************************
  84:Libraries/STM32F4xx_HAL_Driver/Src/stm32f4xx_hal_adc_ex.c ****   */
  85:Libraries/STM32F4xx_HAL_Driver/Src/stm32f4xx_hal_adc_ex.c **** 
  86:Libraries/STM32F4xx_HAL_Driver/Src/stm32f4xx_hal_adc_ex.c **** /* Includes ------------------------------------------------------------------*/
  87:Libraries/STM32F4xx_HAL_Driver/Src/stm32f4xx_hal_adc_ex.c **** #include "stm32f4xx_hal.h"
  88:Libraries/STM32F4xx_HAL_Driver/Src/stm32f4xx_hal_adc_ex.c **** 
  89:Libraries/STM32F4xx_HAL_Driver/Src/stm32f4xx_hal_adc_ex.c **** /** @addtogroup STM32F4xx_HAL_Driver
ARM GAS  C:\Users\yzy\AppData\Local\Temp\ccN466ht.s 			page 3


  90:Libraries/STM32F4xx_HAL_Driver/Src/stm32f4xx_hal_adc_ex.c ****   * @{
  91:Libraries/STM32F4xx_HAL_Driver/Src/stm32f4xx_hal_adc_ex.c ****   */
  92:Libraries/STM32F4xx_HAL_Driver/Src/stm32f4xx_hal_adc_ex.c **** 
  93:Libraries/STM32F4xx_HAL_Driver/Src/stm32f4xx_hal_adc_ex.c **** /** @defgroup ADCEx ADCEx
  94:Libraries/STM32F4xx_HAL_Driver/Src/stm32f4xx_hal_adc_ex.c ****   * @brief ADC Extended driver modules
  95:Libraries/STM32F4xx_HAL_Driver/Src/stm32f4xx_hal_adc_ex.c ****   * @{
  96:Libraries/STM32F4xx_HAL_Driver/Src/stm32f4xx_hal_adc_ex.c ****   */ 
  97:Libraries/STM32F4xx_HAL_Driver/Src/stm32f4xx_hal_adc_ex.c **** 
  98:Libraries/STM32F4xx_HAL_Driver/Src/stm32f4xx_hal_adc_ex.c **** #ifdef HAL_ADC_MODULE_ENABLED
  99:Libraries/STM32F4xx_HAL_Driver/Src/stm32f4xx_hal_adc_ex.c ****     
 100:Libraries/STM32F4xx_HAL_Driver/Src/stm32f4xx_hal_adc_ex.c **** /* Private typedef -----------------------------------------------------------*/
 101:Libraries/STM32F4xx_HAL_Driver/Src/stm32f4xx_hal_adc_ex.c **** /* Private define ------------------------------------------------------------*/ 
 102:Libraries/STM32F4xx_HAL_Driver/Src/stm32f4xx_hal_adc_ex.c **** /* Private macro -------------------------------------------------------------*/
 103:Libraries/STM32F4xx_HAL_Driver/Src/stm32f4xx_hal_adc_ex.c **** /* Private variables ---------------------------------------------------------*/
 104:Libraries/STM32F4xx_HAL_Driver/Src/stm32f4xx_hal_adc_ex.c **** /** @addtogroup ADCEx_Private_Functions
 105:Libraries/STM32F4xx_HAL_Driver/Src/stm32f4xx_hal_adc_ex.c ****   * @{
 106:Libraries/STM32F4xx_HAL_Driver/Src/stm32f4xx_hal_adc_ex.c ****   */
 107:Libraries/STM32F4xx_HAL_Driver/Src/stm32f4xx_hal_adc_ex.c **** /* Private function prototypes -----------------------------------------------*/
 108:Libraries/STM32F4xx_HAL_Driver/Src/stm32f4xx_hal_adc_ex.c **** static void ADC_MultiModeDMAConvCplt(DMA_HandleTypeDef *hdma);
 109:Libraries/STM32F4xx_HAL_Driver/Src/stm32f4xx_hal_adc_ex.c **** static void ADC_MultiModeDMAError(DMA_HandleTypeDef *hdma);
 110:Libraries/STM32F4xx_HAL_Driver/Src/stm32f4xx_hal_adc_ex.c **** static void ADC_MultiModeDMAHalfConvCplt(DMA_HandleTypeDef *hdma); 
 111:Libraries/STM32F4xx_HAL_Driver/Src/stm32f4xx_hal_adc_ex.c **** /**
 112:Libraries/STM32F4xx_HAL_Driver/Src/stm32f4xx_hal_adc_ex.c ****   * @}
 113:Libraries/STM32F4xx_HAL_Driver/Src/stm32f4xx_hal_adc_ex.c ****   */
 114:Libraries/STM32F4xx_HAL_Driver/Src/stm32f4xx_hal_adc_ex.c **** 
 115:Libraries/STM32F4xx_HAL_Driver/Src/stm32f4xx_hal_adc_ex.c **** /* Exported functions --------------------------------------------------------*/
 116:Libraries/STM32F4xx_HAL_Driver/Src/stm32f4xx_hal_adc_ex.c **** /** @defgroup ADCEx_Exported_Functions ADC Exported Functions
 117:Libraries/STM32F4xx_HAL_Driver/Src/stm32f4xx_hal_adc_ex.c ****   * @{
 118:Libraries/STM32F4xx_HAL_Driver/Src/stm32f4xx_hal_adc_ex.c ****   */
 119:Libraries/STM32F4xx_HAL_Driver/Src/stm32f4xx_hal_adc_ex.c **** 
 120:Libraries/STM32F4xx_HAL_Driver/Src/stm32f4xx_hal_adc_ex.c **** /** @defgroup ADCEx_Exported_Functions_Group1  Extended features functions 
 121:Libraries/STM32F4xx_HAL_Driver/Src/stm32f4xx_hal_adc_ex.c ****   *  @brief    Extended features functions  
 122:Libraries/STM32F4xx_HAL_Driver/Src/stm32f4xx_hal_adc_ex.c ****   *
 123:Libraries/STM32F4xx_HAL_Driver/Src/stm32f4xx_hal_adc_ex.c **** @verbatim   
 124:Libraries/STM32F4xx_HAL_Driver/Src/stm32f4xx_hal_adc_ex.c ****  ===============================================================================
 125:Libraries/STM32F4xx_HAL_Driver/Src/stm32f4xx_hal_adc_ex.c ****                  ##### Extended features functions #####
 126:Libraries/STM32F4xx_HAL_Driver/Src/stm32f4xx_hal_adc_ex.c ****  ===============================================================================  
 127:Libraries/STM32F4xx_HAL_Driver/Src/stm32f4xx_hal_adc_ex.c ****     [..]  This section provides functions allowing to:
 128:Libraries/STM32F4xx_HAL_Driver/Src/stm32f4xx_hal_adc_ex.c ****       (+) Start conversion of injected channel.
 129:Libraries/STM32F4xx_HAL_Driver/Src/stm32f4xx_hal_adc_ex.c ****       (+) Stop conversion of injected channel.
 130:Libraries/STM32F4xx_HAL_Driver/Src/stm32f4xx_hal_adc_ex.c ****       (+) Start multimode and enable DMA transfer.
 131:Libraries/STM32F4xx_HAL_Driver/Src/stm32f4xx_hal_adc_ex.c ****       (+) Stop multimode and disable DMA transfer.
 132:Libraries/STM32F4xx_HAL_Driver/Src/stm32f4xx_hal_adc_ex.c ****       (+) Get result of injected channel conversion.
 133:Libraries/STM32F4xx_HAL_Driver/Src/stm32f4xx_hal_adc_ex.c ****       (+) Get result of multimode conversion.
 134:Libraries/STM32F4xx_HAL_Driver/Src/stm32f4xx_hal_adc_ex.c ****       (+) Configure injected channels.
 135:Libraries/STM32F4xx_HAL_Driver/Src/stm32f4xx_hal_adc_ex.c ****       (+) Configure multimode.
 136:Libraries/STM32F4xx_HAL_Driver/Src/stm32f4xx_hal_adc_ex.c ****                
 137:Libraries/STM32F4xx_HAL_Driver/Src/stm32f4xx_hal_adc_ex.c **** @endverbatim
 138:Libraries/STM32F4xx_HAL_Driver/Src/stm32f4xx_hal_adc_ex.c ****   * @{
 139:Libraries/STM32F4xx_HAL_Driver/Src/stm32f4xx_hal_adc_ex.c ****   */
 140:Libraries/STM32F4xx_HAL_Driver/Src/stm32f4xx_hal_adc_ex.c **** 
 141:Libraries/STM32F4xx_HAL_Driver/Src/stm32f4xx_hal_adc_ex.c **** /**
 142:Libraries/STM32F4xx_HAL_Driver/Src/stm32f4xx_hal_adc_ex.c ****   * @brief  Enables the selected ADC software start conversion of the injected channels.
 143:Libraries/STM32F4xx_HAL_Driver/Src/stm32f4xx_hal_adc_ex.c ****   * @param  hadc pointer to a ADC_HandleTypeDef structure that contains
 144:Libraries/STM32F4xx_HAL_Driver/Src/stm32f4xx_hal_adc_ex.c ****   *         the configuration information for the specified ADC.
 145:Libraries/STM32F4xx_HAL_Driver/Src/stm32f4xx_hal_adc_ex.c ****   * @retval HAL status
 146:Libraries/STM32F4xx_HAL_Driver/Src/stm32f4xx_hal_adc_ex.c ****   */
ARM GAS  C:\Users\yzy\AppData\Local\Temp\ccN466ht.s 			page 4


 147:Libraries/STM32F4xx_HAL_Driver/Src/stm32f4xx_hal_adc_ex.c **** HAL_StatusTypeDef HAL_ADCEx_InjectedStart(ADC_HandleTypeDef* hadc)
 148:Libraries/STM32F4xx_HAL_Driver/Src/stm32f4xx_hal_adc_ex.c **** {
 149:Libraries/STM32F4xx_HAL_Driver/Src/stm32f4xx_hal_adc_ex.c ****   __IO uint32_t counter = 0U;
 150:Libraries/STM32F4xx_HAL_Driver/Src/stm32f4xx_hal_adc_ex.c ****   uint32_t tmp1 = 0U, tmp2 = 0U;
 151:Libraries/STM32F4xx_HAL_Driver/Src/stm32f4xx_hal_adc_ex.c ****   ADC_Common_TypeDef *tmpADC_Common;
 152:Libraries/STM32F4xx_HAL_Driver/Src/stm32f4xx_hal_adc_ex.c ****   
 153:Libraries/STM32F4xx_HAL_Driver/Src/stm32f4xx_hal_adc_ex.c ****   /* Process locked */
 154:Libraries/STM32F4xx_HAL_Driver/Src/stm32f4xx_hal_adc_ex.c ****   __HAL_LOCK(hadc);
 155:Libraries/STM32F4xx_HAL_Driver/Src/stm32f4xx_hal_adc_ex.c ****   
 156:Libraries/STM32F4xx_HAL_Driver/Src/stm32f4xx_hal_adc_ex.c ****   /* Enable the ADC peripheral */
 157:Libraries/STM32F4xx_HAL_Driver/Src/stm32f4xx_hal_adc_ex.c ****   
 158:Libraries/STM32F4xx_HAL_Driver/Src/stm32f4xx_hal_adc_ex.c ****   /* Check if ADC peripheral is disabled in order to enable it and wait during 
 159:Libraries/STM32F4xx_HAL_Driver/Src/stm32f4xx_hal_adc_ex.c ****      Tstab time the ADC's stabilization */
 160:Libraries/STM32F4xx_HAL_Driver/Src/stm32f4xx_hal_adc_ex.c ****   if((hadc->Instance->CR2 & ADC_CR2_ADON) != ADC_CR2_ADON)
 161:Libraries/STM32F4xx_HAL_Driver/Src/stm32f4xx_hal_adc_ex.c ****   {  
 162:Libraries/STM32F4xx_HAL_Driver/Src/stm32f4xx_hal_adc_ex.c ****     /* Enable the Peripheral */
 163:Libraries/STM32F4xx_HAL_Driver/Src/stm32f4xx_hal_adc_ex.c ****     __HAL_ADC_ENABLE(hadc);
 164:Libraries/STM32F4xx_HAL_Driver/Src/stm32f4xx_hal_adc_ex.c ****     
 165:Libraries/STM32F4xx_HAL_Driver/Src/stm32f4xx_hal_adc_ex.c ****     /* Delay for ADC stabilization time */
 166:Libraries/STM32F4xx_HAL_Driver/Src/stm32f4xx_hal_adc_ex.c ****     /* Compute number of CPU cycles to wait for */
 167:Libraries/STM32F4xx_HAL_Driver/Src/stm32f4xx_hal_adc_ex.c ****     counter = (ADC_STAB_DELAY_US * (SystemCoreClock / 1000000U));
 168:Libraries/STM32F4xx_HAL_Driver/Src/stm32f4xx_hal_adc_ex.c ****     while(counter != 0U)
 169:Libraries/STM32F4xx_HAL_Driver/Src/stm32f4xx_hal_adc_ex.c ****     {
 170:Libraries/STM32F4xx_HAL_Driver/Src/stm32f4xx_hal_adc_ex.c ****       counter--;
 171:Libraries/STM32F4xx_HAL_Driver/Src/stm32f4xx_hal_adc_ex.c ****     }
 172:Libraries/STM32F4xx_HAL_Driver/Src/stm32f4xx_hal_adc_ex.c ****   }
 173:Libraries/STM32F4xx_HAL_Driver/Src/stm32f4xx_hal_adc_ex.c ****   
 174:Libraries/STM32F4xx_HAL_Driver/Src/stm32f4xx_hal_adc_ex.c ****   /* Start conversion if ADC is effectively enabled */
 175:Libraries/STM32F4xx_HAL_Driver/Src/stm32f4xx_hal_adc_ex.c ****   if(HAL_IS_BIT_SET(hadc->Instance->CR2, ADC_CR2_ADON))
 176:Libraries/STM32F4xx_HAL_Driver/Src/stm32f4xx_hal_adc_ex.c ****   {
 177:Libraries/STM32F4xx_HAL_Driver/Src/stm32f4xx_hal_adc_ex.c ****     /* Set ADC state                                                          */
 178:Libraries/STM32F4xx_HAL_Driver/Src/stm32f4xx_hal_adc_ex.c ****     /* - Clear state bitfield related to injected group conversion results    */
 179:Libraries/STM32F4xx_HAL_Driver/Src/stm32f4xx_hal_adc_ex.c ****     /* - Set state bitfield related to injected operation                     */
 180:Libraries/STM32F4xx_HAL_Driver/Src/stm32f4xx_hal_adc_ex.c ****     ADC_STATE_CLR_SET(hadc->State,
 181:Libraries/STM32F4xx_HAL_Driver/Src/stm32f4xx_hal_adc_ex.c ****                       HAL_ADC_STATE_READY | HAL_ADC_STATE_INJ_EOC,
 182:Libraries/STM32F4xx_HAL_Driver/Src/stm32f4xx_hal_adc_ex.c ****                       HAL_ADC_STATE_INJ_BUSY);
 183:Libraries/STM32F4xx_HAL_Driver/Src/stm32f4xx_hal_adc_ex.c ****     
 184:Libraries/STM32F4xx_HAL_Driver/Src/stm32f4xx_hal_adc_ex.c ****     /* Check if a regular conversion is ongoing */
 185:Libraries/STM32F4xx_HAL_Driver/Src/stm32f4xx_hal_adc_ex.c ****     /* Note: On this device, there is no ADC error code fields related to     */
 186:Libraries/STM32F4xx_HAL_Driver/Src/stm32f4xx_hal_adc_ex.c ****     /*       conversions on group injected only. In case of conversion on     */
 187:Libraries/STM32F4xx_HAL_Driver/Src/stm32f4xx_hal_adc_ex.c ****     /*       going on group regular, no error code is reset.                  */
 188:Libraries/STM32F4xx_HAL_Driver/Src/stm32f4xx_hal_adc_ex.c ****     if (HAL_IS_BIT_CLR(hadc->State, HAL_ADC_STATE_REG_BUSY))
 189:Libraries/STM32F4xx_HAL_Driver/Src/stm32f4xx_hal_adc_ex.c ****     {
 190:Libraries/STM32F4xx_HAL_Driver/Src/stm32f4xx_hal_adc_ex.c ****       /* Reset ADC all error code fields */
 191:Libraries/STM32F4xx_HAL_Driver/Src/stm32f4xx_hal_adc_ex.c ****       ADC_CLEAR_ERRORCODE(hadc);
 192:Libraries/STM32F4xx_HAL_Driver/Src/stm32f4xx_hal_adc_ex.c ****     }
 193:Libraries/STM32F4xx_HAL_Driver/Src/stm32f4xx_hal_adc_ex.c ****     
 194:Libraries/STM32F4xx_HAL_Driver/Src/stm32f4xx_hal_adc_ex.c ****     /* Process unlocked */
 195:Libraries/STM32F4xx_HAL_Driver/Src/stm32f4xx_hal_adc_ex.c ****     /* Unlock before starting ADC conversions: in case of potential           */
 196:Libraries/STM32F4xx_HAL_Driver/Src/stm32f4xx_hal_adc_ex.c ****     /* interruption, to let the process to ADC IRQ Handler.                   */
 197:Libraries/STM32F4xx_HAL_Driver/Src/stm32f4xx_hal_adc_ex.c ****     __HAL_UNLOCK(hadc);
 198:Libraries/STM32F4xx_HAL_Driver/Src/stm32f4xx_hal_adc_ex.c ****     
 199:Libraries/STM32F4xx_HAL_Driver/Src/stm32f4xx_hal_adc_ex.c ****     /* Clear injected group conversion flag */
 200:Libraries/STM32F4xx_HAL_Driver/Src/stm32f4xx_hal_adc_ex.c ****     /* (To ensure of no unknown state from potential previous ADC operations) */
 201:Libraries/STM32F4xx_HAL_Driver/Src/stm32f4xx_hal_adc_ex.c ****     __HAL_ADC_CLEAR_FLAG(hadc, ADC_FLAG_JEOC);
 202:Libraries/STM32F4xx_HAL_Driver/Src/stm32f4xx_hal_adc_ex.c **** 
 203:Libraries/STM32F4xx_HAL_Driver/Src/stm32f4xx_hal_adc_ex.c ****     /* Pointer to the common control register to which is belonging hadc    */
ARM GAS  C:\Users\yzy\AppData\Local\Temp\ccN466ht.s 			page 5


 204:Libraries/STM32F4xx_HAL_Driver/Src/stm32f4xx_hal_adc_ex.c ****     /* (Depending on STM32F4 product, there may be up to 3 ADC and 1 common */
 205:Libraries/STM32F4xx_HAL_Driver/Src/stm32f4xx_hal_adc_ex.c ****     /* control register)                                                    */
 206:Libraries/STM32F4xx_HAL_Driver/Src/stm32f4xx_hal_adc_ex.c ****     tmpADC_Common = ADC_COMMON_REGISTER(hadc);
 207:Libraries/STM32F4xx_HAL_Driver/Src/stm32f4xx_hal_adc_ex.c **** 
 208:Libraries/STM32F4xx_HAL_Driver/Src/stm32f4xx_hal_adc_ex.c ****     /* Check if Multimode enabled */
 209:Libraries/STM32F4xx_HAL_Driver/Src/stm32f4xx_hal_adc_ex.c ****     if(HAL_IS_BIT_CLR(tmpADC_Common->CCR, ADC_CCR_MULTI))
 210:Libraries/STM32F4xx_HAL_Driver/Src/stm32f4xx_hal_adc_ex.c ****     {
 211:Libraries/STM32F4xx_HAL_Driver/Src/stm32f4xx_hal_adc_ex.c ****       tmp1 = HAL_IS_BIT_CLR(hadc->Instance->CR2, ADC_CR2_JEXTEN);
 212:Libraries/STM32F4xx_HAL_Driver/Src/stm32f4xx_hal_adc_ex.c ****       tmp2 = HAL_IS_BIT_CLR(hadc->Instance->CR1, ADC_CR1_JAUTO);
 213:Libraries/STM32F4xx_HAL_Driver/Src/stm32f4xx_hal_adc_ex.c ****       if(tmp1 && tmp2)
 214:Libraries/STM32F4xx_HAL_Driver/Src/stm32f4xx_hal_adc_ex.c ****       {
 215:Libraries/STM32F4xx_HAL_Driver/Src/stm32f4xx_hal_adc_ex.c ****         /* Enable the selected ADC software conversion for injected group */
 216:Libraries/STM32F4xx_HAL_Driver/Src/stm32f4xx_hal_adc_ex.c ****         hadc->Instance->CR2 |= ADC_CR2_JSWSTART;
 217:Libraries/STM32F4xx_HAL_Driver/Src/stm32f4xx_hal_adc_ex.c ****       }
 218:Libraries/STM32F4xx_HAL_Driver/Src/stm32f4xx_hal_adc_ex.c ****     }
 219:Libraries/STM32F4xx_HAL_Driver/Src/stm32f4xx_hal_adc_ex.c ****     else
 220:Libraries/STM32F4xx_HAL_Driver/Src/stm32f4xx_hal_adc_ex.c ****     {
 221:Libraries/STM32F4xx_HAL_Driver/Src/stm32f4xx_hal_adc_ex.c ****       tmp1 = HAL_IS_BIT_CLR(hadc->Instance->CR2, ADC_CR2_JEXTEN);
 222:Libraries/STM32F4xx_HAL_Driver/Src/stm32f4xx_hal_adc_ex.c ****       tmp2 = HAL_IS_BIT_CLR(hadc->Instance->CR1, ADC_CR1_JAUTO);
 223:Libraries/STM32F4xx_HAL_Driver/Src/stm32f4xx_hal_adc_ex.c ****       if((hadc->Instance == ADC1) && tmp1 && tmp2)  
 224:Libraries/STM32F4xx_HAL_Driver/Src/stm32f4xx_hal_adc_ex.c ****       {
 225:Libraries/STM32F4xx_HAL_Driver/Src/stm32f4xx_hal_adc_ex.c ****         /* Enable the selected ADC software conversion for injected group */
 226:Libraries/STM32F4xx_HAL_Driver/Src/stm32f4xx_hal_adc_ex.c ****         hadc->Instance->CR2 |= ADC_CR2_JSWSTART;
 227:Libraries/STM32F4xx_HAL_Driver/Src/stm32f4xx_hal_adc_ex.c ****       }
 228:Libraries/STM32F4xx_HAL_Driver/Src/stm32f4xx_hal_adc_ex.c ****     }
 229:Libraries/STM32F4xx_HAL_Driver/Src/stm32f4xx_hal_adc_ex.c ****   }
 230:Libraries/STM32F4xx_HAL_Driver/Src/stm32f4xx_hal_adc_ex.c ****   
 231:Libraries/STM32F4xx_HAL_Driver/Src/stm32f4xx_hal_adc_ex.c ****   /* Return function status */
 232:Libraries/STM32F4xx_HAL_Driver/Src/stm32f4xx_hal_adc_ex.c ****   return HAL_OK;
 233:Libraries/STM32F4xx_HAL_Driver/Src/stm32f4xx_hal_adc_ex.c **** }
 234:Libraries/STM32F4xx_HAL_Driver/Src/stm32f4xx_hal_adc_ex.c **** 
 235:Libraries/STM32F4xx_HAL_Driver/Src/stm32f4xx_hal_adc_ex.c **** /**
 236:Libraries/STM32F4xx_HAL_Driver/Src/stm32f4xx_hal_adc_ex.c ****   * @brief  Enables the interrupt and starts ADC conversion of injected channels.
 237:Libraries/STM32F4xx_HAL_Driver/Src/stm32f4xx_hal_adc_ex.c ****   * @param  hadc pointer to a ADC_HandleTypeDef structure that contains
 238:Libraries/STM32F4xx_HAL_Driver/Src/stm32f4xx_hal_adc_ex.c ****   *         the configuration information for the specified ADC.
 239:Libraries/STM32F4xx_HAL_Driver/Src/stm32f4xx_hal_adc_ex.c ****   *
 240:Libraries/STM32F4xx_HAL_Driver/Src/stm32f4xx_hal_adc_ex.c ****   * @retval HAL status.
 241:Libraries/STM32F4xx_HAL_Driver/Src/stm32f4xx_hal_adc_ex.c ****   */
 242:Libraries/STM32F4xx_HAL_Driver/Src/stm32f4xx_hal_adc_ex.c **** HAL_StatusTypeDef HAL_ADCEx_InjectedStart_IT(ADC_HandleTypeDef* hadc)
 243:Libraries/STM32F4xx_HAL_Driver/Src/stm32f4xx_hal_adc_ex.c **** {
 244:Libraries/STM32F4xx_HAL_Driver/Src/stm32f4xx_hal_adc_ex.c ****   __IO uint32_t counter = 0U;
 245:Libraries/STM32F4xx_HAL_Driver/Src/stm32f4xx_hal_adc_ex.c ****   uint32_t tmp1 = 0U, tmp2 = 0U;
 246:Libraries/STM32F4xx_HAL_Driver/Src/stm32f4xx_hal_adc_ex.c ****   ADC_Common_TypeDef *tmpADC_Common;
 247:Libraries/STM32F4xx_HAL_Driver/Src/stm32f4xx_hal_adc_ex.c ****   
 248:Libraries/STM32F4xx_HAL_Driver/Src/stm32f4xx_hal_adc_ex.c ****   /* Process locked */
 249:Libraries/STM32F4xx_HAL_Driver/Src/stm32f4xx_hal_adc_ex.c ****   __HAL_LOCK(hadc);
 250:Libraries/STM32F4xx_HAL_Driver/Src/stm32f4xx_hal_adc_ex.c ****   
 251:Libraries/STM32F4xx_HAL_Driver/Src/stm32f4xx_hal_adc_ex.c ****   /* Enable the ADC peripheral */
 252:Libraries/STM32F4xx_HAL_Driver/Src/stm32f4xx_hal_adc_ex.c ****   
 253:Libraries/STM32F4xx_HAL_Driver/Src/stm32f4xx_hal_adc_ex.c ****   /* Check if ADC peripheral is disabled in order to enable it and wait during 
 254:Libraries/STM32F4xx_HAL_Driver/Src/stm32f4xx_hal_adc_ex.c ****      Tstab time the ADC's stabilization */
 255:Libraries/STM32F4xx_HAL_Driver/Src/stm32f4xx_hal_adc_ex.c ****   if((hadc->Instance->CR2 & ADC_CR2_ADON) != ADC_CR2_ADON)
 256:Libraries/STM32F4xx_HAL_Driver/Src/stm32f4xx_hal_adc_ex.c ****   {  
 257:Libraries/STM32F4xx_HAL_Driver/Src/stm32f4xx_hal_adc_ex.c ****     /* Enable the Peripheral */
 258:Libraries/STM32F4xx_HAL_Driver/Src/stm32f4xx_hal_adc_ex.c ****     __HAL_ADC_ENABLE(hadc);
 259:Libraries/STM32F4xx_HAL_Driver/Src/stm32f4xx_hal_adc_ex.c ****     
 260:Libraries/STM32F4xx_HAL_Driver/Src/stm32f4xx_hal_adc_ex.c ****     /* Delay for ADC stabilization time */
ARM GAS  C:\Users\yzy\AppData\Local\Temp\ccN466ht.s 			page 6


 261:Libraries/STM32F4xx_HAL_Driver/Src/stm32f4xx_hal_adc_ex.c ****     /* Compute number of CPU cycles to wait for */
 262:Libraries/STM32F4xx_HAL_Driver/Src/stm32f4xx_hal_adc_ex.c ****     counter = (ADC_STAB_DELAY_US * (SystemCoreClock / 1000000U));
 263:Libraries/STM32F4xx_HAL_Driver/Src/stm32f4xx_hal_adc_ex.c ****     while(counter != 0U)
 264:Libraries/STM32F4xx_HAL_Driver/Src/stm32f4xx_hal_adc_ex.c ****     {
 265:Libraries/STM32F4xx_HAL_Driver/Src/stm32f4xx_hal_adc_ex.c ****       counter--;
 266:Libraries/STM32F4xx_HAL_Driver/Src/stm32f4xx_hal_adc_ex.c ****     }
 267:Libraries/STM32F4xx_HAL_Driver/Src/stm32f4xx_hal_adc_ex.c ****   }
 268:Libraries/STM32F4xx_HAL_Driver/Src/stm32f4xx_hal_adc_ex.c ****   
 269:Libraries/STM32F4xx_HAL_Driver/Src/stm32f4xx_hal_adc_ex.c ****   /* Start conversion if ADC is effectively enabled */
 270:Libraries/STM32F4xx_HAL_Driver/Src/stm32f4xx_hal_adc_ex.c ****   if(HAL_IS_BIT_SET(hadc->Instance->CR2, ADC_CR2_ADON))
 271:Libraries/STM32F4xx_HAL_Driver/Src/stm32f4xx_hal_adc_ex.c ****   {
 272:Libraries/STM32F4xx_HAL_Driver/Src/stm32f4xx_hal_adc_ex.c ****     /* Set ADC state                                                          */
 273:Libraries/STM32F4xx_HAL_Driver/Src/stm32f4xx_hal_adc_ex.c ****     /* - Clear state bitfield related to injected group conversion results    */
 274:Libraries/STM32F4xx_HAL_Driver/Src/stm32f4xx_hal_adc_ex.c ****     /* - Set state bitfield related to injected operation                     */
 275:Libraries/STM32F4xx_HAL_Driver/Src/stm32f4xx_hal_adc_ex.c ****     ADC_STATE_CLR_SET(hadc->State,
 276:Libraries/STM32F4xx_HAL_Driver/Src/stm32f4xx_hal_adc_ex.c ****                       HAL_ADC_STATE_READY | HAL_ADC_STATE_INJ_EOC,
 277:Libraries/STM32F4xx_HAL_Driver/Src/stm32f4xx_hal_adc_ex.c ****                       HAL_ADC_STATE_INJ_BUSY);
 278:Libraries/STM32F4xx_HAL_Driver/Src/stm32f4xx_hal_adc_ex.c ****     
 279:Libraries/STM32F4xx_HAL_Driver/Src/stm32f4xx_hal_adc_ex.c ****     /* Check if a regular conversion is ongoing */
 280:Libraries/STM32F4xx_HAL_Driver/Src/stm32f4xx_hal_adc_ex.c ****     /* Note: On this device, there is no ADC error code fields related to     */
 281:Libraries/STM32F4xx_HAL_Driver/Src/stm32f4xx_hal_adc_ex.c ****     /*       conversions on group injected only. In case of conversion on     */
 282:Libraries/STM32F4xx_HAL_Driver/Src/stm32f4xx_hal_adc_ex.c ****     /*       going on group regular, no error code is reset.                  */
 283:Libraries/STM32F4xx_HAL_Driver/Src/stm32f4xx_hal_adc_ex.c ****     if (HAL_IS_BIT_CLR(hadc->State, HAL_ADC_STATE_REG_BUSY))
 284:Libraries/STM32F4xx_HAL_Driver/Src/stm32f4xx_hal_adc_ex.c ****     {
 285:Libraries/STM32F4xx_HAL_Driver/Src/stm32f4xx_hal_adc_ex.c ****       /* Reset ADC all error code fields */
 286:Libraries/STM32F4xx_HAL_Driver/Src/stm32f4xx_hal_adc_ex.c ****       ADC_CLEAR_ERRORCODE(hadc);
 287:Libraries/STM32F4xx_HAL_Driver/Src/stm32f4xx_hal_adc_ex.c ****     }
 288:Libraries/STM32F4xx_HAL_Driver/Src/stm32f4xx_hal_adc_ex.c ****     
 289:Libraries/STM32F4xx_HAL_Driver/Src/stm32f4xx_hal_adc_ex.c ****     /* Process unlocked */
 290:Libraries/STM32F4xx_HAL_Driver/Src/stm32f4xx_hal_adc_ex.c ****     /* Unlock before starting ADC conversions: in case of potential           */
 291:Libraries/STM32F4xx_HAL_Driver/Src/stm32f4xx_hal_adc_ex.c ****     /* interruption, to let the process to ADC IRQ Handler.                   */
 292:Libraries/STM32F4xx_HAL_Driver/Src/stm32f4xx_hal_adc_ex.c ****     __HAL_UNLOCK(hadc);
 293:Libraries/STM32F4xx_HAL_Driver/Src/stm32f4xx_hal_adc_ex.c ****     
 294:Libraries/STM32F4xx_HAL_Driver/Src/stm32f4xx_hal_adc_ex.c ****     /* Clear injected group conversion flag */
 295:Libraries/STM32F4xx_HAL_Driver/Src/stm32f4xx_hal_adc_ex.c ****     /* (To ensure of no unknown state from potential previous ADC operations) */
 296:Libraries/STM32F4xx_HAL_Driver/Src/stm32f4xx_hal_adc_ex.c ****     __HAL_ADC_CLEAR_FLAG(hadc, ADC_FLAG_JEOC);
 297:Libraries/STM32F4xx_HAL_Driver/Src/stm32f4xx_hal_adc_ex.c ****     
 298:Libraries/STM32F4xx_HAL_Driver/Src/stm32f4xx_hal_adc_ex.c ****     /* Enable end of conversion interrupt for injected channels */
 299:Libraries/STM32F4xx_HAL_Driver/Src/stm32f4xx_hal_adc_ex.c ****     __HAL_ADC_ENABLE_IT(hadc, ADC_IT_JEOC);
 300:Libraries/STM32F4xx_HAL_Driver/Src/stm32f4xx_hal_adc_ex.c **** 
 301:Libraries/STM32F4xx_HAL_Driver/Src/stm32f4xx_hal_adc_ex.c ****     /* Pointer to the common control register to which is belonging hadc    */
 302:Libraries/STM32F4xx_HAL_Driver/Src/stm32f4xx_hal_adc_ex.c ****     /* (Depending on STM32F4 product, there may be up to 3 ADC and 1 common */
 303:Libraries/STM32F4xx_HAL_Driver/Src/stm32f4xx_hal_adc_ex.c ****     /* control register)                                                    */
 304:Libraries/STM32F4xx_HAL_Driver/Src/stm32f4xx_hal_adc_ex.c ****     tmpADC_Common = ADC_COMMON_REGISTER(hadc);
 305:Libraries/STM32F4xx_HAL_Driver/Src/stm32f4xx_hal_adc_ex.c ****     
 306:Libraries/STM32F4xx_HAL_Driver/Src/stm32f4xx_hal_adc_ex.c ****     /* Check if Multimode enabled */
 307:Libraries/STM32F4xx_HAL_Driver/Src/stm32f4xx_hal_adc_ex.c ****     if(HAL_IS_BIT_CLR(tmpADC_Common->CCR, ADC_CCR_MULTI))
 308:Libraries/STM32F4xx_HAL_Driver/Src/stm32f4xx_hal_adc_ex.c ****     {
 309:Libraries/STM32F4xx_HAL_Driver/Src/stm32f4xx_hal_adc_ex.c ****       tmp1 = HAL_IS_BIT_CLR(hadc->Instance->CR2, ADC_CR2_JEXTEN);
 310:Libraries/STM32F4xx_HAL_Driver/Src/stm32f4xx_hal_adc_ex.c ****       tmp2 = HAL_IS_BIT_CLR(hadc->Instance->CR1, ADC_CR1_JAUTO);
 311:Libraries/STM32F4xx_HAL_Driver/Src/stm32f4xx_hal_adc_ex.c ****       if(tmp1 && tmp2)
 312:Libraries/STM32F4xx_HAL_Driver/Src/stm32f4xx_hal_adc_ex.c ****       {
 313:Libraries/STM32F4xx_HAL_Driver/Src/stm32f4xx_hal_adc_ex.c ****         /* Enable the selected ADC software conversion for injected group */
 314:Libraries/STM32F4xx_HAL_Driver/Src/stm32f4xx_hal_adc_ex.c ****         hadc->Instance->CR2 |= ADC_CR2_JSWSTART;
 315:Libraries/STM32F4xx_HAL_Driver/Src/stm32f4xx_hal_adc_ex.c ****       }
 316:Libraries/STM32F4xx_HAL_Driver/Src/stm32f4xx_hal_adc_ex.c ****     }
 317:Libraries/STM32F4xx_HAL_Driver/Src/stm32f4xx_hal_adc_ex.c ****     else
ARM GAS  C:\Users\yzy\AppData\Local\Temp\ccN466ht.s 			page 7


 318:Libraries/STM32F4xx_HAL_Driver/Src/stm32f4xx_hal_adc_ex.c ****     {
 319:Libraries/STM32F4xx_HAL_Driver/Src/stm32f4xx_hal_adc_ex.c ****       tmp1 = HAL_IS_BIT_CLR(hadc->Instance->CR2, ADC_CR2_JEXTEN);
 320:Libraries/STM32F4xx_HAL_Driver/Src/stm32f4xx_hal_adc_ex.c ****       tmp2 = HAL_IS_BIT_CLR(hadc->Instance->CR1, ADC_CR1_JAUTO);
 321:Libraries/STM32F4xx_HAL_Driver/Src/stm32f4xx_hal_adc_ex.c ****       if((hadc->Instance == ADC1) && tmp1 && tmp2)  
 322:Libraries/STM32F4xx_HAL_Driver/Src/stm32f4xx_hal_adc_ex.c ****       {
 323:Libraries/STM32F4xx_HAL_Driver/Src/stm32f4xx_hal_adc_ex.c ****         /* Enable the selected ADC software conversion for injected group */
 324:Libraries/STM32F4xx_HAL_Driver/Src/stm32f4xx_hal_adc_ex.c ****         hadc->Instance->CR2 |= ADC_CR2_JSWSTART;
 325:Libraries/STM32F4xx_HAL_Driver/Src/stm32f4xx_hal_adc_ex.c ****       }
 326:Libraries/STM32F4xx_HAL_Driver/Src/stm32f4xx_hal_adc_ex.c ****     }
 327:Libraries/STM32F4xx_HAL_Driver/Src/stm32f4xx_hal_adc_ex.c ****   }
 328:Libraries/STM32F4xx_HAL_Driver/Src/stm32f4xx_hal_adc_ex.c ****   
 329:Libraries/STM32F4xx_HAL_Driver/Src/stm32f4xx_hal_adc_ex.c ****   /* Return function status */
 330:Libraries/STM32F4xx_HAL_Driver/Src/stm32f4xx_hal_adc_ex.c ****   return HAL_OK;
 331:Libraries/STM32F4xx_HAL_Driver/Src/stm32f4xx_hal_adc_ex.c **** }
 332:Libraries/STM32F4xx_HAL_Driver/Src/stm32f4xx_hal_adc_ex.c **** 
 333:Libraries/STM32F4xx_HAL_Driver/Src/stm32f4xx_hal_adc_ex.c **** /**
 334:Libraries/STM32F4xx_HAL_Driver/Src/stm32f4xx_hal_adc_ex.c ****   * @brief  Stop conversion of injected channels. Disable ADC peripheral if
 335:Libraries/STM32F4xx_HAL_Driver/Src/stm32f4xx_hal_adc_ex.c ****   *         no regular conversion is on going.
 336:Libraries/STM32F4xx_HAL_Driver/Src/stm32f4xx_hal_adc_ex.c ****   * @note   If ADC must be disabled and if conversion is on going on 
 337:Libraries/STM32F4xx_HAL_Driver/Src/stm32f4xx_hal_adc_ex.c ****   *         regular group, function HAL_ADC_Stop must be used to stop both
 338:Libraries/STM32F4xx_HAL_Driver/Src/stm32f4xx_hal_adc_ex.c ****   *         injected and regular groups, and disable the ADC.
 339:Libraries/STM32F4xx_HAL_Driver/Src/stm32f4xx_hal_adc_ex.c ****   * @note   If injected group mode auto-injection is enabled,
 340:Libraries/STM32F4xx_HAL_Driver/Src/stm32f4xx_hal_adc_ex.c ****   *         function HAL_ADC_Stop must be used.
 341:Libraries/STM32F4xx_HAL_Driver/Src/stm32f4xx_hal_adc_ex.c ****   * @note   In case of auto-injection mode, HAL_ADC_Stop must be used.
 342:Libraries/STM32F4xx_HAL_Driver/Src/stm32f4xx_hal_adc_ex.c ****   * @param  hadc ADC handle
 343:Libraries/STM32F4xx_HAL_Driver/Src/stm32f4xx_hal_adc_ex.c ****   * @retval None
 344:Libraries/STM32F4xx_HAL_Driver/Src/stm32f4xx_hal_adc_ex.c ****   */
 345:Libraries/STM32F4xx_HAL_Driver/Src/stm32f4xx_hal_adc_ex.c **** HAL_StatusTypeDef HAL_ADCEx_InjectedStop(ADC_HandleTypeDef* hadc)
 346:Libraries/STM32F4xx_HAL_Driver/Src/stm32f4xx_hal_adc_ex.c **** {
 347:Libraries/STM32F4xx_HAL_Driver/Src/stm32f4xx_hal_adc_ex.c ****   HAL_StatusTypeDef tmp_hal_status = HAL_OK;
 348:Libraries/STM32F4xx_HAL_Driver/Src/stm32f4xx_hal_adc_ex.c ****   
 349:Libraries/STM32F4xx_HAL_Driver/Src/stm32f4xx_hal_adc_ex.c ****   /* Check the parameters */
 350:Libraries/STM32F4xx_HAL_Driver/Src/stm32f4xx_hal_adc_ex.c ****   assert_param(IS_ADC_ALL_INSTANCE(hadc->Instance));
 351:Libraries/STM32F4xx_HAL_Driver/Src/stm32f4xx_hal_adc_ex.c **** 
 352:Libraries/STM32F4xx_HAL_Driver/Src/stm32f4xx_hal_adc_ex.c ****   /* Process locked */
 353:Libraries/STM32F4xx_HAL_Driver/Src/stm32f4xx_hal_adc_ex.c ****   __HAL_LOCK(hadc);
 354:Libraries/STM32F4xx_HAL_Driver/Src/stm32f4xx_hal_adc_ex.c ****     
 355:Libraries/STM32F4xx_HAL_Driver/Src/stm32f4xx_hal_adc_ex.c ****   /* Stop potential conversion and disable ADC peripheral                     */
 356:Libraries/STM32F4xx_HAL_Driver/Src/stm32f4xx_hal_adc_ex.c ****   /* Conditioned to:                                                          */
 357:Libraries/STM32F4xx_HAL_Driver/Src/stm32f4xx_hal_adc_ex.c ****   /* - No conversion on the other group (regular group) is intended to        */
 358:Libraries/STM32F4xx_HAL_Driver/Src/stm32f4xx_hal_adc_ex.c ****   /*   continue (injected and regular groups stop conversion and ADC disable  */
 359:Libraries/STM32F4xx_HAL_Driver/Src/stm32f4xx_hal_adc_ex.c ****   /*   are common)                                                            */
 360:Libraries/STM32F4xx_HAL_Driver/Src/stm32f4xx_hal_adc_ex.c ****   /* - In case of auto-injection mode, HAL_ADC_Stop must be used.             */
 361:Libraries/STM32F4xx_HAL_Driver/Src/stm32f4xx_hal_adc_ex.c ****   if(((hadc->State & HAL_ADC_STATE_REG_BUSY) == RESET)  &&
 362:Libraries/STM32F4xx_HAL_Driver/Src/stm32f4xx_hal_adc_ex.c ****      HAL_IS_BIT_CLR(hadc->Instance->CR1, ADC_CR1_JAUTO)   )
 363:Libraries/STM32F4xx_HAL_Driver/Src/stm32f4xx_hal_adc_ex.c ****   {
 364:Libraries/STM32F4xx_HAL_Driver/Src/stm32f4xx_hal_adc_ex.c ****     /* Stop potential conversion on going, on regular and injected groups */
 365:Libraries/STM32F4xx_HAL_Driver/Src/stm32f4xx_hal_adc_ex.c ****     /* Disable ADC peripheral */
 366:Libraries/STM32F4xx_HAL_Driver/Src/stm32f4xx_hal_adc_ex.c ****     __HAL_ADC_DISABLE(hadc);
 367:Libraries/STM32F4xx_HAL_Driver/Src/stm32f4xx_hal_adc_ex.c ****     
 368:Libraries/STM32F4xx_HAL_Driver/Src/stm32f4xx_hal_adc_ex.c ****     /* Check if ADC is effectively disabled */
 369:Libraries/STM32F4xx_HAL_Driver/Src/stm32f4xx_hal_adc_ex.c ****     if(HAL_IS_BIT_CLR(hadc->Instance->CR2, ADC_CR2_ADON))
 370:Libraries/STM32F4xx_HAL_Driver/Src/stm32f4xx_hal_adc_ex.c ****     {
 371:Libraries/STM32F4xx_HAL_Driver/Src/stm32f4xx_hal_adc_ex.c ****       /* Set ADC state */
 372:Libraries/STM32F4xx_HAL_Driver/Src/stm32f4xx_hal_adc_ex.c ****       ADC_STATE_CLR_SET(hadc->State,
 373:Libraries/STM32F4xx_HAL_Driver/Src/stm32f4xx_hal_adc_ex.c ****                         HAL_ADC_STATE_REG_BUSY | HAL_ADC_STATE_INJ_BUSY,
 374:Libraries/STM32F4xx_HAL_Driver/Src/stm32f4xx_hal_adc_ex.c ****                         HAL_ADC_STATE_READY);
ARM GAS  C:\Users\yzy\AppData\Local\Temp\ccN466ht.s 			page 8


 375:Libraries/STM32F4xx_HAL_Driver/Src/stm32f4xx_hal_adc_ex.c ****     }
 376:Libraries/STM32F4xx_HAL_Driver/Src/stm32f4xx_hal_adc_ex.c ****   }
 377:Libraries/STM32F4xx_HAL_Driver/Src/stm32f4xx_hal_adc_ex.c ****   else
 378:Libraries/STM32F4xx_HAL_Driver/Src/stm32f4xx_hal_adc_ex.c ****   {
 379:Libraries/STM32F4xx_HAL_Driver/Src/stm32f4xx_hal_adc_ex.c ****     /* Update ADC state machine to error */
 380:Libraries/STM32F4xx_HAL_Driver/Src/stm32f4xx_hal_adc_ex.c ****     SET_BIT(hadc->State, HAL_ADC_STATE_ERROR_CONFIG);
 381:Libraries/STM32F4xx_HAL_Driver/Src/stm32f4xx_hal_adc_ex.c ****       
 382:Libraries/STM32F4xx_HAL_Driver/Src/stm32f4xx_hal_adc_ex.c ****     tmp_hal_status = HAL_ERROR;
 383:Libraries/STM32F4xx_HAL_Driver/Src/stm32f4xx_hal_adc_ex.c ****   }
 384:Libraries/STM32F4xx_HAL_Driver/Src/stm32f4xx_hal_adc_ex.c ****   
 385:Libraries/STM32F4xx_HAL_Driver/Src/stm32f4xx_hal_adc_ex.c ****   /* Process unlocked */
 386:Libraries/STM32F4xx_HAL_Driver/Src/stm32f4xx_hal_adc_ex.c ****   __HAL_UNLOCK(hadc);
 387:Libraries/STM32F4xx_HAL_Driver/Src/stm32f4xx_hal_adc_ex.c ****   
 388:Libraries/STM32F4xx_HAL_Driver/Src/stm32f4xx_hal_adc_ex.c ****   /* Return function status */
 389:Libraries/STM32F4xx_HAL_Driver/Src/stm32f4xx_hal_adc_ex.c ****   return tmp_hal_status;
 390:Libraries/STM32F4xx_HAL_Driver/Src/stm32f4xx_hal_adc_ex.c **** }
 391:Libraries/STM32F4xx_HAL_Driver/Src/stm32f4xx_hal_adc_ex.c **** 
 392:Libraries/STM32F4xx_HAL_Driver/Src/stm32f4xx_hal_adc_ex.c **** /**
 393:Libraries/STM32F4xx_HAL_Driver/Src/stm32f4xx_hal_adc_ex.c ****   * @brief  Poll for injected conversion complete
 394:Libraries/STM32F4xx_HAL_Driver/Src/stm32f4xx_hal_adc_ex.c ****   * @param  hadc pointer to a ADC_HandleTypeDef structure that contains
 395:Libraries/STM32F4xx_HAL_Driver/Src/stm32f4xx_hal_adc_ex.c ****   *         the configuration information for the specified ADC.
 396:Libraries/STM32F4xx_HAL_Driver/Src/stm32f4xx_hal_adc_ex.c ****   * @param  Timeout Timeout value in millisecond.  
 397:Libraries/STM32F4xx_HAL_Driver/Src/stm32f4xx_hal_adc_ex.c ****   * @retval HAL status
 398:Libraries/STM32F4xx_HAL_Driver/Src/stm32f4xx_hal_adc_ex.c ****   */
 399:Libraries/STM32F4xx_HAL_Driver/Src/stm32f4xx_hal_adc_ex.c **** HAL_StatusTypeDef HAL_ADCEx_InjectedPollForConversion(ADC_HandleTypeDef* hadc, uint32_t Timeout)
 400:Libraries/STM32F4xx_HAL_Driver/Src/stm32f4xx_hal_adc_ex.c **** {
 401:Libraries/STM32F4xx_HAL_Driver/Src/stm32f4xx_hal_adc_ex.c ****   uint32_t tickstart = 0U;
 402:Libraries/STM32F4xx_HAL_Driver/Src/stm32f4xx_hal_adc_ex.c **** 
 403:Libraries/STM32F4xx_HAL_Driver/Src/stm32f4xx_hal_adc_ex.c ****   /* Get tick */ 
 404:Libraries/STM32F4xx_HAL_Driver/Src/stm32f4xx_hal_adc_ex.c ****   tickstart = HAL_GetTick();
 405:Libraries/STM32F4xx_HAL_Driver/Src/stm32f4xx_hal_adc_ex.c **** 
 406:Libraries/STM32F4xx_HAL_Driver/Src/stm32f4xx_hal_adc_ex.c ****   /* Check End of conversion flag */
 407:Libraries/STM32F4xx_HAL_Driver/Src/stm32f4xx_hal_adc_ex.c ****   while(!(__HAL_ADC_GET_FLAG(hadc, ADC_FLAG_JEOC)))
 408:Libraries/STM32F4xx_HAL_Driver/Src/stm32f4xx_hal_adc_ex.c ****   {
 409:Libraries/STM32F4xx_HAL_Driver/Src/stm32f4xx_hal_adc_ex.c ****     /* Check for the Timeout */
 410:Libraries/STM32F4xx_HAL_Driver/Src/stm32f4xx_hal_adc_ex.c ****     if(Timeout != HAL_MAX_DELAY)
 411:Libraries/STM32F4xx_HAL_Driver/Src/stm32f4xx_hal_adc_ex.c ****     {
 412:Libraries/STM32F4xx_HAL_Driver/Src/stm32f4xx_hal_adc_ex.c ****       if((Timeout == 0U)||((HAL_GetTick() - tickstart ) > Timeout))
 413:Libraries/STM32F4xx_HAL_Driver/Src/stm32f4xx_hal_adc_ex.c ****       {
 414:Libraries/STM32F4xx_HAL_Driver/Src/stm32f4xx_hal_adc_ex.c ****         hadc->State= HAL_ADC_STATE_TIMEOUT;
 415:Libraries/STM32F4xx_HAL_Driver/Src/stm32f4xx_hal_adc_ex.c ****         /* Process unlocked */
 416:Libraries/STM32F4xx_HAL_Driver/Src/stm32f4xx_hal_adc_ex.c ****         __HAL_UNLOCK(hadc);
 417:Libraries/STM32F4xx_HAL_Driver/Src/stm32f4xx_hal_adc_ex.c ****         return HAL_TIMEOUT;
 418:Libraries/STM32F4xx_HAL_Driver/Src/stm32f4xx_hal_adc_ex.c ****       }
 419:Libraries/STM32F4xx_HAL_Driver/Src/stm32f4xx_hal_adc_ex.c ****     }
 420:Libraries/STM32F4xx_HAL_Driver/Src/stm32f4xx_hal_adc_ex.c ****   }
 421:Libraries/STM32F4xx_HAL_Driver/Src/stm32f4xx_hal_adc_ex.c ****   
 422:Libraries/STM32F4xx_HAL_Driver/Src/stm32f4xx_hal_adc_ex.c ****   /* Clear injected group conversion flag */
 423:Libraries/STM32F4xx_HAL_Driver/Src/stm32f4xx_hal_adc_ex.c ****   __HAL_ADC_CLEAR_FLAG(hadc, ADC_FLAG_JSTRT | ADC_FLAG_JEOC);
 424:Libraries/STM32F4xx_HAL_Driver/Src/stm32f4xx_hal_adc_ex.c ****     
 425:Libraries/STM32F4xx_HAL_Driver/Src/stm32f4xx_hal_adc_ex.c ****   /* Update ADC state machine */
 426:Libraries/STM32F4xx_HAL_Driver/Src/stm32f4xx_hal_adc_ex.c ****   SET_BIT(hadc->State, HAL_ADC_STATE_INJ_EOC);
 427:Libraries/STM32F4xx_HAL_Driver/Src/stm32f4xx_hal_adc_ex.c ****   
 428:Libraries/STM32F4xx_HAL_Driver/Src/stm32f4xx_hal_adc_ex.c ****   /* Determine whether any further conversion upcoming on group injected      */
 429:Libraries/STM32F4xx_HAL_Driver/Src/stm32f4xx_hal_adc_ex.c ****   /* by external trigger, continuous mode or scan sequence on going.          */
 430:Libraries/STM32F4xx_HAL_Driver/Src/stm32f4xx_hal_adc_ex.c ****   /* Note: On STM32F4, there is no independent flag of end of sequence.       */
 431:Libraries/STM32F4xx_HAL_Driver/Src/stm32f4xx_hal_adc_ex.c ****   /*       The test of scan sequence on going is done either with scan        */
ARM GAS  C:\Users\yzy\AppData\Local\Temp\ccN466ht.s 			page 9


 432:Libraries/STM32F4xx_HAL_Driver/Src/stm32f4xx_hal_adc_ex.c ****   /*       sequence disabled or with end of conversion flag set to            */
 433:Libraries/STM32F4xx_HAL_Driver/Src/stm32f4xx_hal_adc_ex.c ****   /*       of end of sequence.                                                */
 434:Libraries/STM32F4xx_HAL_Driver/Src/stm32f4xx_hal_adc_ex.c ****   if(ADC_IS_SOFTWARE_START_INJECTED(hadc)                    &&
 435:Libraries/STM32F4xx_HAL_Driver/Src/stm32f4xx_hal_adc_ex.c ****      (HAL_IS_BIT_CLR(hadc->Instance->JSQR, ADC_JSQR_JL)  ||
 436:Libraries/STM32F4xx_HAL_Driver/Src/stm32f4xx_hal_adc_ex.c ****       HAL_IS_BIT_CLR(hadc->Instance->CR2, ADC_CR2_EOCS)    ) &&
 437:Libraries/STM32F4xx_HAL_Driver/Src/stm32f4xx_hal_adc_ex.c ****      (HAL_IS_BIT_CLR(hadc->Instance->CR1, ADC_CR1_JAUTO) &&
 438:Libraries/STM32F4xx_HAL_Driver/Src/stm32f4xx_hal_adc_ex.c ****       (ADC_IS_SOFTWARE_START_REGULAR(hadc)       &&
 439:Libraries/STM32F4xx_HAL_Driver/Src/stm32f4xx_hal_adc_ex.c ****       (hadc->Init.ContinuousConvMode == DISABLE)   )       )   )
 440:Libraries/STM32F4xx_HAL_Driver/Src/stm32f4xx_hal_adc_ex.c ****   {
 441:Libraries/STM32F4xx_HAL_Driver/Src/stm32f4xx_hal_adc_ex.c ****     /* Set ADC state */
 442:Libraries/STM32F4xx_HAL_Driver/Src/stm32f4xx_hal_adc_ex.c ****     CLEAR_BIT(hadc->State, HAL_ADC_STATE_INJ_BUSY);
 443:Libraries/STM32F4xx_HAL_Driver/Src/stm32f4xx_hal_adc_ex.c ****     
 444:Libraries/STM32F4xx_HAL_Driver/Src/stm32f4xx_hal_adc_ex.c ****     if (HAL_IS_BIT_CLR(hadc->State, HAL_ADC_STATE_REG_BUSY))
 445:Libraries/STM32F4xx_HAL_Driver/Src/stm32f4xx_hal_adc_ex.c ****     { 
 446:Libraries/STM32F4xx_HAL_Driver/Src/stm32f4xx_hal_adc_ex.c ****       SET_BIT(hadc->State, HAL_ADC_STATE_READY);
 447:Libraries/STM32F4xx_HAL_Driver/Src/stm32f4xx_hal_adc_ex.c ****     }
 448:Libraries/STM32F4xx_HAL_Driver/Src/stm32f4xx_hal_adc_ex.c ****   }
 449:Libraries/STM32F4xx_HAL_Driver/Src/stm32f4xx_hal_adc_ex.c ****   
 450:Libraries/STM32F4xx_HAL_Driver/Src/stm32f4xx_hal_adc_ex.c ****   /* Return ADC state */
 451:Libraries/STM32F4xx_HAL_Driver/Src/stm32f4xx_hal_adc_ex.c ****   return HAL_OK;
 452:Libraries/STM32F4xx_HAL_Driver/Src/stm32f4xx_hal_adc_ex.c **** }      
 453:Libraries/STM32F4xx_HAL_Driver/Src/stm32f4xx_hal_adc_ex.c ****   
 454:Libraries/STM32F4xx_HAL_Driver/Src/stm32f4xx_hal_adc_ex.c **** /**
 455:Libraries/STM32F4xx_HAL_Driver/Src/stm32f4xx_hal_adc_ex.c ****   * @brief  Stop conversion of injected channels, disable interruption of 
 456:Libraries/STM32F4xx_HAL_Driver/Src/stm32f4xx_hal_adc_ex.c ****   *         end-of-conversion. Disable ADC peripheral if no regular conversion
 457:Libraries/STM32F4xx_HAL_Driver/Src/stm32f4xx_hal_adc_ex.c ****   *         is on going.
 458:Libraries/STM32F4xx_HAL_Driver/Src/stm32f4xx_hal_adc_ex.c ****   * @note   If ADC must be disabled and if conversion is on going on 
 459:Libraries/STM32F4xx_HAL_Driver/Src/stm32f4xx_hal_adc_ex.c ****   *         regular group, function HAL_ADC_Stop must be used to stop both
 460:Libraries/STM32F4xx_HAL_Driver/Src/stm32f4xx_hal_adc_ex.c ****   *         injected and regular groups, and disable the ADC.
 461:Libraries/STM32F4xx_HAL_Driver/Src/stm32f4xx_hal_adc_ex.c ****   * @note   If injected group mode auto-injection is enabled,
 462:Libraries/STM32F4xx_HAL_Driver/Src/stm32f4xx_hal_adc_ex.c ****   *         function HAL_ADC_Stop must be used.
 463:Libraries/STM32F4xx_HAL_Driver/Src/stm32f4xx_hal_adc_ex.c ****   * @param  hadc ADC handle
 464:Libraries/STM32F4xx_HAL_Driver/Src/stm32f4xx_hal_adc_ex.c ****   * @retval None
 465:Libraries/STM32F4xx_HAL_Driver/Src/stm32f4xx_hal_adc_ex.c ****   */
 466:Libraries/STM32F4xx_HAL_Driver/Src/stm32f4xx_hal_adc_ex.c **** HAL_StatusTypeDef HAL_ADCEx_InjectedStop_IT(ADC_HandleTypeDef* hadc)
 467:Libraries/STM32F4xx_HAL_Driver/Src/stm32f4xx_hal_adc_ex.c **** {
 468:Libraries/STM32F4xx_HAL_Driver/Src/stm32f4xx_hal_adc_ex.c ****   HAL_StatusTypeDef tmp_hal_status = HAL_OK;
 469:Libraries/STM32F4xx_HAL_Driver/Src/stm32f4xx_hal_adc_ex.c ****   
 470:Libraries/STM32F4xx_HAL_Driver/Src/stm32f4xx_hal_adc_ex.c ****   /* Check the parameters */
 471:Libraries/STM32F4xx_HAL_Driver/Src/stm32f4xx_hal_adc_ex.c ****   assert_param(IS_ADC_ALL_INSTANCE(hadc->Instance));
 472:Libraries/STM32F4xx_HAL_Driver/Src/stm32f4xx_hal_adc_ex.c **** 
 473:Libraries/STM32F4xx_HAL_Driver/Src/stm32f4xx_hal_adc_ex.c ****   /* Process locked */
 474:Libraries/STM32F4xx_HAL_Driver/Src/stm32f4xx_hal_adc_ex.c ****   __HAL_LOCK(hadc);
 475:Libraries/STM32F4xx_HAL_Driver/Src/stm32f4xx_hal_adc_ex.c ****     
 476:Libraries/STM32F4xx_HAL_Driver/Src/stm32f4xx_hal_adc_ex.c ****   /* Stop potential conversion and disable ADC peripheral                     */
 477:Libraries/STM32F4xx_HAL_Driver/Src/stm32f4xx_hal_adc_ex.c ****   /* Conditioned to:                                                          */
 478:Libraries/STM32F4xx_HAL_Driver/Src/stm32f4xx_hal_adc_ex.c ****   /* - No conversion on the other group (regular group) is intended to        */
 479:Libraries/STM32F4xx_HAL_Driver/Src/stm32f4xx_hal_adc_ex.c ****   /*   continue (injected and regular groups stop conversion and ADC disable  */
 480:Libraries/STM32F4xx_HAL_Driver/Src/stm32f4xx_hal_adc_ex.c ****   /*   are common)                                                            */
 481:Libraries/STM32F4xx_HAL_Driver/Src/stm32f4xx_hal_adc_ex.c ****   /* - In case of auto-injection mode, HAL_ADC_Stop must be used.             */ 
 482:Libraries/STM32F4xx_HAL_Driver/Src/stm32f4xx_hal_adc_ex.c ****   if(((hadc->State & HAL_ADC_STATE_REG_BUSY) == RESET)  &&
 483:Libraries/STM32F4xx_HAL_Driver/Src/stm32f4xx_hal_adc_ex.c ****      HAL_IS_BIT_CLR(hadc->Instance->CR1, ADC_CR1_JAUTO)   )
 484:Libraries/STM32F4xx_HAL_Driver/Src/stm32f4xx_hal_adc_ex.c ****   {
 485:Libraries/STM32F4xx_HAL_Driver/Src/stm32f4xx_hal_adc_ex.c ****     /* Stop potential conversion on going, on regular and injected groups */
 486:Libraries/STM32F4xx_HAL_Driver/Src/stm32f4xx_hal_adc_ex.c ****     /* Disable ADC peripheral */
 487:Libraries/STM32F4xx_HAL_Driver/Src/stm32f4xx_hal_adc_ex.c ****     __HAL_ADC_DISABLE(hadc);
 488:Libraries/STM32F4xx_HAL_Driver/Src/stm32f4xx_hal_adc_ex.c ****     
ARM GAS  C:\Users\yzy\AppData\Local\Temp\ccN466ht.s 			page 10


 489:Libraries/STM32F4xx_HAL_Driver/Src/stm32f4xx_hal_adc_ex.c ****     /* Check if ADC is effectively disabled */
 490:Libraries/STM32F4xx_HAL_Driver/Src/stm32f4xx_hal_adc_ex.c ****     if(HAL_IS_BIT_CLR(hadc->Instance->CR2, ADC_CR2_ADON))
 491:Libraries/STM32F4xx_HAL_Driver/Src/stm32f4xx_hal_adc_ex.c ****     {
 492:Libraries/STM32F4xx_HAL_Driver/Src/stm32f4xx_hal_adc_ex.c ****       /* Disable ADC end of conversion interrupt for injected channels */
 493:Libraries/STM32F4xx_HAL_Driver/Src/stm32f4xx_hal_adc_ex.c ****       __HAL_ADC_DISABLE_IT(hadc, ADC_IT_JEOC);
 494:Libraries/STM32F4xx_HAL_Driver/Src/stm32f4xx_hal_adc_ex.c ****       
 495:Libraries/STM32F4xx_HAL_Driver/Src/stm32f4xx_hal_adc_ex.c ****       /* Set ADC state */
 496:Libraries/STM32F4xx_HAL_Driver/Src/stm32f4xx_hal_adc_ex.c ****       ADC_STATE_CLR_SET(hadc->State,
 497:Libraries/STM32F4xx_HAL_Driver/Src/stm32f4xx_hal_adc_ex.c ****                         HAL_ADC_STATE_REG_BUSY | HAL_ADC_STATE_INJ_BUSY,
 498:Libraries/STM32F4xx_HAL_Driver/Src/stm32f4xx_hal_adc_ex.c ****                         HAL_ADC_STATE_READY);
 499:Libraries/STM32F4xx_HAL_Driver/Src/stm32f4xx_hal_adc_ex.c ****     }
 500:Libraries/STM32F4xx_HAL_Driver/Src/stm32f4xx_hal_adc_ex.c ****   }
 501:Libraries/STM32F4xx_HAL_Driver/Src/stm32f4xx_hal_adc_ex.c ****   else
 502:Libraries/STM32F4xx_HAL_Driver/Src/stm32f4xx_hal_adc_ex.c ****   {
 503:Libraries/STM32F4xx_HAL_Driver/Src/stm32f4xx_hal_adc_ex.c ****     /* Update ADC state machine to error */
 504:Libraries/STM32F4xx_HAL_Driver/Src/stm32f4xx_hal_adc_ex.c ****     SET_BIT(hadc->State, HAL_ADC_STATE_ERROR_CONFIG);
 505:Libraries/STM32F4xx_HAL_Driver/Src/stm32f4xx_hal_adc_ex.c ****       
 506:Libraries/STM32F4xx_HAL_Driver/Src/stm32f4xx_hal_adc_ex.c ****     tmp_hal_status = HAL_ERROR;
 507:Libraries/STM32F4xx_HAL_Driver/Src/stm32f4xx_hal_adc_ex.c ****   }
 508:Libraries/STM32F4xx_HAL_Driver/Src/stm32f4xx_hal_adc_ex.c ****   
 509:Libraries/STM32F4xx_HAL_Driver/Src/stm32f4xx_hal_adc_ex.c ****   /* Process unlocked */
 510:Libraries/STM32F4xx_HAL_Driver/Src/stm32f4xx_hal_adc_ex.c ****   __HAL_UNLOCK(hadc);
 511:Libraries/STM32F4xx_HAL_Driver/Src/stm32f4xx_hal_adc_ex.c ****   
 512:Libraries/STM32F4xx_HAL_Driver/Src/stm32f4xx_hal_adc_ex.c ****   /* Return function status */
 513:Libraries/STM32F4xx_HAL_Driver/Src/stm32f4xx_hal_adc_ex.c ****   return tmp_hal_status;
 514:Libraries/STM32F4xx_HAL_Driver/Src/stm32f4xx_hal_adc_ex.c **** }
 515:Libraries/STM32F4xx_HAL_Driver/Src/stm32f4xx_hal_adc_ex.c **** 
 516:Libraries/STM32F4xx_HAL_Driver/Src/stm32f4xx_hal_adc_ex.c **** /**
 517:Libraries/STM32F4xx_HAL_Driver/Src/stm32f4xx_hal_adc_ex.c ****   * @brief  Gets the converted value from data register of injected channel.
 518:Libraries/STM32F4xx_HAL_Driver/Src/stm32f4xx_hal_adc_ex.c ****   * @param  hadc pointer to a ADC_HandleTypeDef structure that contains
 519:Libraries/STM32F4xx_HAL_Driver/Src/stm32f4xx_hal_adc_ex.c ****   *         the configuration information for the specified ADC.
 520:Libraries/STM32F4xx_HAL_Driver/Src/stm32f4xx_hal_adc_ex.c ****   * @param  InjectedRank the ADC injected rank.
 521:Libraries/STM32F4xx_HAL_Driver/Src/stm32f4xx_hal_adc_ex.c ****   *          This parameter can be one of the following values:
 522:Libraries/STM32F4xx_HAL_Driver/Src/stm32f4xx_hal_adc_ex.c ****   *            @arg ADC_INJECTED_RANK_1: Injected Channel1 selected
 523:Libraries/STM32F4xx_HAL_Driver/Src/stm32f4xx_hal_adc_ex.c ****   *            @arg ADC_INJECTED_RANK_2: Injected Channel2 selected
 524:Libraries/STM32F4xx_HAL_Driver/Src/stm32f4xx_hal_adc_ex.c ****   *            @arg ADC_INJECTED_RANK_3: Injected Channel3 selected
 525:Libraries/STM32F4xx_HAL_Driver/Src/stm32f4xx_hal_adc_ex.c ****   *            @arg ADC_INJECTED_RANK_4: Injected Channel4 selected
 526:Libraries/STM32F4xx_HAL_Driver/Src/stm32f4xx_hal_adc_ex.c ****   * @retval None
 527:Libraries/STM32F4xx_HAL_Driver/Src/stm32f4xx_hal_adc_ex.c ****   */
 528:Libraries/STM32F4xx_HAL_Driver/Src/stm32f4xx_hal_adc_ex.c **** uint32_t HAL_ADCEx_InjectedGetValue(ADC_HandleTypeDef* hadc, uint32_t InjectedRank)
 529:Libraries/STM32F4xx_HAL_Driver/Src/stm32f4xx_hal_adc_ex.c **** {
 530:Libraries/STM32F4xx_HAL_Driver/Src/stm32f4xx_hal_adc_ex.c ****   __IO uint32_t tmp = 0U;
 531:Libraries/STM32F4xx_HAL_Driver/Src/stm32f4xx_hal_adc_ex.c ****   
 532:Libraries/STM32F4xx_HAL_Driver/Src/stm32f4xx_hal_adc_ex.c ****   /* Check the parameters */
 533:Libraries/STM32F4xx_HAL_Driver/Src/stm32f4xx_hal_adc_ex.c ****   assert_param(IS_ADC_INJECTED_RANK(InjectedRank));
 534:Libraries/STM32F4xx_HAL_Driver/Src/stm32f4xx_hal_adc_ex.c ****   
 535:Libraries/STM32F4xx_HAL_Driver/Src/stm32f4xx_hal_adc_ex.c ****   /* Clear injected group conversion flag to have similar behaviour as        */
 536:Libraries/STM32F4xx_HAL_Driver/Src/stm32f4xx_hal_adc_ex.c ****   /* regular group: reading data register also clears end of conversion flag. */
 537:Libraries/STM32F4xx_HAL_Driver/Src/stm32f4xx_hal_adc_ex.c ****   __HAL_ADC_CLEAR_FLAG(hadc, ADC_FLAG_JEOC);
 538:Libraries/STM32F4xx_HAL_Driver/Src/stm32f4xx_hal_adc_ex.c ****   
 539:Libraries/STM32F4xx_HAL_Driver/Src/stm32f4xx_hal_adc_ex.c ****   /* Return the selected ADC converted value */ 
 540:Libraries/STM32F4xx_HAL_Driver/Src/stm32f4xx_hal_adc_ex.c ****   switch(InjectedRank)
 541:Libraries/STM32F4xx_HAL_Driver/Src/stm32f4xx_hal_adc_ex.c ****   {  
 542:Libraries/STM32F4xx_HAL_Driver/Src/stm32f4xx_hal_adc_ex.c ****     case ADC_INJECTED_RANK_4:
 543:Libraries/STM32F4xx_HAL_Driver/Src/stm32f4xx_hal_adc_ex.c ****     {
 544:Libraries/STM32F4xx_HAL_Driver/Src/stm32f4xx_hal_adc_ex.c ****       tmp =  hadc->Instance->JDR4;
 545:Libraries/STM32F4xx_HAL_Driver/Src/stm32f4xx_hal_adc_ex.c ****     }  
ARM GAS  C:\Users\yzy\AppData\Local\Temp\ccN466ht.s 			page 11


 546:Libraries/STM32F4xx_HAL_Driver/Src/stm32f4xx_hal_adc_ex.c ****     break;
 547:Libraries/STM32F4xx_HAL_Driver/Src/stm32f4xx_hal_adc_ex.c ****     case ADC_INJECTED_RANK_3: 
 548:Libraries/STM32F4xx_HAL_Driver/Src/stm32f4xx_hal_adc_ex.c ****     {  
 549:Libraries/STM32F4xx_HAL_Driver/Src/stm32f4xx_hal_adc_ex.c ****       tmp =  hadc->Instance->JDR3;
 550:Libraries/STM32F4xx_HAL_Driver/Src/stm32f4xx_hal_adc_ex.c ****     }  
 551:Libraries/STM32F4xx_HAL_Driver/Src/stm32f4xx_hal_adc_ex.c ****     break;
 552:Libraries/STM32F4xx_HAL_Driver/Src/stm32f4xx_hal_adc_ex.c ****     case ADC_INJECTED_RANK_2: 
 553:Libraries/STM32F4xx_HAL_Driver/Src/stm32f4xx_hal_adc_ex.c ****     {  
 554:Libraries/STM32F4xx_HAL_Driver/Src/stm32f4xx_hal_adc_ex.c ****       tmp =  hadc->Instance->JDR2;
 555:Libraries/STM32F4xx_HAL_Driver/Src/stm32f4xx_hal_adc_ex.c ****     }
 556:Libraries/STM32F4xx_HAL_Driver/Src/stm32f4xx_hal_adc_ex.c ****     break;
 557:Libraries/STM32F4xx_HAL_Driver/Src/stm32f4xx_hal_adc_ex.c ****     case ADC_INJECTED_RANK_1:
 558:Libraries/STM32F4xx_HAL_Driver/Src/stm32f4xx_hal_adc_ex.c ****     {
 559:Libraries/STM32F4xx_HAL_Driver/Src/stm32f4xx_hal_adc_ex.c ****       tmp =  hadc->Instance->JDR1;
 560:Libraries/STM32F4xx_HAL_Driver/Src/stm32f4xx_hal_adc_ex.c ****     }
 561:Libraries/STM32F4xx_HAL_Driver/Src/stm32f4xx_hal_adc_ex.c ****     break;
 562:Libraries/STM32F4xx_HAL_Driver/Src/stm32f4xx_hal_adc_ex.c ****     default:
 563:Libraries/STM32F4xx_HAL_Driver/Src/stm32f4xx_hal_adc_ex.c ****     break;  
 564:Libraries/STM32F4xx_HAL_Driver/Src/stm32f4xx_hal_adc_ex.c ****   }
 565:Libraries/STM32F4xx_HAL_Driver/Src/stm32f4xx_hal_adc_ex.c ****   return tmp;
 566:Libraries/STM32F4xx_HAL_Driver/Src/stm32f4xx_hal_adc_ex.c **** }
 567:Libraries/STM32F4xx_HAL_Driver/Src/stm32f4xx_hal_adc_ex.c **** 
 568:Libraries/STM32F4xx_HAL_Driver/Src/stm32f4xx_hal_adc_ex.c **** /**
 569:Libraries/STM32F4xx_HAL_Driver/Src/stm32f4xx_hal_adc_ex.c ****   * @brief  Enables ADC DMA request after last transfer (Multi-ADC mode) and enables ADC peripheral
 570:Libraries/STM32F4xx_HAL_Driver/Src/stm32f4xx_hal_adc_ex.c ****   * 
 571:Libraries/STM32F4xx_HAL_Driver/Src/stm32f4xx_hal_adc_ex.c ****   * @note   Caution: This function must be used only with the ADC master.  
 572:Libraries/STM32F4xx_HAL_Driver/Src/stm32f4xx_hal_adc_ex.c ****   *
 573:Libraries/STM32F4xx_HAL_Driver/Src/stm32f4xx_hal_adc_ex.c ****   * @param  hadc pointer to a ADC_HandleTypeDef structure that contains
 574:Libraries/STM32F4xx_HAL_Driver/Src/stm32f4xx_hal_adc_ex.c ****   *         the configuration information for the specified ADC.
 575:Libraries/STM32F4xx_HAL_Driver/Src/stm32f4xx_hal_adc_ex.c ****   * @param  pData   Pointer to buffer in which transferred from ADC peripheral to memory will be st
 576:Libraries/STM32F4xx_HAL_Driver/Src/stm32f4xx_hal_adc_ex.c ****   * @param  Length  The length of data to be transferred from ADC peripheral to memory.  
 577:Libraries/STM32F4xx_HAL_Driver/Src/stm32f4xx_hal_adc_ex.c ****   * @retval HAL status
 578:Libraries/STM32F4xx_HAL_Driver/Src/stm32f4xx_hal_adc_ex.c ****   */
 579:Libraries/STM32F4xx_HAL_Driver/Src/stm32f4xx_hal_adc_ex.c **** HAL_StatusTypeDef HAL_ADCEx_MultiModeStart_DMA(ADC_HandleTypeDef* hadc, uint32_t* pData, uint32_t L
 580:Libraries/STM32F4xx_HAL_Driver/Src/stm32f4xx_hal_adc_ex.c **** {
 581:Libraries/STM32F4xx_HAL_Driver/Src/stm32f4xx_hal_adc_ex.c ****   __IO uint32_t counter = 0U;
 582:Libraries/STM32F4xx_HAL_Driver/Src/stm32f4xx_hal_adc_ex.c ****   ADC_Common_TypeDef *tmpADC_Common;
 583:Libraries/STM32F4xx_HAL_Driver/Src/stm32f4xx_hal_adc_ex.c ****   
 584:Libraries/STM32F4xx_HAL_Driver/Src/stm32f4xx_hal_adc_ex.c ****   /* Check the parameters */
 585:Libraries/STM32F4xx_HAL_Driver/Src/stm32f4xx_hal_adc_ex.c ****   assert_param(IS_FUNCTIONAL_STATE(hadc->Init.ContinuousConvMode));
 586:Libraries/STM32F4xx_HAL_Driver/Src/stm32f4xx_hal_adc_ex.c ****   assert_param(IS_ADC_EXT_TRIG_EDGE(hadc->Init.ExternalTrigConvEdge));
 587:Libraries/STM32F4xx_HAL_Driver/Src/stm32f4xx_hal_adc_ex.c ****   assert_param(IS_FUNCTIONAL_STATE(hadc->Init.DMAContinuousRequests));
 588:Libraries/STM32F4xx_HAL_Driver/Src/stm32f4xx_hal_adc_ex.c ****   
 589:Libraries/STM32F4xx_HAL_Driver/Src/stm32f4xx_hal_adc_ex.c ****   /* Process locked */
 590:Libraries/STM32F4xx_HAL_Driver/Src/stm32f4xx_hal_adc_ex.c ****   __HAL_LOCK(hadc);
 591:Libraries/STM32F4xx_HAL_Driver/Src/stm32f4xx_hal_adc_ex.c ****   
 592:Libraries/STM32F4xx_HAL_Driver/Src/stm32f4xx_hal_adc_ex.c ****   /* Check if ADC peripheral is disabled in order to enable it and wait during 
 593:Libraries/STM32F4xx_HAL_Driver/Src/stm32f4xx_hal_adc_ex.c ****      Tstab time the ADC's stabilization */
 594:Libraries/STM32F4xx_HAL_Driver/Src/stm32f4xx_hal_adc_ex.c ****   if((hadc->Instance->CR2 & ADC_CR2_ADON) != ADC_CR2_ADON)
 595:Libraries/STM32F4xx_HAL_Driver/Src/stm32f4xx_hal_adc_ex.c ****   {  
 596:Libraries/STM32F4xx_HAL_Driver/Src/stm32f4xx_hal_adc_ex.c ****     /* Enable the Peripheral */
 597:Libraries/STM32F4xx_HAL_Driver/Src/stm32f4xx_hal_adc_ex.c ****     __HAL_ADC_ENABLE(hadc);
 598:Libraries/STM32F4xx_HAL_Driver/Src/stm32f4xx_hal_adc_ex.c ****     
 599:Libraries/STM32F4xx_HAL_Driver/Src/stm32f4xx_hal_adc_ex.c ****     /* Delay for temperature sensor stabilization time */
 600:Libraries/STM32F4xx_HAL_Driver/Src/stm32f4xx_hal_adc_ex.c ****     /* Compute number of CPU cycles to wait for */
 601:Libraries/STM32F4xx_HAL_Driver/Src/stm32f4xx_hal_adc_ex.c ****     counter = (ADC_STAB_DELAY_US * (SystemCoreClock / 1000000U));
 602:Libraries/STM32F4xx_HAL_Driver/Src/stm32f4xx_hal_adc_ex.c ****     while(counter != 0U)
ARM GAS  C:\Users\yzy\AppData\Local\Temp\ccN466ht.s 			page 12


 603:Libraries/STM32F4xx_HAL_Driver/Src/stm32f4xx_hal_adc_ex.c ****     {
 604:Libraries/STM32F4xx_HAL_Driver/Src/stm32f4xx_hal_adc_ex.c ****       counter--;
 605:Libraries/STM32F4xx_HAL_Driver/Src/stm32f4xx_hal_adc_ex.c ****     }
 606:Libraries/STM32F4xx_HAL_Driver/Src/stm32f4xx_hal_adc_ex.c ****   }
 607:Libraries/STM32F4xx_HAL_Driver/Src/stm32f4xx_hal_adc_ex.c ****   
 608:Libraries/STM32F4xx_HAL_Driver/Src/stm32f4xx_hal_adc_ex.c ****   /* Start conversion if ADC is effectively enabled */
 609:Libraries/STM32F4xx_HAL_Driver/Src/stm32f4xx_hal_adc_ex.c ****   if(HAL_IS_BIT_SET(hadc->Instance->CR2, ADC_CR2_ADON))
 610:Libraries/STM32F4xx_HAL_Driver/Src/stm32f4xx_hal_adc_ex.c ****   {
 611:Libraries/STM32F4xx_HAL_Driver/Src/stm32f4xx_hal_adc_ex.c ****     /* Set ADC state                                                          */
 612:Libraries/STM32F4xx_HAL_Driver/Src/stm32f4xx_hal_adc_ex.c ****     /* - Clear state bitfield related to regular group conversion results     */
 613:Libraries/STM32F4xx_HAL_Driver/Src/stm32f4xx_hal_adc_ex.c ****     /* - Set state bitfield related to regular group operation                */
 614:Libraries/STM32F4xx_HAL_Driver/Src/stm32f4xx_hal_adc_ex.c ****     ADC_STATE_CLR_SET(hadc->State,
 615:Libraries/STM32F4xx_HAL_Driver/Src/stm32f4xx_hal_adc_ex.c ****                       HAL_ADC_STATE_READY | HAL_ADC_STATE_REG_EOC | HAL_ADC_STATE_REG_OVR,
 616:Libraries/STM32F4xx_HAL_Driver/Src/stm32f4xx_hal_adc_ex.c ****                       HAL_ADC_STATE_REG_BUSY);
 617:Libraries/STM32F4xx_HAL_Driver/Src/stm32f4xx_hal_adc_ex.c ****     
 618:Libraries/STM32F4xx_HAL_Driver/Src/stm32f4xx_hal_adc_ex.c ****     /* If conversions on group regular are also triggering group injected,    */
 619:Libraries/STM32F4xx_HAL_Driver/Src/stm32f4xx_hal_adc_ex.c ****     /* update ADC state.                                                      */
 620:Libraries/STM32F4xx_HAL_Driver/Src/stm32f4xx_hal_adc_ex.c ****     if (READ_BIT(hadc->Instance->CR1, ADC_CR1_JAUTO) != RESET)
 621:Libraries/STM32F4xx_HAL_Driver/Src/stm32f4xx_hal_adc_ex.c ****     {
 622:Libraries/STM32F4xx_HAL_Driver/Src/stm32f4xx_hal_adc_ex.c ****       ADC_STATE_CLR_SET(hadc->State, HAL_ADC_STATE_INJ_EOC, HAL_ADC_STATE_INJ_BUSY);  
 623:Libraries/STM32F4xx_HAL_Driver/Src/stm32f4xx_hal_adc_ex.c ****     }
 624:Libraries/STM32F4xx_HAL_Driver/Src/stm32f4xx_hal_adc_ex.c ****     
 625:Libraries/STM32F4xx_HAL_Driver/Src/stm32f4xx_hal_adc_ex.c ****     /* State machine update: Check if an injected conversion is ongoing */
 626:Libraries/STM32F4xx_HAL_Driver/Src/stm32f4xx_hal_adc_ex.c ****     if (HAL_IS_BIT_SET(hadc->State, HAL_ADC_STATE_INJ_BUSY))
 627:Libraries/STM32F4xx_HAL_Driver/Src/stm32f4xx_hal_adc_ex.c ****     {
 628:Libraries/STM32F4xx_HAL_Driver/Src/stm32f4xx_hal_adc_ex.c ****       /* Reset ADC error code fields related to conversions on group regular */
 629:Libraries/STM32F4xx_HAL_Driver/Src/stm32f4xx_hal_adc_ex.c ****       CLEAR_BIT(hadc->ErrorCode, (HAL_ADC_ERROR_OVR | HAL_ADC_ERROR_DMA));         
 630:Libraries/STM32F4xx_HAL_Driver/Src/stm32f4xx_hal_adc_ex.c ****     }
 631:Libraries/STM32F4xx_HAL_Driver/Src/stm32f4xx_hal_adc_ex.c ****     else
 632:Libraries/STM32F4xx_HAL_Driver/Src/stm32f4xx_hal_adc_ex.c ****     {
 633:Libraries/STM32F4xx_HAL_Driver/Src/stm32f4xx_hal_adc_ex.c ****       /* Reset ADC all error code fields */
 634:Libraries/STM32F4xx_HAL_Driver/Src/stm32f4xx_hal_adc_ex.c ****       ADC_CLEAR_ERRORCODE(hadc);
 635:Libraries/STM32F4xx_HAL_Driver/Src/stm32f4xx_hal_adc_ex.c ****     }
 636:Libraries/STM32F4xx_HAL_Driver/Src/stm32f4xx_hal_adc_ex.c ****     
 637:Libraries/STM32F4xx_HAL_Driver/Src/stm32f4xx_hal_adc_ex.c ****     /* Process unlocked */
 638:Libraries/STM32F4xx_HAL_Driver/Src/stm32f4xx_hal_adc_ex.c ****     /* Unlock before starting ADC conversions: in case of potential           */
 639:Libraries/STM32F4xx_HAL_Driver/Src/stm32f4xx_hal_adc_ex.c ****     /* interruption, to let the process to ADC IRQ Handler.                   */
 640:Libraries/STM32F4xx_HAL_Driver/Src/stm32f4xx_hal_adc_ex.c ****     __HAL_UNLOCK(hadc);
 641:Libraries/STM32F4xx_HAL_Driver/Src/stm32f4xx_hal_adc_ex.c ****     
 642:Libraries/STM32F4xx_HAL_Driver/Src/stm32f4xx_hal_adc_ex.c ****     /* Set the DMA transfer complete callback */
 643:Libraries/STM32F4xx_HAL_Driver/Src/stm32f4xx_hal_adc_ex.c ****     hadc->DMA_Handle->XferCpltCallback = ADC_MultiModeDMAConvCplt;
 644:Libraries/STM32F4xx_HAL_Driver/Src/stm32f4xx_hal_adc_ex.c ****     
 645:Libraries/STM32F4xx_HAL_Driver/Src/stm32f4xx_hal_adc_ex.c ****     /* Set the DMA half transfer complete callback */
 646:Libraries/STM32F4xx_HAL_Driver/Src/stm32f4xx_hal_adc_ex.c ****     hadc->DMA_Handle->XferHalfCpltCallback = ADC_MultiModeDMAHalfConvCplt;
 647:Libraries/STM32F4xx_HAL_Driver/Src/stm32f4xx_hal_adc_ex.c ****     
 648:Libraries/STM32F4xx_HAL_Driver/Src/stm32f4xx_hal_adc_ex.c ****     /* Set the DMA error callback */
 649:Libraries/STM32F4xx_HAL_Driver/Src/stm32f4xx_hal_adc_ex.c ****     hadc->DMA_Handle->XferErrorCallback = ADC_MultiModeDMAError ;
 650:Libraries/STM32F4xx_HAL_Driver/Src/stm32f4xx_hal_adc_ex.c ****     
 651:Libraries/STM32F4xx_HAL_Driver/Src/stm32f4xx_hal_adc_ex.c ****     /* Manage ADC and DMA start: ADC overrun interruption, DMA start, ADC     */
 652:Libraries/STM32F4xx_HAL_Driver/Src/stm32f4xx_hal_adc_ex.c ****     /* start (in case of SW start):                                           */
 653:Libraries/STM32F4xx_HAL_Driver/Src/stm32f4xx_hal_adc_ex.c ****     
 654:Libraries/STM32F4xx_HAL_Driver/Src/stm32f4xx_hal_adc_ex.c ****     /* Clear regular group conversion flag and overrun flag */
 655:Libraries/STM32F4xx_HAL_Driver/Src/stm32f4xx_hal_adc_ex.c ****     /* (To ensure of no unknown state from potential previous ADC operations) */
 656:Libraries/STM32F4xx_HAL_Driver/Src/stm32f4xx_hal_adc_ex.c ****     __HAL_ADC_CLEAR_FLAG(hadc, ADC_FLAG_EOC);
 657:Libraries/STM32F4xx_HAL_Driver/Src/stm32f4xx_hal_adc_ex.c **** 
 658:Libraries/STM32F4xx_HAL_Driver/Src/stm32f4xx_hal_adc_ex.c ****     /* Enable ADC overrun interrupt */
 659:Libraries/STM32F4xx_HAL_Driver/Src/stm32f4xx_hal_adc_ex.c ****     __HAL_ADC_ENABLE_IT(hadc, ADC_IT_OVR);
ARM GAS  C:\Users\yzy\AppData\Local\Temp\ccN466ht.s 			page 13


 660:Libraries/STM32F4xx_HAL_Driver/Src/stm32f4xx_hal_adc_ex.c **** 
 661:Libraries/STM32F4xx_HAL_Driver/Src/stm32f4xx_hal_adc_ex.c ****     /* Pointer to the common control register to which is belonging hadc    */
 662:Libraries/STM32F4xx_HAL_Driver/Src/stm32f4xx_hal_adc_ex.c ****     /* (Depending on STM32F4 product, there may be up to 3 ADC and 1 common */
 663:Libraries/STM32F4xx_HAL_Driver/Src/stm32f4xx_hal_adc_ex.c ****     /* control register)                                                    */
 664:Libraries/STM32F4xx_HAL_Driver/Src/stm32f4xx_hal_adc_ex.c ****     tmpADC_Common = ADC_COMMON_REGISTER(hadc);
 665:Libraries/STM32F4xx_HAL_Driver/Src/stm32f4xx_hal_adc_ex.c **** 
 666:Libraries/STM32F4xx_HAL_Driver/Src/stm32f4xx_hal_adc_ex.c ****     if (hadc->Init.DMAContinuousRequests != DISABLE)
 667:Libraries/STM32F4xx_HAL_Driver/Src/stm32f4xx_hal_adc_ex.c ****     {
 668:Libraries/STM32F4xx_HAL_Driver/Src/stm32f4xx_hal_adc_ex.c ****       /* Enable the selected ADC DMA request after last transfer */
 669:Libraries/STM32F4xx_HAL_Driver/Src/stm32f4xx_hal_adc_ex.c ****       tmpADC_Common->CCR |= ADC_CCR_DDS;
 670:Libraries/STM32F4xx_HAL_Driver/Src/stm32f4xx_hal_adc_ex.c ****     }
 671:Libraries/STM32F4xx_HAL_Driver/Src/stm32f4xx_hal_adc_ex.c ****     else
 672:Libraries/STM32F4xx_HAL_Driver/Src/stm32f4xx_hal_adc_ex.c ****     {
 673:Libraries/STM32F4xx_HAL_Driver/Src/stm32f4xx_hal_adc_ex.c ****       /* Disable the selected ADC EOC rising on each regular channel conversion */
 674:Libraries/STM32F4xx_HAL_Driver/Src/stm32f4xx_hal_adc_ex.c ****       tmpADC_Common->CCR &= ~ADC_CCR_DDS;
 675:Libraries/STM32F4xx_HAL_Driver/Src/stm32f4xx_hal_adc_ex.c ****     }
 676:Libraries/STM32F4xx_HAL_Driver/Src/stm32f4xx_hal_adc_ex.c ****     
 677:Libraries/STM32F4xx_HAL_Driver/Src/stm32f4xx_hal_adc_ex.c ****     /* Enable the DMA Stream */
 678:Libraries/STM32F4xx_HAL_Driver/Src/stm32f4xx_hal_adc_ex.c ****     HAL_DMA_Start_IT(hadc->DMA_Handle, (uint32_t)&tmpADC_Common->CDR, (uint32_t)pData, Length);
 679:Libraries/STM32F4xx_HAL_Driver/Src/stm32f4xx_hal_adc_ex.c ****     
 680:Libraries/STM32F4xx_HAL_Driver/Src/stm32f4xx_hal_adc_ex.c ****     /* if no external trigger present enable software conversion of regular channels */
 681:Libraries/STM32F4xx_HAL_Driver/Src/stm32f4xx_hal_adc_ex.c ****     if((hadc->Instance->CR2 & ADC_CR2_EXTEN) == RESET) 
 682:Libraries/STM32F4xx_HAL_Driver/Src/stm32f4xx_hal_adc_ex.c ****     {
 683:Libraries/STM32F4xx_HAL_Driver/Src/stm32f4xx_hal_adc_ex.c ****       /* Enable the selected ADC software conversion for regular group */
 684:Libraries/STM32F4xx_HAL_Driver/Src/stm32f4xx_hal_adc_ex.c ****       hadc->Instance->CR2 |= (uint32_t)ADC_CR2_SWSTART;
 685:Libraries/STM32F4xx_HAL_Driver/Src/stm32f4xx_hal_adc_ex.c ****     }
 686:Libraries/STM32F4xx_HAL_Driver/Src/stm32f4xx_hal_adc_ex.c ****   }
 687:Libraries/STM32F4xx_HAL_Driver/Src/stm32f4xx_hal_adc_ex.c ****   
 688:Libraries/STM32F4xx_HAL_Driver/Src/stm32f4xx_hal_adc_ex.c ****   /* Return function status */
 689:Libraries/STM32F4xx_HAL_Driver/Src/stm32f4xx_hal_adc_ex.c ****   return HAL_OK;
 690:Libraries/STM32F4xx_HAL_Driver/Src/stm32f4xx_hal_adc_ex.c **** }
 691:Libraries/STM32F4xx_HAL_Driver/Src/stm32f4xx_hal_adc_ex.c **** 
 692:Libraries/STM32F4xx_HAL_Driver/Src/stm32f4xx_hal_adc_ex.c **** /**
 693:Libraries/STM32F4xx_HAL_Driver/Src/stm32f4xx_hal_adc_ex.c ****   * @brief  Disables ADC DMA (multi-ADC mode) and disables ADC peripheral    
 694:Libraries/STM32F4xx_HAL_Driver/Src/stm32f4xx_hal_adc_ex.c ****   * @param  hadc pointer to a ADC_HandleTypeDef structure that contains
 695:Libraries/STM32F4xx_HAL_Driver/Src/stm32f4xx_hal_adc_ex.c ****   *         the configuration information for the specified ADC.
 696:Libraries/STM32F4xx_HAL_Driver/Src/stm32f4xx_hal_adc_ex.c ****   * @retval HAL status
 697:Libraries/STM32F4xx_HAL_Driver/Src/stm32f4xx_hal_adc_ex.c ****   */
 698:Libraries/STM32F4xx_HAL_Driver/Src/stm32f4xx_hal_adc_ex.c **** HAL_StatusTypeDef HAL_ADCEx_MultiModeStop_DMA(ADC_HandleTypeDef* hadc)
 699:Libraries/STM32F4xx_HAL_Driver/Src/stm32f4xx_hal_adc_ex.c **** {
 700:Libraries/STM32F4xx_HAL_Driver/Src/stm32f4xx_hal_adc_ex.c ****   HAL_StatusTypeDef tmp_hal_status = HAL_OK;
 701:Libraries/STM32F4xx_HAL_Driver/Src/stm32f4xx_hal_adc_ex.c ****   ADC_Common_TypeDef *tmpADC_Common;
 702:Libraries/STM32F4xx_HAL_Driver/Src/stm32f4xx_hal_adc_ex.c ****   
 703:Libraries/STM32F4xx_HAL_Driver/Src/stm32f4xx_hal_adc_ex.c ****   /* Check the parameters */
 704:Libraries/STM32F4xx_HAL_Driver/Src/stm32f4xx_hal_adc_ex.c ****   assert_param(IS_ADC_ALL_INSTANCE(hadc->Instance));
 705:Libraries/STM32F4xx_HAL_Driver/Src/stm32f4xx_hal_adc_ex.c ****   
 706:Libraries/STM32F4xx_HAL_Driver/Src/stm32f4xx_hal_adc_ex.c ****   /* Process locked */
 707:Libraries/STM32F4xx_HAL_Driver/Src/stm32f4xx_hal_adc_ex.c ****   __HAL_LOCK(hadc);
 708:Libraries/STM32F4xx_HAL_Driver/Src/stm32f4xx_hal_adc_ex.c ****   
 709:Libraries/STM32F4xx_HAL_Driver/Src/stm32f4xx_hal_adc_ex.c ****   /* Stop potential conversion on going, on regular and injected groups */
 710:Libraries/STM32F4xx_HAL_Driver/Src/stm32f4xx_hal_adc_ex.c ****   /* Disable ADC peripheral */
 711:Libraries/STM32F4xx_HAL_Driver/Src/stm32f4xx_hal_adc_ex.c ****   __HAL_ADC_DISABLE(hadc);
 712:Libraries/STM32F4xx_HAL_Driver/Src/stm32f4xx_hal_adc_ex.c **** 
 713:Libraries/STM32F4xx_HAL_Driver/Src/stm32f4xx_hal_adc_ex.c ****   /* Pointer to the common control register to which is belonging hadc    */
 714:Libraries/STM32F4xx_HAL_Driver/Src/stm32f4xx_hal_adc_ex.c ****   /* (Depending on STM32F4 product, there may be up to 3 ADC and 1 common */
 715:Libraries/STM32F4xx_HAL_Driver/Src/stm32f4xx_hal_adc_ex.c ****   /* control register)                                                    */
 716:Libraries/STM32F4xx_HAL_Driver/Src/stm32f4xx_hal_adc_ex.c ****   tmpADC_Common = ADC_COMMON_REGISTER(hadc);
ARM GAS  C:\Users\yzy\AppData\Local\Temp\ccN466ht.s 			page 14


 717:Libraries/STM32F4xx_HAL_Driver/Src/stm32f4xx_hal_adc_ex.c **** 
 718:Libraries/STM32F4xx_HAL_Driver/Src/stm32f4xx_hal_adc_ex.c ****   /* Check if ADC is effectively disabled */
 719:Libraries/STM32F4xx_HAL_Driver/Src/stm32f4xx_hal_adc_ex.c ****   if(HAL_IS_BIT_CLR(hadc->Instance->CR2, ADC_CR2_ADON))
 720:Libraries/STM32F4xx_HAL_Driver/Src/stm32f4xx_hal_adc_ex.c ****   {
 721:Libraries/STM32F4xx_HAL_Driver/Src/stm32f4xx_hal_adc_ex.c ****     /* Disable the selected ADC DMA mode for multimode */
 722:Libraries/STM32F4xx_HAL_Driver/Src/stm32f4xx_hal_adc_ex.c ****     tmpADC_Common->CCR &= ~ADC_CCR_DDS;
 723:Libraries/STM32F4xx_HAL_Driver/Src/stm32f4xx_hal_adc_ex.c ****     
 724:Libraries/STM32F4xx_HAL_Driver/Src/stm32f4xx_hal_adc_ex.c ****     /* Disable the DMA channel (in case of DMA in circular mode or stop while */
 725:Libraries/STM32F4xx_HAL_Driver/Src/stm32f4xx_hal_adc_ex.c ****     /* DMA transfer is on going)                                              */
 726:Libraries/STM32F4xx_HAL_Driver/Src/stm32f4xx_hal_adc_ex.c ****     tmp_hal_status = HAL_DMA_Abort(hadc->DMA_Handle);
 727:Libraries/STM32F4xx_HAL_Driver/Src/stm32f4xx_hal_adc_ex.c ****     
 728:Libraries/STM32F4xx_HAL_Driver/Src/stm32f4xx_hal_adc_ex.c ****     /* Disable ADC overrun interrupt */
 729:Libraries/STM32F4xx_HAL_Driver/Src/stm32f4xx_hal_adc_ex.c ****     __HAL_ADC_DISABLE_IT(hadc, ADC_IT_OVR);
 730:Libraries/STM32F4xx_HAL_Driver/Src/stm32f4xx_hal_adc_ex.c ****     
 731:Libraries/STM32F4xx_HAL_Driver/Src/stm32f4xx_hal_adc_ex.c ****     /* Set ADC state */
 732:Libraries/STM32F4xx_HAL_Driver/Src/stm32f4xx_hal_adc_ex.c ****     ADC_STATE_CLR_SET(hadc->State,
 733:Libraries/STM32F4xx_HAL_Driver/Src/stm32f4xx_hal_adc_ex.c ****                       HAL_ADC_STATE_REG_BUSY | HAL_ADC_STATE_INJ_BUSY,
 734:Libraries/STM32F4xx_HAL_Driver/Src/stm32f4xx_hal_adc_ex.c ****                       HAL_ADC_STATE_READY);
 735:Libraries/STM32F4xx_HAL_Driver/Src/stm32f4xx_hal_adc_ex.c ****   }
 736:Libraries/STM32F4xx_HAL_Driver/Src/stm32f4xx_hal_adc_ex.c ****   
 737:Libraries/STM32F4xx_HAL_Driver/Src/stm32f4xx_hal_adc_ex.c ****   /* Process unlocked */
 738:Libraries/STM32F4xx_HAL_Driver/Src/stm32f4xx_hal_adc_ex.c ****   __HAL_UNLOCK(hadc);
 739:Libraries/STM32F4xx_HAL_Driver/Src/stm32f4xx_hal_adc_ex.c ****   
 740:Libraries/STM32F4xx_HAL_Driver/Src/stm32f4xx_hal_adc_ex.c ****   /* Return function status */
 741:Libraries/STM32F4xx_HAL_Driver/Src/stm32f4xx_hal_adc_ex.c ****   return tmp_hal_status;
 742:Libraries/STM32F4xx_HAL_Driver/Src/stm32f4xx_hal_adc_ex.c **** }
 743:Libraries/STM32F4xx_HAL_Driver/Src/stm32f4xx_hal_adc_ex.c **** 
 744:Libraries/STM32F4xx_HAL_Driver/Src/stm32f4xx_hal_adc_ex.c **** /**
 745:Libraries/STM32F4xx_HAL_Driver/Src/stm32f4xx_hal_adc_ex.c ****   * @brief  Returns the last ADC1, ADC2 and ADC3 regular conversions results 
 746:Libraries/STM32F4xx_HAL_Driver/Src/stm32f4xx_hal_adc_ex.c ****   *         data in the selected multi mode.
 747:Libraries/STM32F4xx_HAL_Driver/Src/stm32f4xx_hal_adc_ex.c ****   * @param  hadc pointer to a ADC_HandleTypeDef structure that contains
 748:Libraries/STM32F4xx_HAL_Driver/Src/stm32f4xx_hal_adc_ex.c ****   *         the configuration information for the specified ADC.
 749:Libraries/STM32F4xx_HAL_Driver/Src/stm32f4xx_hal_adc_ex.c ****   * @retval The converted data value.
 750:Libraries/STM32F4xx_HAL_Driver/Src/stm32f4xx_hal_adc_ex.c ****   */
 751:Libraries/STM32F4xx_HAL_Driver/Src/stm32f4xx_hal_adc_ex.c **** uint32_t HAL_ADCEx_MultiModeGetValue(ADC_HandleTypeDef* hadc)
 752:Libraries/STM32F4xx_HAL_Driver/Src/stm32f4xx_hal_adc_ex.c **** {
 753:Libraries/STM32F4xx_HAL_Driver/Src/stm32f4xx_hal_adc_ex.c ****   ADC_Common_TypeDef *tmpADC_Common;
 754:Libraries/STM32F4xx_HAL_Driver/Src/stm32f4xx_hal_adc_ex.c **** 
 755:Libraries/STM32F4xx_HAL_Driver/Src/stm32f4xx_hal_adc_ex.c ****   /* Pointer to the common control register to which is belonging hadc    */
 756:Libraries/STM32F4xx_HAL_Driver/Src/stm32f4xx_hal_adc_ex.c ****   /* (Depending on STM32F4 product, there may be up to 3 ADC and 1 common */
 757:Libraries/STM32F4xx_HAL_Driver/Src/stm32f4xx_hal_adc_ex.c ****   /* control register)                                                    */
 758:Libraries/STM32F4xx_HAL_Driver/Src/stm32f4xx_hal_adc_ex.c ****   tmpADC_Common = ADC_COMMON_REGISTER(hadc);
 759:Libraries/STM32F4xx_HAL_Driver/Src/stm32f4xx_hal_adc_ex.c **** 
 760:Libraries/STM32F4xx_HAL_Driver/Src/stm32f4xx_hal_adc_ex.c ****   /* Return the multi mode conversion value */
 761:Libraries/STM32F4xx_HAL_Driver/Src/stm32f4xx_hal_adc_ex.c ****   return tmpADC_Common->CDR;
 762:Libraries/STM32F4xx_HAL_Driver/Src/stm32f4xx_hal_adc_ex.c **** }
 763:Libraries/STM32F4xx_HAL_Driver/Src/stm32f4xx_hal_adc_ex.c **** 
 764:Libraries/STM32F4xx_HAL_Driver/Src/stm32f4xx_hal_adc_ex.c **** /**
 765:Libraries/STM32F4xx_HAL_Driver/Src/stm32f4xx_hal_adc_ex.c ****   * @brief  Injected conversion complete callback in non blocking mode 
 766:Libraries/STM32F4xx_HAL_Driver/Src/stm32f4xx_hal_adc_ex.c ****   * @param  hadc pointer to a ADC_HandleTypeDef structure that contains
 767:Libraries/STM32F4xx_HAL_Driver/Src/stm32f4xx_hal_adc_ex.c ****   *         the configuration information for the specified ADC.
 768:Libraries/STM32F4xx_HAL_Driver/Src/stm32f4xx_hal_adc_ex.c ****   * @retval None
 769:Libraries/STM32F4xx_HAL_Driver/Src/stm32f4xx_hal_adc_ex.c ****   */
 770:Libraries/STM32F4xx_HAL_Driver/Src/stm32f4xx_hal_adc_ex.c **** __weak void HAL_ADCEx_InjectedConvCpltCallback(ADC_HandleTypeDef* hadc)
 771:Libraries/STM32F4xx_HAL_Driver/Src/stm32f4xx_hal_adc_ex.c **** {
 772:Libraries/STM32F4xx_HAL_Driver/Src/stm32f4xx_hal_adc_ex.c ****   /* Prevent unused argument(s) compilation warning */
 773:Libraries/STM32F4xx_HAL_Driver/Src/stm32f4xx_hal_adc_ex.c ****   UNUSED(hadc);
ARM GAS  C:\Users\yzy\AppData\Local\Temp\ccN466ht.s 			page 15


 774:Libraries/STM32F4xx_HAL_Driver/Src/stm32f4xx_hal_adc_ex.c ****   /* NOTE : This function Should not be modified, when the callback is needed,
 775:Libraries/STM32F4xx_HAL_Driver/Src/stm32f4xx_hal_adc_ex.c ****             the HAL_ADC_InjectedConvCpltCallback could be implemented in the user file
 776:Libraries/STM32F4xx_HAL_Driver/Src/stm32f4xx_hal_adc_ex.c ****    */
 777:Libraries/STM32F4xx_HAL_Driver/Src/stm32f4xx_hal_adc_ex.c **** }
 778:Libraries/STM32F4xx_HAL_Driver/Src/stm32f4xx_hal_adc_ex.c **** 
 779:Libraries/STM32F4xx_HAL_Driver/Src/stm32f4xx_hal_adc_ex.c **** /**
 780:Libraries/STM32F4xx_HAL_Driver/Src/stm32f4xx_hal_adc_ex.c ****   * @brief  Configures for the selected ADC injected channel its corresponding
 781:Libraries/STM32F4xx_HAL_Driver/Src/stm32f4xx_hal_adc_ex.c ****   *         rank in the sequencer and its sample time.
 782:Libraries/STM32F4xx_HAL_Driver/Src/stm32f4xx_hal_adc_ex.c ****   * @param  hadc pointer to a ADC_HandleTypeDef structure that contains
 783:Libraries/STM32F4xx_HAL_Driver/Src/stm32f4xx_hal_adc_ex.c ****   *         the configuration information for the specified ADC.
 784:Libraries/STM32F4xx_HAL_Driver/Src/stm32f4xx_hal_adc_ex.c ****   * @param  sConfigInjected ADC configuration structure for injected channel. 
 785:Libraries/STM32F4xx_HAL_Driver/Src/stm32f4xx_hal_adc_ex.c ****   * @retval None
 786:Libraries/STM32F4xx_HAL_Driver/Src/stm32f4xx_hal_adc_ex.c ****   */
 787:Libraries/STM32F4xx_HAL_Driver/Src/stm32f4xx_hal_adc_ex.c **** HAL_StatusTypeDef HAL_ADCEx_InjectedConfigChannel(ADC_HandleTypeDef* hadc, ADC_InjectionConfTypeDef
 788:Libraries/STM32F4xx_HAL_Driver/Src/stm32f4xx_hal_adc_ex.c **** {
 789:Libraries/STM32F4xx_HAL_Driver/Src/stm32f4xx_hal_adc_ex.c ****   
 790:Libraries/STM32F4xx_HAL_Driver/Src/stm32f4xx_hal_adc_ex.c **** #ifdef USE_FULL_ASSERT  
 791:Libraries/STM32F4xx_HAL_Driver/Src/stm32f4xx_hal_adc_ex.c ****   uint32_t tmp = 0U;
 792:Libraries/STM32F4xx_HAL_Driver/Src/stm32f4xx_hal_adc_ex.c ****   
 793:Libraries/STM32F4xx_HAL_Driver/Src/stm32f4xx_hal_adc_ex.c **** #endif /* USE_FULL_ASSERT  */
 794:Libraries/STM32F4xx_HAL_Driver/Src/stm32f4xx_hal_adc_ex.c **** 
 795:Libraries/STM32F4xx_HAL_Driver/Src/stm32f4xx_hal_adc_ex.c ****   ADC_Common_TypeDef *tmpADC_Common;
 796:Libraries/STM32F4xx_HAL_Driver/Src/stm32f4xx_hal_adc_ex.c **** 
 797:Libraries/STM32F4xx_HAL_Driver/Src/stm32f4xx_hal_adc_ex.c ****   /* Check the parameters */
 798:Libraries/STM32F4xx_HAL_Driver/Src/stm32f4xx_hal_adc_ex.c ****   assert_param(IS_ADC_CHANNEL(sConfigInjected->InjectedChannel));
 799:Libraries/STM32F4xx_HAL_Driver/Src/stm32f4xx_hal_adc_ex.c ****   assert_param(IS_ADC_INJECTED_RANK(sConfigInjected->InjectedRank));
 800:Libraries/STM32F4xx_HAL_Driver/Src/stm32f4xx_hal_adc_ex.c ****   assert_param(IS_ADC_SAMPLE_TIME(sConfigInjected->InjectedSamplingTime));
 801:Libraries/STM32F4xx_HAL_Driver/Src/stm32f4xx_hal_adc_ex.c ****   assert_param(IS_ADC_EXT_INJEC_TRIG(sConfigInjected->ExternalTrigInjecConv));
 802:Libraries/STM32F4xx_HAL_Driver/Src/stm32f4xx_hal_adc_ex.c ****   assert_param(IS_ADC_INJECTED_LENGTH(sConfigInjected->InjectedNbrOfConversion));
 803:Libraries/STM32F4xx_HAL_Driver/Src/stm32f4xx_hal_adc_ex.c ****   assert_param(IS_FUNCTIONAL_STATE(sConfigInjected->AutoInjectedConv));
 804:Libraries/STM32F4xx_HAL_Driver/Src/stm32f4xx_hal_adc_ex.c ****   assert_param(IS_FUNCTIONAL_STATE(sConfigInjected->InjectedDiscontinuousConvMode));
 805:Libraries/STM32F4xx_HAL_Driver/Src/stm32f4xx_hal_adc_ex.c **** 
 806:Libraries/STM32F4xx_HAL_Driver/Src/stm32f4xx_hal_adc_ex.c **** #ifdef USE_FULL_ASSERT
 807:Libraries/STM32F4xx_HAL_Driver/Src/stm32f4xx_hal_adc_ex.c ****   tmp = ADC_GET_RESOLUTION(hadc);
 808:Libraries/STM32F4xx_HAL_Driver/Src/stm32f4xx_hal_adc_ex.c ****   assert_param(IS_ADC_RANGE(tmp, sConfigInjected->InjectedOffset));
 809:Libraries/STM32F4xx_HAL_Driver/Src/stm32f4xx_hal_adc_ex.c **** #endif /* USE_FULL_ASSERT  */
 810:Libraries/STM32F4xx_HAL_Driver/Src/stm32f4xx_hal_adc_ex.c **** 
 811:Libraries/STM32F4xx_HAL_Driver/Src/stm32f4xx_hal_adc_ex.c ****   if(sConfigInjected->ExternalTrigInjecConv != ADC_INJECTED_SOFTWARE_START)
 812:Libraries/STM32F4xx_HAL_Driver/Src/stm32f4xx_hal_adc_ex.c ****   {
 813:Libraries/STM32F4xx_HAL_Driver/Src/stm32f4xx_hal_adc_ex.c ****     assert_param(IS_ADC_EXT_INJEC_TRIG_EDGE(sConfigInjected->ExternalTrigInjecConvEdge));
 814:Libraries/STM32F4xx_HAL_Driver/Src/stm32f4xx_hal_adc_ex.c ****   }
 815:Libraries/STM32F4xx_HAL_Driver/Src/stm32f4xx_hal_adc_ex.c **** 
 816:Libraries/STM32F4xx_HAL_Driver/Src/stm32f4xx_hal_adc_ex.c ****   /* Process locked */
 817:Libraries/STM32F4xx_HAL_Driver/Src/stm32f4xx_hal_adc_ex.c ****   __HAL_LOCK(hadc);
 818:Libraries/STM32F4xx_HAL_Driver/Src/stm32f4xx_hal_adc_ex.c ****   
 819:Libraries/STM32F4xx_HAL_Driver/Src/stm32f4xx_hal_adc_ex.c ****   /* if ADC_Channel_10 ... ADC_Channel_18 is selected */
 820:Libraries/STM32F4xx_HAL_Driver/Src/stm32f4xx_hal_adc_ex.c ****   if (sConfigInjected->InjectedChannel > ADC_CHANNEL_9)
 821:Libraries/STM32F4xx_HAL_Driver/Src/stm32f4xx_hal_adc_ex.c ****   {
 822:Libraries/STM32F4xx_HAL_Driver/Src/stm32f4xx_hal_adc_ex.c ****     /* Clear the old sample time */
 823:Libraries/STM32F4xx_HAL_Driver/Src/stm32f4xx_hal_adc_ex.c ****     hadc->Instance->SMPR1 &= ~ADC_SMPR1(ADC_SMPR1_SMP10, sConfigInjected->InjectedChannel);
 824:Libraries/STM32F4xx_HAL_Driver/Src/stm32f4xx_hal_adc_ex.c ****     
 825:Libraries/STM32F4xx_HAL_Driver/Src/stm32f4xx_hal_adc_ex.c ****     /* Set the new sample time */
 826:Libraries/STM32F4xx_HAL_Driver/Src/stm32f4xx_hal_adc_ex.c ****     hadc->Instance->SMPR1 |= ADC_SMPR1(sConfigInjected->InjectedSamplingTime, sConfigInjected->Inje
 827:Libraries/STM32F4xx_HAL_Driver/Src/stm32f4xx_hal_adc_ex.c ****   }
 828:Libraries/STM32F4xx_HAL_Driver/Src/stm32f4xx_hal_adc_ex.c ****   else /* ADC_Channel include in ADC_Channel_[0..9] */
 829:Libraries/STM32F4xx_HAL_Driver/Src/stm32f4xx_hal_adc_ex.c ****   {
 830:Libraries/STM32F4xx_HAL_Driver/Src/stm32f4xx_hal_adc_ex.c ****     /* Clear the old sample time */
ARM GAS  C:\Users\yzy\AppData\Local\Temp\ccN466ht.s 			page 16


 831:Libraries/STM32F4xx_HAL_Driver/Src/stm32f4xx_hal_adc_ex.c ****     hadc->Instance->SMPR2 &= ~ADC_SMPR2(ADC_SMPR2_SMP0, sConfigInjected->InjectedChannel);
 832:Libraries/STM32F4xx_HAL_Driver/Src/stm32f4xx_hal_adc_ex.c ****     
 833:Libraries/STM32F4xx_HAL_Driver/Src/stm32f4xx_hal_adc_ex.c ****     /* Set the new sample time */
 834:Libraries/STM32F4xx_HAL_Driver/Src/stm32f4xx_hal_adc_ex.c ****     hadc->Instance->SMPR2 |= ADC_SMPR2(sConfigInjected->InjectedSamplingTime, sConfigInjected->Inje
 835:Libraries/STM32F4xx_HAL_Driver/Src/stm32f4xx_hal_adc_ex.c ****   }
 836:Libraries/STM32F4xx_HAL_Driver/Src/stm32f4xx_hal_adc_ex.c ****   
 837:Libraries/STM32F4xx_HAL_Driver/Src/stm32f4xx_hal_adc_ex.c ****   /*---------------------------- ADCx JSQR Configuration -----------------*/
 838:Libraries/STM32F4xx_HAL_Driver/Src/stm32f4xx_hal_adc_ex.c ****   hadc->Instance->JSQR &= ~(ADC_JSQR_JL);
 839:Libraries/STM32F4xx_HAL_Driver/Src/stm32f4xx_hal_adc_ex.c ****   hadc->Instance->JSQR |=  ADC_SQR1(sConfigInjected->InjectedNbrOfConversion);
 840:Libraries/STM32F4xx_HAL_Driver/Src/stm32f4xx_hal_adc_ex.c ****   
 841:Libraries/STM32F4xx_HAL_Driver/Src/stm32f4xx_hal_adc_ex.c ****   /* Rank configuration */
 842:Libraries/STM32F4xx_HAL_Driver/Src/stm32f4xx_hal_adc_ex.c ****   
 843:Libraries/STM32F4xx_HAL_Driver/Src/stm32f4xx_hal_adc_ex.c ****   /* Clear the old SQx bits for the selected rank */
 844:Libraries/STM32F4xx_HAL_Driver/Src/stm32f4xx_hal_adc_ex.c ****   hadc->Instance->JSQR &= ~ADC_JSQR(ADC_JSQR_JSQ1, sConfigInjected->InjectedRank,sConfigInjected->I
 845:Libraries/STM32F4xx_HAL_Driver/Src/stm32f4xx_hal_adc_ex.c ****    
 846:Libraries/STM32F4xx_HAL_Driver/Src/stm32f4xx_hal_adc_ex.c ****   /* Set the SQx bits for the selected rank */
 847:Libraries/STM32F4xx_HAL_Driver/Src/stm32f4xx_hal_adc_ex.c ****   hadc->Instance->JSQR |= ADC_JSQR(sConfigInjected->InjectedChannel, sConfigInjected->InjectedRank,
 848:Libraries/STM32F4xx_HAL_Driver/Src/stm32f4xx_hal_adc_ex.c **** 
 849:Libraries/STM32F4xx_HAL_Driver/Src/stm32f4xx_hal_adc_ex.c ****   /* Enable external trigger if trigger selection is different of software  */
 850:Libraries/STM32F4xx_HAL_Driver/Src/stm32f4xx_hal_adc_ex.c ****   /* start.                                                                 */
 851:Libraries/STM32F4xx_HAL_Driver/Src/stm32f4xx_hal_adc_ex.c ****   /* Note: This configuration keeps the hardware feature of parameter       */
 852:Libraries/STM32F4xx_HAL_Driver/Src/stm32f4xx_hal_adc_ex.c ****   /*       ExternalTrigConvEdge "trigger edge none" equivalent to           */
 853:Libraries/STM32F4xx_HAL_Driver/Src/stm32f4xx_hal_adc_ex.c ****   /*       software start.                                                  */ 
 854:Libraries/STM32F4xx_HAL_Driver/Src/stm32f4xx_hal_adc_ex.c ****   if(sConfigInjected->ExternalTrigInjecConv != ADC_INJECTED_SOFTWARE_START)
 855:Libraries/STM32F4xx_HAL_Driver/Src/stm32f4xx_hal_adc_ex.c ****   {  
 856:Libraries/STM32F4xx_HAL_Driver/Src/stm32f4xx_hal_adc_ex.c ****     /* Select external trigger to start conversion */
 857:Libraries/STM32F4xx_HAL_Driver/Src/stm32f4xx_hal_adc_ex.c ****     hadc->Instance->CR2 &= ~(ADC_CR2_JEXTSEL);
 858:Libraries/STM32F4xx_HAL_Driver/Src/stm32f4xx_hal_adc_ex.c ****     hadc->Instance->CR2 |=  sConfigInjected->ExternalTrigInjecConv;
 859:Libraries/STM32F4xx_HAL_Driver/Src/stm32f4xx_hal_adc_ex.c ****     
 860:Libraries/STM32F4xx_HAL_Driver/Src/stm32f4xx_hal_adc_ex.c ****     /* Select external trigger polarity */
 861:Libraries/STM32F4xx_HAL_Driver/Src/stm32f4xx_hal_adc_ex.c ****     hadc->Instance->CR2 &= ~(ADC_CR2_JEXTEN);
 862:Libraries/STM32F4xx_HAL_Driver/Src/stm32f4xx_hal_adc_ex.c ****     hadc->Instance->CR2 |= sConfigInjected->ExternalTrigInjecConvEdge;
 863:Libraries/STM32F4xx_HAL_Driver/Src/stm32f4xx_hal_adc_ex.c ****   }
 864:Libraries/STM32F4xx_HAL_Driver/Src/stm32f4xx_hal_adc_ex.c ****   else
 865:Libraries/STM32F4xx_HAL_Driver/Src/stm32f4xx_hal_adc_ex.c ****   {
 866:Libraries/STM32F4xx_HAL_Driver/Src/stm32f4xx_hal_adc_ex.c ****     /* Reset the external trigger */
 867:Libraries/STM32F4xx_HAL_Driver/Src/stm32f4xx_hal_adc_ex.c ****     hadc->Instance->CR2 &= ~(ADC_CR2_JEXTSEL);
 868:Libraries/STM32F4xx_HAL_Driver/Src/stm32f4xx_hal_adc_ex.c ****     hadc->Instance->CR2 &= ~(ADC_CR2_JEXTEN);  
 869:Libraries/STM32F4xx_HAL_Driver/Src/stm32f4xx_hal_adc_ex.c ****   }
 870:Libraries/STM32F4xx_HAL_Driver/Src/stm32f4xx_hal_adc_ex.c ****   
 871:Libraries/STM32F4xx_HAL_Driver/Src/stm32f4xx_hal_adc_ex.c ****   if (sConfigInjected->AutoInjectedConv != DISABLE)
 872:Libraries/STM32F4xx_HAL_Driver/Src/stm32f4xx_hal_adc_ex.c ****   {
 873:Libraries/STM32F4xx_HAL_Driver/Src/stm32f4xx_hal_adc_ex.c ****     /* Enable the selected ADC automatic injected group conversion */
 874:Libraries/STM32F4xx_HAL_Driver/Src/stm32f4xx_hal_adc_ex.c ****     hadc->Instance->CR1 |= ADC_CR1_JAUTO;
 875:Libraries/STM32F4xx_HAL_Driver/Src/stm32f4xx_hal_adc_ex.c ****   }
 876:Libraries/STM32F4xx_HAL_Driver/Src/stm32f4xx_hal_adc_ex.c ****   else
 877:Libraries/STM32F4xx_HAL_Driver/Src/stm32f4xx_hal_adc_ex.c ****   {
 878:Libraries/STM32F4xx_HAL_Driver/Src/stm32f4xx_hal_adc_ex.c ****     /* Disable the selected ADC automatic injected group conversion */
 879:Libraries/STM32F4xx_HAL_Driver/Src/stm32f4xx_hal_adc_ex.c ****     hadc->Instance->CR1 &= ~(ADC_CR1_JAUTO);
 880:Libraries/STM32F4xx_HAL_Driver/Src/stm32f4xx_hal_adc_ex.c ****   }
 881:Libraries/STM32F4xx_HAL_Driver/Src/stm32f4xx_hal_adc_ex.c ****   
 882:Libraries/STM32F4xx_HAL_Driver/Src/stm32f4xx_hal_adc_ex.c ****   if (sConfigInjected->InjectedDiscontinuousConvMode != DISABLE)
 883:Libraries/STM32F4xx_HAL_Driver/Src/stm32f4xx_hal_adc_ex.c ****   {
 884:Libraries/STM32F4xx_HAL_Driver/Src/stm32f4xx_hal_adc_ex.c ****     /* Enable the selected ADC injected discontinuous mode */
 885:Libraries/STM32F4xx_HAL_Driver/Src/stm32f4xx_hal_adc_ex.c ****     hadc->Instance->CR1 |= ADC_CR1_JDISCEN;
 886:Libraries/STM32F4xx_HAL_Driver/Src/stm32f4xx_hal_adc_ex.c ****   }
 887:Libraries/STM32F4xx_HAL_Driver/Src/stm32f4xx_hal_adc_ex.c ****   else
ARM GAS  C:\Users\yzy\AppData\Local\Temp\ccN466ht.s 			page 17


 888:Libraries/STM32F4xx_HAL_Driver/Src/stm32f4xx_hal_adc_ex.c ****   {
 889:Libraries/STM32F4xx_HAL_Driver/Src/stm32f4xx_hal_adc_ex.c ****     /* Disable the selected ADC injected discontinuous mode */
 890:Libraries/STM32F4xx_HAL_Driver/Src/stm32f4xx_hal_adc_ex.c ****     hadc->Instance->CR1 &= ~(ADC_CR1_JDISCEN);
 891:Libraries/STM32F4xx_HAL_Driver/Src/stm32f4xx_hal_adc_ex.c ****   }
 892:Libraries/STM32F4xx_HAL_Driver/Src/stm32f4xx_hal_adc_ex.c ****   
 893:Libraries/STM32F4xx_HAL_Driver/Src/stm32f4xx_hal_adc_ex.c ****   switch(sConfigInjected->InjectedRank)
 894:Libraries/STM32F4xx_HAL_Driver/Src/stm32f4xx_hal_adc_ex.c ****   {
 895:Libraries/STM32F4xx_HAL_Driver/Src/stm32f4xx_hal_adc_ex.c ****     case 1U:
 896:Libraries/STM32F4xx_HAL_Driver/Src/stm32f4xx_hal_adc_ex.c ****       /* Set injected channel 1 offset */
 897:Libraries/STM32F4xx_HAL_Driver/Src/stm32f4xx_hal_adc_ex.c ****       hadc->Instance->JOFR1 &= ~(ADC_JOFR1_JOFFSET1);
 898:Libraries/STM32F4xx_HAL_Driver/Src/stm32f4xx_hal_adc_ex.c ****       hadc->Instance->JOFR1 |= sConfigInjected->InjectedOffset;
 899:Libraries/STM32F4xx_HAL_Driver/Src/stm32f4xx_hal_adc_ex.c ****       break;
 900:Libraries/STM32F4xx_HAL_Driver/Src/stm32f4xx_hal_adc_ex.c ****     case 2U:
 901:Libraries/STM32F4xx_HAL_Driver/Src/stm32f4xx_hal_adc_ex.c ****       /* Set injected channel 2 offset */
 902:Libraries/STM32F4xx_HAL_Driver/Src/stm32f4xx_hal_adc_ex.c ****       hadc->Instance->JOFR2 &= ~(ADC_JOFR2_JOFFSET2);
 903:Libraries/STM32F4xx_HAL_Driver/Src/stm32f4xx_hal_adc_ex.c ****       hadc->Instance->JOFR2 |= sConfigInjected->InjectedOffset;
 904:Libraries/STM32F4xx_HAL_Driver/Src/stm32f4xx_hal_adc_ex.c ****       break;
 905:Libraries/STM32F4xx_HAL_Driver/Src/stm32f4xx_hal_adc_ex.c ****     case 3U:
 906:Libraries/STM32F4xx_HAL_Driver/Src/stm32f4xx_hal_adc_ex.c ****       /* Set injected channel 3 offset */
 907:Libraries/STM32F4xx_HAL_Driver/Src/stm32f4xx_hal_adc_ex.c ****       hadc->Instance->JOFR3 &= ~(ADC_JOFR3_JOFFSET3);
 908:Libraries/STM32F4xx_HAL_Driver/Src/stm32f4xx_hal_adc_ex.c ****       hadc->Instance->JOFR3 |= sConfigInjected->InjectedOffset;
 909:Libraries/STM32F4xx_HAL_Driver/Src/stm32f4xx_hal_adc_ex.c ****       break;
 910:Libraries/STM32F4xx_HAL_Driver/Src/stm32f4xx_hal_adc_ex.c ****     default:
 911:Libraries/STM32F4xx_HAL_Driver/Src/stm32f4xx_hal_adc_ex.c ****       /* Set injected channel 4 offset */
 912:Libraries/STM32F4xx_HAL_Driver/Src/stm32f4xx_hal_adc_ex.c ****       hadc->Instance->JOFR4 &= ~(ADC_JOFR4_JOFFSET4);
 913:Libraries/STM32F4xx_HAL_Driver/Src/stm32f4xx_hal_adc_ex.c ****       hadc->Instance->JOFR4 |= sConfigInjected->InjectedOffset;
 914:Libraries/STM32F4xx_HAL_Driver/Src/stm32f4xx_hal_adc_ex.c ****       break;
 915:Libraries/STM32F4xx_HAL_Driver/Src/stm32f4xx_hal_adc_ex.c ****   }
 916:Libraries/STM32F4xx_HAL_Driver/Src/stm32f4xx_hal_adc_ex.c **** 
 917:Libraries/STM32F4xx_HAL_Driver/Src/stm32f4xx_hal_adc_ex.c ****   /* Pointer to the common control register to which is belonging hadc    */
 918:Libraries/STM32F4xx_HAL_Driver/Src/stm32f4xx_hal_adc_ex.c ****   /* (Depending on STM32F4 product, there may be up to 3 ADC and 1 common */
 919:Libraries/STM32F4xx_HAL_Driver/Src/stm32f4xx_hal_adc_ex.c ****   /* control register)                                                    */
 920:Libraries/STM32F4xx_HAL_Driver/Src/stm32f4xx_hal_adc_ex.c ****     tmpADC_Common = ADC_COMMON_REGISTER(hadc);
 921:Libraries/STM32F4xx_HAL_Driver/Src/stm32f4xx_hal_adc_ex.c **** 
 922:Libraries/STM32F4xx_HAL_Driver/Src/stm32f4xx_hal_adc_ex.c ****   /* if ADC1 Channel_18 is selected enable VBAT Channel */
 923:Libraries/STM32F4xx_HAL_Driver/Src/stm32f4xx_hal_adc_ex.c ****   if ((hadc->Instance == ADC1) && (sConfigInjected->InjectedChannel == ADC_CHANNEL_VBAT))
 924:Libraries/STM32F4xx_HAL_Driver/Src/stm32f4xx_hal_adc_ex.c ****   {
 925:Libraries/STM32F4xx_HAL_Driver/Src/stm32f4xx_hal_adc_ex.c ****     /* Enable the VBAT channel*/
 926:Libraries/STM32F4xx_HAL_Driver/Src/stm32f4xx_hal_adc_ex.c ****     tmpADC_Common->CCR |= ADC_CCR_VBATE;
 927:Libraries/STM32F4xx_HAL_Driver/Src/stm32f4xx_hal_adc_ex.c ****   }
 928:Libraries/STM32F4xx_HAL_Driver/Src/stm32f4xx_hal_adc_ex.c ****   
 929:Libraries/STM32F4xx_HAL_Driver/Src/stm32f4xx_hal_adc_ex.c ****   /* if ADC1 Channel_16 or Channel_17 is selected enable TSVREFE Channel(Temperature sensor and VRE
 930:Libraries/STM32F4xx_HAL_Driver/Src/stm32f4xx_hal_adc_ex.c ****   if ((hadc->Instance == ADC1) && ((sConfigInjected->InjectedChannel == ADC_CHANNEL_TEMPSENSOR) || 
 931:Libraries/STM32F4xx_HAL_Driver/Src/stm32f4xx_hal_adc_ex.c ****   {
 932:Libraries/STM32F4xx_HAL_Driver/Src/stm32f4xx_hal_adc_ex.c ****     /* Enable the TSVREFE channel*/
 933:Libraries/STM32F4xx_HAL_Driver/Src/stm32f4xx_hal_adc_ex.c ****     tmpADC_Common->CCR |= ADC_CCR_TSVREFE;
 934:Libraries/STM32F4xx_HAL_Driver/Src/stm32f4xx_hal_adc_ex.c ****   }
 935:Libraries/STM32F4xx_HAL_Driver/Src/stm32f4xx_hal_adc_ex.c ****   
 936:Libraries/STM32F4xx_HAL_Driver/Src/stm32f4xx_hal_adc_ex.c ****   /* Process unlocked */
 937:Libraries/STM32F4xx_HAL_Driver/Src/stm32f4xx_hal_adc_ex.c ****   __HAL_UNLOCK(hadc);
 938:Libraries/STM32F4xx_HAL_Driver/Src/stm32f4xx_hal_adc_ex.c ****   
 939:Libraries/STM32F4xx_HAL_Driver/Src/stm32f4xx_hal_adc_ex.c ****   /* Return function status */
 940:Libraries/STM32F4xx_HAL_Driver/Src/stm32f4xx_hal_adc_ex.c ****   return HAL_OK;
 941:Libraries/STM32F4xx_HAL_Driver/Src/stm32f4xx_hal_adc_ex.c **** }
 942:Libraries/STM32F4xx_HAL_Driver/Src/stm32f4xx_hal_adc_ex.c **** 
 943:Libraries/STM32F4xx_HAL_Driver/Src/stm32f4xx_hal_adc_ex.c **** /**
 944:Libraries/STM32F4xx_HAL_Driver/Src/stm32f4xx_hal_adc_ex.c ****   * @brief  Configures the ADC multi-mode 
ARM GAS  C:\Users\yzy\AppData\Local\Temp\ccN466ht.s 			page 18


 945:Libraries/STM32F4xx_HAL_Driver/Src/stm32f4xx_hal_adc_ex.c ****   * @param  hadc       pointer to a ADC_HandleTypeDef structure that contains
 946:Libraries/STM32F4xx_HAL_Driver/Src/stm32f4xx_hal_adc_ex.c ****   *                     the configuration information for the specified ADC.  
 947:Libraries/STM32F4xx_HAL_Driver/Src/stm32f4xx_hal_adc_ex.c ****   * @param  multimode  pointer to an ADC_MultiModeTypeDef structure that contains 
 948:Libraries/STM32F4xx_HAL_Driver/Src/stm32f4xx_hal_adc_ex.c ****   *                     the configuration information for  multimode.
 949:Libraries/STM32F4xx_HAL_Driver/Src/stm32f4xx_hal_adc_ex.c ****   * @retval HAL status
 950:Libraries/STM32F4xx_HAL_Driver/Src/stm32f4xx_hal_adc_ex.c ****   */
 951:Libraries/STM32F4xx_HAL_Driver/Src/stm32f4xx_hal_adc_ex.c **** HAL_StatusTypeDef HAL_ADCEx_MultiModeConfigChannel(ADC_HandleTypeDef* hadc, ADC_MultiModeTypeDef* m
 952:Libraries/STM32F4xx_HAL_Driver/Src/stm32f4xx_hal_adc_ex.c **** {
 953:Libraries/STM32F4xx_HAL_Driver/Src/stm32f4xx_hal_adc_ex.c **** 
 954:Libraries/STM32F4xx_HAL_Driver/Src/stm32f4xx_hal_adc_ex.c ****   ADC_Common_TypeDef *tmpADC_Common;
 955:Libraries/STM32F4xx_HAL_Driver/Src/stm32f4xx_hal_adc_ex.c **** 
 956:Libraries/STM32F4xx_HAL_Driver/Src/stm32f4xx_hal_adc_ex.c ****   /* Check the parameters */
 957:Libraries/STM32F4xx_HAL_Driver/Src/stm32f4xx_hal_adc_ex.c ****   assert_param(IS_ADC_MODE(multimode->Mode));
 958:Libraries/STM32F4xx_HAL_Driver/Src/stm32f4xx_hal_adc_ex.c ****   assert_param(IS_ADC_DMA_ACCESS_MODE(multimode->DMAAccessMode));
 959:Libraries/STM32F4xx_HAL_Driver/Src/stm32f4xx_hal_adc_ex.c ****   assert_param(IS_ADC_SAMPLING_DELAY(multimode->TwoSamplingDelay));
 960:Libraries/STM32F4xx_HAL_Driver/Src/stm32f4xx_hal_adc_ex.c ****   
 961:Libraries/STM32F4xx_HAL_Driver/Src/stm32f4xx_hal_adc_ex.c ****   /* Process locked */
 962:Libraries/STM32F4xx_HAL_Driver/Src/stm32f4xx_hal_adc_ex.c ****   __HAL_LOCK(hadc);
 963:Libraries/STM32F4xx_HAL_Driver/Src/stm32f4xx_hal_adc_ex.c **** 
 964:Libraries/STM32F4xx_HAL_Driver/Src/stm32f4xx_hal_adc_ex.c ****   /* Pointer to the common control register to which is belonging hadc    */
 965:Libraries/STM32F4xx_HAL_Driver/Src/stm32f4xx_hal_adc_ex.c ****   /* (Depending on STM32F4 product, there may be up to 3 ADC and 1 common */
 966:Libraries/STM32F4xx_HAL_Driver/Src/stm32f4xx_hal_adc_ex.c ****   /* control register)                                                    */
 967:Libraries/STM32F4xx_HAL_Driver/Src/stm32f4xx_hal_adc_ex.c ****   tmpADC_Common = ADC_COMMON_REGISTER(hadc);
 968:Libraries/STM32F4xx_HAL_Driver/Src/stm32f4xx_hal_adc_ex.c **** 
 969:Libraries/STM32F4xx_HAL_Driver/Src/stm32f4xx_hal_adc_ex.c ****   /* Set ADC mode */
 970:Libraries/STM32F4xx_HAL_Driver/Src/stm32f4xx_hal_adc_ex.c ****   tmpADC_Common->CCR &= ~(ADC_CCR_MULTI);
 971:Libraries/STM32F4xx_HAL_Driver/Src/stm32f4xx_hal_adc_ex.c ****   tmpADC_Common->CCR |= multimode->Mode;
 972:Libraries/STM32F4xx_HAL_Driver/Src/stm32f4xx_hal_adc_ex.c ****   
 973:Libraries/STM32F4xx_HAL_Driver/Src/stm32f4xx_hal_adc_ex.c ****   /* Set the ADC DMA access mode */
 974:Libraries/STM32F4xx_HAL_Driver/Src/stm32f4xx_hal_adc_ex.c ****   tmpADC_Common->CCR &= ~(ADC_CCR_DMA);
 975:Libraries/STM32F4xx_HAL_Driver/Src/stm32f4xx_hal_adc_ex.c ****   tmpADC_Common->CCR |= multimode->DMAAccessMode;
 976:Libraries/STM32F4xx_HAL_Driver/Src/stm32f4xx_hal_adc_ex.c ****   
 977:Libraries/STM32F4xx_HAL_Driver/Src/stm32f4xx_hal_adc_ex.c ****   /* Set delay between two sampling phases */
 978:Libraries/STM32F4xx_HAL_Driver/Src/stm32f4xx_hal_adc_ex.c ****   tmpADC_Common->CCR &= ~(ADC_CCR_DELAY);
 979:Libraries/STM32F4xx_HAL_Driver/Src/stm32f4xx_hal_adc_ex.c ****   tmpADC_Common->CCR |= multimode->TwoSamplingDelay;
 980:Libraries/STM32F4xx_HAL_Driver/Src/stm32f4xx_hal_adc_ex.c ****   
 981:Libraries/STM32F4xx_HAL_Driver/Src/stm32f4xx_hal_adc_ex.c ****   /* Process unlocked */
 982:Libraries/STM32F4xx_HAL_Driver/Src/stm32f4xx_hal_adc_ex.c ****   __HAL_UNLOCK(hadc);
 983:Libraries/STM32F4xx_HAL_Driver/Src/stm32f4xx_hal_adc_ex.c ****   
 984:Libraries/STM32F4xx_HAL_Driver/Src/stm32f4xx_hal_adc_ex.c ****   /* Return function status */
 985:Libraries/STM32F4xx_HAL_Driver/Src/stm32f4xx_hal_adc_ex.c ****   return HAL_OK;
 986:Libraries/STM32F4xx_HAL_Driver/Src/stm32f4xx_hal_adc_ex.c **** }
 987:Libraries/STM32F4xx_HAL_Driver/Src/stm32f4xx_hal_adc_ex.c **** 
 988:Libraries/STM32F4xx_HAL_Driver/Src/stm32f4xx_hal_adc_ex.c **** /**
 989:Libraries/STM32F4xx_HAL_Driver/Src/stm32f4xx_hal_adc_ex.c ****   * @}
 990:Libraries/STM32F4xx_HAL_Driver/Src/stm32f4xx_hal_adc_ex.c ****   */
 991:Libraries/STM32F4xx_HAL_Driver/Src/stm32f4xx_hal_adc_ex.c **** 
 992:Libraries/STM32F4xx_HAL_Driver/Src/stm32f4xx_hal_adc_ex.c **** /**
 993:Libraries/STM32F4xx_HAL_Driver/Src/stm32f4xx_hal_adc_ex.c ****   * @brief  DMA transfer complete callback. 
 994:Libraries/STM32F4xx_HAL_Driver/Src/stm32f4xx_hal_adc_ex.c ****   * @param  hdma pointer to a DMA_HandleTypeDef structure that contains
 995:Libraries/STM32F4xx_HAL_Driver/Src/stm32f4xx_hal_adc_ex.c ****   *                the configuration information for the specified DMA module.
 996:Libraries/STM32F4xx_HAL_Driver/Src/stm32f4xx_hal_adc_ex.c ****   * @retval None
 997:Libraries/STM32F4xx_HAL_Driver/Src/stm32f4xx_hal_adc_ex.c ****   */
 998:Libraries/STM32F4xx_HAL_Driver/Src/stm32f4xx_hal_adc_ex.c **** static void ADC_MultiModeDMAConvCplt(DMA_HandleTypeDef *hdma)   
 999:Libraries/STM32F4xx_HAL_Driver/Src/stm32f4xx_hal_adc_ex.c **** {
1000:Libraries/STM32F4xx_HAL_Driver/Src/stm32f4xx_hal_adc_ex.c ****   /* Retrieve ADC handle corresponding to current DMA handle */
1001:Libraries/STM32F4xx_HAL_Driver/Src/stm32f4xx_hal_adc_ex.c ****   ADC_HandleTypeDef* hadc = ( ADC_HandleTypeDef* )((DMA_HandleTypeDef* )hdma)->Parent;
ARM GAS  C:\Users\yzy\AppData\Local\Temp\ccN466ht.s 			page 19


1002:Libraries/STM32F4xx_HAL_Driver/Src/stm32f4xx_hal_adc_ex.c ****   
1003:Libraries/STM32F4xx_HAL_Driver/Src/stm32f4xx_hal_adc_ex.c ****   /* Update state machine on conversion status if not in error state */
1004:Libraries/STM32F4xx_HAL_Driver/Src/stm32f4xx_hal_adc_ex.c ****   if (HAL_IS_BIT_CLR(hadc->State, HAL_ADC_STATE_ERROR_INTERNAL | HAL_ADC_STATE_ERROR_DMA))
1005:Libraries/STM32F4xx_HAL_Driver/Src/stm32f4xx_hal_adc_ex.c ****   {
1006:Libraries/STM32F4xx_HAL_Driver/Src/stm32f4xx_hal_adc_ex.c ****     /* Update ADC state machine */
1007:Libraries/STM32F4xx_HAL_Driver/Src/stm32f4xx_hal_adc_ex.c ****     SET_BIT(hadc->State, HAL_ADC_STATE_REG_EOC);
1008:Libraries/STM32F4xx_HAL_Driver/Src/stm32f4xx_hal_adc_ex.c ****     
1009:Libraries/STM32F4xx_HAL_Driver/Src/stm32f4xx_hal_adc_ex.c ****     /* Determine whether any further conversion upcoming on group regular   */
1010:Libraries/STM32F4xx_HAL_Driver/Src/stm32f4xx_hal_adc_ex.c ****     /* by external trigger, continuous mode or scan sequence on going.      */
1011:Libraries/STM32F4xx_HAL_Driver/Src/stm32f4xx_hal_adc_ex.c ****     /* Note: On STM32F4, there is no independent flag of end of sequence.   */
1012:Libraries/STM32F4xx_HAL_Driver/Src/stm32f4xx_hal_adc_ex.c ****     /*       The test of scan sequence on going is done either with scan    */
1013:Libraries/STM32F4xx_HAL_Driver/Src/stm32f4xx_hal_adc_ex.c ****     /*       sequence disabled or with end of conversion flag set to        */
1014:Libraries/STM32F4xx_HAL_Driver/Src/stm32f4xx_hal_adc_ex.c ****     /*       of end of sequence.                                            */
1015:Libraries/STM32F4xx_HAL_Driver/Src/stm32f4xx_hal_adc_ex.c ****     if(ADC_IS_SOFTWARE_START_REGULAR(hadc)                   &&
1016:Libraries/STM32F4xx_HAL_Driver/Src/stm32f4xx_hal_adc_ex.c ****        (hadc->Init.ContinuousConvMode == DISABLE)            &&
1017:Libraries/STM32F4xx_HAL_Driver/Src/stm32f4xx_hal_adc_ex.c ****        (HAL_IS_BIT_CLR(hadc->Instance->SQR1, ADC_SQR1_L) || 
1018:Libraries/STM32F4xx_HAL_Driver/Src/stm32f4xx_hal_adc_ex.c ****         HAL_IS_BIT_CLR(hadc->Instance->CR2, ADC_CR2_EOCS)  )   )
1019:Libraries/STM32F4xx_HAL_Driver/Src/stm32f4xx_hal_adc_ex.c ****     {
1020:Libraries/STM32F4xx_HAL_Driver/Src/stm32f4xx_hal_adc_ex.c ****       /* Disable ADC end of single conversion interrupt on group regular */
1021:Libraries/STM32F4xx_HAL_Driver/Src/stm32f4xx_hal_adc_ex.c ****       /* Note: Overrun interrupt was enabled with EOC interrupt in          */
1022:Libraries/STM32F4xx_HAL_Driver/Src/stm32f4xx_hal_adc_ex.c ****       /* HAL_ADC_Start_IT(), but is not disabled here because can be used   */
1023:Libraries/STM32F4xx_HAL_Driver/Src/stm32f4xx_hal_adc_ex.c ****       /* by overrun IRQ process below.                                      */
1024:Libraries/STM32F4xx_HAL_Driver/Src/stm32f4xx_hal_adc_ex.c ****       __HAL_ADC_DISABLE_IT(hadc, ADC_IT_EOC);
1025:Libraries/STM32F4xx_HAL_Driver/Src/stm32f4xx_hal_adc_ex.c ****       
1026:Libraries/STM32F4xx_HAL_Driver/Src/stm32f4xx_hal_adc_ex.c ****       /* Set ADC state */
1027:Libraries/STM32F4xx_HAL_Driver/Src/stm32f4xx_hal_adc_ex.c ****       CLEAR_BIT(hadc->State, HAL_ADC_STATE_REG_BUSY);   
1028:Libraries/STM32F4xx_HAL_Driver/Src/stm32f4xx_hal_adc_ex.c ****       
1029:Libraries/STM32F4xx_HAL_Driver/Src/stm32f4xx_hal_adc_ex.c ****       if (HAL_IS_BIT_CLR(hadc->State, HAL_ADC_STATE_INJ_BUSY))
1030:Libraries/STM32F4xx_HAL_Driver/Src/stm32f4xx_hal_adc_ex.c ****       {
1031:Libraries/STM32F4xx_HAL_Driver/Src/stm32f4xx_hal_adc_ex.c ****         SET_BIT(hadc->State, HAL_ADC_STATE_READY);
1032:Libraries/STM32F4xx_HAL_Driver/Src/stm32f4xx_hal_adc_ex.c ****       }
1033:Libraries/STM32F4xx_HAL_Driver/Src/stm32f4xx_hal_adc_ex.c ****     }
1034:Libraries/STM32F4xx_HAL_Driver/Src/stm32f4xx_hal_adc_ex.c ****     
1035:Libraries/STM32F4xx_HAL_Driver/Src/stm32f4xx_hal_adc_ex.c ****     /* Conversion complete callback */
1036:Libraries/STM32F4xx_HAL_Driver/Src/stm32f4xx_hal_adc_ex.c ****     HAL_ADC_ConvCpltCallback(hadc);
1037:Libraries/STM32F4xx_HAL_Driver/Src/stm32f4xx_hal_adc_ex.c ****   }
1038:Libraries/STM32F4xx_HAL_Driver/Src/stm32f4xx_hal_adc_ex.c ****   else
1039:Libraries/STM32F4xx_HAL_Driver/Src/stm32f4xx_hal_adc_ex.c ****   {
1040:Libraries/STM32F4xx_HAL_Driver/Src/stm32f4xx_hal_adc_ex.c ****     /* Call DMA error callback */
1041:Libraries/STM32F4xx_HAL_Driver/Src/stm32f4xx_hal_adc_ex.c ****     hadc->DMA_Handle->XferErrorCallback(hdma);
1042:Libraries/STM32F4xx_HAL_Driver/Src/stm32f4xx_hal_adc_ex.c ****   }
1043:Libraries/STM32F4xx_HAL_Driver/Src/stm32f4xx_hal_adc_ex.c **** }
1044:Libraries/STM32F4xx_HAL_Driver/Src/stm32f4xx_hal_adc_ex.c **** 
1045:Libraries/STM32F4xx_HAL_Driver/Src/stm32f4xx_hal_adc_ex.c **** /**
1046:Libraries/STM32F4xx_HAL_Driver/Src/stm32f4xx_hal_adc_ex.c ****   * @brief  DMA half transfer complete callback. 
1047:Libraries/STM32F4xx_HAL_Driver/Src/stm32f4xx_hal_adc_ex.c ****   * @param  hdma pointer to a DMA_HandleTypeDef structure that contains
1048:Libraries/STM32F4xx_HAL_Driver/Src/stm32f4xx_hal_adc_ex.c ****   *                the configuration information for the specified DMA module.
1049:Libraries/STM32F4xx_HAL_Driver/Src/stm32f4xx_hal_adc_ex.c ****   * @retval None
1050:Libraries/STM32F4xx_HAL_Driver/Src/stm32f4xx_hal_adc_ex.c ****   */
1051:Libraries/STM32F4xx_HAL_Driver/Src/stm32f4xx_hal_adc_ex.c **** static void ADC_MultiModeDMAHalfConvCplt(DMA_HandleTypeDef *hdma)   
1052:Libraries/STM32F4xx_HAL_Driver/Src/stm32f4xx_hal_adc_ex.c **** {
1053:Libraries/STM32F4xx_HAL_Driver/Src/stm32f4xx_hal_adc_ex.c ****     ADC_HandleTypeDef* hadc = ( ADC_HandleTypeDef* )((DMA_HandleTypeDef* )hdma)->Parent;
1054:Libraries/STM32F4xx_HAL_Driver/Src/stm32f4xx_hal_adc_ex.c ****     /* Conversion complete callback */
1055:Libraries/STM32F4xx_HAL_Driver/Src/stm32f4xx_hal_adc_ex.c ****     HAL_ADC_ConvHalfCpltCallback(hadc); 
1056:Libraries/STM32F4xx_HAL_Driver/Src/stm32f4xx_hal_adc_ex.c **** }
1057:Libraries/STM32F4xx_HAL_Driver/Src/stm32f4xx_hal_adc_ex.c **** 
1058:Libraries/STM32F4xx_HAL_Driver/Src/stm32f4xx_hal_adc_ex.c **** /**
ARM GAS  C:\Users\yzy\AppData\Local\Temp\ccN466ht.s 			page 20


1059:Libraries/STM32F4xx_HAL_Driver/Src/stm32f4xx_hal_adc_ex.c ****   * @brief  DMA error callback 
1060:Libraries/STM32F4xx_HAL_Driver/Src/stm32f4xx_hal_adc_ex.c ****   * @param  hdma pointer to a DMA_HandleTypeDef structure that contains
1061:Libraries/STM32F4xx_HAL_Driver/Src/stm32f4xx_hal_adc_ex.c ****   *                the configuration information for the specified DMA module.
1062:Libraries/STM32F4xx_HAL_Driver/Src/stm32f4xx_hal_adc_ex.c ****   * @retval None
1063:Libraries/STM32F4xx_HAL_Driver/Src/stm32f4xx_hal_adc_ex.c ****   */
1064:Libraries/STM32F4xx_HAL_Driver/Src/stm32f4xx_hal_adc_ex.c **** static void ADC_MultiModeDMAError(DMA_HandleTypeDef *hdma)   
1065:Libraries/STM32F4xx_HAL_Driver/Src/stm32f4xx_hal_adc_ex.c **** {
  27              		.loc 1 1065 1 view -0
  28              		.cfi_startproc
  29              		@ args = 0, pretend = 0, frame = 0
  30              		@ frame_needed = 0, uses_anonymous_args = 0
  31              		.loc 1 1065 1 is_stmt 0 view .LVU1
  32 0000 08B5     		push	{r3, lr}
  33              	.LCFI0:
  34              		.cfi_def_cfa_offset 8
  35              		.cfi_offset 3, -8
  36              		.cfi_offset 14, -4
1066:Libraries/STM32F4xx_HAL_Driver/Src/stm32f4xx_hal_adc_ex.c ****     ADC_HandleTypeDef* hadc = ( ADC_HandleTypeDef* )((DMA_HandleTypeDef* )hdma)->Parent;
  37              		.loc 1 1066 5 is_stmt 1 view .LVU2
  38              		.loc 1 1066 24 is_stmt 0 view .LVU3
  39 0002 806B     		ldr	r0, [r0, #56]
  40              	.LVL1:
1067:Libraries/STM32F4xx_HAL_Driver/Src/stm32f4xx_hal_adc_ex.c ****     hadc->State= HAL_ADC_STATE_ERROR_DMA;
  41              		.loc 1 1067 5 is_stmt 1 view .LVU4
  42              		.loc 1 1067 16 is_stmt 0 view .LVU5
  43 0004 4023     		movs	r3, #64
  44 0006 0364     		str	r3, [r0, #64]
1068:Libraries/STM32F4xx_HAL_Driver/Src/stm32f4xx_hal_adc_ex.c ****     /* Set ADC error code to DMA error */
1069:Libraries/STM32F4xx_HAL_Driver/Src/stm32f4xx_hal_adc_ex.c ****     hadc->ErrorCode |= HAL_ADC_ERROR_DMA;
  45              		.loc 1 1069 5 is_stmt 1 view .LVU6
  46              		.loc 1 1069 21 is_stmt 0 view .LVU7
  47 0008 436C     		ldr	r3, [r0, #68]
  48 000a 43F00403 		orr	r3, r3, #4
  49 000e 4364     		str	r3, [r0, #68]
1070:Libraries/STM32F4xx_HAL_Driver/Src/stm32f4xx_hal_adc_ex.c ****     HAL_ADC_ErrorCallback(hadc); 
  50              		.loc 1 1070 5 is_stmt 1 view .LVU8
  51 0010 FFF7FEFF 		bl	HAL_ADC_ErrorCallback
  52              	.LVL2:
1071:Libraries/STM32F4xx_HAL_Driver/Src/stm32f4xx_hal_adc_ex.c **** }
  53              		.loc 1 1071 1 is_stmt 0 view .LVU9
  54 0014 08BD     		pop	{r3, pc}
  55              		.cfi_endproc
  56              	.LFE144:
  58              		.section	.text.ADC_MultiModeDMAHalfConvCplt,"ax",%progbits
  59              		.align	1
  60              		.syntax unified
  61              		.thumb
  62              		.thumb_func
  63              		.fpu softvfp
  65              	ADC_MultiModeDMAHalfConvCplt:
  66              	.LVL3:
  67              	.LFB143:
1052:Libraries/STM32F4xx_HAL_Driver/Src/stm32f4xx_hal_adc_ex.c ****     ADC_HandleTypeDef* hadc = ( ADC_HandleTypeDef* )((DMA_HandleTypeDef* )hdma)->Parent;
  68              		.loc 1 1052 1 is_stmt 1 view -0
  69              		.cfi_startproc
  70              		@ args = 0, pretend = 0, frame = 0
  71              		@ frame_needed = 0, uses_anonymous_args = 0
ARM GAS  C:\Users\yzy\AppData\Local\Temp\ccN466ht.s 			page 21


1052:Libraries/STM32F4xx_HAL_Driver/Src/stm32f4xx_hal_adc_ex.c ****     ADC_HandleTypeDef* hadc = ( ADC_HandleTypeDef* )((DMA_HandleTypeDef* )hdma)->Parent;
  72              		.loc 1 1052 1 is_stmt 0 view .LVU11
  73 0000 08B5     		push	{r3, lr}
  74              	.LCFI1:
  75              		.cfi_def_cfa_offset 8
  76              		.cfi_offset 3, -8
  77              		.cfi_offset 14, -4
1053:Libraries/STM32F4xx_HAL_Driver/Src/stm32f4xx_hal_adc_ex.c ****     /* Conversion complete callback */
  78              		.loc 1 1053 5 is_stmt 1 view .LVU12
  79              	.LVL4:
1055:Libraries/STM32F4xx_HAL_Driver/Src/stm32f4xx_hal_adc_ex.c **** }
  80              		.loc 1 1055 5 view .LVU13
  81 0002 806B     		ldr	r0, [r0, #56]
  82              	.LVL5:
1055:Libraries/STM32F4xx_HAL_Driver/Src/stm32f4xx_hal_adc_ex.c **** }
  83              		.loc 1 1055 5 is_stmt 0 view .LVU14
  84 0004 FFF7FEFF 		bl	HAL_ADC_ConvHalfCpltCallback
  85              	.LVL6:
1056:Libraries/STM32F4xx_HAL_Driver/Src/stm32f4xx_hal_adc_ex.c **** 
  86              		.loc 1 1056 1 view .LVU15
  87 0008 08BD     		pop	{r3, pc}
  88              		.cfi_endproc
  89              	.LFE143:
  91              		.section	.text.ADC_MultiModeDMAConvCplt,"ax",%progbits
  92              		.align	1
  93              		.syntax unified
  94              		.thumb
  95              		.thumb_func
  96              		.fpu softvfp
  98              	ADC_MultiModeDMAConvCplt:
  99              	.LVL7:
 100              	.LFB142:
 999:Libraries/STM32F4xx_HAL_Driver/Src/stm32f4xx_hal_adc_ex.c ****   /* Retrieve ADC handle corresponding to current DMA handle */
 101              		.loc 1 999 1 is_stmt 1 view -0
 102              		.cfi_startproc
 103              		@ args = 0, pretend = 0, frame = 0
 104              		@ frame_needed = 0, uses_anonymous_args = 0
 999:Libraries/STM32F4xx_HAL_Driver/Src/stm32f4xx_hal_adc_ex.c ****   /* Retrieve ADC handle corresponding to current DMA handle */
 105              		.loc 1 999 1 is_stmt 0 view .LVU17
 106 0000 08B5     		push	{r3, lr}
 107              	.LCFI2:
 108              		.cfi_def_cfa_offset 8
 109              		.cfi_offset 3, -8
 110              		.cfi_offset 14, -4
1001:Libraries/STM32F4xx_HAL_Driver/Src/stm32f4xx_hal_adc_ex.c ****   
 111              		.loc 1 1001 3 is_stmt 1 view .LVU18
1001:Libraries/STM32F4xx_HAL_Driver/Src/stm32f4xx_hal_adc_ex.c ****   
 112              		.loc 1 1001 22 is_stmt 0 view .LVU19
 113 0002 836B     		ldr	r3, [r0, #56]
 114              	.LVL8:
1004:Libraries/STM32F4xx_HAL_Driver/Src/stm32f4xx_hal_adc_ex.c ****   {
 115              		.loc 1 1004 3 is_stmt 1 view .LVU20
1004:Libraries/STM32F4xx_HAL_Driver/Src/stm32f4xx_hal_adc_ex.c ****   {
 116              		.loc 1 1004 7 is_stmt 0 view .LVU21
 117 0004 1A6C     		ldr	r2, [r3, #64]
1004:Libraries/STM32F4xx_HAL_Driver/Src/stm32f4xx_hal_adc_ex.c ****   {
 118              		.loc 1 1004 6 view .LVU22
ARM GAS  C:\Users\yzy\AppData\Local\Temp\ccN466ht.s 			page 22


 119 0006 12F0500F 		tst	r2, #80
 120 000a 26D1     		bne	.L6
1007:Libraries/STM32F4xx_HAL_Driver/Src/stm32f4xx_hal_adc_ex.c ****     
 121              		.loc 1 1007 5 is_stmt 1 view .LVU23
 122 000c 1A6C     		ldr	r2, [r3, #64]
 123 000e 42F40072 		orr	r2, r2, #512
 124 0012 1A64     		str	r2, [r3, #64]
1015:Libraries/STM32F4xx_HAL_Driver/Src/stm32f4xx_hal_adc_ex.c ****        (hadc->Init.ContinuousConvMode == DISABLE)            &&
 125              		.loc 1 1015 5 view .LVU24
1015:Libraries/STM32F4xx_HAL_Driver/Src/stm32f4xx_hal_adc_ex.c ****        (hadc->Init.ContinuousConvMode == DISABLE)            &&
 126              		.loc 1 1015 8 is_stmt 0 view .LVU25
 127 0014 1A68     		ldr	r2, [r3]
 128 0016 9168     		ldr	r1, [r2, #8]
1015:Libraries/STM32F4xx_HAL_Driver/Src/stm32f4xx_hal_adc_ex.c ****        (hadc->Init.ContinuousConvMode == DISABLE)            &&
 129              		.loc 1 1015 7 view .LVU26
 130 0018 11F0405F 		tst	r1, #805306368
 131 001c 19D1     		bne	.L7
1016:Libraries/STM32F4xx_HAL_Driver/Src/stm32f4xx_hal_adc_ex.c ****        (HAL_IS_BIT_CLR(hadc->Instance->SQR1, ADC_SQR1_L) || 
 132              		.loc 1 1016 19 discriminator 1 view .LVU27
 133 001e 197E     		ldrb	r1, [r3, #24]	@ zero_extendqisi2
1015:Libraries/STM32F4xx_HAL_Driver/Src/stm32f4xx_hal_adc_ex.c ****        (hadc->Init.ContinuousConvMode == DISABLE)            &&
 134              		.loc 1 1015 62 discriminator 1 view .LVU28
 135 0020 B9B9     		cbnz	r1, .L7
1017:Libraries/STM32F4xx_HAL_Driver/Src/stm32f4xx_hal_adc_ex.c ****         HAL_IS_BIT_CLR(hadc->Instance->CR2, ADC_CR2_EOCS)  )   )
 136              		.loc 1 1017 9 view .LVU29
 137 0022 D16A     		ldr	r1, [r2, #44]
1016:Libraries/STM32F4xx_HAL_Driver/Src/stm32f4xx_hal_adc_ex.c ****        (HAL_IS_BIT_CLR(hadc->Instance->SQR1, ADC_SQR1_L) || 
 138              		.loc 1 1016 62 view .LVU30
 139 0024 11F4700F 		tst	r1, #15728640
 140 0028 03D0     		beq	.L8
1018:Libraries/STM32F4xx_HAL_Driver/Src/stm32f4xx_hal_adc_ex.c ****     {
 141              		.loc 1 1018 9 view .LVU31
 142 002a 9168     		ldr	r1, [r2, #8]
1017:Libraries/STM32F4xx_HAL_Driver/Src/stm32f4xx_hal_adc_ex.c ****         HAL_IS_BIT_CLR(hadc->Instance->CR2, ADC_CR2_EOCS)  )   )
 143              		.loc 1 1017 58 view .LVU32
 144 002c 11F4806F 		tst	r1, #1024
 145 0030 0FD1     		bne	.L7
 146              	.L8:
1024:Libraries/STM32F4xx_HAL_Driver/Src/stm32f4xx_hal_adc_ex.c ****       
 147              		.loc 1 1024 7 is_stmt 1 view .LVU33
 148 0032 5168     		ldr	r1, [r2, #4]
 149 0034 21F02001 		bic	r1, r1, #32
 150 0038 5160     		str	r1, [r2, #4]
1027:Libraries/STM32F4xx_HAL_Driver/Src/stm32f4xx_hal_adc_ex.c ****       
 151              		.loc 1 1027 7 view .LVU34
 152 003a 1A6C     		ldr	r2, [r3, #64]
 153 003c 22F48072 		bic	r2, r2, #256
 154 0040 1A64     		str	r2, [r3, #64]
1029:Libraries/STM32F4xx_HAL_Driver/Src/stm32f4xx_hal_adc_ex.c ****       {
 155              		.loc 1 1029 7 view .LVU35
1029:Libraries/STM32F4xx_HAL_Driver/Src/stm32f4xx_hal_adc_ex.c ****       {
 156              		.loc 1 1029 11 is_stmt 0 view .LVU36
 157 0042 1A6C     		ldr	r2, [r3, #64]
1029:Libraries/STM32F4xx_HAL_Driver/Src/stm32f4xx_hal_adc_ex.c ****       {
 158              		.loc 1 1029 10 view .LVU37
 159 0044 12F4805F 		tst	r2, #4096
 160 0048 03D1     		bne	.L7
ARM GAS  C:\Users\yzy\AppData\Local\Temp\ccN466ht.s 			page 23


1031:Libraries/STM32F4xx_HAL_Driver/Src/stm32f4xx_hal_adc_ex.c ****       }
 161              		.loc 1 1031 9 is_stmt 1 view .LVU38
 162 004a 1A6C     		ldr	r2, [r3, #64]
 163 004c 42F00102 		orr	r2, r2, #1
 164 0050 1A64     		str	r2, [r3, #64]
 165              	.L7:
1036:Libraries/STM32F4xx_HAL_Driver/Src/stm32f4xx_hal_adc_ex.c ****   }
 166              		.loc 1 1036 5 view .LVU39
 167 0052 1846     		mov	r0, r3
 168              	.LVL9:
1036:Libraries/STM32F4xx_HAL_Driver/Src/stm32f4xx_hal_adc_ex.c ****   }
 169              		.loc 1 1036 5 is_stmt 0 view .LVU40
 170 0054 FFF7FEFF 		bl	HAL_ADC_ConvCpltCallback
 171              	.LVL10:
 172              	.L5:
1043:Libraries/STM32F4xx_HAL_Driver/Src/stm32f4xx_hal_adc_ex.c **** 
 173              		.loc 1 1043 1 view .LVU41
 174 0058 08BD     		pop	{r3, pc}
 175              	.LVL11:
 176              	.L6:
1041:Libraries/STM32F4xx_HAL_Driver/Src/stm32f4xx_hal_adc_ex.c ****   }
 177              		.loc 1 1041 5 is_stmt 1 view .LVU42
1041:Libraries/STM32F4xx_HAL_Driver/Src/stm32f4xx_hal_adc_ex.c ****   }
 178              		.loc 1 1041 9 is_stmt 0 view .LVU43
 179 005a 9B6B     		ldr	r3, [r3, #56]
 180              	.LVL12:
1041:Libraries/STM32F4xx_HAL_Driver/Src/stm32f4xx_hal_adc_ex.c ****   }
 181              		.loc 1 1041 21 view .LVU44
 182 005c DB6C     		ldr	r3, [r3, #76]
1041:Libraries/STM32F4xx_HAL_Driver/Src/stm32f4xx_hal_adc_ex.c ****   }
 183              		.loc 1 1041 5 view .LVU45
 184 005e 9847     		blx	r3
 185              	.LVL13:
1043:Libraries/STM32F4xx_HAL_Driver/Src/stm32f4xx_hal_adc_ex.c **** 
 186              		.loc 1 1043 1 view .LVU46
 187 0060 FAE7     		b	.L5
 188              		.cfi_endproc
 189              	.LFE142:
 191              		.section	.text.HAL_ADCEx_InjectedStart,"ax",%progbits
 192              		.align	1
 193              		.global	HAL_ADCEx_InjectedStart
 194              		.syntax unified
 195              		.thumb
 196              		.thumb_func
 197              		.fpu softvfp
 199              	HAL_ADCEx_InjectedStart:
 200              	.LVL14:
 201              	.LFB130:
 148:Libraries/STM32F4xx_HAL_Driver/Src/stm32f4xx_hal_adc_ex.c ****   __IO uint32_t counter = 0U;
 202              		.loc 1 148 1 is_stmt 1 view -0
 203              		.cfi_startproc
 204              		@ args = 0, pretend = 0, frame = 8
 205              		@ frame_needed = 0, uses_anonymous_args = 0
 206              		@ link register save eliminated.
 148:Libraries/STM32F4xx_HAL_Driver/Src/stm32f4xx_hal_adc_ex.c ****   __IO uint32_t counter = 0U;
 207              		.loc 1 148 1 is_stmt 0 view .LVU48
 208 0000 82B0     		sub	sp, sp, #8
ARM GAS  C:\Users\yzy\AppData\Local\Temp\ccN466ht.s 			page 24


 209              	.LCFI3:
 210              		.cfi_def_cfa_offset 8
 149:Libraries/STM32F4xx_HAL_Driver/Src/stm32f4xx_hal_adc_ex.c ****   uint32_t tmp1 = 0U, tmp2 = 0U;
 211              		.loc 1 149 3 is_stmt 1 view .LVU49
 149:Libraries/STM32F4xx_HAL_Driver/Src/stm32f4xx_hal_adc_ex.c ****   uint32_t tmp1 = 0U, tmp2 = 0U;
 212              		.loc 1 149 17 is_stmt 0 view .LVU50
 213 0002 0023     		movs	r3, #0
 214 0004 0193     		str	r3, [sp, #4]
 150:Libraries/STM32F4xx_HAL_Driver/Src/stm32f4xx_hal_adc_ex.c ****   ADC_Common_TypeDef *tmpADC_Common;
 215              		.loc 1 150 3 is_stmt 1 view .LVU51
 216              	.LVL15:
 151:Libraries/STM32F4xx_HAL_Driver/Src/stm32f4xx_hal_adc_ex.c ****   
 217              		.loc 1 151 3 view .LVU52
 154:Libraries/STM32F4xx_HAL_Driver/Src/stm32f4xx_hal_adc_ex.c ****   
 218              		.loc 1 154 3 view .LVU53
 154:Libraries/STM32F4xx_HAL_Driver/Src/stm32f4xx_hal_adc_ex.c ****   
 219              		.loc 1 154 3 view .LVU54
 220 0006 90F83C30 		ldrb	r3, [r0, #60]	@ zero_extendqisi2
 221 000a 012B     		cmp	r3, #1
 222 000c 5CD0     		beq	.L18
 154:Libraries/STM32F4xx_HAL_Driver/Src/stm32f4xx_hal_adc_ex.c ****   
 223              		.loc 1 154 3 discriminator 2 view .LVU55
 224 000e 0123     		movs	r3, #1
 225 0010 80F83C30 		strb	r3, [r0, #60]
 154:Libraries/STM32F4xx_HAL_Driver/Src/stm32f4xx_hal_adc_ex.c ****   
 226              		.loc 1 154 3 discriminator 2 view .LVU56
 160:Libraries/STM32F4xx_HAL_Driver/Src/stm32f4xx_hal_adc_ex.c ****   {  
 227              		.loc 1 160 3 discriminator 2 view .LVU57
 160:Libraries/STM32F4xx_HAL_Driver/Src/stm32f4xx_hal_adc_ex.c ****   {  
 228              		.loc 1 160 11 is_stmt 0 discriminator 2 view .LVU58
 229 0014 0368     		ldr	r3, [r0]
 160:Libraries/STM32F4xx_HAL_Driver/Src/stm32f4xx_hal_adc_ex.c ****   {  
 230              		.loc 1 160 21 discriminator 2 view .LVU59
 231 0016 9A68     		ldr	r2, [r3, #8]
 160:Libraries/STM32F4xx_HAL_Driver/Src/stm32f4xx_hal_adc_ex.c ****   {  
 232              		.loc 1 160 5 discriminator 2 view .LVU60
 233 0018 12F0010F 		tst	r2, #1
 234 001c 13D1     		bne	.L13
 163:Libraries/STM32F4xx_HAL_Driver/Src/stm32f4xx_hal_adc_ex.c ****     
 235              		.loc 1 163 5 is_stmt 1 view .LVU61
 236 001e 9A68     		ldr	r2, [r3, #8]
 237 0020 42F00102 		orr	r2, r2, #1
 238 0024 9A60     		str	r2, [r3, #8]
 167:Libraries/STM32F4xx_HAL_Driver/Src/stm32f4xx_hal_adc_ex.c ****     while(counter != 0U)
 239              		.loc 1 167 5 view .LVU62
 167:Libraries/STM32F4xx_HAL_Driver/Src/stm32f4xx_hal_adc_ex.c ****     while(counter != 0U)
 240              		.loc 1 167 53 is_stmt 0 view .LVU63
 241 0026 2F4B     		ldr	r3, .L27
 242 0028 1B68     		ldr	r3, [r3]
 243 002a 2F4A     		ldr	r2, .L27+4
 244 002c A2FB0323 		umull	r2, r3, r2, r3
 245 0030 9B0C     		lsrs	r3, r3, #18
 167:Libraries/STM32F4xx_HAL_Driver/Src/stm32f4xx_hal_adc_ex.c ****     while(counter != 0U)
 246              		.loc 1 167 34 view .LVU64
 247 0032 03EB4303 		add	r3, r3, r3, lsl #1
 167:Libraries/STM32F4xx_HAL_Driver/Src/stm32f4xx_hal_adc_ex.c ****     while(counter != 0U)
 248              		.loc 1 167 13 view .LVU65
ARM GAS  C:\Users\yzy\AppData\Local\Temp\ccN466ht.s 			page 25


 249 0036 0193     		str	r3, [sp, #4]
 168:Libraries/STM32F4xx_HAL_Driver/Src/stm32f4xx_hal_adc_ex.c ****     {
 250              		.loc 1 168 5 is_stmt 1 view .LVU66
 168:Libraries/STM32F4xx_HAL_Driver/Src/stm32f4xx_hal_adc_ex.c ****     {
 251              		.loc 1 168 10 is_stmt 0 view .LVU67
 252 0038 02E0     		b	.L14
 253              	.L15:
 170:Libraries/STM32F4xx_HAL_Driver/Src/stm32f4xx_hal_adc_ex.c ****     }
 254              		.loc 1 170 7 is_stmt 1 view .LVU68
 170:Libraries/STM32F4xx_HAL_Driver/Src/stm32f4xx_hal_adc_ex.c ****     }
 255              		.loc 1 170 14 is_stmt 0 view .LVU69
 256 003a 019B     		ldr	r3, [sp, #4]
 257 003c 013B     		subs	r3, r3, #1
 258 003e 0193     		str	r3, [sp, #4]
 259              	.L14:
 168:Libraries/STM32F4xx_HAL_Driver/Src/stm32f4xx_hal_adc_ex.c ****     {
 260              		.loc 1 168 10 is_stmt 1 view .LVU70
 168:Libraries/STM32F4xx_HAL_Driver/Src/stm32f4xx_hal_adc_ex.c ****     {
 261              		.loc 1 168 19 is_stmt 0 view .LVU71
 262 0040 019B     		ldr	r3, [sp, #4]
 168:Libraries/STM32F4xx_HAL_Driver/Src/stm32f4xx_hal_adc_ex.c ****     {
 263              		.loc 1 168 10 view .LVU72
 264 0042 002B     		cmp	r3, #0
 265 0044 F9D1     		bne	.L15
 266              	.L13:
 175:Libraries/STM32F4xx_HAL_Driver/Src/stm32f4xx_hal_adc_ex.c ****   {
 267              		.loc 1 175 3 is_stmt 1 view .LVU73
 175:Libraries/STM32F4xx_HAL_Driver/Src/stm32f4xx_hal_adc_ex.c ****   {
 268              		.loc 1 175 6 is_stmt 0 view .LVU74
 269 0046 0268     		ldr	r2, [r0]
 270 0048 9368     		ldr	r3, [r2, #8]
 175:Libraries/STM32F4xx_HAL_Driver/Src/stm32f4xx_hal_adc_ex.c ****   {
 271              		.loc 1 175 5 view .LVU75
 272 004a 13F0010F 		tst	r3, #1
 273 004e 3DD0     		beq	.L19
 180:Libraries/STM32F4xx_HAL_Driver/Src/stm32f4xx_hal_adc_ex.c ****                       HAL_ADC_STATE_READY | HAL_ADC_STATE_INJ_EOC,
 274              		.loc 1 180 5 is_stmt 1 view .LVU76
 275 0050 036C     		ldr	r3, [r0, #64]
 276 0052 23F44053 		bic	r3, r3, #12288
 277 0056 23F00103 		bic	r3, r3, #1
 278 005a 43F48053 		orr	r3, r3, #4096
 279 005e 0364     		str	r3, [r0, #64]
 188:Libraries/STM32F4xx_HAL_Driver/Src/stm32f4xx_hal_adc_ex.c ****     {
 280              		.loc 1 188 5 view .LVU77
 188:Libraries/STM32F4xx_HAL_Driver/Src/stm32f4xx_hal_adc_ex.c ****     {
 281              		.loc 1 188 9 is_stmt 0 view .LVU78
 282 0060 036C     		ldr	r3, [r0, #64]
 188:Libraries/STM32F4xx_HAL_Driver/Src/stm32f4xx_hal_adc_ex.c ****     {
 283              		.loc 1 188 8 view .LVU79
 284 0062 13F4807F 		tst	r3, #256
 285 0066 01D1     		bne	.L16
 191:Libraries/STM32F4xx_HAL_Driver/Src/stm32f4xx_hal_adc_ex.c ****     }
 286              		.loc 1 191 7 is_stmt 1 view .LVU80
 287 0068 0023     		movs	r3, #0
 288 006a 4364     		str	r3, [r0, #68]
 289              	.L16:
 197:Libraries/STM32F4xx_HAL_Driver/Src/stm32f4xx_hal_adc_ex.c ****     
ARM GAS  C:\Users\yzy\AppData\Local\Temp\ccN466ht.s 			page 26


 290              		.loc 1 197 5 view .LVU81
 197:Libraries/STM32F4xx_HAL_Driver/Src/stm32f4xx_hal_adc_ex.c ****     
 291              		.loc 1 197 5 view .LVU82
 292 006c 0023     		movs	r3, #0
 293 006e 80F83C30 		strb	r3, [r0, #60]
 197:Libraries/STM32F4xx_HAL_Driver/Src/stm32f4xx_hal_adc_ex.c ****     
 294              		.loc 1 197 5 view .LVU83
 201:Libraries/STM32F4xx_HAL_Driver/Src/stm32f4xx_hal_adc_ex.c **** 
 295              		.loc 1 201 5 view .LVU84
 296 0072 6FF00403 		mvn	r3, #4
 297 0076 1360     		str	r3, [r2]
 206:Libraries/STM32F4xx_HAL_Driver/Src/stm32f4xx_hal_adc_ex.c **** 
 298              		.loc 1 206 5 view .LVU85
 299              	.LVL16:
 209:Libraries/STM32F4xx_HAL_Driver/Src/stm32f4xx_hal_adc_ex.c ****     {
 300              		.loc 1 209 5 view .LVU86
 209:Libraries/STM32F4xx_HAL_Driver/Src/stm32f4xx_hal_adc_ex.c ****     {
 301              		.loc 1 209 8 is_stmt 0 view .LVU87
 302 0078 1C4B     		ldr	r3, .L27+8
 303 007a 5B68     		ldr	r3, [r3, #4]
 209:Libraries/STM32F4xx_HAL_Driver/Src/stm32f4xx_hal_adc_ex.c ****     {
 304              		.loc 1 209 7 view .LVU88
 305 007c 13F01F0F 		tst	r3, #31
 306 0080 0ED1     		bne	.L17
 211:Libraries/STM32F4xx_HAL_Driver/Src/stm32f4xx_hal_adc_ex.c ****       tmp2 = HAL_IS_BIT_CLR(hadc->Instance->CR1, ADC_CR1_JAUTO);
 307              		.loc 1 211 7 is_stmt 1 view .LVU89
 211:Libraries/STM32F4xx_HAL_Driver/Src/stm32f4xx_hal_adc_ex.c ****       tmp2 = HAL_IS_BIT_CLR(hadc->Instance->CR1, ADC_CR1_JAUTO);
 308              		.loc 1 211 14 is_stmt 0 view .LVU90
 309 0082 0268     		ldr	r2, [r0]
 310 0084 9168     		ldr	r1, [r2, #8]
 311              	.LVL17:
 212:Libraries/STM32F4xx_HAL_Driver/Src/stm32f4xx_hal_adc_ex.c ****       if(tmp1 && tmp2)
 312              		.loc 1 212 7 is_stmt 1 view .LVU91
 212:Libraries/STM32F4xx_HAL_Driver/Src/stm32f4xx_hal_adc_ex.c ****       if(tmp1 && tmp2)
 313              		.loc 1 212 14 is_stmt 0 view .LVU92
 314 0086 5368     		ldr	r3, [r2, #4]
 315 0088 03F48063 		and	r3, r3, #1024
 316              	.LVL18:
 213:Libraries/STM32F4xx_HAL_Driver/Src/stm32f4xx_hal_adc_ex.c ****       {
 317              		.loc 1 213 7 is_stmt 1 view .LVU93
 213:Libraries/STM32F4xx_HAL_Driver/Src/stm32f4xx_hal_adc_ex.c ****       {
 318              		.loc 1 213 9 is_stmt 0 view .LVU94
 319 008c 11F4401F 		tst	r1, #3145728
 320 0090 1FD1     		bne	.L20
 213:Libraries/STM32F4xx_HAL_Driver/Src/stm32f4xx_hal_adc_ex.c ****       {
 321              		.loc 1 213 15 discriminator 1 view .LVU95
 322 0092 03BB     		cbnz	r3, .L21
 216:Libraries/STM32F4xx_HAL_Driver/Src/stm32f4xx_hal_adc_ex.c ****       }
 323              		.loc 1 216 9 is_stmt 1 view .LVU96
 216:Libraries/STM32F4xx_HAL_Driver/Src/stm32f4xx_hal_adc_ex.c ****       }
 324              		.loc 1 216 29 is_stmt 0 view .LVU97
 325 0094 9368     		ldr	r3, [r2, #8]
 326              	.LVL19:
 216:Libraries/STM32F4xx_HAL_Driver/Src/stm32f4xx_hal_adc_ex.c ****       }
 327              		.loc 1 216 29 view .LVU98
 328 0096 43F48003 		orr	r3, r3, #4194304
 329 009a 9360     		str	r3, [r2, #8]
ARM GAS  C:\Users\yzy\AppData\Local\Temp\ccN466ht.s 			page 27


 232:Libraries/STM32F4xx_HAL_Driver/Src/stm32f4xx_hal_adc_ex.c **** }
 330              		.loc 1 232 10 view .LVU99
 331 009c 0020     		movs	r0, #0
 332              	.LVL20:
 232:Libraries/STM32F4xx_HAL_Driver/Src/stm32f4xx_hal_adc_ex.c **** }
 333              		.loc 1 232 10 view .LVU100
 334 009e 16E0     		b	.L12
 335              	.LVL21:
 336              	.L17:
 221:Libraries/STM32F4xx_HAL_Driver/Src/stm32f4xx_hal_adc_ex.c ****       tmp2 = HAL_IS_BIT_CLR(hadc->Instance->CR1, ADC_CR1_JAUTO);
 337              		.loc 1 221 7 is_stmt 1 view .LVU101
 221:Libraries/STM32F4xx_HAL_Driver/Src/stm32f4xx_hal_adc_ex.c ****       tmp2 = HAL_IS_BIT_CLR(hadc->Instance->CR1, ADC_CR1_JAUTO);
 338              		.loc 1 221 14 is_stmt 0 view .LVU102
 339 00a0 0368     		ldr	r3, [r0]
 340 00a2 9A68     		ldr	r2, [r3, #8]
 341 00a4 02F44012 		and	r2, r2, #3145728
 342              	.LVL22:
 222:Libraries/STM32F4xx_HAL_Driver/Src/stm32f4xx_hal_adc_ex.c ****       if((hadc->Instance == ADC1) && tmp1 && tmp2)  
 343              		.loc 1 222 7 is_stmt 1 view .LVU103
 222:Libraries/STM32F4xx_HAL_Driver/Src/stm32f4xx_hal_adc_ex.c ****       if((hadc->Instance == ADC1) && tmp1 && tmp2)  
 344              		.loc 1 222 14 is_stmt 0 view .LVU104
 345 00a8 5968     		ldr	r1, [r3, #4]
 346 00aa 01F48061 		and	r1, r1, #1024
 347              	.LVL23:
 223:Libraries/STM32F4xx_HAL_Driver/Src/stm32f4xx_hal_adc_ex.c ****       {
 348              		.loc 1 223 7 is_stmt 1 view .LVU105
 223:Libraries/STM32F4xx_HAL_Driver/Src/stm32f4xx_hal_adc_ex.c ****       {
 349              		.loc 1 223 9 is_stmt 0 view .LVU106
 350 00ae 1048     		ldr	r0, .L27+12
 351              	.LVL24:
 223:Libraries/STM32F4xx_HAL_Driver/Src/stm32f4xx_hal_adc_ex.c ****       {
 352              		.loc 1 223 9 view .LVU107
 353 00b0 8342     		cmp	r3, r0
 354 00b2 01D0     		beq	.L26
 232:Libraries/STM32F4xx_HAL_Driver/Src/stm32f4xx_hal_adc_ex.c **** }
 355              		.loc 1 232 10 view .LVU108
 356 00b4 0020     		movs	r0, #0
 357 00b6 0AE0     		b	.L12
 358              	.L26:
 223:Libraries/STM32F4xx_HAL_Driver/Src/stm32f4xx_hal_adc_ex.c ****       {
 359              		.loc 1 223 35 discriminator 1 view .LVU109
 360 00b8 7AB9     		cbnz	r2, .L23
 223:Libraries/STM32F4xx_HAL_Driver/Src/stm32f4xx_hal_adc_ex.c ****       {
 361              		.loc 1 223 43 discriminator 2 view .LVU110
 362 00ba 81B9     		cbnz	r1, .L24
 226:Libraries/STM32F4xx_HAL_Driver/Src/stm32f4xx_hal_adc_ex.c ****       }
 363              		.loc 1 226 9 is_stmt 1 view .LVU111
 226:Libraries/STM32F4xx_HAL_Driver/Src/stm32f4xx_hal_adc_ex.c ****       }
 364              		.loc 1 226 29 is_stmt 0 view .LVU112
 365 00bc 9A68     		ldr	r2, [r3, #8]
 366              	.LVL25:
 226:Libraries/STM32F4xx_HAL_Driver/Src/stm32f4xx_hal_adc_ex.c ****       }
 367              		.loc 1 226 29 view .LVU113
 368 00be 42F48002 		orr	r2, r2, #4194304
 369 00c2 9A60     		str	r2, [r3, #8]
 232:Libraries/STM32F4xx_HAL_Driver/Src/stm32f4xx_hal_adc_ex.c **** }
 370              		.loc 1 232 10 view .LVU114
ARM GAS  C:\Users\yzy\AppData\Local\Temp\ccN466ht.s 			page 28


 371 00c4 0020     		movs	r0, #0
 372 00c6 02E0     		b	.L12
 373              	.LVL26:
 374              	.L18:
 154:Libraries/STM32F4xx_HAL_Driver/Src/stm32f4xx_hal_adc_ex.c ****   
 375              		.loc 1 154 3 view .LVU115
 376 00c8 0220     		movs	r0, #2
 377              	.LVL27:
 154:Libraries/STM32F4xx_HAL_Driver/Src/stm32f4xx_hal_adc_ex.c ****   
 378              		.loc 1 154 3 view .LVU116
 379 00ca 00E0     		b	.L12
 380              	.LVL28:
 381              	.L19:
 232:Libraries/STM32F4xx_HAL_Driver/Src/stm32f4xx_hal_adc_ex.c **** }
 382              		.loc 1 232 10 view .LVU117
 383 00cc 0020     		movs	r0, #0
 384              	.LVL29:
 385              	.L12:
 233:Libraries/STM32F4xx_HAL_Driver/Src/stm32f4xx_hal_adc_ex.c **** 
 386              		.loc 1 233 1 view .LVU118
 387 00ce 02B0     		add	sp, sp, #8
 388              	.LCFI4:
 389              		.cfi_remember_state
 390              		.cfi_def_cfa_offset 0
 391              		@ sp needed
 392 00d0 7047     		bx	lr
 393              	.LVL30:
 394              	.L20:
 395              	.LCFI5:
 396              		.cfi_restore_state
 232:Libraries/STM32F4xx_HAL_Driver/Src/stm32f4xx_hal_adc_ex.c **** }
 397              		.loc 1 232 10 view .LVU119
 398 00d2 0020     		movs	r0, #0
 399              	.LVL31:
 232:Libraries/STM32F4xx_HAL_Driver/Src/stm32f4xx_hal_adc_ex.c **** }
 400              		.loc 1 232 10 view .LVU120
 401 00d4 FBE7     		b	.L12
 402              	.LVL32:
 403              	.L21:
 232:Libraries/STM32F4xx_HAL_Driver/Src/stm32f4xx_hal_adc_ex.c **** }
 404              		.loc 1 232 10 view .LVU121
 405 00d6 0020     		movs	r0, #0
 406              	.LVL33:
 232:Libraries/STM32F4xx_HAL_Driver/Src/stm32f4xx_hal_adc_ex.c **** }
 407              		.loc 1 232 10 view .LVU122
 408 00d8 F9E7     		b	.L12
 409              	.LVL34:
 410              	.L23:
 232:Libraries/STM32F4xx_HAL_Driver/Src/stm32f4xx_hal_adc_ex.c **** }
 411              		.loc 1 232 10 view .LVU123
 412 00da 0020     		movs	r0, #0
 413 00dc F7E7     		b	.L12
 414              	.L24:
 415 00de 0020     		movs	r0, #0
 416 00e0 F5E7     		b	.L12
 417              	.L28:
 418 00e2 00BF     		.align	2
ARM GAS  C:\Users\yzy\AppData\Local\Temp\ccN466ht.s 			page 29


 419              	.L27:
 420 00e4 00000000 		.word	SystemCoreClock
 421 00e8 83DE1B43 		.word	1125899907
 422 00ec 00230140 		.word	1073816320
 423 00f0 00200140 		.word	1073815552
 424              		.cfi_endproc
 425              	.LFE130:
 427              		.section	.text.HAL_ADCEx_InjectedStart_IT,"ax",%progbits
 428              		.align	1
 429              		.global	HAL_ADCEx_InjectedStart_IT
 430              		.syntax unified
 431              		.thumb
 432              		.thumb_func
 433              		.fpu softvfp
 435              	HAL_ADCEx_InjectedStart_IT:
 436              	.LVL35:
 437              	.LFB131:
 243:Libraries/STM32F4xx_HAL_Driver/Src/stm32f4xx_hal_adc_ex.c ****   __IO uint32_t counter = 0U;
 438              		.loc 1 243 1 is_stmt 1 view -0
 439              		.cfi_startproc
 440              		@ args = 0, pretend = 0, frame = 8
 441              		@ frame_needed = 0, uses_anonymous_args = 0
 442              		@ link register save eliminated.
 243:Libraries/STM32F4xx_HAL_Driver/Src/stm32f4xx_hal_adc_ex.c ****   __IO uint32_t counter = 0U;
 443              		.loc 1 243 1 is_stmt 0 view .LVU125
 444 0000 82B0     		sub	sp, sp, #8
 445              	.LCFI6:
 446              		.cfi_def_cfa_offset 8
 244:Libraries/STM32F4xx_HAL_Driver/Src/stm32f4xx_hal_adc_ex.c ****   uint32_t tmp1 = 0U, tmp2 = 0U;
 447              		.loc 1 244 3 is_stmt 1 view .LVU126
 244:Libraries/STM32F4xx_HAL_Driver/Src/stm32f4xx_hal_adc_ex.c ****   uint32_t tmp1 = 0U, tmp2 = 0U;
 448              		.loc 1 244 17 is_stmt 0 view .LVU127
 449 0002 0023     		movs	r3, #0
 450 0004 0193     		str	r3, [sp, #4]
 245:Libraries/STM32F4xx_HAL_Driver/Src/stm32f4xx_hal_adc_ex.c ****   ADC_Common_TypeDef *tmpADC_Common;
 451              		.loc 1 245 3 is_stmt 1 view .LVU128
 452              	.LVL36:
 246:Libraries/STM32F4xx_HAL_Driver/Src/stm32f4xx_hal_adc_ex.c ****   
 453              		.loc 1 246 3 view .LVU129
 249:Libraries/STM32F4xx_HAL_Driver/Src/stm32f4xx_hal_adc_ex.c ****   
 454              		.loc 1 249 3 view .LVU130
 249:Libraries/STM32F4xx_HAL_Driver/Src/stm32f4xx_hal_adc_ex.c ****   
 455              		.loc 1 249 3 view .LVU131
 456 0006 90F83C30 		ldrb	r3, [r0, #60]	@ zero_extendqisi2
 457 000a 012B     		cmp	r3, #1
 458 000c 61D0     		beq	.L36
 249:Libraries/STM32F4xx_HAL_Driver/Src/stm32f4xx_hal_adc_ex.c ****   
 459              		.loc 1 249 3 discriminator 2 view .LVU132
 460 000e 0123     		movs	r3, #1
 461 0010 80F83C30 		strb	r3, [r0, #60]
 249:Libraries/STM32F4xx_HAL_Driver/Src/stm32f4xx_hal_adc_ex.c ****   
 462              		.loc 1 249 3 discriminator 2 view .LVU133
 255:Libraries/STM32F4xx_HAL_Driver/Src/stm32f4xx_hal_adc_ex.c ****   {  
 463              		.loc 1 255 3 discriminator 2 view .LVU134
 255:Libraries/STM32F4xx_HAL_Driver/Src/stm32f4xx_hal_adc_ex.c ****   {  
 464              		.loc 1 255 11 is_stmt 0 discriminator 2 view .LVU135
 465 0014 0368     		ldr	r3, [r0]
ARM GAS  C:\Users\yzy\AppData\Local\Temp\ccN466ht.s 			page 30


 255:Libraries/STM32F4xx_HAL_Driver/Src/stm32f4xx_hal_adc_ex.c ****   {  
 466              		.loc 1 255 21 discriminator 2 view .LVU136
 467 0016 9A68     		ldr	r2, [r3, #8]
 255:Libraries/STM32F4xx_HAL_Driver/Src/stm32f4xx_hal_adc_ex.c ****   {  
 468              		.loc 1 255 5 discriminator 2 view .LVU137
 469 0018 12F0010F 		tst	r2, #1
 470 001c 13D1     		bne	.L31
 258:Libraries/STM32F4xx_HAL_Driver/Src/stm32f4xx_hal_adc_ex.c ****     
 471              		.loc 1 258 5 is_stmt 1 view .LVU138
 472 001e 9A68     		ldr	r2, [r3, #8]
 473 0020 42F00102 		orr	r2, r2, #1
 474 0024 9A60     		str	r2, [r3, #8]
 262:Libraries/STM32F4xx_HAL_Driver/Src/stm32f4xx_hal_adc_ex.c ****     while(counter != 0U)
 475              		.loc 1 262 5 view .LVU139
 262:Libraries/STM32F4xx_HAL_Driver/Src/stm32f4xx_hal_adc_ex.c ****     while(counter != 0U)
 476              		.loc 1 262 53 is_stmt 0 view .LVU140
 477 0026 314B     		ldr	r3, .L45
 478 0028 1B68     		ldr	r3, [r3]
 479 002a 314A     		ldr	r2, .L45+4
 480 002c A2FB0323 		umull	r2, r3, r2, r3
 481 0030 9B0C     		lsrs	r3, r3, #18
 262:Libraries/STM32F4xx_HAL_Driver/Src/stm32f4xx_hal_adc_ex.c ****     while(counter != 0U)
 482              		.loc 1 262 34 view .LVU141
 483 0032 03EB4303 		add	r3, r3, r3, lsl #1
 262:Libraries/STM32F4xx_HAL_Driver/Src/stm32f4xx_hal_adc_ex.c ****     while(counter != 0U)
 484              		.loc 1 262 13 view .LVU142
 485 0036 0193     		str	r3, [sp, #4]
 263:Libraries/STM32F4xx_HAL_Driver/Src/stm32f4xx_hal_adc_ex.c ****     {
 486              		.loc 1 263 5 is_stmt 1 view .LVU143
 263:Libraries/STM32F4xx_HAL_Driver/Src/stm32f4xx_hal_adc_ex.c ****     {
 487              		.loc 1 263 10 is_stmt 0 view .LVU144
 488 0038 02E0     		b	.L32
 489              	.L33:
 265:Libraries/STM32F4xx_HAL_Driver/Src/stm32f4xx_hal_adc_ex.c ****     }
 490              		.loc 1 265 7 is_stmt 1 view .LVU145
 265:Libraries/STM32F4xx_HAL_Driver/Src/stm32f4xx_hal_adc_ex.c ****     }
 491              		.loc 1 265 14 is_stmt 0 view .LVU146
 492 003a 019B     		ldr	r3, [sp, #4]
 493 003c 013B     		subs	r3, r3, #1
 494 003e 0193     		str	r3, [sp, #4]
 495              	.L32:
 263:Libraries/STM32F4xx_HAL_Driver/Src/stm32f4xx_hal_adc_ex.c ****     {
 496              		.loc 1 263 10 is_stmt 1 view .LVU147
 263:Libraries/STM32F4xx_HAL_Driver/Src/stm32f4xx_hal_adc_ex.c ****     {
 497              		.loc 1 263 19 is_stmt 0 view .LVU148
 498 0040 019B     		ldr	r3, [sp, #4]
 263:Libraries/STM32F4xx_HAL_Driver/Src/stm32f4xx_hal_adc_ex.c ****     {
 499              		.loc 1 263 10 view .LVU149
 500 0042 002B     		cmp	r3, #0
 501 0044 F9D1     		bne	.L33
 502              	.L31:
 270:Libraries/STM32F4xx_HAL_Driver/Src/stm32f4xx_hal_adc_ex.c ****   {
 503              		.loc 1 270 3 is_stmt 1 view .LVU150
 270:Libraries/STM32F4xx_HAL_Driver/Src/stm32f4xx_hal_adc_ex.c ****   {
 504              		.loc 1 270 6 is_stmt 0 view .LVU151
 505 0046 0268     		ldr	r2, [r0]
 506 0048 9368     		ldr	r3, [r2, #8]
ARM GAS  C:\Users\yzy\AppData\Local\Temp\ccN466ht.s 			page 31


 270:Libraries/STM32F4xx_HAL_Driver/Src/stm32f4xx_hal_adc_ex.c ****   {
 507              		.loc 1 270 5 view .LVU152
 508 004a 13F0010F 		tst	r3, #1
 509 004e 42D0     		beq	.L37
 275:Libraries/STM32F4xx_HAL_Driver/Src/stm32f4xx_hal_adc_ex.c ****                       HAL_ADC_STATE_READY | HAL_ADC_STATE_INJ_EOC,
 510              		.loc 1 275 5 is_stmt 1 view .LVU153
 511 0050 036C     		ldr	r3, [r0, #64]
 512 0052 23F44053 		bic	r3, r3, #12288
 513 0056 23F00103 		bic	r3, r3, #1
 514 005a 43F48053 		orr	r3, r3, #4096
 515 005e 0364     		str	r3, [r0, #64]
 283:Libraries/STM32F4xx_HAL_Driver/Src/stm32f4xx_hal_adc_ex.c ****     {
 516              		.loc 1 283 5 view .LVU154
 283:Libraries/STM32F4xx_HAL_Driver/Src/stm32f4xx_hal_adc_ex.c ****     {
 517              		.loc 1 283 9 is_stmt 0 view .LVU155
 518 0060 036C     		ldr	r3, [r0, #64]
 283:Libraries/STM32F4xx_HAL_Driver/Src/stm32f4xx_hal_adc_ex.c ****     {
 519              		.loc 1 283 8 view .LVU156
 520 0062 13F4807F 		tst	r3, #256
 521 0066 01D1     		bne	.L34
 286:Libraries/STM32F4xx_HAL_Driver/Src/stm32f4xx_hal_adc_ex.c ****     }
 522              		.loc 1 286 7 is_stmt 1 view .LVU157
 523 0068 0023     		movs	r3, #0
 524 006a 4364     		str	r3, [r0, #68]
 525              	.L34:
 292:Libraries/STM32F4xx_HAL_Driver/Src/stm32f4xx_hal_adc_ex.c ****     
 526              		.loc 1 292 5 view .LVU158
 292:Libraries/STM32F4xx_HAL_Driver/Src/stm32f4xx_hal_adc_ex.c ****     
 527              		.loc 1 292 5 view .LVU159
 528 006c 0023     		movs	r3, #0
 529 006e 80F83C30 		strb	r3, [r0, #60]
 292:Libraries/STM32F4xx_HAL_Driver/Src/stm32f4xx_hal_adc_ex.c ****     
 530              		.loc 1 292 5 view .LVU160
 296:Libraries/STM32F4xx_HAL_Driver/Src/stm32f4xx_hal_adc_ex.c ****     
 531              		.loc 1 296 5 view .LVU161
 532 0072 6FF00403 		mvn	r3, #4
 533 0076 1360     		str	r3, [r2]
 299:Libraries/STM32F4xx_HAL_Driver/Src/stm32f4xx_hal_adc_ex.c **** 
 534              		.loc 1 299 5 view .LVU162
 535 0078 0268     		ldr	r2, [r0]
 536 007a 5368     		ldr	r3, [r2, #4]
 537 007c 43F08003 		orr	r3, r3, #128
 538 0080 5360     		str	r3, [r2, #4]
 304:Libraries/STM32F4xx_HAL_Driver/Src/stm32f4xx_hal_adc_ex.c ****     
 539              		.loc 1 304 5 view .LVU163
 540              	.LVL37:
 307:Libraries/STM32F4xx_HAL_Driver/Src/stm32f4xx_hal_adc_ex.c ****     {
 541              		.loc 1 307 5 view .LVU164
 307:Libraries/STM32F4xx_HAL_Driver/Src/stm32f4xx_hal_adc_ex.c ****     {
 542              		.loc 1 307 8 is_stmt 0 view .LVU165
 543 0082 1C4B     		ldr	r3, .L45+8
 544 0084 5B68     		ldr	r3, [r3, #4]
 307:Libraries/STM32F4xx_HAL_Driver/Src/stm32f4xx_hal_adc_ex.c ****     {
 545              		.loc 1 307 7 view .LVU166
 546 0086 13F01F0F 		tst	r3, #31
 547 008a 0ED1     		bne	.L35
 309:Libraries/STM32F4xx_HAL_Driver/Src/stm32f4xx_hal_adc_ex.c ****       tmp2 = HAL_IS_BIT_CLR(hadc->Instance->CR1, ADC_CR1_JAUTO);
ARM GAS  C:\Users\yzy\AppData\Local\Temp\ccN466ht.s 			page 32


 548              		.loc 1 309 7 is_stmt 1 view .LVU167
 309:Libraries/STM32F4xx_HAL_Driver/Src/stm32f4xx_hal_adc_ex.c ****       tmp2 = HAL_IS_BIT_CLR(hadc->Instance->CR1, ADC_CR1_JAUTO);
 549              		.loc 1 309 14 is_stmt 0 view .LVU168
 550 008c 0268     		ldr	r2, [r0]
 551 008e 9168     		ldr	r1, [r2, #8]
 552              	.LVL38:
 310:Libraries/STM32F4xx_HAL_Driver/Src/stm32f4xx_hal_adc_ex.c ****       if(tmp1 && tmp2)
 553              		.loc 1 310 7 is_stmt 1 view .LVU169
 310:Libraries/STM32F4xx_HAL_Driver/Src/stm32f4xx_hal_adc_ex.c ****       if(tmp1 && tmp2)
 554              		.loc 1 310 14 is_stmt 0 view .LVU170
 555 0090 5368     		ldr	r3, [r2, #4]
 556 0092 03F48063 		and	r3, r3, #1024
 557              	.LVL39:
 311:Libraries/STM32F4xx_HAL_Driver/Src/stm32f4xx_hal_adc_ex.c ****       {
 558              		.loc 1 311 7 is_stmt 1 view .LVU171
 311:Libraries/STM32F4xx_HAL_Driver/Src/stm32f4xx_hal_adc_ex.c ****       {
 559              		.loc 1 311 9 is_stmt 0 view .LVU172
 560 0096 11F4401F 		tst	r1, #3145728
 561 009a 1FD1     		bne	.L38
 311:Libraries/STM32F4xx_HAL_Driver/Src/stm32f4xx_hal_adc_ex.c ****       {
 562              		.loc 1 311 15 discriminator 1 view .LVU173
 563 009c 03BB     		cbnz	r3, .L39
 314:Libraries/STM32F4xx_HAL_Driver/Src/stm32f4xx_hal_adc_ex.c ****       }
 564              		.loc 1 314 9 is_stmt 1 view .LVU174
 314:Libraries/STM32F4xx_HAL_Driver/Src/stm32f4xx_hal_adc_ex.c ****       }
 565              		.loc 1 314 29 is_stmt 0 view .LVU175
 566 009e 9368     		ldr	r3, [r2, #8]
 567              	.LVL40:
 314:Libraries/STM32F4xx_HAL_Driver/Src/stm32f4xx_hal_adc_ex.c ****       }
 568              		.loc 1 314 29 view .LVU176
 569 00a0 43F48003 		orr	r3, r3, #4194304
 570 00a4 9360     		str	r3, [r2, #8]
 330:Libraries/STM32F4xx_HAL_Driver/Src/stm32f4xx_hal_adc_ex.c **** }
 571              		.loc 1 330 10 view .LVU177
 572 00a6 0020     		movs	r0, #0
 573              	.LVL41:
 330:Libraries/STM32F4xx_HAL_Driver/Src/stm32f4xx_hal_adc_ex.c **** }
 574              		.loc 1 330 10 view .LVU178
 575 00a8 16E0     		b	.L30
 576              	.LVL42:
 577              	.L35:
 319:Libraries/STM32F4xx_HAL_Driver/Src/stm32f4xx_hal_adc_ex.c ****       tmp2 = HAL_IS_BIT_CLR(hadc->Instance->CR1, ADC_CR1_JAUTO);
 578              		.loc 1 319 7 is_stmt 1 view .LVU179
 319:Libraries/STM32F4xx_HAL_Driver/Src/stm32f4xx_hal_adc_ex.c ****       tmp2 = HAL_IS_BIT_CLR(hadc->Instance->CR1, ADC_CR1_JAUTO);
 579              		.loc 1 319 14 is_stmt 0 view .LVU180
 580 00aa 0368     		ldr	r3, [r0]
 581 00ac 9A68     		ldr	r2, [r3, #8]
 582 00ae 02F44012 		and	r2, r2, #3145728
 583              	.LVL43:
 320:Libraries/STM32F4xx_HAL_Driver/Src/stm32f4xx_hal_adc_ex.c ****       if((hadc->Instance == ADC1) && tmp1 && tmp2)  
 584              		.loc 1 320 7 is_stmt 1 view .LVU181
 320:Libraries/STM32F4xx_HAL_Driver/Src/stm32f4xx_hal_adc_ex.c ****       if((hadc->Instance == ADC1) && tmp1 && tmp2)  
 585              		.loc 1 320 14 is_stmt 0 view .LVU182
 586 00b2 5968     		ldr	r1, [r3, #4]
 587 00b4 01F48061 		and	r1, r1, #1024
 588              	.LVL44:
 321:Libraries/STM32F4xx_HAL_Driver/Src/stm32f4xx_hal_adc_ex.c ****       {
ARM GAS  C:\Users\yzy\AppData\Local\Temp\ccN466ht.s 			page 33


 589              		.loc 1 321 7 is_stmt 1 view .LVU183
 321:Libraries/STM32F4xx_HAL_Driver/Src/stm32f4xx_hal_adc_ex.c ****       {
 590              		.loc 1 321 9 is_stmt 0 view .LVU184
 591 00b8 0F48     		ldr	r0, .L45+12
 592              	.LVL45:
 321:Libraries/STM32F4xx_HAL_Driver/Src/stm32f4xx_hal_adc_ex.c ****       {
 593              		.loc 1 321 9 view .LVU185
 594 00ba 8342     		cmp	r3, r0
 595 00bc 01D0     		beq	.L44
 330:Libraries/STM32F4xx_HAL_Driver/Src/stm32f4xx_hal_adc_ex.c **** }
 596              		.loc 1 330 10 view .LVU186
 597 00be 0020     		movs	r0, #0
 598 00c0 0AE0     		b	.L30
 599              	.L44:
 321:Libraries/STM32F4xx_HAL_Driver/Src/stm32f4xx_hal_adc_ex.c ****       {
 600              		.loc 1 321 35 discriminator 1 view .LVU187
 601 00c2 7AB9     		cbnz	r2, .L41
 321:Libraries/STM32F4xx_HAL_Driver/Src/stm32f4xx_hal_adc_ex.c ****       {
 602              		.loc 1 321 43 discriminator 2 view .LVU188
 603 00c4 81B9     		cbnz	r1, .L42
 324:Libraries/STM32F4xx_HAL_Driver/Src/stm32f4xx_hal_adc_ex.c ****       }
 604              		.loc 1 324 9 is_stmt 1 view .LVU189
 324:Libraries/STM32F4xx_HAL_Driver/Src/stm32f4xx_hal_adc_ex.c ****       }
 605              		.loc 1 324 29 is_stmt 0 view .LVU190
 606 00c6 9A68     		ldr	r2, [r3, #8]
 607              	.LVL46:
 324:Libraries/STM32F4xx_HAL_Driver/Src/stm32f4xx_hal_adc_ex.c ****       }
 608              		.loc 1 324 29 view .LVU191
 609 00c8 42F48002 		orr	r2, r2, #4194304
 610 00cc 9A60     		str	r2, [r3, #8]
 330:Libraries/STM32F4xx_HAL_Driver/Src/stm32f4xx_hal_adc_ex.c **** }
 611              		.loc 1 330 10 view .LVU192
 612 00ce 0020     		movs	r0, #0
 613 00d0 02E0     		b	.L30
 614              	.LVL47:
 615              	.L36:
 249:Libraries/STM32F4xx_HAL_Driver/Src/stm32f4xx_hal_adc_ex.c ****   
 616              		.loc 1 249 3 view .LVU193
 617 00d2 0220     		movs	r0, #2
 618              	.LVL48:
 249:Libraries/STM32F4xx_HAL_Driver/Src/stm32f4xx_hal_adc_ex.c ****   
 619              		.loc 1 249 3 view .LVU194
 620 00d4 00E0     		b	.L30
 621              	.LVL49:
 622              	.L37:
 330:Libraries/STM32F4xx_HAL_Driver/Src/stm32f4xx_hal_adc_ex.c **** }
 623              		.loc 1 330 10 view .LVU195
 624 00d6 0020     		movs	r0, #0
 625              	.LVL50:
 626              	.L30:
 331:Libraries/STM32F4xx_HAL_Driver/Src/stm32f4xx_hal_adc_ex.c **** 
 627              		.loc 1 331 1 view .LVU196
 628 00d8 02B0     		add	sp, sp, #8
 629              	.LCFI7:
 630              		.cfi_remember_state
 631              		.cfi_def_cfa_offset 0
 632              		@ sp needed
ARM GAS  C:\Users\yzy\AppData\Local\Temp\ccN466ht.s 			page 34


 633 00da 7047     		bx	lr
 634              	.LVL51:
 635              	.L38:
 636              	.LCFI8:
 637              		.cfi_restore_state
 330:Libraries/STM32F4xx_HAL_Driver/Src/stm32f4xx_hal_adc_ex.c **** }
 638              		.loc 1 330 10 view .LVU197
 639 00dc 0020     		movs	r0, #0
 640              	.LVL52:
 330:Libraries/STM32F4xx_HAL_Driver/Src/stm32f4xx_hal_adc_ex.c **** }
 641              		.loc 1 330 10 view .LVU198
 642 00de FBE7     		b	.L30
 643              	.LVL53:
 644              	.L39:
 330:Libraries/STM32F4xx_HAL_Driver/Src/stm32f4xx_hal_adc_ex.c **** }
 645              		.loc 1 330 10 view .LVU199
 646 00e0 0020     		movs	r0, #0
 647              	.LVL54:
 330:Libraries/STM32F4xx_HAL_Driver/Src/stm32f4xx_hal_adc_ex.c **** }
 648              		.loc 1 330 10 view .LVU200
 649 00e2 F9E7     		b	.L30
 650              	.LVL55:
 651              	.L41:
 330:Libraries/STM32F4xx_HAL_Driver/Src/stm32f4xx_hal_adc_ex.c **** }
 652              		.loc 1 330 10 view .LVU201
 653 00e4 0020     		movs	r0, #0
 654 00e6 F7E7     		b	.L30
 655              	.L42:
 656 00e8 0020     		movs	r0, #0
 657 00ea F5E7     		b	.L30
 658              	.L46:
 659              		.align	2
 660              	.L45:
 661 00ec 00000000 		.word	SystemCoreClock
 662 00f0 83DE1B43 		.word	1125899907
 663 00f4 00230140 		.word	1073816320
 664 00f8 00200140 		.word	1073815552
 665              		.cfi_endproc
 666              	.LFE131:
 668              		.section	.text.HAL_ADCEx_InjectedStop,"ax",%progbits
 669              		.align	1
 670              		.global	HAL_ADCEx_InjectedStop
 671              		.syntax unified
 672              		.thumb
 673              		.thumb_func
 674              		.fpu softvfp
 676              	HAL_ADCEx_InjectedStop:
 677              	.LVL56:
 678              	.LFB132:
 346:Libraries/STM32F4xx_HAL_Driver/Src/stm32f4xx_hal_adc_ex.c ****   HAL_StatusTypeDef tmp_hal_status = HAL_OK;
 679              		.loc 1 346 1 is_stmt 1 view -0
 680              		.cfi_startproc
 681              		@ args = 0, pretend = 0, frame = 0
 682              		@ frame_needed = 0, uses_anonymous_args = 0
 683              		@ link register save eliminated.
 346:Libraries/STM32F4xx_HAL_Driver/Src/stm32f4xx_hal_adc_ex.c ****   HAL_StatusTypeDef tmp_hal_status = HAL_OK;
 684              		.loc 1 346 1 is_stmt 0 view .LVU203
ARM GAS  C:\Users\yzy\AppData\Local\Temp\ccN466ht.s 			page 35


 685 0000 0346     		mov	r3, r0
 347:Libraries/STM32F4xx_HAL_Driver/Src/stm32f4xx_hal_adc_ex.c ****   
 686              		.loc 1 347 3 is_stmt 1 view .LVU204
 687              	.LVL57:
 350:Libraries/STM32F4xx_HAL_Driver/Src/stm32f4xx_hal_adc_ex.c **** 
 688              		.loc 1 350 3 view .LVU205
 353:Libraries/STM32F4xx_HAL_Driver/Src/stm32f4xx_hal_adc_ex.c ****     
 689              		.loc 1 353 3 view .LVU206
 353:Libraries/STM32F4xx_HAL_Driver/Src/stm32f4xx_hal_adc_ex.c ****     
 690              		.loc 1 353 3 view .LVU207
 691 0002 90F83C20 		ldrb	r2, [r0, #60]	@ zero_extendqisi2
 692 0006 012A     		cmp	r2, #1
 693 0008 29D0     		beq	.L51
 353:Libraries/STM32F4xx_HAL_Driver/Src/stm32f4xx_hal_adc_ex.c ****     
 694              		.loc 1 353 3 discriminator 2 view .LVU208
 695 000a 0122     		movs	r2, #1
 696 000c 80F83C20 		strb	r2, [r0, #60]
 353:Libraries/STM32F4xx_HAL_Driver/Src/stm32f4xx_hal_adc_ex.c ****     
 697              		.loc 1 353 3 discriminator 2 view .LVU209
 361:Libraries/STM32F4xx_HAL_Driver/Src/stm32f4xx_hal_adc_ex.c ****      HAL_IS_BIT_CLR(hadc->Instance->CR1, ADC_CR1_JAUTO)   )
 698              		.loc 1 361 3 discriminator 2 view .LVU210
 361:Libraries/STM32F4xx_HAL_Driver/Src/stm32f4xx_hal_adc_ex.c ****      HAL_IS_BIT_CLR(hadc->Instance->CR1, ADC_CR1_JAUTO)   )
 699              		.loc 1 361 12 is_stmt 0 discriminator 2 view .LVU211
 700 0010 026C     		ldr	r2, [r0, #64]
 361:Libraries/STM32F4xx_HAL_Driver/Src/stm32f4xx_hal_adc_ex.c ****      HAL_IS_BIT_CLR(hadc->Instance->CR1, ADC_CR1_JAUTO)   )
 701              		.loc 1 361 5 discriminator 2 view .LVU212
 702 0012 12F4807F 		tst	r2, #256
 703 0016 17D1     		bne	.L49
 362:Libraries/STM32F4xx_HAL_Driver/Src/stm32f4xx_hal_adc_ex.c ****   {
 704              		.loc 1 362 6 discriminator 1 view .LVU213
 705 0018 0268     		ldr	r2, [r0]
 706 001a 5168     		ldr	r1, [r2, #4]
 361:Libraries/STM32F4xx_HAL_Driver/Src/stm32f4xx_hal_adc_ex.c ****      HAL_IS_BIT_CLR(hadc->Instance->CR1, ADC_CR1_JAUTO)   )
 707              		.loc 1 361 57 discriminator 1 view .LVU214
 708 001c 11F4806F 		tst	r1, #1024
 709 0020 12D1     		bne	.L49
 366:Libraries/STM32F4xx_HAL_Driver/Src/stm32f4xx_hal_adc_ex.c ****     
 710              		.loc 1 366 5 is_stmt 1 view .LVU215
 711 0022 9168     		ldr	r1, [r2, #8]
 712 0024 21F00101 		bic	r1, r1, #1
 713 0028 9160     		str	r1, [r2, #8]
 369:Libraries/STM32F4xx_HAL_Driver/Src/stm32f4xx_hal_adc_ex.c ****     {
 714              		.loc 1 369 5 view .LVU216
 369:Libraries/STM32F4xx_HAL_Driver/Src/stm32f4xx_hal_adc_ex.c ****     {
 715              		.loc 1 369 8 is_stmt 0 view .LVU217
 716 002a 0268     		ldr	r2, [r0]
 717 002c 9268     		ldr	r2, [r2, #8]
 369:Libraries/STM32F4xx_HAL_Driver/Src/stm32f4xx_hal_adc_ex.c ****     {
 718              		.loc 1 369 7 view .LVU218
 719 002e 12F0010F 		tst	r2, #1
 720 0032 12D1     		bne	.L52
 372:Libraries/STM32F4xx_HAL_Driver/Src/stm32f4xx_hal_adc_ex.c ****                         HAL_ADC_STATE_REG_BUSY | HAL_ADC_STATE_INJ_BUSY,
 721              		.loc 1 372 7 is_stmt 1 view .LVU219
 722 0034 026C     		ldr	r2, [r0, #64]
 723 0036 22F48852 		bic	r2, r2, #4352
 724 003a 22F00102 		bic	r2, r2, #1
 725 003e 42F00102 		orr	r2, r2, #1
ARM GAS  C:\Users\yzy\AppData\Local\Temp\ccN466ht.s 			page 36


 726 0042 0264     		str	r2, [r0, #64]
 347:Libraries/STM32F4xx_HAL_Driver/Src/stm32f4xx_hal_adc_ex.c ****   
 727              		.loc 1 347 21 is_stmt 0 view .LVU220
 728 0044 0020     		movs	r0, #0
 729              	.LVL58:
 347:Libraries/STM32F4xx_HAL_Driver/Src/stm32f4xx_hal_adc_ex.c ****   
 730              		.loc 1 347 21 view .LVU221
 731 0046 04E0     		b	.L50
 732              	.LVL59:
 733              	.L49:
 380:Libraries/STM32F4xx_HAL_Driver/Src/stm32f4xx_hal_adc_ex.c ****       
 734              		.loc 1 380 5 is_stmt 1 view .LVU222
 735 0048 1A6C     		ldr	r2, [r3, #64]
 736 004a 42F02002 		orr	r2, r2, #32
 737 004e 1A64     		str	r2, [r3, #64]
 382:Libraries/STM32F4xx_HAL_Driver/Src/stm32f4xx_hal_adc_ex.c ****   }
 738              		.loc 1 382 5 view .LVU223
 739              	.LVL60:
 382:Libraries/STM32F4xx_HAL_Driver/Src/stm32f4xx_hal_adc_ex.c ****   }
 740              		.loc 1 382 20 is_stmt 0 view .LVU224
 741 0050 0120     		movs	r0, #1
 742              	.LVL61:
 743              	.L50:
 386:Libraries/STM32F4xx_HAL_Driver/Src/stm32f4xx_hal_adc_ex.c ****   
 744              		.loc 1 386 3 is_stmt 1 view .LVU225
 386:Libraries/STM32F4xx_HAL_Driver/Src/stm32f4xx_hal_adc_ex.c ****   
 745              		.loc 1 386 3 view .LVU226
 746 0052 0022     		movs	r2, #0
 747 0054 83F83C20 		strb	r2, [r3, #60]
 386:Libraries/STM32F4xx_HAL_Driver/Src/stm32f4xx_hal_adc_ex.c ****   
 748              		.loc 1 386 3 view .LVU227
 389:Libraries/STM32F4xx_HAL_Driver/Src/stm32f4xx_hal_adc_ex.c **** }
 749              		.loc 1 389 3 view .LVU228
 389:Libraries/STM32F4xx_HAL_Driver/Src/stm32f4xx_hal_adc_ex.c **** }
 750              		.loc 1 389 10 is_stmt 0 view .LVU229
 751 0058 7047     		bx	lr
 752              	.LVL62:
 753              	.L52:
 347:Libraries/STM32F4xx_HAL_Driver/Src/stm32f4xx_hal_adc_ex.c ****   
 754              		.loc 1 347 21 view .LVU230
 755 005a 0020     		movs	r0, #0
 756              	.LVL63:
 347:Libraries/STM32F4xx_HAL_Driver/Src/stm32f4xx_hal_adc_ex.c ****   
 757              		.loc 1 347 21 view .LVU231
 758 005c F9E7     		b	.L50
 759              	.LVL64:
 760              	.L51:
 353:Libraries/STM32F4xx_HAL_Driver/Src/stm32f4xx_hal_adc_ex.c ****     
 761              		.loc 1 353 3 view .LVU232
 762 005e 0220     		movs	r0, #2
 763              	.LVL65:
 390:Libraries/STM32F4xx_HAL_Driver/Src/stm32f4xx_hal_adc_ex.c **** 
 764              		.loc 1 390 1 view .LVU233
 765 0060 7047     		bx	lr
 766              		.cfi_endproc
 767              	.LFE132:
 769              		.section	.text.HAL_ADCEx_InjectedPollForConversion,"ax",%progbits
ARM GAS  C:\Users\yzy\AppData\Local\Temp\ccN466ht.s 			page 37


 770              		.align	1
 771              		.global	HAL_ADCEx_InjectedPollForConversion
 772              		.syntax unified
 773              		.thumb
 774              		.thumb_func
 775              		.fpu softvfp
 777              	HAL_ADCEx_InjectedPollForConversion:
 778              	.LVL66:
 779              	.LFB133:
 400:Libraries/STM32F4xx_HAL_Driver/Src/stm32f4xx_hal_adc_ex.c ****   uint32_t tickstart = 0U;
 780              		.loc 1 400 1 is_stmt 1 view -0
 781              		.cfi_startproc
 782              		@ args = 0, pretend = 0, frame = 0
 783              		@ frame_needed = 0, uses_anonymous_args = 0
 400:Libraries/STM32F4xx_HAL_Driver/Src/stm32f4xx_hal_adc_ex.c ****   uint32_t tickstart = 0U;
 784              		.loc 1 400 1 is_stmt 0 view .LVU235
 785 0000 70B5     		push	{r4, r5, r6, lr}
 786              	.LCFI9:
 787              		.cfi_def_cfa_offset 16
 788              		.cfi_offset 4, -16
 789              		.cfi_offset 5, -12
 790              		.cfi_offset 6, -8
 791              		.cfi_offset 14, -4
 792 0002 0446     		mov	r4, r0
 793 0004 0D46     		mov	r5, r1
 401:Libraries/STM32F4xx_HAL_Driver/Src/stm32f4xx_hal_adc_ex.c **** 
 794              		.loc 1 401 3 is_stmt 1 view .LVU236
 795              	.LVL67:
 404:Libraries/STM32F4xx_HAL_Driver/Src/stm32f4xx_hal_adc_ex.c **** 
 796              		.loc 1 404 3 view .LVU237
 404:Libraries/STM32F4xx_HAL_Driver/Src/stm32f4xx_hal_adc_ex.c **** 
 797              		.loc 1 404 15 is_stmt 0 view .LVU238
 798 0006 FFF7FEFF 		bl	HAL_GetTick
 799              	.LVL68:
 404:Libraries/STM32F4xx_HAL_Driver/Src/stm32f4xx_hal_adc_ex.c **** 
 800              		.loc 1 404 15 view .LVU239
 801 000a 0646     		mov	r6, r0
 802              	.LVL69:
 407:Libraries/STM32F4xx_HAL_Driver/Src/stm32f4xx_hal_adc_ex.c ****   {
 803              		.loc 1 407 3 is_stmt 1 view .LVU240
 804              	.L55:
 407:Libraries/STM32F4xx_HAL_Driver/Src/stm32f4xx_hal_adc_ex.c ****   {
 805              		.loc 1 407 8 view .LVU241
 407:Libraries/STM32F4xx_HAL_Driver/Src/stm32f4xx_hal_adc_ex.c ****   {
 806              		.loc 1 407 11 is_stmt 0 view .LVU242
 807 000c 2368     		ldr	r3, [r4]
 808 000e 1A68     		ldr	r2, [r3]
 407:Libraries/STM32F4xx_HAL_Driver/Src/stm32f4xx_hal_adc_ex.c ****   {
 809              		.loc 1 407 8 view .LVU243
 810 0010 12F0040F 		tst	r2, #4
 811 0014 0FD1     		bne	.L66
 410:Libraries/STM32F4xx_HAL_Driver/Src/stm32f4xx_hal_adc_ex.c ****     {
 812              		.loc 1 410 5 is_stmt 1 view .LVU244
 410:Libraries/STM32F4xx_HAL_Driver/Src/stm32f4xx_hal_adc_ex.c ****     {
 813              		.loc 1 410 7 is_stmt 0 view .LVU245
 814 0016 B5F1FF3F 		cmp	r5, #-1
 815 001a F7D0     		beq	.L55
ARM GAS  C:\Users\yzy\AppData\Local\Temp\ccN466ht.s 			page 38


 412:Libraries/STM32F4xx_HAL_Driver/Src/stm32f4xx_hal_adc_ex.c ****       {
 816              		.loc 1 412 7 is_stmt 1 view .LVU246
 412:Libraries/STM32F4xx_HAL_Driver/Src/stm32f4xx_hal_adc_ex.c ****       {
 817              		.loc 1 412 9 is_stmt 0 view .LVU247
 818 001c 25B1     		cbz	r5, .L56
 412:Libraries/STM32F4xx_HAL_Driver/Src/stm32f4xx_hal_adc_ex.c ****       {
 819              		.loc 1 412 29 discriminator 1 view .LVU248
 820 001e FFF7FEFF 		bl	HAL_GetTick
 821              	.LVL70:
 412:Libraries/STM32F4xx_HAL_Driver/Src/stm32f4xx_hal_adc_ex.c ****       {
 822              		.loc 1 412 43 discriminator 1 view .LVU249
 823 0022 801B     		subs	r0, r0, r6
 412:Libraries/STM32F4xx_HAL_Driver/Src/stm32f4xx_hal_adc_ex.c ****       {
 824              		.loc 1 412 25 discriminator 1 view .LVU250
 825 0024 A842     		cmp	r0, r5
 826 0026 F1D9     		bls	.L55
 827              	.L56:
 414:Libraries/STM32F4xx_HAL_Driver/Src/stm32f4xx_hal_adc_ex.c ****         /* Process unlocked */
 828              		.loc 1 414 9 is_stmt 1 view .LVU251
 414:Libraries/STM32F4xx_HAL_Driver/Src/stm32f4xx_hal_adc_ex.c ****         /* Process unlocked */
 829              		.loc 1 414 20 is_stmt 0 view .LVU252
 830 0028 0423     		movs	r3, #4
 831 002a 2364     		str	r3, [r4, #64]
 416:Libraries/STM32F4xx_HAL_Driver/Src/stm32f4xx_hal_adc_ex.c ****         return HAL_TIMEOUT;
 832              		.loc 1 416 9 is_stmt 1 view .LVU253
 416:Libraries/STM32F4xx_HAL_Driver/Src/stm32f4xx_hal_adc_ex.c ****         return HAL_TIMEOUT;
 833              		.loc 1 416 9 view .LVU254
 834 002c 0023     		movs	r3, #0
 835 002e 84F83C30 		strb	r3, [r4, #60]
 416:Libraries/STM32F4xx_HAL_Driver/Src/stm32f4xx_hal_adc_ex.c ****         return HAL_TIMEOUT;
 836              		.loc 1 416 9 view .LVU255
 417:Libraries/STM32F4xx_HAL_Driver/Src/stm32f4xx_hal_adc_ex.c ****       }
 837              		.loc 1 417 9 view .LVU256
 417:Libraries/STM32F4xx_HAL_Driver/Src/stm32f4xx_hal_adc_ex.c ****       }
 838              		.loc 1 417 16 is_stmt 0 view .LVU257
 839 0032 0320     		movs	r0, #3
 840 0034 2BE0     		b	.L57
 841              	.L66:
 423:Libraries/STM32F4xx_HAL_Driver/Src/stm32f4xx_hal_adc_ex.c ****     
 842              		.loc 1 423 3 is_stmt 1 view .LVU258
 843 0036 6FF00C02 		mvn	r2, #12
 844 003a 1A60     		str	r2, [r3]
 426:Libraries/STM32F4xx_HAL_Driver/Src/stm32f4xx_hal_adc_ex.c ****   
 845              		.loc 1 426 3 view .LVU259
 846 003c 236C     		ldr	r3, [r4, #64]
 847 003e 43F40053 		orr	r3, r3, #8192
 848 0042 2364     		str	r3, [r4, #64]
 434:Libraries/STM32F4xx_HAL_Driver/Src/stm32f4xx_hal_adc_ex.c ****      (HAL_IS_BIT_CLR(hadc->Instance->JSQR, ADC_JSQR_JL)  ||
 849              		.loc 1 434 3 view .LVU260
 434:Libraries/STM32F4xx_HAL_Driver/Src/stm32f4xx_hal_adc_ex.c ****      (HAL_IS_BIT_CLR(hadc->Instance->JSQR, ADC_JSQR_JL)  ||
 850              		.loc 1 434 6 is_stmt 0 view .LVU261
 851 0044 2368     		ldr	r3, [r4]
 852 0046 9A68     		ldr	r2, [r3, #8]
 434:Libraries/STM32F4xx_HAL_Driver/Src/stm32f4xx_hal_adc_ex.c ****      (HAL_IS_BIT_CLR(hadc->Instance->JSQR, ADC_JSQR_JL)  ||
 853              		.loc 1 434 5 view .LVU262
 854 0048 12F4401F 		tst	r2, #3145728
 855 004c 1ED1     		bne	.L60
ARM GAS  C:\Users\yzy\AppData\Local\Temp\ccN466ht.s 			page 39


 435:Libraries/STM32F4xx_HAL_Driver/Src/stm32f4xx_hal_adc_ex.c ****       HAL_IS_BIT_CLR(hadc->Instance->CR2, ADC_CR2_EOCS)    ) &&
 856              		.loc 1 435 7 discriminator 1 view .LVU263
 857 004e 9A6B     		ldr	r2, [r3, #56]
 434:Libraries/STM32F4xx_HAL_Driver/Src/stm32f4xx_hal_adc_ex.c ****      (HAL_IS_BIT_CLR(hadc->Instance->JSQR, ADC_JSQR_JL)  ||
 858              		.loc 1 434 62 discriminator 1 view .LVU264
 859 0050 12F4401F 		tst	r2, #3145728
 860 0054 03D0     		beq	.L59
 436:Libraries/STM32F4xx_HAL_Driver/Src/stm32f4xx_hal_adc_ex.c ****      (HAL_IS_BIT_CLR(hadc->Instance->CR1, ADC_CR1_JAUTO) &&
 861              		.loc 1 436 7 view .LVU265
 862 0056 9A68     		ldr	r2, [r3, #8]
 435:Libraries/STM32F4xx_HAL_Driver/Src/stm32f4xx_hal_adc_ex.c ****       HAL_IS_BIT_CLR(hadc->Instance->CR2, ADC_CR2_EOCS)    ) &&
 863              		.loc 1 435 58 view .LVU266
 864 0058 12F4806F 		tst	r2, #1024
 865 005c 18D1     		bne	.L61
 866              	.L59:
 437:Libraries/STM32F4xx_HAL_Driver/Src/stm32f4xx_hal_adc_ex.c ****       (ADC_IS_SOFTWARE_START_REGULAR(hadc)       &&
 867              		.loc 1 437 7 view .LVU267
 868 005e 5A68     		ldr	r2, [r3, #4]
 436:Libraries/STM32F4xx_HAL_Driver/Src/stm32f4xx_hal_adc_ex.c ****      (HAL_IS_BIT_CLR(hadc->Instance->CR1, ADC_CR1_JAUTO) &&
 869              		.loc 1 436 62 view .LVU268
 870 0060 12F4806F 		tst	r2, #1024
 871 0064 16D1     		bne	.L62
 438:Libraries/STM32F4xx_HAL_Driver/Src/stm32f4xx_hal_adc_ex.c ****       (hadc->Init.ContinuousConvMode == DISABLE)   )       )   )
 872              		.loc 1 438 8 view .LVU269
 873 0066 9B68     		ldr	r3, [r3, #8]
 437:Libraries/STM32F4xx_HAL_Driver/Src/stm32f4xx_hal_adc_ex.c ****       (ADC_IS_SOFTWARE_START_REGULAR(hadc)       &&
 874              		.loc 1 437 58 view .LVU270
 875 0068 13F0405F 		tst	r3, #805306368
 876 006c 14D1     		bne	.L63
 439:Libraries/STM32F4xx_HAL_Driver/Src/stm32f4xx_hal_adc_ex.c ****   {
 877              		.loc 1 439 18 view .LVU271
 878 006e 207E     		ldrb	r0, [r4, #24]	@ zero_extendqisi2
 438:Libraries/STM32F4xx_HAL_Driver/Src/stm32f4xx_hal_adc_ex.c ****       (hadc->Init.ContinuousConvMode == DISABLE)   )       )   )
 879              		.loc 1 438 50 view .LVU272
 880 0070 A0B9     		cbnz	r0, .L64
 442:Libraries/STM32F4xx_HAL_Driver/Src/stm32f4xx_hal_adc_ex.c ****     
 881              		.loc 1 442 5 is_stmt 1 view .LVU273
 882 0072 236C     		ldr	r3, [r4, #64]
 883 0074 23F48053 		bic	r3, r3, #4096
 884 0078 2364     		str	r3, [r4, #64]
 444:Libraries/STM32F4xx_HAL_Driver/Src/stm32f4xx_hal_adc_ex.c ****     { 
 885              		.loc 1 444 5 view .LVU274
 444:Libraries/STM32F4xx_HAL_Driver/Src/stm32f4xx_hal_adc_ex.c ****     { 
 886              		.loc 1 444 9 is_stmt 0 view .LVU275
 887 007a 236C     		ldr	r3, [r4, #64]
 444:Libraries/STM32F4xx_HAL_Driver/Src/stm32f4xx_hal_adc_ex.c ****     { 
 888              		.loc 1 444 8 view .LVU276
 889 007c 13F4807F 		tst	r3, #256
 890 0080 05D1     		bne	.L57
 446:Libraries/STM32F4xx_HAL_Driver/Src/stm32f4xx_hal_adc_ex.c ****     }
 891              		.loc 1 446 7 is_stmt 1 view .LVU277
 892 0082 236C     		ldr	r3, [r4, #64]
 893 0084 43F00103 		orr	r3, r3, #1
 894 0088 2364     		str	r3, [r4, #64]
 895 008a 00E0     		b	.L57
 896              	.L60:
 451:Libraries/STM32F4xx_HAL_Driver/Src/stm32f4xx_hal_adc_ex.c **** }      
ARM GAS  C:\Users\yzy\AppData\Local\Temp\ccN466ht.s 			page 40


 897              		.loc 1 451 10 is_stmt 0 view .LVU278
 898 008c 0020     		movs	r0, #0
 899              	.L57:
 452:Libraries/STM32F4xx_HAL_Driver/Src/stm32f4xx_hal_adc_ex.c ****   
 900              		.loc 1 452 1 view .LVU279
 901 008e 70BD     		pop	{r4, r5, r6, pc}
 902              	.LVL71:
 903              	.L61:
 451:Libraries/STM32F4xx_HAL_Driver/Src/stm32f4xx_hal_adc_ex.c **** }      
 904              		.loc 1 451 10 view .LVU280
 905 0090 0020     		movs	r0, #0
 906 0092 FCE7     		b	.L57
 907              	.L62:
 908 0094 0020     		movs	r0, #0
 909 0096 FAE7     		b	.L57
 910              	.L63:
 911 0098 0020     		movs	r0, #0
 912 009a F8E7     		b	.L57
 913              	.L64:
 451:Libraries/STM32F4xx_HAL_Driver/Src/stm32f4xx_hal_adc_ex.c **** }      
 914              		.loc 1 451 10 view .LVU281
 915 009c 0020     		movs	r0, #0
 916 009e F6E7     		b	.L57
 917              		.cfi_endproc
 918              	.LFE133:
 920              		.section	.text.HAL_ADCEx_InjectedStop_IT,"ax",%progbits
 921              		.align	1
 922              		.global	HAL_ADCEx_InjectedStop_IT
 923              		.syntax unified
 924              		.thumb
 925              		.thumb_func
 926              		.fpu softvfp
 928              	HAL_ADCEx_InjectedStop_IT:
 929              	.LVL72:
 930              	.LFB134:
 467:Libraries/STM32F4xx_HAL_Driver/Src/stm32f4xx_hal_adc_ex.c ****   HAL_StatusTypeDef tmp_hal_status = HAL_OK;
 931              		.loc 1 467 1 is_stmt 1 view -0
 932              		.cfi_startproc
 933              		@ args = 0, pretend = 0, frame = 0
 934              		@ frame_needed = 0, uses_anonymous_args = 0
 935              		@ link register save eliminated.
 467:Libraries/STM32F4xx_HAL_Driver/Src/stm32f4xx_hal_adc_ex.c ****   HAL_StatusTypeDef tmp_hal_status = HAL_OK;
 936              		.loc 1 467 1 is_stmt 0 view .LVU283
 937 0000 0346     		mov	r3, r0
 468:Libraries/STM32F4xx_HAL_Driver/Src/stm32f4xx_hal_adc_ex.c ****   
 938              		.loc 1 468 3 is_stmt 1 view .LVU284
 939              	.LVL73:
 471:Libraries/STM32F4xx_HAL_Driver/Src/stm32f4xx_hal_adc_ex.c **** 
 940              		.loc 1 471 3 view .LVU285
 474:Libraries/STM32F4xx_HAL_Driver/Src/stm32f4xx_hal_adc_ex.c ****     
 941              		.loc 1 474 3 view .LVU286
 474:Libraries/STM32F4xx_HAL_Driver/Src/stm32f4xx_hal_adc_ex.c ****     
 942              		.loc 1 474 3 view .LVU287
 943 0002 90F83C20 		ldrb	r2, [r0, #60]	@ zero_extendqisi2
 944 0006 012A     		cmp	r2, #1
 945 0008 2DD0     		beq	.L71
 474:Libraries/STM32F4xx_HAL_Driver/Src/stm32f4xx_hal_adc_ex.c ****     
ARM GAS  C:\Users\yzy\AppData\Local\Temp\ccN466ht.s 			page 41


 946              		.loc 1 474 3 discriminator 2 view .LVU288
 947 000a 0122     		movs	r2, #1
 948 000c 80F83C20 		strb	r2, [r0, #60]
 474:Libraries/STM32F4xx_HAL_Driver/Src/stm32f4xx_hal_adc_ex.c ****     
 949              		.loc 1 474 3 discriminator 2 view .LVU289
 482:Libraries/STM32F4xx_HAL_Driver/Src/stm32f4xx_hal_adc_ex.c ****      HAL_IS_BIT_CLR(hadc->Instance->CR1, ADC_CR1_JAUTO)   )
 950              		.loc 1 482 3 discriminator 2 view .LVU290
 482:Libraries/STM32F4xx_HAL_Driver/Src/stm32f4xx_hal_adc_ex.c ****      HAL_IS_BIT_CLR(hadc->Instance->CR1, ADC_CR1_JAUTO)   )
 951              		.loc 1 482 12 is_stmt 0 discriminator 2 view .LVU291
 952 0010 026C     		ldr	r2, [r0, #64]
 482:Libraries/STM32F4xx_HAL_Driver/Src/stm32f4xx_hal_adc_ex.c ****      HAL_IS_BIT_CLR(hadc->Instance->CR1, ADC_CR1_JAUTO)   )
 953              		.loc 1 482 5 discriminator 2 view .LVU292
 954 0012 12F4807F 		tst	r2, #256
 955 0016 1BD1     		bne	.L69
 483:Libraries/STM32F4xx_HAL_Driver/Src/stm32f4xx_hal_adc_ex.c ****   {
 956              		.loc 1 483 6 discriminator 1 view .LVU293
 957 0018 0268     		ldr	r2, [r0]
 958 001a 5168     		ldr	r1, [r2, #4]
 482:Libraries/STM32F4xx_HAL_Driver/Src/stm32f4xx_hal_adc_ex.c ****      HAL_IS_BIT_CLR(hadc->Instance->CR1, ADC_CR1_JAUTO)   )
 959              		.loc 1 482 57 discriminator 1 view .LVU294
 960 001c 11F4806F 		tst	r1, #1024
 961 0020 16D1     		bne	.L69
 487:Libraries/STM32F4xx_HAL_Driver/Src/stm32f4xx_hal_adc_ex.c ****     
 962              		.loc 1 487 5 is_stmt 1 view .LVU295
 963 0022 9168     		ldr	r1, [r2, #8]
 964 0024 21F00101 		bic	r1, r1, #1
 965 0028 9160     		str	r1, [r2, #8]
 490:Libraries/STM32F4xx_HAL_Driver/Src/stm32f4xx_hal_adc_ex.c ****     {
 966              		.loc 1 490 5 view .LVU296
 490:Libraries/STM32F4xx_HAL_Driver/Src/stm32f4xx_hal_adc_ex.c ****     {
 967              		.loc 1 490 8 is_stmt 0 view .LVU297
 968 002a 0268     		ldr	r2, [r0]
 969 002c 9168     		ldr	r1, [r2, #8]
 490:Libraries/STM32F4xx_HAL_Driver/Src/stm32f4xx_hal_adc_ex.c ****     {
 970              		.loc 1 490 7 view .LVU298
 971 002e 11F0010F 		tst	r1, #1
 972 0032 16D1     		bne	.L72
 493:Libraries/STM32F4xx_HAL_Driver/Src/stm32f4xx_hal_adc_ex.c ****       
 973              		.loc 1 493 7 is_stmt 1 view .LVU299
 974 0034 5168     		ldr	r1, [r2, #4]
 975 0036 21F08001 		bic	r1, r1, #128
 976 003a 5160     		str	r1, [r2, #4]
 496:Libraries/STM32F4xx_HAL_Driver/Src/stm32f4xx_hal_adc_ex.c ****                         HAL_ADC_STATE_REG_BUSY | HAL_ADC_STATE_INJ_BUSY,
 977              		.loc 1 496 7 view .LVU300
 978 003c 026C     		ldr	r2, [r0, #64]
 979 003e 22F48852 		bic	r2, r2, #4352
 980 0042 22F00102 		bic	r2, r2, #1
 981 0046 42F00102 		orr	r2, r2, #1
 982 004a 0264     		str	r2, [r0, #64]
 468:Libraries/STM32F4xx_HAL_Driver/Src/stm32f4xx_hal_adc_ex.c ****   
 983              		.loc 1 468 21 is_stmt 0 view .LVU301
 984 004c 0020     		movs	r0, #0
 985              	.LVL74:
 468:Libraries/STM32F4xx_HAL_Driver/Src/stm32f4xx_hal_adc_ex.c ****   
 986              		.loc 1 468 21 view .LVU302
 987 004e 04E0     		b	.L70
 988              	.LVL75:
ARM GAS  C:\Users\yzy\AppData\Local\Temp\ccN466ht.s 			page 42


 989              	.L69:
 504:Libraries/STM32F4xx_HAL_Driver/Src/stm32f4xx_hal_adc_ex.c ****       
 990              		.loc 1 504 5 is_stmt 1 view .LVU303
 991 0050 1A6C     		ldr	r2, [r3, #64]
 992 0052 42F02002 		orr	r2, r2, #32
 993 0056 1A64     		str	r2, [r3, #64]
 506:Libraries/STM32F4xx_HAL_Driver/Src/stm32f4xx_hal_adc_ex.c ****   }
 994              		.loc 1 506 5 view .LVU304
 995              	.LVL76:
 506:Libraries/STM32F4xx_HAL_Driver/Src/stm32f4xx_hal_adc_ex.c ****   }
 996              		.loc 1 506 20 is_stmt 0 view .LVU305
 997 0058 0120     		movs	r0, #1
 998              	.LVL77:
 999              	.L70:
 510:Libraries/STM32F4xx_HAL_Driver/Src/stm32f4xx_hal_adc_ex.c ****   
 1000              		.loc 1 510 3 is_stmt 1 view .LVU306
 510:Libraries/STM32F4xx_HAL_Driver/Src/stm32f4xx_hal_adc_ex.c ****   
 1001              		.loc 1 510 3 view .LVU307
 1002 005a 0022     		movs	r2, #0
 1003 005c 83F83C20 		strb	r2, [r3, #60]
 510:Libraries/STM32F4xx_HAL_Driver/Src/stm32f4xx_hal_adc_ex.c ****   
 1004              		.loc 1 510 3 view .LVU308
 513:Libraries/STM32F4xx_HAL_Driver/Src/stm32f4xx_hal_adc_ex.c **** }
 1005              		.loc 1 513 3 view .LVU309
 513:Libraries/STM32F4xx_HAL_Driver/Src/stm32f4xx_hal_adc_ex.c **** }
 1006              		.loc 1 513 10 is_stmt 0 view .LVU310
 1007 0060 7047     		bx	lr
 1008              	.LVL78:
 1009              	.L72:
 468:Libraries/STM32F4xx_HAL_Driver/Src/stm32f4xx_hal_adc_ex.c ****   
 1010              		.loc 1 468 21 view .LVU311
 1011 0062 0020     		movs	r0, #0
 1012              	.LVL79:
 468:Libraries/STM32F4xx_HAL_Driver/Src/stm32f4xx_hal_adc_ex.c ****   
 1013              		.loc 1 468 21 view .LVU312
 1014 0064 F9E7     		b	.L70
 1015              	.LVL80:
 1016              	.L71:
 474:Libraries/STM32F4xx_HAL_Driver/Src/stm32f4xx_hal_adc_ex.c ****     
 1017              		.loc 1 474 3 view .LVU313
 1018 0066 0220     		movs	r0, #2
 1019              	.LVL81:
 514:Libraries/STM32F4xx_HAL_Driver/Src/stm32f4xx_hal_adc_ex.c **** 
 1020              		.loc 1 514 1 view .LVU314
 1021 0068 7047     		bx	lr
 1022              		.cfi_endproc
 1023              	.LFE134:
 1025              		.section	.text.HAL_ADCEx_InjectedGetValue,"ax",%progbits
 1026              		.align	1
 1027              		.global	HAL_ADCEx_InjectedGetValue
 1028              		.syntax unified
 1029              		.thumb
 1030              		.thumb_func
 1031              		.fpu softvfp
 1033              	HAL_ADCEx_InjectedGetValue:
 1034              	.LVL82:
 1035              	.LFB135:
ARM GAS  C:\Users\yzy\AppData\Local\Temp\ccN466ht.s 			page 43


 529:Libraries/STM32F4xx_HAL_Driver/Src/stm32f4xx_hal_adc_ex.c ****   __IO uint32_t tmp = 0U;
 1036              		.loc 1 529 1 is_stmt 1 view -0
 1037              		.cfi_startproc
 1038              		@ args = 0, pretend = 0, frame = 8
 1039              		@ frame_needed = 0, uses_anonymous_args = 0
 1040              		@ link register save eliminated.
 529:Libraries/STM32F4xx_HAL_Driver/Src/stm32f4xx_hal_adc_ex.c ****   __IO uint32_t tmp = 0U;
 1041              		.loc 1 529 1 is_stmt 0 view .LVU316
 1042 0000 82B0     		sub	sp, sp, #8
 1043              	.LCFI10:
 1044              		.cfi_def_cfa_offset 8
 530:Libraries/STM32F4xx_HAL_Driver/Src/stm32f4xx_hal_adc_ex.c ****   
 1045              		.loc 1 530 3 is_stmt 1 view .LVU317
 530:Libraries/STM32F4xx_HAL_Driver/Src/stm32f4xx_hal_adc_ex.c ****   
 1046              		.loc 1 530 17 is_stmt 0 view .LVU318
 1047 0002 0023     		movs	r3, #0
 1048 0004 0193     		str	r3, [sp, #4]
 533:Libraries/STM32F4xx_HAL_Driver/Src/stm32f4xx_hal_adc_ex.c ****   
 1049              		.loc 1 533 3 is_stmt 1 view .LVU319
 537:Libraries/STM32F4xx_HAL_Driver/Src/stm32f4xx_hal_adc_ex.c ****   
 1050              		.loc 1 537 3 view .LVU320
 1051 0006 0368     		ldr	r3, [r0]
 1052 0008 6FF00402 		mvn	r2, #4
 1053 000c 1A60     		str	r2, [r3]
 540:Libraries/STM32F4xx_HAL_Driver/Src/stm32f4xx_hal_adc_ex.c ****   {  
 1054              		.loc 1 540 3 view .LVU321
 1055 000e 0139     		subs	r1, r1, #1
 1056              	.LVL83:
 540:Libraries/STM32F4xx_HAL_Driver/Src/stm32f4xx_hal_adc_ex.c ****   {  
 1057              		.loc 1 540 3 is_stmt 0 view .LVU322
 1058 0010 0329     		cmp	r1, #3
 1059 0012 06D8     		bhi	.L74
 1060 0014 DFE801F0 		tbb	[pc, r1]
 1061              	.L76:
 1062 0018 10       		.byte	(.L79-.L76)/2
 1063 0019 0C       		.byte	(.L78-.L76)/2
 1064 001a 08       		.byte	(.L77-.L76)/2
 1065 001b 02       		.byte	(.L75-.L76)/2
 1066              		.p2align 1
 1067              	.L75:
 544:Libraries/STM32F4xx_HAL_Driver/Src/stm32f4xx_hal_adc_ex.c ****     }  
 1068              		.loc 1 544 7 is_stmt 1 view .LVU323
 544:Libraries/STM32F4xx_HAL_Driver/Src/stm32f4xx_hal_adc_ex.c ****     }  
 1069              		.loc 1 544 18 is_stmt 0 view .LVU324
 1070 001c 0368     		ldr	r3, [r0]
 544:Libraries/STM32F4xx_HAL_Driver/Src/stm32f4xx_hal_adc_ex.c ****     }  
 1071              		.loc 1 544 28 view .LVU325
 1072 001e 9B6C     		ldr	r3, [r3, #72]
 544:Libraries/STM32F4xx_HAL_Driver/Src/stm32f4xx_hal_adc_ex.c ****     }  
 1073              		.loc 1 544 11 view .LVU326
 1074 0020 0193     		str	r3, [sp, #4]
 546:Libraries/STM32F4xx_HAL_Driver/Src/stm32f4xx_hal_adc_ex.c ****     case ADC_INJECTED_RANK_3: 
 1075              		.loc 1 546 5 is_stmt 1 view .LVU327
 1076              	.L74:
 565:Libraries/STM32F4xx_HAL_Driver/Src/stm32f4xx_hal_adc_ex.c **** }
 1077              		.loc 1 565 3 view .LVU328
 565:Libraries/STM32F4xx_HAL_Driver/Src/stm32f4xx_hal_adc_ex.c **** }
ARM GAS  C:\Users\yzy\AppData\Local\Temp\ccN466ht.s 			page 44


 1078              		.loc 1 565 10 is_stmt 0 view .LVU329
 1079 0022 0198     		ldr	r0, [sp, #4]
 1080              	.LVL84:
 566:Libraries/STM32F4xx_HAL_Driver/Src/stm32f4xx_hal_adc_ex.c **** 
 1081              		.loc 1 566 1 view .LVU330
 1082 0024 02B0     		add	sp, sp, #8
 1083              	.LCFI11:
 1084              		.cfi_remember_state
 1085              		.cfi_def_cfa_offset 0
 1086              		@ sp needed
 1087 0026 7047     		bx	lr
 1088              	.LVL85:
 1089              	.L77:
 1090              	.LCFI12:
 1091              		.cfi_restore_state
 549:Libraries/STM32F4xx_HAL_Driver/Src/stm32f4xx_hal_adc_ex.c ****     }  
 1092              		.loc 1 549 7 is_stmt 1 view .LVU331
 549:Libraries/STM32F4xx_HAL_Driver/Src/stm32f4xx_hal_adc_ex.c ****     }  
 1093              		.loc 1 549 18 is_stmt 0 view .LVU332
 1094 0028 0368     		ldr	r3, [r0]
 549:Libraries/STM32F4xx_HAL_Driver/Src/stm32f4xx_hal_adc_ex.c ****     }  
 1095              		.loc 1 549 28 view .LVU333
 1096 002a 5B6C     		ldr	r3, [r3, #68]
 549:Libraries/STM32F4xx_HAL_Driver/Src/stm32f4xx_hal_adc_ex.c ****     }  
 1097              		.loc 1 549 11 view .LVU334
 1098 002c 0193     		str	r3, [sp, #4]
 551:Libraries/STM32F4xx_HAL_Driver/Src/stm32f4xx_hal_adc_ex.c ****     case ADC_INJECTED_RANK_2: 
 1099              		.loc 1 551 5 is_stmt 1 view .LVU335
 1100 002e F8E7     		b	.L74
 1101              	.L78:
 554:Libraries/STM32F4xx_HAL_Driver/Src/stm32f4xx_hal_adc_ex.c ****     }
 1102              		.loc 1 554 7 view .LVU336
 554:Libraries/STM32F4xx_HAL_Driver/Src/stm32f4xx_hal_adc_ex.c ****     }
 1103              		.loc 1 554 18 is_stmt 0 view .LVU337
 1104 0030 0368     		ldr	r3, [r0]
 554:Libraries/STM32F4xx_HAL_Driver/Src/stm32f4xx_hal_adc_ex.c ****     }
 1105              		.loc 1 554 28 view .LVU338
 1106 0032 1B6C     		ldr	r3, [r3, #64]
 554:Libraries/STM32F4xx_HAL_Driver/Src/stm32f4xx_hal_adc_ex.c ****     }
 1107              		.loc 1 554 11 view .LVU339
 1108 0034 0193     		str	r3, [sp, #4]
 556:Libraries/STM32F4xx_HAL_Driver/Src/stm32f4xx_hal_adc_ex.c ****     case ADC_INJECTED_RANK_1:
 1109              		.loc 1 556 5 is_stmt 1 view .LVU340
 1110 0036 F4E7     		b	.L74
 1111              	.L79:
 559:Libraries/STM32F4xx_HAL_Driver/Src/stm32f4xx_hal_adc_ex.c ****     }
 1112              		.loc 1 559 7 view .LVU341
 559:Libraries/STM32F4xx_HAL_Driver/Src/stm32f4xx_hal_adc_ex.c ****     }
 1113              		.loc 1 559 18 is_stmt 0 view .LVU342
 1114 0038 0368     		ldr	r3, [r0]
 559:Libraries/STM32F4xx_HAL_Driver/Src/stm32f4xx_hal_adc_ex.c ****     }
 1115              		.loc 1 559 28 view .LVU343
 1116 003a DB6B     		ldr	r3, [r3, #60]
 559:Libraries/STM32F4xx_HAL_Driver/Src/stm32f4xx_hal_adc_ex.c ****     }
 1117              		.loc 1 559 11 view .LVU344
 1118 003c 0193     		str	r3, [sp, #4]
 561:Libraries/STM32F4xx_HAL_Driver/Src/stm32f4xx_hal_adc_ex.c ****     default:
ARM GAS  C:\Users\yzy\AppData\Local\Temp\ccN466ht.s 			page 45


 1119              		.loc 1 561 5 is_stmt 1 view .LVU345
 1120 003e F0E7     		b	.L74
 1121              		.cfi_endproc
 1122              	.LFE135:
 1124              		.section	.text.HAL_ADCEx_MultiModeStart_DMA,"ax",%progbits
 1125              		.align	1
 1126              		.global	HAL_ADCEx_MultiModeStart_DMA
 1127              		.syntax unified
 1128              		.thumb
 1129              		.thumb_func
 1130              		.fpu softvfp
 1132              	HAL_ADCEx_MultiModeStart_DMA:
 1133              	.LVL86:
 1134              	.LFB136:
 580:Libraries/STM32F4xx_HAL_Driver/Src/stm32f4xx_hal_adc_ex.c ****   __IO uint32_t counter = 0U;
 1135              		.loc 1 580 1 view -0
 1136              		.cfi_startproc
 1137              		@ args = 0, pretend = 0, frame = 8
 1138              		@ frame_needed = 0, uses_anonymous_args = 0
 580:Libraries/STM32F4xx_HAL_Driver/Src/stm32f4xx_hal_adc_ex.c ****   __IO uint32_t counter = 0U;
 1139              		.loc 1 580 1 is_stmt 0 view .LVU347
 1140 0000 30B5     		push	{r4, r5, lr}
 1141              	.LCFI13:
 1142              		.cfi_def_cfa_offset 12
 1143              		.cfi_offset 4, -12
 1144              		.cfi_offset 5, -8
 1145              		.cfi_offset 14, -4
 1146 0002 83B0     		sub	sp, sp, #12
 1147              	.LCFI14:
 1148              		.cfi_def_cfa_offset 24
 1149 0004 1346     		mov	r3, r2
 581:Libraries/STM32F4xx_HAL_Driver/Src/stm32f4xx_hal_adc_ex.c ****   ADC_Common_TypeDef *tmpADC_Common;
 1150              		.loc 1 581 3 is_stmt 1 view .LVU348
 581:Libraries/STM32F4xx_HAL_Driver/Src/stm32f4xx_hal_adc_ex.c ****   ADC_Common_TypeDef *tmpADC_Common;
 1151              		.loc 1 581 17 is_stmt 0 view .LVU349
 1152 0006 0022     		movs	r2, #0
 1153              	.LVL87:
 581:Libraries/STM32F4xx_HAL_Driver/Src/stm32f4xx_hal_adc_ex.c ****   ADC_Common_TypeDef *tmpADC_Common;
 1154              		.loc 1 581 17 view .LVU350
 1155 0008 0192     		str	r2, [sp, #4]
 582:Libraries/STM32F4xx_HAL_Driver/Src/stm32f4xx_hal_adc_ex.c ****   
 1156              		.loc 1 582 3 is_stmt 1 view .LVU351
 585:Libraries/STM32F4xx_HAL_Driver/Src/stm32f4xx_hal_adc_ex.c ****   assert_param(IS_ADC_EXT_TRIG_EDGE(hadc->Init.ExternalTrigConvEdge));
 1157              		.loc 1 585 3 view .LVU352
 586:Libraries/STM32F4xx_HAL_Driver/Src/stm32f4xx_hal_adc_ex.c ****   assert_param(IS_FUNCTIONAL_STATE(hadc->Init.DMAContinuousRequests));
 1158              		.loc 1 586 3 view .LVU353
 587:Libraries/STM32F4xx_HAL_Driver/Src/stm32f4xx_hal_adc_ex.c ****   
 1159              		.loc 1 587 3 view .LVU354
 590:Libraries/STM32F4xx_HAL_Driver/Src/stm32f4xx_hal_adc_ex.c ****   
 1160              		.loc 1 590 3 view .LVU355
 590:Libraries/STM32F4xx_HAL_Driver/Src/stm32f4xx_hal_adc_ex.c ****   
 1161              		.loc 1 590 3 view .LVU356
 1162 000a 90F83C20 		ldrb	r2, [r0, #60]	@ zero_extendqisi2
 1163 000e 012A     		cmp	r2, #1
 1164 0010 71D0     		beq	.L91
 1165 0012 0546     		mov	r5, r0
 590:Libraries/STM32F4xx_HAL_Driver/Src/stm32f4xx_hal_adc_ex.c ****   
ARM GAS  C:\Users\yzy\AppData\Local\Temp\ccN466ht.s 			page 46


 1166              		.loc 1 590 3 discriminator 2 view .LVU357
 1167 0014 0122     		movs	r2, #1
 1168 0016 80F83C20 		strb	r2, [r0, #60]
 590:Libraries/STM32F4xx_HAL_Driver/Src/stm32f4xx_hal_adc_ex.c ****   
 1169              		.loc 1 590 3 discriminator 2 view .LVU358
 594:Libraries/STM32F4xx_HAL_Driver/Src/stm32f4xx_hal_adc_ex.c ****   {  
 1170              		.loc 1 594 3 discriminator 2 view .LVU359
 594:Libraries/STM32F4xx_HAL_Driver/Src/stm32f4xx_hal_adc_ex.c ****   {  
 1171              		.loc 1 594 11 is_stmt 0 discriminator 2 view .LVU360
 1172 001a 0268     		ldr	r2, [r0]
 594:Libraries/STM32F4xx_HAL_Driver/Src/stm32f4xx_hal_adc_ex.c ****   {  
 1173              		.loc 1 594 21 discriminator 2 view .LVU361
 1174 001c 9068     		ldr	r0, [r2, #8]
 1175              	.LVL88:
 594:Libraries/STM32F4xx_HAL_Driver/Src/stm32f4xx_hal_adc_ex.c ****   {  
 1176              		.loc 1 594 5 discriminator 2 view .LVU362
 1177 001e 10F0010F 		tst	r0, #1
 1178 0022 13D1     		bne	.L83
 597:Libraries/STM32F4xx_HAL_Driver/Src/stm32f4xx_hal_adc_ex.c ****     
 1179              		.loc 1 597 5 is_stmt 1 view .LVU363
 1180 0024 9068     		ldr	r0, [r2, #8]
 1181 0026 40F00100 		orr	r0, r0, #1
 1182 002a 9060     		str	r0, [r2, #8]
 601:Libraries/STM32F4xx_HAL_Driver/Src/stm32f4xx_hal_adc_ex.c ****     while(counter != 0U)
 1183              		.loc 1 601 5 view .LVU364
 601:Libraries/STM32F4xx_HAL_Driver/Src/stm32f4xx_hal_adc_ex.c ****     while(counter != 0U)
 1184              		.loc 1 601 53 is_stmt 0 view .LVU365
 1185 002c 354A     		ldr	r2, .L95
 1186 002e 1068     		ldr	r0, [r2]
 1187 0030 354A     		ldr	r2, .L95+4
 1188 0032 A2FB0020 		umull	r2, r0, r2, r0
 1189 0036 800C     		lsrs	r0, r0, #18
 601:Libraries/STM32F4xx_HAL_Driver/Src/stm32f4xx_hal_adc_ex.c ****     while(counter != 0U)
 1190              		.loc 1 601 34 view .LVU366
 1191 0038 00EB4000 		add	r0, r0, r0, lsl #1
 601:Libraries/STM32F4xx_HAL_Driver/Src/stm32f4xx_hal_adc_ex.c ****     while(counter != 0U)
 1192              		.loc 1 601 13 view .LVU367
 1193 003c 0190     		str	r0, [sp, #4]
 602:Libraries/STM32F4xx_HAL_Driver/Src/stm32f4xx_hal_adc_ex.c ****     {
 1194              		.loc 1 602 5 is_stmt 1 view .LVU368
 602:Libraries/STM32F4xx_HAL_Driver/Src/stm32f4xx_hal_adc_ex.c ****     {
 1195              		.loc 1 602 10 is_stmt 0 view .LVU369
 1196 003e 02E0     		b	.L84
 1197              	.L85:
 604:Libraries/STM32F4xx_HAL_Driver/Src/stm32f4xx_hal_adc_ex.c ****     }
 1198              		.loc 1 604 7 is_stmt 1 view .LVU370
 604:Libraries/STM32F4xx_HAL_Driver/Src/stm32f4xx_hal_adc_ex.c ****     }
 1199              		.loc 1 604 14 is_stmt 0 view .LVU371
 1200 0040 019C     		ldr	r4, [sp, #4]
 1201 0042 013C     		subs	r4, r4, #1
 1202 0044 0194     		str	r4, [sp, #4]
 1203              	.L84:
 602:Libraries/STM32F4xx_HAL_Driver/Src/stm32f4xx_hal_adc_ex.c ****     {
 1204              		.loc 1 602 10 is_stmt 1 view .LVU372
 602:Libraries/STM32F4xx_HAL_Driver/Src/stm32f4xx_hal_adc_ex.c ****     {
 1205              		.loc 1 602 19 is_stmt 0 view .LVU373
 1206 0046 0198     		ldr	r0, [sp, #4]
ARM GAS  C:\Users\yzy\AppData\Local\Temp\ccN466ht.s 			page 47


 602:Libraries/STM32F4xx_HAL_Driver/Src/stm32f4xx_hal_adc_ex.c ****     {
 1207              		.loc 1 602 10 view .LVU374
 1208 0048 0028     		cmp	r0, #0
 1209 004a F9D1     		bne	.L85
 1210              	.L83:
 609:Libraries/STM32F4xx_HAL_Driver/Src/stm32f4xx_hal_adc_ex.c ****   {
 1211              		.loc 1 609 3 is_stmt 1 view .LVU375
 609:Libraries/STM32F4xx_HAL_Driver/Src/stm32f4xx_hal_adc_ex.c ****   {
 1212              		.loc 1 609 6 is_stmt 0 view .LVU376
 1213 004c 2A68     		ldr	r2, [r5]
 1214 004e 9068     		ldr	r0, [r2, #8]
 609:Libraries/STM32F4xx_HAL_Driver/Src/stm32f4xx_hal_adc_ex.c ****   {
 1215              		.loc 1 609 5 view .LVU377
 1216 0050 10F0010F 		tst	r0, #1
 1217 0054 51D0     		beq	.L92
 614:Libraries/STM32F4xx_HAL_Driver/Src/stm32f4xx_hal_adc_ex.c ****                       HAL_ADC_STATE_READY | HAL_ADC_STATE_REG_EOC | HAL_ADC_STATE_REG_OVR,
 1218              		.loc 1 614 5 is_stmt 1 view .LVU378
 1219 0056 286C     		ldr	r0, [r5, #64]
 1220 0058 20F4E060 		bic	r0, r0, #1792
 1221 005c 20F00100 		bic	r0, r0, #1
 1222 0060 40F48070 		orr	r0, r0, #256
 1223 0064 2864     		str	r0, [r5, #64]
 620:Libraries/STM32F4xx_HAL_Driver/Src/stm32f4xx_hal_adc_ex.c ****     {
 1224              		.loc 1 620 5 view .LVU379
 620:Libraries/STM32F4xx_HAL_Driver/Src/stm32f4xx_hal_adc_ex.c ****     {
 1225              		.loc 1 620 9 is_stmt 0 view .LVU380
 1226 0066 5268     		ldr	r2, [r2, #4]
 620:Libraries/STM32F4xx_HAL_Driver/Src/stm32f4xx_hal_adc_ex.c ****     {
 1227              		.loc 1 620 8 view .LVU381
 1228 0068 12F4806F 		tst	r2, #1024
 1229 006c 05D0     		beq	.L86
 622:Libraries/STM32F4xx_HAL_Driver/Src/stm32f4xx_hal_adc_ex.c ****     }
 1230              		.loc 1 622 7 is_stmt 1 view .LVU382
 1231 006e 2A6C     		ldr	r2, [r5, #64]
 1232 0070 22F44052 		bic	r2, r2, #12288
 1233 0074 42F48052 		orr	r2, r2, #4096
 1234 0078 2A64     		str	r2, [r5, #64]
 1235              	.L86:
 626:Libraries/STM32F4xx_HAL_Driver/Src/stm32f4xx_hal_adc_ex.c ****     {
 1236              		.loc 1 626 5 view .LVU383
 626:Libraries/STM32F4xx_HAL_Driver/Src/stm32f4xx_hal_adc_ex.c ****     {
 1237              		.loc 1 626 9 is_stmt 0 view .LVU384
 1238 007a 2A6C     		ldr	r2, [r5, #64]
 626:Libraries/STM32F4xx_HAL_Driver/Src/stm32f4xx_hal_adc_ex.c ****     {
 1239              		.loc 1 626 8 view .LVU385
 1240 007c 12F4805F 		tst	r2, #4096
 1241 0080 30D0     		beq	.L87
 629:Libraries/STM32F4xx_HAL_Driver/Src/stm32f4xx_hal_adc_ex.c ****     }
 1242              		.loc 1 629 7 is_stmt 1 view .LVU386
 1243 0082 6A6C     		ldr	r2, [r5, #68]
 1244 0084 22F00602 		bic	r2, r2, #6
 1245 0088 6A64     		str	r2, [r5, #68]
 1246              	.L88:
 640:Libraries/STM32F4xx_HAL_Driver/Src/stm32f4xx_hal_adc_ex.c ****     
 1247              		.loc 1 640 5 view .LVU387
 640:Libraries/STM32F4xx_HAL_Driver/Src/stm32f4xx_hal_adc_ex.c ****     
 1248              		.loc 1 640 5 view .LVU388
ARM GAS  C:\Users\yzy\AppData\Local\Temp\ccN466ht.s 			page 48


 1249 008a 0022     		movs	r2, #0
 1250 008c 85F83C20 		strb	r2, [r5, #60]
 640:Libraries/STM32F4xx_HAL_Driver/Src/stm32f4xx_hal_adc_ex.c ****     
 1251              		.loc 1 640 5 view .LVU389
 643:Libraries/STM32F4xx_HAL_Driver/Src/stm32f4xx_hal_adc_ex.c ****     
 1252              		.loc 1 643 5 view .LVU390
 643:Libraries/STM32F4xx_HAL_Driver/Src/stm32f4xx_hal_adc_ex.c ****     
 1253              		.loc 1 643 9 is_stmt 0 view .LVU391
 1254 0090 AA6B     		ldr	r2, [r5, #56]
 643:Libraries/STM32F4xx_HAL_Driver/Src/stm32f4xx_hal_adc_ex.c ****     
 1255              		.loc 1 643 40 view .LVU392
 1256 0092 1E48     		ldr	r0, .L95+8
 1257 0094 D063     		str	r0, [r2, #60]
 646:Libraries/STM32F4xx_HAL_Driver/Src/stm32f4xx_hal_adc_ex.c ****     
 1258              		.loc 1 646 5 is_stmt 1 view .LVU393
 646:Libraries/STM32F4xx_HAL_Driver/Src/stm32f4xx_hal_adc_ex.c ****     
 1259              		.loc 1 646 9 is_stmt 0 view .LVU394
 1260 0096 AA6B     		ldr	r2, [r5, #56]
 646:Libraries/STM32F4xx_HAL_Driver/Src/stm32f4xx_hal_adc_ex.c ****     
 1261              		.loc 1 646 44 view .LVU395
 1262 0098 1D48     		ldr	r0, .L95+12
 1263 009a 1064     		str	r0, [r2, #64]
 649:Libraries/STM32F4xx_HAL_Driver/Src/stm32f4xx_hal_adc_ex.c ****     
 1264              		.loc 1 649 5 is_stmt 1 view .LVU396
 649:Libraries/STM32F4xx_HAL_Driver/Src/stm32f4xx_hal_adc_ex.c ****     
 1265              		.loc 1 649 9 is_stmt 0 view .LVU397
 1266 009c AA6B     		ldr	r2, [r5, #56]
 649:Libraries/STM32F4xx_HAL_Driver/Src/stm32f4xx_hal_adc_ex.c ****     
 1267              		.loc 1 649 41 view .LVU398
 1268 009e 1D48     		ldr	r0, .L95+16
 1269 00a0 D064     		str	r0, [r2, #76]
 656:Libraries/STM32F4xx_HAL_Driver/Src/stm32f4xx_hal_adc_ex.c **** 
 1270              		.loc 1 656 5 is_stmt 1 view .LVU399
 1271 00a2 2A68     		ldr	r2, [r5]
 1272 00a4 6FF00200 		mvn	r0, #2
 1273 00a8 1060     		str	r0, [r2]
 659:Libraries/STM32F4xx_HAL_Driver/Src/stm32f4xx_hal_adc_ex.c **** 
 1274              		.loc 1 659 5 view .LVU400
 1275 00aa 2868     		ldr	r0, [r5]
 1276 00ac 4268     		ldr	r2, [r0, #4]
 1277 00ae 42F08062 		orr	r2, r2, #67108864
 1278 00b2 4260     		str	r2, [r0, #4]
 664:Libraries/STM32F4xx_HAL_Driver/Src/stm32f4xx_hal_adc_ex.c **** 
 1279              		.loc 1 664 5 view .LVU401
 1280              	.LVL89:
 666:Libraries/STM32F4xx_HAL_Driver/Src/stm32f4xx_hal_adc_ex.c ****     {
 1281              		.loc 1 666 5 view .LVU402
 666:Libraries/STM32F4xx_HAL_Driver/Src/stm32f4xx_hal_adc_ex.c ****     {
 1282              		.loc 1 666 19 is_stmt 0 view .LVU403
 1283 00b4 95F83020 		ldrb	r2, [r5, #48]	@ zero_extendqisi2
 666:Libraries/STM32F4xx_HAL_Driver/Src/stm32f4xx_hal_adc_ex.c ****     {
 1284              		.loc 1 666 8 view .LVU404
 1285 00b8 BAB1     		cbz	r2, .L89
 669:Libraries/STM32F4xx_HAL_Driver/Src/stm32f4xx_hal_adc_ex.c ****     }
 1286              		.loc 1 669 7 is_stmt 1 view .LVU405
 669:Libraries/STM32F4xx_HAL_Driver/Src/stm32f4xx_hal_adc_ex.c ****     }
 1287              		.loc 1 669 26 is_stmt 0 view .LVU406
ARM GAS  C:\Users\yzy\AppData\Local\Temp\ccN466ht.s 			page 49


 1288 00ba 1748     		ldr	r0, .L95+20
 1289 00bc 4268     		ldr	r2, [r0, #4]
 1290 00be 42F40052 		orr	r2, r2, #8192
 1291 00c2 4260     		str	r2, [r0, #4]
 1292              	.L90:
 678:Libraries/STM32F4xx_HAL_Driver/Src/stm32f4xx_hal_adc_ex.c ****     
 1293              		.loc 1 678 5 is_stmt 1 view .LVU407
 1294 00c4 0A46     		mov	r2, r1
 1295 00c6 1549     		ldr	r1, .L95+24
 1296              	.LVL90:
 678:Libraries/STM32F4xx_HAL_Driver/Src/stm32f4xx_hal_adc_ex.c ****     
 1297              		.loc 1 678 5 is_stmt 0 view .LVU408
 1298 00c8 A86B     		ldr	r0, [r5, #56]
 1299 00ca FFF7FEFF 		bl	HAL_DMA_Start_IT
 1300              	.LVL91:
 681:Libraries/STM32F4xx_HAL_Driver/Src/stm32f4xx_hal_adc_ex.c ****     {
 1301              		.loc 1 681 5 is_stmt 1 view .LVU409
 681:Libraries/STM32F4xx_HAL_Driver/Src/stm32f4xx_hal_adc_ex.c ****     {
 1302              		.loc 1 681 13 is_stmt 0 view .LVU410
 1303 00ce 2B68     		ldr	r3, [r5]
 681:Libraries/STM32F4xx_HAL_Driver/Src/stm32f4xx_hal_adc_ex.c ****     {
 1304              		.loc 1 681 23 view .LVU411
 1305 00d0 9A68     		ldr	r2, [r3, #8]
 681:Libraries/STM32F4xx_HAL_Driver/Src/stm32f4xx_hal_adc_ex.c ****     {
 1306              		.loc 1 681 7 view .LVU412
 1307 00d2 12F0405F 		tst	r2, #805306368
 1308 00d6 13D1     		bne	.L93
 684:Libraries/STM32F4xx_HAL_Driver/Src/stm32f4xx_hal_adc_ex.c ****     }
 1309              		.loc 1 684 7 is_stmt 1 view .LVU413
 684:Libraries/STM32F4xx_HAL_Driver/Src/stm32f4xx_hal_adc_ex.c ****     }
 1310              		.loc 1 684 27 is_stmt 0 view .LVU414
 1311 00d8 9A68     		ldr	r2, [r3, #8]
 1312 00da 42F08042 		orr	r2, r2, #1073741824
 1313 00de 9A60     		str	r2, [r3, #8]
 689:Libraries/STM32F4xx_HAL_Driver/Src/stm32f4xx_hal_adc_ex.c **** }
 1314              		.loc 1 689 10 view .LVU415
 1315 00e0 0020     		movs	r0, #0
 1316 00e2 0BE0     		b	.L82
 1317              	.LVL92:
 1318              	.L87:
 634:Libraries/STM32F4xx_HAL_Driver/Src/stm32f4xx_hal_adc_ex.c ****     }
 1319              		.loc 1 634 7 is_stmt 1 view .LVU416
 1320 00e4 0022     		movs	r2, #0
 1321 00e6 6A64     		str	r2, [r5, #68]
 1322 00e8 CFE7     		b	.L88
 1323              	.LVL93:
 1324              	.L89:
 674:Libraries/STM32F4xx_HAL_Driver/Src/stm32f4xx_hal_adc_ex.c ****     }
 1325              		.loc 1 674 7 view .LVU417
 674:Libraries/STM32F4xx_HAL_Driver/Src/stm32f4xx_hal_adc_ex.c ****     }
 1326              		.loc 1 674 26 is_stmt 0 view .LVU418
 1327 00ea 0B48     		ldr	r0, .L95+20
 1328 00ec 4268     		ldr	r2, [r0, #4]
 1329 00ee 22F40052 		bic	r2, r2, #8192
 1330 00f2 4260     		str	r2, [r0, #4]
 1331 00f4 E6E7     		b	.L90
 1332              	.LVL94:
ARM GAS  C:\Users\yzy\AppData\Local\Temp\ccN466ht.s 			page 50


 1333              	.L91:
 590:Libraries/STM32F4xx_HAL_Driver/Src/stm32f4xx_hal_adc_ex.c ****   
 1334              		.loc 1 590 3 view .LVU419
 1335 00f6 0220     		movs	r0, #2
 1336              	.LVL95:
 590:Libraries/STM32F4xx_HAL_Driver/Src/stm32f4xx_hal_adc_ex.c ****   
 1337              		.loc 1 590 3 view .LVU420
 1338 00f8 00E0     		b	.L82
 1339              	.LVL96:
 1340              	.L92:
 689:Libraries/STM32F4xx_HAL_Driver/Src/stm32f4xx_hal_adc_ex.c **** }
 1341              		.loc 1 689 10 view .LVU421
 1342 00fa 0020     		movs	r0, #0
 1343              	.LVL97:
 1344              	.L82:
 690:Libraries/STM32F4xx_HAL_Driver/Src/stm32f4xx_hal_adc_ex.c **** 
 1345              		.loc 1 690 1 view .LVU422
 1346 00fc 03B0     		add	sp, sp, #12
 1347              	.LCFI15:
 1348              		.cfi_remember_state
 1349              		.cfi_def_cfa_offset 12
 1350              		@ sp needed
 1351 00fe 30BD     		pop	{r4, r5, pc}
 1352              	.LVL98:
 1353              	.L93:
 1354              	.LCFI16:
 1355              		.cfi_restore_state
 689:Libraries/STM32F4xx_HAL_Driver/Src/stm32f4xx_hal_adc_ex.c **** }
 1356              		.loc 1 689 10 view .LVU423
 1357 0100 0020     		movs	r0, #0
 1358 0102 FBE7     		b	.L82
 1359              	.L96:
 1360              		.align	2
 1361              	.L95:
 1362 0104 00000000 		.word	SystemCoreClock
 1363 0108 83DE1B43 		.word	1125899907
 1364 010c 00000000 		.word	ADC_MultiModeDMAConvCplt
 1365 0110 00000000 		.word	ADC_MultiModeDMAHalfConvCplt
 1366 0114 00000000 		.word	ADC_MultiModeDMAError
 1367 0118 00230140 		.word	1073816320
 1368 011c 08230140 		.word	1073816328
 1369              		.cfi_endproc
 1370              	.LFE136:
 1372              		.section	.text.HAL_ADCEx_MultiModeStop_DMA,"ax",%progbits
 1373              		.align	1
 1374              		.global	HAL_ADCEx_MultiModeStop_DMA
 1375              		.syntax unified
 1376              		.thumb
 1377              		.thumb_func
 1378              		.fpu softvfp
 1380              	HAL_ADCEx_MultiModeStop_DMA:
 1381              	.LVL99:
 1382              	.LFB137:
 699:Libraries/STM32F4xx_HAL_Driver/Src/stm32f4xx_hal_adc_ex.c ****   HAL_StatusTypeDef tmp_hal_status = HAL_OK;
 1383              		.loc 1 699 1 is_stmt 1 view -0
 1384              		.cfi_startproc
 1385              		@ args = 0, pretend = 0, frame = 0
ARM GAS  C:\Users\yzy\AppData\Local\Temp\ccN466ht.s 			page 51


 1386              		@ frame_needed = 0, uses_anonymous_args = 0
 700:Libraries/STM32F4xx_HAL_Driver/Src/stm32f4xx_hal_adc_ex.c ****   ADC_Common_TypeDef *tmpADC_Common;
 1387              		.loc 1 700 3 view .LVU425
 701:Libraries/STM32F4xx_HAL_Driver/Src/stm32f4xx_hal_adc_ex.c ****   
 1388              		.loc 1 701 3 view .LVU426
 704:Libraries/STM32F4xx_HAL_Driver/Src/stm32f4xx_hal_adc_ex.c ****   
 1389              		.loc 1 704 3 view .LVU427
 707:Libraries/STM32F4xx_HAL_Driver/Src/stm32f4xx_hal_adc_ex.c ****   
 1390              		.loc 1 707 3 view .LVU428
 707:Libraries/STM32F4xx_HAL_Driver/Src/stm32f4xx_hal_adc_ex.c ****   
 1391              		.loc 1 707 3 view .LVU429
 1392 0000 90F83C30 		ldrb	r3, [r0, #60]	@ zero_extendqisi2
 1393 0004 012B     		cmp	r3, #1
 1394 0006 29D0     		beq	.L100
 699:Libraries/STM32F4xx_HAL_Driver/Src/stm32f4xx_hal_adc_ex.c ****   HAL_StatusTypeDef tmp_hal_status = HAL_OK;
 1395              		.loc 1 699 1 is_stmt 0 discriminator 2 view .LVU430
 1396 0008 10B5     		push	{r4, lr}
 1397              	.LCFI17:
 1398              		.cfi_def_cfa_offset 8
 1399              		.cfi_offset 4, -8
 1400              		.cfi_offset 14, -4
 1401 000a 0446     		mov	r4, r0
 707:Libraries/STM32F4xx_HAL_Driver/Src/stm32f4xx_hal_adc_ex.c ****   
 1402              		.loc 1 707 3 is_stmt 1 discriminator 2 view .LVU431
 1403 000c 0123     		movs	r3, #1
 1404 000e 80F83C30 		strb	r3, [r0, #60]
 707:Libraries/STM32F4xx_HAL_Driver/Src/stm32f4xx_hal_adc_ex.c ****   
 1405              		.loc 1 707 3 discriminator 2 view .LVU432
 711:Libraries/STM32F4xx_HAL_Driver/Src/stm32f4xx_hal_adc_ex.c **** 
 1406              		.loc 1 711 3 discriminator 2 view .LVU433
 1407 0012 0268     		ldr	r2, [r0]
 1408 0014 9368     		ldr	r3, [r2, #8]
 1409 0016 23F00103 		bic	r3, r3, #1
 1410 001a 9360     		str	r3, [r2, #8]
 716:Libraries/STM32F4xx_HAL_Driver/Src/stm32f4xx_hal_adc_ex.c **** 
 1411              		.loc 1 716 3 discriminator 2 view .LVU434
 1412              	.LVL100:
 719:Libraries/STM32F4xx_HAL_Driver/Src/stm32f4xx_hal_adc_ex.c ****   {
 1413              		.loc 1 719 3 discriminator 2 view .LVU435
 719:Libraries/STM32F4xx_HAL_Driver/Src/stm32f4xx_hal_adc_ex.c ****   {
 1414              		.loc 1 719 6 is_stmt 0 discriminator 2 view .LVU436
 1415 001c 0368     		ldr	r3, [r0]
 1416 001e 9B68     		ldr	r3, [r3, #8]
 719:Libraries/STM32F4xx_HAL_Driver/Src/stm32f4xx_hal_adc_ex.c ****   {
 1417              		.loc 1 719 5 discriminator 2 view .LVU437
 1418 0020 13F0010F 		tst	r3, #1
 1419 0024 04D0     		beq	.L106
 700:Libraries/STM32F4xx_HAL_Driver/Src/stm32f4xx_hal_adc_ex.c ****   ADC_Common_TypeDef *tmpADC_Common;
 1420              		.loc 1 700 21 view .LVU438
 1421 0026 0020     		movs	r0, #0
 1422              	.LVL101:
 1423              	.L99:
 738:Libraries/STM32F4xx_HAL_Driver/Src/stm32f4xx_hal_adc_ex.c ****   
 1424              		.loc 1 738 3 is_stmt 1 view .LVU439
 738:Libraries/STM32F4xx_HAL_Driver/Src/stm32f4xx_hal_adc_ex.c ****   
 1425              		.loc 1 738 3 view .LVU440
 1426 0028 0023     		movs	r3, #0
ARM GAS  C:\Users\yzy\AppData\Local\Temp\ccN466ht.s 			page 52


 1427 002a 84F83C30 		strb	r3, [r4, #60]
 738:Libraries/STM32F4xx_HAL_Driver/Src/stm32f4xx_hal_adc_ex.c ****   
 1428              		.loc 1 738 3 view .LVU441
 741:Libraries/STM32F4xx_HAL_Driver/Src/stm32f4xx_hal_adc_ex.c **** }
 1429              		.loc 1 741 3 view .LVU442
 742:Libraries/STM32F4xx_HAL_Driver/Src/stm32f4xx_hal_adc_ex.c **** 
 1430              		.loc 1 742 1 is_stmt 0 view .LVU443
 1431 002e 10BD     		pop	{r4, pc}
 1432              	.LVL102:
 1433              	.L106:
 722:Libraries/STM32F4xx_HAL_Driver/Src/stm32f4xx_hal_adc_ex.c ****     
 1434              		.loc 1 722 5 is_stmt 1 view .LVU444
 722:Libraries/STM32F4xx_HAL_Driver/Src/stm32f4xx_hal_adc_ex.c ****     
 1435              		.loc 1 722 24 is_stmt 0 view .LVU445
 1436 0030 0B4A     		ldr	r2, .L107
 1437 0032 5368     		ldr	r3, [r2, #4]
 1438 0034 23F40053 		bic	r3, r3, #8192
 1439 0038 5360     		str	r3, [r2, #4]
 726:Libraries/STM32F4xx_HAL_Driver/Src/stm32f4xx_hal_adc_ex.c ****     
 1440              		.loc 1 726 5 is_stmt 1 view .LVU446
 726:Libraries/STM32F4xx_HAL_Driver/Src/stm32f4xx_hal_adc_ex.c ****     
 1441              		.loc 1 726 22 is_stmt 0 view .LVU447
 1442 003a 806B     		ldr	r0, [r0, #56]
 1443              	.LVL103:
 726:Libraries/STM32F4xx_HAL_Driver/Src/stm32f4xx_hal_adc_ex.c ****     
 1444              		.loc 1 726 22 view .LVU448
 1445 003c FFF7FEFF 		bl	HAL_DMA_Abort
 1446              	.LVL104:
 729:Libraries/STM32F4xx_HAL_Driver/Src/stm32f4xx_hal_adc_ex.c ****     
 1447              		.loc 1 729 5 is_stmt 1 view .LVU449
 1448 0040 2268     		ldr	r2, [r4]
 1449 0042 5368     		ldr	r3, [r2, #4]
 1450 0044 23F08063 		bic	r3, r3, #67108864
 1451 0048 5360     		str	r3, [r2, #4]
 732:Libraries/STM32F4xx_HAL_Driver/Src/stm32f4xx_hal_adc_ex.c ****                       HAL_ADC_STATE_REG_BUSY | HAL_ADC_STATE_INJ_BUSY,
 1452              		.loc 1 732 5 view .LVU450
 1453 004a 236C     		ldr	r3, [r4, #64]
 1454 004c 23F48853 		bic	r3, r3, #4352
 1455 0050 23F00103 		bic	r3, r3, #1
 1456 0054 43F00103 		orr	r3, r3, #1
 1457 0058 2364     		str	r3, [r4, #64]
 1458 005a E5E7     		b	.L99
 1459              	.LVL105:
 1460              	.L100:
 1461              	.LCFI18:
 1462              		.cfi_def_cfa_offset 0
 1463              		.cfi_restore 4
 1464              		.cfi_restore 14
 707:Libraries/STM32F4xx_HAL_Driver/Src/stm32f4xx_hal_adc_ex.c ****   
 1465              		.loc 1 707 3 is_stmt 0 view .LVU451
 1466 005c 0220     		movs	r0, #2
 1467              	.LVL106:
 742:Libraries/STM32F4xx_HAL_Driver/Src/stm32f4xx_hal_adc_ex.c **** 
 1468              		.loc 1 742 1 view .LVU452
 1469 005e 7047     		bx	lr
 1470              	.L108:
 1471              		.align	2
ARM GAS  C:\Users\yzy\AppData\Local\Temp\ccN466ht.s 			page 53


 1472              	.L107:
 1473 0060 00230140 		.word	1073816320
 1474              		.cfi_endproc
 1475              	.LFE137:
 1477              		.section	.text.HAL_ADCEx_MultiModeGetValue,"ax",%progbits
 1478              		.align	1
 1479              		.global	HAL_ADCEx_MultiModeGetValue
 1480              		.syntax unified
 1481              		.thumb
 1482              		.thumb_func
 1483              		.fpu softvfp
 1485              	HAL_ADCEx_MultiModeGetValue:
 1486              	.LVL107:
 1487              	.LFB138:
 752:Libraries/STM32F4xx_HAL_Driver/Src/stm32f4xx_hal_adc_ex.c ****   ADC_Common_TypeDef *tmpADC_Common;
 1488              		.loc 1 752 1 is_stmt 1 view -0
 1489              		.cfi_startproc
 1490              		@ args = 0, pretend = 0, frame = 0
 1491              		@ frame_needed = 0, uses_anonymous_args = 0
 1492              		@ link register save eliminated.
 753:Libraries/STM32F4xx_HAL_Driver/Src/stm32f4xx_hal_adc_ex.c **** 
 1493              		.loc 1 753 3 view .LVU454
 758:Libraries/STM32F4xx_HAL_Driver/Src/stm32f4xx_hal_adc_ex.c **** 
 1494              		.loc 1 758 3 view .LVU455
 761:Libraries/STM32F4xx_HAL_Driver/Src/stm32f4xx_hal_adc_ex.c **** }
 1495              		.loc 1 761 3 view .LVU456
 761:Libraries/STM32F4xx_HAL_Driver/Src/stm32f4xx_hal_adc_ex.c **** }
 1496              		.loc 1 761 23 is_stmt 0 view .LVU457
 1497 0000 014B     		ldr	r3, .L110
 1498 0002 9868     		ldr	r0, [r3, #8]
 1499              	.LVL108:
 762:Libraries/STM32F4xx_HAL_Driver/Src/stm32f4xx_hal_adc_ex.c **** 
 1500              		.loc 1 762 1 view .LVU458
 1501 0004 7047     		bx	lr
 1502              	.L111:
 1503 0006 00BF     		.align	2
 1504              	.L110:
 1505 0008 00230140 		.word	1073816320
 1506              		.cfi_endproc
 1507              	.LFE138:
 1509              		.section	.text.HAL_ADCEx_InjectedConvCpltCallback,"ax",%progbits
 1510              		.align	1
 1511              		.weak	HAL_ADCEx_InjectedConvCpltCallback
 1512              		.syntax unified
 1513              		.thumb
 1514              		.thumb_func
 1515              		.fpu softvfp
 1517              	HAL_ADCEx_InjectedConvCpltCallback:
 1518              	.LVL109:
 1519              	.LFB139:
 771:Libraries/STM32F4xx_HAL_Driver/Src/stm32f4xx_hal_adc_ex.c ****   /* Prevent unused argument(s) compilation warning */
 1520              		.loc 1 771 1 is_stmt 1 view -0
 1521              		.cfi_startproc
 1522              		@ args = 0, pretend = 0, frame = 0
 1523              		@ frame_needed = 0, uses_anonymous_args = 0
 1524              		@ link register save eliminated.
 773:Libraries/STM32F4xx_HAL_Driver/Src/stm32f4xx_hal_adc_ex.c ****   /* NOTE : This function Should not be modified, when the callback is needed,
ARM GAS  C:\Users\yzy\AppData\Local\Temp\ccN466ht.s 			page 54


 1525              		.loc 1 773 3 view .LVU460
 777:Libraries/STM32F4xx_HAL_Driver/Src/stm32f4xx_hal_adc_ex.c **** 
 1526              		.loc 1 777 1 is_stmt 0 view .LVU461
 1527 0000 7047     		bx	lr
 1528              		.cfi_endproc
 1529              	.LFE139:
 1531              		.section	.text.HAL_ADCEx_InjectedConfigChannel,"ax",%progbits
 1532              		.align	1
 1533              		.global	HAL_ADCEx_InjectedConfigChannel
 1534              		.syntax unified
 1535              		.thumb
 1536              		.thumb_func
 1537              		.fpu softvfp
 1539              	HAL_ADCEx_InjectedConfigChannel:
 1540              	.LVL110:
 1541              	.LFB140:
 788:Libraries/STM32F4xx_HAL_Driver/Src/stm32f4xx_hal_adc_ex.c ****   
 1542              		.loc 1 788 1 is_stmt 1 view -0
 1543              		.cfi_startproc
 1544              		@ args = 0, pretend = 0, frame = 0
 1545              		@ frame_needed = 0, uses_anonymous_args = 0
 1546              		@ link register save eliminated.
 795:Libraries/STM32F4xx_HAL_Driver/Src/stm32f4xx_hal_adc_ex.c **** 
 1547              		.loc 1 795 3 view .LVU463
 798:Libraries/STM32F4xx_HAL_Driver/Src/stm32f4xx_hal_adc_ex.c ****   assert_param(IS_ADC_INJECTED_RANK(sConfigInjected->InjectedRank));
 1548              		.loc 1 798 3 view .LVU464
 799:Libraries/STM32F4xx_HAL_Driver/Src/stm32f4xx_hal_adc_ex.c ****   assert_param(IS_ADC_SAMPLE_TIME(sConfigInjected->InjectedSamplingTime));
 1549              		.loc 1 799 3 view .LVU465
 800:Libraries/STM32F4xx_HAL_Driver/Src/stm32f4xx_hal_adc_ex.c ****   assert_param(IS_ADC_EXT_INJEC_TRIG(sConfigInjected->ExternalTrigInjecConv));
 1550              		.loc 1 800 3 view .LVU466
 801:Libraries/STM32F4xx_HAL_Driver/Src/stm32f4xx_hal_adc_ex.c ****   assert_param(IS_ADC_INJECTED_LENGTH(sConfigInjected->InjectedNbrOfConversion));
 1551              		.loc 1 801 3 view .LVU467
 802:Libraries/STM32F4xx_HAL_Driver/Src/stm32f4xx_hal_adc_ex.c ****   assert_param(IS_FUNCTIONAL_STATE(sConfigInjected->AutoInjectedConv));
 1552              		.loc 1 802 3 view .LVU468
 803:Libraries/STM32F4xx_HAL_Driver/Src/stm32f4xx_hal_adc_ex.c ****   assert_param(IS_FUNCTIONAL_STATE(sConfigInjected->InjectedDiscontinuousConvMode));
 1553              		.loc 1 803 3 view .LVU469
 804:Libraries/STM32F4xx_HAL_Driver/Src/stm32f4xx_hal_adc_ex.c **** 
 1554              		.loc 1 804 3 view .LVU470
 811:Libraries/STM32F4xx_HAL_Driver/Src/stm32f4xx_hal_adc_ex.c ****   {
 1555              		.loc 1 811 3 view .LVU471
 813:Libraries/STM32F4xx_HAL_Driver/Src/stm32f4xx_hal_adc_ex.c ****   }
 1556              		.loc 1 813 5 view .LVU472
 817:Libraries/STM32F4xx_HAL_Driver/Src/stm32f4xx_hal_adc_ex.c ****   
 1557              		.loc 1 817 3 view .LVU473
 817:Libraries/STM32F4xx_HAL_Driver/Src/stm32f4xx_hal_adc_ex.c ****   
 1558              		.loc 1 817 3 view .LVU474
 1559 0000 90F83C30 		ldrb	r3, [r0, #60]	@ zero_extendqisi2
 1560 0004 012B     		cmp	r3, #1
 1561 0006 00F0F980 		beq	.L129
 788:Libraries/STM32F4xx_HAL_Driver/Src/stm32f4xx_hal_adc_ex.c ****   
 1562              		.loc 1 788 1 is_stmt 0 discriminator 2 view .LVU475
 1563 000a 30B4     		push	{r4, r5}
 1564              	.LCFI19:
 1565              		.cfi_def_cfa_offset 8
 1566              		.cfi_offset 4, -8
 1567              		.cfi_offset 5, -4
 817:Libraries/STM32F4xx_HAL_Driver/Src/stm32f4xx_hal_adc_ex.c ****   
ARM GAS  C:\Users\yzy\AppData\Local\Temp\ccN466ht.s 			page 55


 1568              		.loc 1 817 3 is_stmt 1 discriminator 2 view .LVU476
 1569 000c 0123     		movs	r3, #1
 1570 000e 80F83C30 		strb	r3, [r0, #60]
 817:Libraries/STM32F4xx_HAL_Driver/Src/stm32f4xx_hal_adc_ex.c ****   
 1571              		.loc 1 817 3 discriminator 2 view .LVU477
 820:Libraries/STM32F4xx_HAL_Driver/Src/stm32f4xx_hal_adc_ex.c ****   {
 1572              		.loc 1 820 3 discriminator 2 view .LVU478
 820:Libraries/STM32F4xx_HAL_Driver/Src/stm32f4xx_hal_adc_ex.c ****   {
 1573              		.loc 1 820 22 is_stmt 0 discriminator 2 view .LVU479
 1574 0012 0B68     		ldr	r3, [r1]
 820:Libraries/STM32F4xx_HAL_Driver/Src/stm32f4xx_hal_adc_ex.c ****   {
 1575              		.loc 1 820 6 discriminator 2 view .LVU480
 1576 0014 092B     		cmp	r3, #9
 1577 0016 7DD9     		bls	.L115
 823:Libraries/STM32F4xx_HAL_Driver/Src/stm32f4xx_hal_adc_ex.c ****     
 1578              		.loc 1 823 5 is_stmt 1 view .LVU481
 823:Libraries/STM32F4xx_HAL_Driver/Src/stm32f4xx_hal_adc_ex.c ****     
 1579              		.loc 1 823 9 is_stmt 0 view .LVU482
 1580 0018 0568     		ldr	r5, [r0]
 823:Libraries/STM32F4xx_HAL_Driver/Src/stm32f4xx_hal_adc_ex.c ****     
 1581              		.loc 1 823 27 view .LVU483
 1582 001a EA68     		ldr	r2, [r5, #12]
 823:Libraries/STM32F4xx_HAL_Driver/Src/stm32f4xx_hal_adc_ex.c ****     
 1583              		.loc 1 823 31 view .LVU484
 1584 001c 9BB2     		uxth	r3, r3
 1585 001e 03EB4303 		add	r3, r3, r3, lsl #1
 1586 0022 1E3B     		subs	r3, r3, #30
 1587 0024 0724     		movs	r4, #7
 1588 0026 04FA03F3 		lsl	r3, r4, r3
 823:Libraries/STM32F4xx_HAL_Driver/Src/stm32f4xx_hal_adc_ex.c ****     
 1589              		.loc 1 823 27 view .LVU485
 1590 002a 22EA0303 		bic	r3, r2, r3
 1591 002e EB60     		str	r3, [r5, #12]
 826:Libraries/STM32F4xx_HAL_Driver/Src/stm32f4xx_hal_adc_ex.c ****   }
 1592              		.loc 1 826 5 is_stmt 1 view .LVU486
 826:Libraries/STM32F4xx_HAL_Driver/Src/stm32f4xx_hal_adc_ex.c ****   }
 1593              		.loc 1 826 9 is_stmt 0 view .LVU487
 1594 0030 0568     		ldr	r5, [r0]
 826:Libraries/STM32F4xx_HAL_Driver/Src/stm32f4xx_hal_adc_ex.c ****   }
 1595              		.loc 1 826 27 view .LVU488
 1596 0032 EA68     		ldr	r2, [r5, #12]
 826:Libraries/STM32F4xx_HAL_Driver/Src/stm32f4xx_hal_adc_ex.c ****   }
 1597              		.loc 1 826 30 view .LVU489
 1598 0034 8C68     		ldr	r4, [r1, #8]
 1599 0036 0B88     		ldrh	r3, [r1]
 1600 0038 03EB4303 		add	r3, r3, r3, lsl #1
 1601 003c 1E3B     		subs	r3, r3, #30
 1602 003e 04FA03F3 		lsl	r3, r4, r3
 826:Libraries/STM32F4xx_HAL_Driver/Src/stm32f4xx_hal_adc_ex.c ****   }
 1603              		.loc 1 826 27 view .LVU490
 1604 0042 1343     		orrs	r3, r3, r2
 1605 0044 EB60     		str	r3, [r5, #12]
 1606              	.L116:
 838:Libraries/STM32F4xx_HAL_Driver/Src/stm32f4xx_hal_adc_ex.c ****   hadc->Instance->JSQR |=  ADC_SQR1(sConfigInjected->InjectedNbrOfConversion);
 1607              		.loc 1 838 3 is_stmt 1 view .LVU491
 838:Libraries/STM32F4xx_HAL_Driver/Src/stm32f4xx_hal_adc_ex.c ****   hadc->Instance->JSQR |=  ADC_SQR1(sConfigInjected->InjectedNbrOfConversion);
 1608              		.loc 1 838 7 is_stmt 0 view .LVU492
ARM GAS  C:\Users\yzy\AppData\Local\Temp\ccN466ht.s 			page 56


 1609 0046 0268     		ldr	r2, [r0]
 838:Libraries/STM32F4xx_HAL_Driver/Src/stm32f4xx_hal_adc_ex.c ****   hadc->Instance->JSQR |=  ADC_SQR1(sConfigInjected->InjectedNbrOfConversion);
 1610              		.loc 1 838 24 view .LVU493
 1611 0048 936B     		ldr	r3, [r2, #56]
 1612 004a 23F44013 		bic	r3, r3, #3145728
 1613 004e 9363     		str	r3, [r2, #56]
 839:Libraries/STM32F4xx_HAL_Driver/Src/stm32f4xx_hal_adc_ex.c ****   
 1614              		.loc 1 839 3 is_stmt 1 view .LVU494
 839:Libraries/STM32F4xx_HAL_Driver/Src/stm32f4xx_hal_adc_ex.c ****   
 1615              		.loc 1 839 7 is_stmt 0 view .LVU495
 1616 0050 0468     		ldr	r4, [r0]
 839:Libraries/STM32F4xx_HAL_Driver/Src/stm32f4xx_hal_adc_ex.c ****   
 1617              		.loc 1 839 24 view .LVU496
 1618 0052 A36B     		ldr	r3, [r4, #56]
 839:Libraries/STM32F4xx_HAL_Driver/Src/stm32f4xx_hal_adc_ex.c ****   
 1619              		.loc 1 839 28 view .LVU497
 1620 0054 0A69     		ldr	r2, [r1, #16]
 1621 0056 013A     		subs	r2, r2, #1
 839:Libraries/STM32F4xx_HAL_Driver/Src/stm32f4xx_hal_adc_ex.c ****   
 1622              		.loc 1 839 24 view .LVU498
 1623 0058 43EA0253 		orr	r3, r3, r2, lsl #20
 1624 005c A363     		str	r3, [r4, #56]
 844:Libraries/STM32F4xx_HAL_Driver/Src/stm32f4xx_hal_adc_ex.c ****    
 1625              		.loc 1 844 3 is_stmt 1 view .LVU499
 844:Libraries/STM32F4xx_HAL_Driver/Src/stm32f4xx_hal_adc_ex.c ****    
 1626              		.loc 1 844 7 is_stmt 0 view .LVU500
 1627 005e 0568     		ldr	r5, [r0]
 844:Libraries/STM32F4xx_HAL_Driver/Src/stm32f4xx_hal_adc_ex.c ****    
 1628              		.loc 1 844 24 view .LVU501
 1629 0060 AA6B     		ldr	r2, [r5, #56]
 844:Libraries/STM32F4xx_HAL_Driver/Src/stm32f4xx_hal_adc_ex.c ****    
 1630              		.loc 1 844 28 view .LVU502
 1631 0062 4B68     		ldr	r3, [r1, #4]
 1632 0064 0C69     		ldr	r4, [r1, #16]
 1633 0066 1B1B     		subs	r3, r3, r4
 1634 0068 DBB2     		uxtb	r3, r3
 1635 006a 0333     		adds	r3, r3, #3
 1636 006c DBB2     		uxtb	r3, r3
 1637 006e 03EB8303 		add	r3, r3, r3, lsl #2
 1638 0072 1F24     		movs	r4, #31
 1639 0074 04FA03F3 		lsl	r3, r4, r3
 844:Libraries/STM32F4xx_HAL_Driver/Src/stm32f4xx_hal_adc_ex.c ****    
 1640              		.loc 1 844 24 view .LVU503
 1641 0078 22EA0303 		bic	r3, r2, r3
 1642 007c AB63     		str	r3, [r5, #56]
 847:Libraries/STM32F4xx_HAL_Driver/Src/stm32f4xx_hal_adc_ex.c **** 
 1643              		.loc 1 847 3 is_stmt 1 view .LVU504
 847:Libraries/STM32F4xx_HAL_Driver/Src/stm32f4xx_hal_adc_ex.c **** 
 1644              		.loc 1 847 7 is_stmt 0 view .LVU505
 1645 007e 0568     		ldr	r5, [r0]
 847:Libraries/STM32F4xx_HAL_Driver/Src/stm32f4xx_hal_adc_ex.c **** 
 1646              		.loc 1 847 24 view .LVU506
 1647 0080 AA6B     		ldr	r2, [r5, #56]
 847:Libraries/STM32F4xx_HAL_Driver/Src/stm32f4xx_hal_adc_ex.c **** 
 1648              		.loc 1 847 27 view .LVU507
 1649 0082 4B68     		ldr	r3, [r1, #4]
 1650 0084 0C69     		ldr	r4, [r1, #16]
ARM GAS  C:\Users\yzy\AppData\Local\Temp\ccN466ht.s 			page 57


 1651 0086 1B1B     		subs	r3, r3, r4
 1652 0088 DBB2     		uxtb	r3, r3
 1653 008a 0333     		adds	r3, r3, #3
 1654 008c DBB2     		uxtb	r3, r3
 1655 008e 03EB8303 		add	r3, r3, r3, lsl #2
 1656 0092 0C88     		ldrh	r4, [r1]
 1657 0094 04FA03F3 		lsl	r3, r4, r3
 847:Libraries/STM32F4xx_HAL_Driver/Src/stm32f4xx_hal_adc_ex.c **** 
 1658              		.loc 1 847 24 view .LVU508
 1659 0098 1343     		orrs	r3, r3, r2
 1660 009a AB63     		str	r3, [r5, #56]
 854:Libraries/STM32F4xx_HAL_Driver/Src/stm32f4xx_hal_adc_ex.c ****   {  
 1661              		.loc 1 854 3 is_stmt 1 view .LVU509
 854:Libraries/STM32F4xx_HAL_Driver/Src/stm32f4xx_hal_adc_ex.c ****   {  
 1662              		.loc 1 854 21 is_stmt 0 view .LVU510
 1663 009c 8A69     		ldr	r2, [r1, #24]
 854:Libraries/STM32F4xx_HAL_Driver/Src/stm32f4xx_hal_adc_ex.c ****   {  
 1664              		.loc 1 854 5 view .LVU511
 1665 009e 584B     		ldr	r3, .L137
 1666 00a0 9A42     		cmp	r2, r3
 1667 00a2 4DD0     		beq	.L117
 857:Libraries/STM32F4xx_HAL_Driver/Src/stm32f4xx_hal_adc_ex.c ****     hadc->Instance->CR2 |=  sConfigInjected->ExternalTrigInjecConv;
 1668              		.loc 1 857 5 is_stmt 1 view .LVU512
 857:Libraries/STM32F4xx_HAL_Driver/Src/stm32f4xx_hal_adc_ex.c ****     hadc->Instance->CR2 |=  sConfigInjected->ExternalTrigInjecConv;
 1669              		.loc 1 857 9 is_stmt 0 view .LVU513
 1670 00a4 0268     		ldr	r2, [r0]
 857:Libraries/STM32F4xx_HAL_Driver/Src/stm32f4xx_hal_adc_ex.c ****     hadc->Instance->CR2 |=  sConfigInjected->ExternalTrigInjecConv;
 1671              		.loc 1 857 25 view .LVU514
 1672 00a6 9368     		ldr	r3, [r2, #8]
 1673 00a8 23F47023 		bic	r3, r3, #983040
 1674 00ac 9360     		str	r3, [r2, #8]
 858:Libraries/STM32F4xx_HAL_Driver/Src/stm32f4xx_hal_adc_ex.c ****     
 1675              		.loc 1 858 5 is_stmt 1 view .LVU515
 858:Libraries/STM32F4xx_HAL_Driver/Src/stm32f4xx_hal_adc_ex.c ****     
 1676              		.loc 1 858 9 is_stmt 0 view .LVU516
 1677 00ae 0268     		ldr	r2, [r0]
 858:Libraries/STM32F4xx_HAL_Driver/Src/stm32f4xx_hal_adc_ex.c ****     
 1678              		.loc 1 858 25 view .LVU517
 1679 00b0 9368     		ldr	r3, [r2, #8]
 858:Libraries/STM32F4xx_HAL_Driver/Src/stm32f4xx_hal_adc_ex.c ****     
 1680              		.loc 1 858 44 view .LVU518
 1681 00b2 8C69     		ldr	r4, [r1, #24]
 858:Libraries/STM32F4xx_HAL_Driver/Src/stm32f4xx_hal_adc_ex.c ****     
 1682              		.loc 1 858 25 view .LVU519
 1683 00b4 2343     		orrs	r3, r3, r4
 1684 00b6 9360     		str	r3, [r2, #8]
 861:Libraries/STM32F4xx_HAL_Driver/Src/stm32f4xx_hal_adc_ex.c ****     hadc->Instance->CR2 |= sConfigInjected->ExternalTrigInjecConvEdge;
 1685              		.loc 1 861 5 is_stmt 1 view .LVU520
 861:Libraries/STM32F4xx_HAL_Driver/Src/stm32f4xx_hal_adc_ex.c ****     hadc->Instance->CR2 |= sConfigInjected->ExternalTrigInjecConvEdge;
 1686              		.loc 1 861 9 is_stmt 0 view .LVU521
 1687 00b8 0268     		ldr	r2, [r0]
 861:Libraries/STM32F4xx_HAL_Driver/Src/stm32f4xx_hal_adc_ex.c ****     hadc->Instance->CR2 |= sConfigInjected->ExternalTrigInjecConvEdge;
 1688              		.loc 1 861 25 view .LVU522
 1689 00ba 9368     		ldr	r3, [r2, #8]
 1690 00bc 23F44013 		bic	r3, r3, #3145728
 1691 00c0 9360     		str	r3, [r2, #8]
 862:Libraries/STM32F4xx_HAL_Driver/Src/stm32f4xx_hal_adc_ex.c ****   }
ARM GAS  C:\Users\yzy\AppData\Local\Temp\ccN466ht.s 			page 58


 1692              		.loc 1 862 5 is_stmt 1 view .LVU523
 862:Libraries/STM32F4xx_HAL_Driver/Src/stm32f4xx_hal_adc_ex.c ****   }
 1693              		.loc 1 862 9 is_stmt 0 view .LVU524
 1694 00c2 0268     		ldr	r2, [r0]
 862:Libraries/STM32F4xx_HAL_Driver/Src/stm32f4xx_hal_adc_ex.c ****   }
 1695              		.loc 1 862 25 view .LVU525
 1696 00c4 9368     		ldr	r3, [r2, #8]
 862:Libraries/STM32F4xx_HAL_Driver/Src/stm32f4xx_hal_adc_ex.c ****   }
 1697              		.loc 1 862 43 view .LVU526
 1698 00c6 CC69     		ldr	r4, [r1, #28]
 862:Libraries/STM32F4xx_HAL_Driver/Src/stm32f4xx_hal_adc_ex.c ****   }
 1699              		.loc 1 862 25 view .LVU527
 1700 00c8 2343     		orrs	r3, r3, r4
 1701 00ca 9360     		str	r3, [r2, #8]
 1702              	.L118:
 871:Libraries/STM32F4xx_HAL_Driver/Src/stm32f4xx_hal_adc_ex.c ****   {
 1703              		.loc 1 871 3 is_stmt 1 view .LVU528
 871:Libraries/STM32F4xx_HAL_Driver/Src/stm32f4xx_hal_adc_ex.c ****   {
 1704              		.loc 1 871 22 is_stmt 0 view .LVU529
 1705 00cc 4B7D     		ldrb	r3, [r1, #21]	@ zero_extendqisi2
 871:Libraries/STM32F4xx_HAL_Driver/Src/stm32f4xx_hal_adc_ex.c ****   {
 1706              		.loc 1 871 6 view .LVU530
 1707 00ce 002B     		cmp	r3, #0
 1708 00d0 41D0     		beq	.L119
 874:Libraries/STM32F4xx_HAL_Driver/Src/stm32f4xx_hal_adc_ex.c ****   }
 1709              		.loc 1 874 5 is_stmt 1 view .LVU531
 874:Libraries/STM32F4xx_HAL_Driver/Src/stm32f4xx_hal_adc_ex.c ****   }
 1710              		.loc 1 874 9 is_stmt 0 view .LVU532
 1711 00d2 0268     		ldr	r2, [r0]
 874:Libraries/STM32F4xx_HAL_Driver/Src/stm32f4xx_hal_adc_ex.c ****   }
 1712              		.loc 1 874 25 view .LVU533
 1713 00d4 5368     		ldr	r3, [r2, #4]
 1714 00d6 43F48063 		orr	r3, r3, #1024
 1715 00da 5360     		str	r3, [r2, #4]
 1716              	.L120:
 882:Libraries/STM32F4xx_HAL_Driver/Src/stm32f4xx_hal_adc_ex.c ****   {
 1717              		.loc 1 882 3 is_stmt 1 view .LVU534
 882:Libraries/STM32F4xx_HAL_Driver/Src/stm32f4xx_hal_adc_ex.c ****   {
 1718              		.loc 1 882 22 is_stmt 0 view .LVU535
 1719 00dc 0B7D     		ldrb	r3, [r1, #20]	@ zero_extendqisi2
 882:Libraries/STM32F4xx_HAL_Driver/Src/stm32f4xx_hal_adc_ex.c ****   {
 1720              		.loc 1 882 6 view .LVU536
 1721 00de 002B     		cmp	r3, #0
 1722 00e0 3FD0     		beq	.L121
 885:Libraries/STM32F4xx_HAL_Driver/Src/stm32f4xx_hal_adc_ex.c ****   }
 1723              		.loc 1 885 5 is_stmt 1 view .LVU537
 885:Libraries/STM32F4xx_HAL_Driver/Src/stm32f4xx_hal_adc_ex.c ****   }
 1724              		.loc 1 885 9 is_stmt 0 view .LVU538
 1725 00e2 0268     		ldr	r2, [r0]
 885:Libraries/STM32F4xx_HAL_Driver/Src/stm32f4xx_hal_adc_ex.c ****   }
 1726              		.loc 1 885 25 view .LVU539
 1727 00e4 5368     		ldr	r3, [r2, #4]
 1728 00e6 43F48053 		orr	r3, r3, #4096
 1729 00ea 5360     		str	r3, [r2, #4]
 1730              	.L122:
 893:Libraries/STM32F4xx_HAL_Driver/Src/stm32f4xx_hal_adc_ex.c ****   {
 1731              		.loc 1 893 3 is_stmt 1 view .LVU540
ARM GAS  C:\Users\yzy\AppData\Local\Temp\ccN466ht.s 			page 59


 893:Libraries/STM32F4xx_HAL_Driver/Src/stm32f4xx_hal_adc_ex.c ****   {
 1732              		.loc 1 893 25 is_stmt 0 view .LVU541
 1733 00ec 4B68     		ldr	r3, [r1, #4]
 893:Libraries/STM32F4xx_HAL_Driver/Src/stm32f4xx_hal_adc_ex.c ****   {
 1734              		.loc 1 893 3 view .LVU542
 1735 00ee 022B     		cmp	r3, #2
 1736 00f0 57D0     		beq	.L123
 1737 00f2 032B     		cmp	r3, #3
 1738 00f4 62D0     		beq	.L124
 1739 00f6 012B     		cmp	r3, #1
 1740 00f8 39D0     		beq	.L134
 912:Libraries/STM32F4xx_HAL_Driver/Src/stm32f4xx_hal_adc_ex.c ****       hadc->Instance->JOFR4 |= sConfigInjected->InjectedOffset;
 1741              		.loc 1 912 7 is_stmt 1 view .LVU543
 912:Libraries/STM32F4xx_HAL_Driver/Src/stm32f4xx_hal_adc_ex.c ****       hadc->Instance->JOFR4 |= sConfigInjected->InjectedOffset;
 1742              		.loc 1 912 11 is_stmt 0 view .LVU544
 1743 00fa 0268     		ldr	r2, [r0]
 912:Libraries/STM32F4xx_HAL_Driver/Src/stm32f4xx_hal_adc_ex.c ****       hadc->Instance->JOFR4 |= sConfigInjected->InjectedOffset;
 1744              		.loc 1 912 29 view .LVU545
 1745 00fc 136A     		ldr	r3, [r2, #32]
 1746 00fe 23F47F63 		bic	r3, r3, #4080
 1747 0102 23F00F03 		bic	r3, r3, #15
 1748 0106 1362     		str	r3, [r2, #32]
 913:Libraries/STM32F4xx_HAL_Driver/Src/stm32f4xx_hal_adc_ex.c ****       break;
 1749              		.loc 1 913 7 is_stmt 1 view .LVU546
 913:Libraries/STM32F4xx_HAL_Driver/Src/stm32f4xx_hal_adc_ex.c ****       break;
 1750              		.loc 1 913 11 is_stmt 0 view .LVU547
 1751 0108 0268     		ldr	r2, [r0]
 913:Libraries/STM32F4xx_HAL_Driver/Src/stm32f4xx_hal_adc_ex.c ****       break;
 1752              		.loc 1 913 29 view .LVU548
 1753 010a 136A     		ldr	r3, [r2, #32]
 913:Libraries/STM32F4xx_HAL_Driver/Src/stm32f4xx_hal_adc_ex.c ****       break;
 1754              		.loc 1 913 47 view .LVU549
 1755 010c CC68     		ldr	r4, [r1, #12]
 913:Libraries/STM32F4xx_HAL_Driver/Src/stm32f4xx_hal_adc_ex.c ****       break;
 1756              		.loc 1 913 29 view .LVU550
 1757 010e 2343     		orrs	r3, r3, r4
 1758 0110 1362     		str	r3, [r2, #32]
 914:Libraries/STM32F4xx_HAL_Driver/Src/stm32f4xx_hal_adc_ex.c ****   }
 1759              		.loc 1 914 7 is_stmt 1 view .LVU551
 1760 0112 38E0     		b	.L126
 1761              	.L115:
 831:Libraries/STM32F4xx_HAL_Driver/Src/stm32f4xx_hal_adc_ex.c ****     
 1762              		.loc 1 831 5 view .LVU552
 831:Libraries/STM32F4xx_HAL_Driver/Src/stm32f4xx_hal_adc_ex.c ****     
 1763              		.loc 1 831 9 is_stmt 0 view .LVU553
 1764 0114 0568     		ldr	r5, [r0]
 831:Libraries/STM32F4xx_HAL_Driver/Src/stm32f4xx_hal_adc_ex.c ****     
 1765              		.loc 1 831 27 view .LVU554
 1766 0116 2A69     		ldr	r2, [r5, #16]
 831:Libraries/STM32F4xx_HAL_Driver/Src/stm32f4xx_hal_adc_ex.c ****     
 1767              		.loc 1 831 31 view .LVU555
 1768 0118 9BB2     		uxth	r3, r3
 1769 011a 03EB4303 		add	r3, r3, r3, lsl #1
 1770 011e 0724     		movs	r4, #7
 1771 0120 04FA03F3 		lsl	r3, r4, r3
 831:Libraries/STM32F4xx_HAL_Driver/Src/stm32f4xx_hal_adc_ex.c ****     
 1772              		.loc 1 831 27 view .LVU556
ARM GAS  C:\Users\yzy\AppData\Local\Temp\ccN466ht.s 			page 60


 1773 0124 22EA0303 		bic	r3, r2, r3
 1774 0128 2B61     		str	r3, [r5, #16]
 834:Libraries/STM32F4xx_HAL_Driver/Src/stm32f4xx_hal_adc_ex.c ****   }
 1775              		.loc 1 834 5 is_stmt 1 view .LVU557
 834:Libraries/STM32F4xx_HAL_Driver/Src/stm32f4xx_hal_adc_ex.c ****   }
 1776              		.loc 1 834 9 is_stmt 0 view .LVU558
 1777 012a 0568     		ldr	r5, [r0]
 834:Libraries/STM32F4xx_HAL_Driver/Src/stm32f4xx_hal_adc_ex.c ****   }
 1778              		.loc 1 834 27 view .LVU559
 1779 012c 2A69     		ldr	r2, [r5, #16]
 834:Libraries/STM32F4xx_HAL_Driver/Src/stm32f4xx_hal_adc_ex.c ****   }
 1780              		.loc 1 834 30 view .LVU560
 1781 012e 8C68     		ldr	r4, [r1, #8]
 1782 0130 0B88     		ldrh	r3, [r1]
 1783 0132 03EB4303 		add	r3, r3, r3, lsl #1
 1784 0136 04FA03F3 		lsl	r3, r4, r3
 834:Libraries/STM32F4xx_HAL_Driver/Src/stm32f4xx_hal_adc_ex.c ****   }
 1785              		.loc 1 834 27 view .LVU561
 1786 013a 1343     		orrs	r3, r3, r2
 1787 013c 2B61     		str	r3, [r5, #16]
 1788 013e 82E7     		b	.L116
 1789              	.L117:
 867:Libraries/STM32F4xx_HAL_Driver/Src/stm32f4xx_hal_adc_ex.c ****     hadc->Instance->CR2 &= ~(ADC_CR2_JEXTEN);  
 1790              		.loc 1 867 5 is_stmt 1 view .LVU562
 867:Libraries/STM32F4xx_HAL_Driver/Src/stm32f4xx_hal_adc_ex.c ****     hadc->Instance->CR2 &= ~(ADC_CR2_JEXTEN);  
 1791              		.loc 1 867 9 is_stmt 0 view .LVU563
 1792 0140 0268     		ldr	r2, [r0]
 867:Libraries/STM32F4xx_HAL_Driver/Src/stm32f4xx_hal_adc_ex.c ****     hadc->Instance->CR2 &= ~(ADC_CR2_JEXTEN);  
 1793              		.loc 1 867 25 view .LVU564
 1794 0142 9368     		ldr	r3, [r2, #8]
 1795 0144 23F47023 		bic	r3, r3, #983040
 1796 0148 9360     		str	r3, [r2, #8]
 868:Libraries/STM32F4xx_HAL_Driver/Src/stm32f4xx_hal_adc_ex.c ****   }
 1797              		.loc 1 868 5 is_stmt 1 view .LVU565
 868:Libraries/STM32F4xx_HAL_Driver/Src/stm32f4xx_hal_adc_ex.c ****   }
 1798              		.loc 1 868 9 is_stmt 0 view .LVU566
 1799 014a 0268     		ldr	r2, [r0]
 868:Libraries/STM32F4xx_HAL_Driver/Src/stm32f4xx_hal_adc_ex.c ****   }
 1800              		.loc 1 868 25 view .LVU567
 1801 014c 9368     		ldr	r3, [r2, #8]
 1802 014e 23F44013 		bic	r3, r3, #3145728
 1803 0152 9360     		str	r3, [r2, #8]
 1804 0154 BAE7     		b	.L118
 1805              	.L119:
 879:Libraries/STM32F4xx_HAL_Driver/Src/stm32f4xx_hal_adc_ex.c ****   }
 1806              		.loc 1 879 5 is_stmt 1 view .LVU568
 879:Libraries/STM32F4xx_HAL_Driver/Src/stm32f4xx_hal_adc_ex.c ****   }
 1807              		.loc 1 879 9 is_stmt 0 view .LVU569
 1808 0156 0268     		ldr	r2, [r0]
 879:Libraries/STM32F4xx_HAL_Driver/Src/stm32f4xx_hal_adc_ex.c ****   }
 1809              		.loc 1 879 25 view .LVU570
 1810 0158 5368     		ldr	r3, [r2, #4]
 1811 015a 23F48063 		bic	r3, r3, #1024
 1812 015e 5360     		str	r3, [r2, #4]
 1813 0160 BCE7     		b	.L120
 1814              	.L121:
 890:Libraries/STM32F4xx_HAL_Driver/Src/stm32f4xx_hal_adc_ex.c ****   }
ARM GAS  C:\Users\yzy\AppData\Local\Temp\ccN466ht.s 			page 61


 1815              		.loc 1 890 5 is_stmt 1 view .LVU571
 890:Libraries/STM32F4xx_HAL_Driver/Src/stm32f4xx_hal_adc_ex.c ****   }
 1816              		.loc 1 890 9 is_stmt 0 view .LVU572
 1817 0162 0268     		ldr	r2, [r0]
 890:Libraries/STM32F4xx_HAL_Driver/Src/stm32f4xx_hal_adc_ex.c ****   }
 1818              		.loc 1 890 25 view .LVU573
 1819 0164 5368     		ldr	r3, [r2, #4]
 1820 0166 23F48053 		bic	r3, r3, #4096
 1821 016a 5360     		str	r3, [r2, #4]
 1822 016c BEE7     		b	.L122
 1823              	.L134:
 897:Libraries/STM32F4xx_HAL_Driver/Src/stm32f4xx_hal_adc_ex.c ****       hadc->Instance->JOFR1 |= sConfigInjected->InjectedOffset;
 1824              		.loc 1 897 7 is_stmt 1 view .LVU574
 897:Libraries/STM32F4xx_HAL_Driver/Src/stm32f4xx_hal_adc_ex.c ****       hadc->Instance->JOFR1 |= sConfigInjected->InjectedOffset;
 1825              		.loc 1 897 11 is_stmt 0 view .LVU575
 1826 016e 0268     		ldr	r2, [r0]
 897:Libraries/STM32F4xx_HAL_Driver/Src/stm32f4xx_hal_adc_ex.c ****       hadc->Instance->JOFR1 |= sConfigInjected->InjectedOffset;
 1827              		.loc 1 897 29 view .LVU576
 1828 0170 5369     		ldr	r3, [r2, #20]
 1829 0172 23F47F63 		bic	r3, r3, #4080
 1830 0176 23F00F03 		bic	r3, r3, #15
 1831 017a 5361     		str	r3, [r2, #20]
 898:Libraries/STM32F4xx_HAL_Driver/Src/stm32f4xx_hal_adc_ex.c ****       break;
 1832              		.loc 1 898 7 is_stmt 1 view .LVU577
 898:Libraries/STM32F4xx_HAL_Driver/Src/stm32f4xx_hal_adc_ex.c ****       break;
 1833              		.loc 1 898 11 is_stmt 0 view .LVU578
 1834 017c 0268     		ldr	r2, [r0]
 898:Libraries/STM32F4xx_HAL_Driver/Src/stm32f4xx_hal_adc_ex.c ****       break;
 1835              		.loc 1 898 29 view .LVU579
 1836 017e 5369     		ldr	r3, [r2, #20]
 898:Libraries/STM32F4xx_HAL_Driver/Src/stm32f4xx_hal_adc_ex.c ****       break;
 1837              		.loc 1 898 47 view .LVU580
 1838 0180 CC68     		ldr	r4, [r1, #12]
 898:Libraries/STM32F4xx_HAL_Driver/Src/stm32f4xx_hal_adc_ex.c ****       break;
 1839              		.loc 1 898 29 view .LVU581
 1840 0182 2343     		orrs	r3, r3, r4
 1841 0184 5361     		str	r3, [r2, #20]
 899:Libraries/STM32F4xx_HAL_Driver/Src/stm32f4xx_hal_adc_ex.c ****     case 2U:
 1842              		.loc 1 899 7 is_stmt 1 view .LVU582
 1843              	.L126:
 920:Libraries/STM32F4xx_HAL_Driver/Src/stm32f4xx_hal_adc_ex.c **** 
 1844              		.loc 1 920 5 view .LVU583
 1845              	.LVL111:
 923:Libraries/STM32F4xx_HAL_Driver/Src/stm32f4xx_hal_adc_ex.c ****   {
 1846              		.loc 1 923 3 view .LVU584
 923:Libraries/STM32F4xx_HAL_Driver/Src/stm32f4xx_hal_adc_ex.c ****   {
 1847              		.loc 1 923 12 is_stmt 0 view .LVU585
 1848 0186 0268     		ldr	r2, [r0]
 923:Libraries/STM32F4xx_HAL_Driver/Src/stm32f4xx_hal_adc_ex.c ****   {
 1849              		.loc 1 923 6 view .LVU586
 1850 0188 1E4B     		ldr	r3, .L137+4
 1851 018a 9A42     		cmp	r2, r3
 1852 018c 23D0     		beq	.L135
 1853              	.L127:
 930:Libraries/STM32F4xx_HAL_Driver/Src/stm32f4xx_hal_adc_ex.c ****   {
 1854              		.loc 1 930 3 is_stmt 1 view .LVU587
 930:Libraries/STM32F4xx_HAL_Driver/Src/stm32f4xx_hal_adc_ex.c ****   {
ARM GAS  C:\Users\yzy\AppData\Local\Temp\ccN466ht.s 			page 62


 1855              		.loc 1 930 12 is_stmt 0 view .LVU588
 1856 018e 0268     		ldr	r2, [r0]
 930:Libraries/STM32F4xx_HAL_Driver/Src/stm32f4xx_hal_adc_ex.c ****   {
 1857              		.loc 1 930 6 view .LVU589
 1858 0190 1C4B     		ldr	r3, .L137+4
 1859 0192 9A42     		cmp	r2, r3
 1860 0194 28D0     		beq	.L136
 1861              	.L128:
 937:Libraries/STM32F4xx_HAL_Driver/Src/stm32f4xx_hal_adc_ex.c ****   
 1862              		.loc 1 937 3 is_stmt 1 view .LVU590
 937:Libraries/STM32F4xx_HAL_Driver/Src/stm32f4xx_hal_adc_ex.c ****   
 1863              		.loc 1 937 3 view .LVU591
 1864 0196 0023     		movs	r3, #0
 1865 0198 80F83C30 		strb	r3, [r0, #60]
 937:Libraries/STM32F4xx_HAL_Driver/Src/stm32f4xx_hal_adc_ex.c ****   
 1866              		.loc 1 937 3 view .LVU592
 940:Libraries/STM32F4xx_HAL_Driver/Src/stm32f4xx_hal_adc_ex.c **** }
 1867              		.loc 1 940 3 view .LVU593
 940:Libraries/STM32F4xx_HAL_Driver/Src/stm32f4xx_hal_adc_ex.c **** }
 1868              		.loc 1 940 10 is_stmt 0 view .LVU594
 1869 019c 1846     		mov	r0, r3
 1870              	.LVL112:
 941:Libraries/STM32F4xx_HAL_Driver/Src/stm32f4xx_hal_adc_ex.c **** 
 1871              		.loc 1 941 1 view .LVU595
 1872 019e 30BC     		pop	{r4, r5}
 1873              	.LCFI20:
 1874              		.cfi_remember_state
 1875              		.cfi_restore 5
 1876              		.cfi_restore 4
 1877              		.cfi_def_cfa_offset 0
 1878 01a0 7047     		bx	lr
 1879              	.LVL113:
 1880              	.L123:
 1881              	.LCFI21:
 1882              		.cfi_restore_state
 902:Libraries/STM32F4xx_HAL_Driver/Src/stm32f4xx_hal_adc_ex.c ****       hadc->Instance->JOFR2 |= sConfigInjected->InjectedOffset;
 1883              		.loc 1 902 7 is_stmt 1 view .LVU596
 902:Libraries/STM32F4xx_HAL_Driver/Src/stm32f4xx_hal_adc_ex.c ****       hadc->Instance->JOFR2 |= sConfigInjected->InjectedOffset;
 1884              		.loc 1 902 11 is_stmt 0 view .LVU597
 1885 01a2 0268     		ldr	r2, [r0]
 902:Libraries/STM32F4xx_HAL_Driver/Src/stm32f4xx_hal_adc_ex.c ****       hadc->Instance->JOFR2 |= sConfigInjected->InjectedOffset;
 1886              		.loc 1 902 29 view .LVU598
 1887 01a4 9369     		ldr	r3, [r2, #24]
 1888 01a6 23F47F63 		bic	r3, r3, #4080
 1889 01aa 23F00F03 		bic	r3, r3, #15
 1890 01ae 9361     		str	r3, [r2, #24]
 903:Libraries/STM32F4xx_HAL_Driver/Src/stm32f4xx_hal_adc_ex.c ****       break;
 1891              		.loc 1 903 7 is_stmt 1 view .LVU599
 903:Libraries/STM32F4xx_HAL_Driver/Src/stm32f4xx_hal_adc_ex.c ****       break;
 1892              		.loc 1 903 11 is_stmt 0 view .LVU600
 1893 01b0 0268     		ldr	r2, [r0]
 903:Libraries/STM32F4xx_HAL_Driver/Src/stm32f4xx_hal_adc_ex.c ****       break;
 1894              		.loc 1 903 29 view .LVU601
 1895 01b2 9369     		ldr	r3, [r2, #24]
 903:Libraries/STM32F4xx_HAL_Driver/Src/stm32f4xx_hal_adc_ex.c ****       break;
 1896              		.loc 1 903 47 view .LVU602
 1897 01b4 CC68     		ldr	r4, [r1, #12]
ARM GAS  C:\Users\yzy\AppData\Local\Temp\ccN466ht.s 			page 63


 903:Libraries/STM32F4xx_HAL_Driver/Src/stm32f4xx_hal_adc_ex.c ****       break;
 1898              		.loc 1 903 29 view .LVU603
 1899 01b6 2343     		orrs	r3, r3, r4
 1900 01b8 9361     		str	r3, [r2, #24]
 904:Libraries/STM32F4xx_HAL_Driver/Src/stm32f4xx_hal_adc_ex.c ****     case 3U:
 1901              		.loc 1 904 7 is_stmt 1 view .LVU604
 1902 01ba E4E7     		b	.L126
 1903              	.L124:
 907:Libraries/STM32F4xx_HAL_Driver/Src/stm32f4xx_hal_adc_ex.c ****       hadc->Instance->JOFR3 |= sConfigInjected->InjectedOffset;
 1904              		.loc 1 907 7 view .LVU605
 907:Libraries/STM32F4xx_HAL_Driver/Src/stm32f4xx_hal_adc_ex.c ****       hadc->Instance->JOFR3 |= sConfigInjected->InjectedOffset;
 1905              		.loc 1 907 11 is_stmt 0 view .LVU606
 1906 01bc 0268     		ldr	r2, [r0]
 907:Libraries/STM32F4xx_HAL_Driver/Src/stm32f4xx_hal_adc_ex.c ****       hadc->Instance->JOFR3 |= sConfigInjected->InjectedOffset;
 1907              		.loc 1 907 29 view .LVU607
 1908 01be D369     		ldr	r3, [r2, #28]
 1909 01c0 23F47F63 		bic	r3, r3, #4080
 1910 01c4 23F00F03 		bic	r3, r3, #15
 1911 01c8 D361     		str	r3, [r2, #28]
 908:Libraries/STM32F4xx_HAL_Driver/Src/stm32f4xx_hal_adc_ex.c ****       break;
 1912              		.loc 1 908 7 is_stmt 1 view .LVU608
 908:Libraries/STM32F4xx_HAL_Driver/Src/stm32f4xx_hal_adc_ex.c ****       break;
 1913              		.loc 1 908 11 is_stmt 0 view .LVU609
 1914 01ca 0268     		ldr	r2, [r0]
 908:Libraries/STM32F4xx_HAL_Driver/Src/stm32f4xx_hal_adc_ex.c ****       break;
 1915              		.loc 1 908 29 view .LVU610
 1916 01cc D369     		ldr	r3, [r2, #28]
 908:Libraries/STM32F4xx_HAL_Driver/Src/stm32f4xx_hal_adc_ex.c ****       break;
 1917              		.loc 1 908 47 view .LVU611
 1918 01ce CC68     		ldr	r4, [r1, #12]
 908:Libraries/STM32F4xx_HAL_Driver/Src/stm32f4xx_hal_adc_ex.c ****       break;
 1919              		.loc 1 908 29 view .LVU612
 1920 01d0 2343     		orrs	r3, r3, r4
 1921 01d2 D361     		str	r3, [r2, #28]
 909:Libraries/STM32F4xx_HAL_Driver/Src/stm32f4xx_hal_adc_ex.c ****     default:
 1922              		.loc 1 909 7 is_stmt 1 view .LVU613
 1923 01d4 D7E7     		b	.L126
 1924              	.LVL114:
 1925              	.L135:
 923:Libraries/STM32F4xx_HAL_Driver/Src/stm32f4xx_hal_adc_ex.c ****   {
 1926              		.loc 1 923 51 is_stmt 0 discriminator 1 view .LVU614
 1927 01d6 0B68     		ldr	r3, [r1]
 923:Libraries/STM32F4xx_HAL_Driver/Src/stm32f4xx_hal_adc_ex.c ****   {
 1928              		.loc 1 923 32 discriminator 1 view .LVU615
 1929 01d8 122B     		cmp	r3, #18
 1930 01da D8D1     		bne	.L127
 926:Libraries/STM32F4xx_HAL_Driver/Src/stm32f4xx_hal_adc_ex.c ****   }
 1931              		.loc 1 926 5 is_stmt 1 view .LVU616
 926:Libraries/STM32F4xx_HAL_Driver/Src/stm32f4xx_hal_adc_ex.c ****   }
 1932              		.loc 1 926 24 is_stmt 0 view .LVU617
 1933 01dc 0A4A     		ldr	r2, .L137+8
 1934 01de 5368     		ldr	r3, [r2, #4]
 1935 01e0 43F48003 		orr	r3, r3, #4194304
 1936 01e4 5360     		str	r3, [r2, #4]
 1937 01e6 D2E7     		b	.L127
 1938              	.L136:
 930:Libraries/STM32F4xx_HAL_Driver/Src/stm32f4xx_hal_adc_ex.c ****   {
ARM GAS  C:\Users\yzy\AppData\Local\Temp\ccN466ht.s 			page 64


 1939              		.loc 1 930 52 discriminator 1 view .LVU618
 1940 01e8 0B68     		ldr	r3, [r1]
 930:Libraries/STM32F4xx_HAL_Driver/Src/stm32f4xx_hal_adc_ex.c ****   {
 1941              		.loc 1 930 97 discriminator 1 view .LVU619
 1942 01ea 103B     		subs	r3, r3, #16
 930:Libraries/STM32F4xx_HAL_Driver/Src/stm32f4xx_hal_adc_ex.c ****   {
 1943              		.loc 1 930 32 discriminator 1 view .LVU620
 1944 01ec 012B     		cmp	r3, #1
 1945 01ee D2D8     		bhi	.L128
 933:Libraries/STM32F4xx_HAL_Driver/Src/stm32f4xx_hal_adc_ex.c ****   }
 1946              		.loc 1 933 5 is_stmt 1 view .LVU621
 933:Libraries/STM32F4xx_HAL_Driver/Src/stm32f4xx_hal_adc_ex.c ****   }
 1947              		.loc 1 933 24 is_stmt 0 view .LVU622
 1948 01f0 054A     		ldr	r2, .L137+8
 1949 01f2 5368     		ldr	r3, [r2, #4]
 1950 01f4 43F40003 		orr	r3, r3, #8388608
 1951 01f8 5360     		str	r3, [r2, #4]
 1952 01fa CCE7     		b	.L128
 1953              	.LVL115:
 1954              	.L129:
 1955              	.LCFI22:
 1956              		.cfi_def_cfa_offset 0
 1957              		.cfi_restore 4
 1958              		.cfi_restore 5
 817:Libraries/STM32F4xx_HAL_Driver/Src/stm32f4xx_hal_adc_ex.c ****   
 1959              		.loc 1 817 3 view .LVU623
 1960 01fc 0220     		movs	r0, #2
 1961              	.LVL116:
 941:Libraries/STM32F4xx_HAL_Driver/Src/stm32f4xx_hal_adc_ex.c **** 
 1962              		.loc 1 941 1 view .LVU624
 1963 01fe 7047     		bx	lr
 1964              	.L138:
 1965              		.align	2
 1966              	.L137:
 1967 0200 01000F00 		.word	983041
 1968 0204 00200140 		.word	1073815552
 1969 0208 00230140 		.word	1073816320
 1970              		.cfi_endproc
 1971              	.LFE140:
 1973              		.section	.text.HAL_ADCEx_MultiModeConfigChannel,"ax",%progbits
 1974              		.align	1
 1975              		.global	HAL_ADCEx_MultiModeConfigChannel
 1976              		.syntax unified
 1977              		.thumb
 1978              		.thumb_func
 1979              		.fpu softvfp
 1981              	HAL_ADCEx_MultiModeConfigChannel:
 1982              	.LVL117:
 1983              	.LFB141:
 952:Libraries/STM32F4xx_HAL_Driver/Src/stm32f4xx_hal_adc_ex.c **** 
 1984              		.loc 1 952 1 is_stmt 1 view -0
 1985              		.cfi_startproc
 1986              		@ args = 0, pretend = 0, frame = 0
 1987              		@ frame_needed = 0, uses_anonymous_args = 0
 1988              		@ link register save eliminated.
 954:Libraries/STM32F4xx_HAL_Driver/Src/stm32f4xx_hal_adc_ex.c **** 
 1989              		.loc 1 954 3 view .LVU626
ARM GAS  C:\Users\yzy\AppData\Local\Temp\ccN466ht.s 			page 65


 957:Libraries/STM32F4xx_HAL_Driver/Src/stm32f4xx_hal_adc_ex.c ****   assert_param(IS_ADC_DMA_ACCESS_MODE(multimode->DMAAccessMode));
 1990              		.loc 1 957 3 view .LVU627
 958:Libraries/STM32F4xx_HAL_Driver/Src/stm32f4xx_hal_adc_ex.c ****   assert_param(IS_ADC_SAMPLING_DELAY(multimode->TwoSamplingDelay));
 1991              		.loc 1 958 3 view .LVU628
 959:Libraries/STM32F4xx_HAL_Driver/Src/stm32f4xx_hal_adc_ex.c ****   
 1992              		.loc 1 959 3 view .LVU629
 962:Libraries/STM32F4xx_HAL_Driver/Src/stm32f4xx_hal_adc_ex.c **** 
 1993              		.loc 1 962 3 view .LVU630
 962:Libraries/STM32F4xx_HAL_Driver/Src/stm32f4xx_hal_adc_ex.c **** 
 1994              		.loc 1 962 3 view .LVU631
 1995 0000 90F83C30 		ldrb	r3, [r0, #60]	@ zero_extendqisi2
 1996 0004 012B     		cmp	r3, #1
 1997 0006 22D0     		beq	.L141
 952:Libraries/STM32F4xx_HAL_Driver/Src/stm32f4xx_hal_adc_ex.c **** 
 1998              		.loc 1 952 1 is_stmt 0 discriminator 2 view .LVU632
 1999 0008 10B4     		push	{r4}
 2000              	.LCFI23:
 2001              		.cfi_def_cfa_offset 4
 2002              		.cfi_offset 4, -4
 962:Libraries/STM32F4xx_HAL_Driver/Src/stm32f4xx_hal_adc_ex.c **** 
 2003              		.loc 1 962 3 is_stmt 1 discriminator 2 view .LVU633
 2004 000a 0123     		movs	r3, #1
 2005 000c 80F83C30 		strb	r3, [r0, #60]
 962:Libraries/STM32F4xx_HAL_Driver/Src/stm32f4xx_hal_adc_ex.c **** 
 2006              		.loc 1 962 3 discriminator 2 view .LVU634
 967:Libraries/STM32F4xx_HAL_Driver/Src/stm32f4xx_hal_adc_ex.c **** 
 2007              		.loc 1 967 3 discriminator 2 view .LVU635
 2008              	.LVL118:
 970:Libraries/STM32F4xx_HAL_Driver/Src/stm32f4xx_hal_adc_ex.c ****   tmpADC_Common->CCR |= multimode->Mode;
 2009              		.loc 1 970 3 discriminator 2 view .LVU636
 970:Libraries/STM32F4xx_HAL_Driver/Src/stm32f4xx_hal_adc_ex.c ****   tmpADC_Common->CCR |= multimode->Mode;
 2010              		.loc 1 970 22 is_stmt 0 discriminator 2 view .LVU637
 2011 0010 104B     		ldr	r3, .L146
 2012 0012 5A68     		ldr	r2, [r3, #4]
 2013 0014 22F01F02 		bic	r2, r2, #31
 2014 0018 5A60     		str	r2, [r3, #4]
 971:Libraries/STM32F4xx_HAL_Driver/Src/stm32f4xx_hal_adc_ex.c ****   
 2015              		.loc 1 971 3 is_stmt 1 discriminator 2 view .LVU638
 971:Libraries/STM32F4xx_HAL_Driver/Src/stm32f4xx_hal_adc_ex.c ****   
 2016              		.loc 1 971 22 is_stmt 0 discriminator 2 view .LVU639
 2017 001a 5A68     		ldr	r2, [r3, #4]
 971:Libraries/STM32F4xx_HAL_Driver/Src/stm32f4xx_hal_adc_ex.c ****   
 2018              		.loc 1 971 34 discriminator 2 view .LVU640
 2019 001c 0C68     		ldr	r4, [r1]
 971:Libraries/STM32F4xx_HAL_Driver/Src/stm32f4xx_hal_adc_ex.c ****   
 2020              		.loc 1 971 22 discriminator 2 view .LVU641
 2021 001e 2243     		orrs	r2, r2, r4
 2022 0020 5A60     		str	r2, [r3, #4]
 974:Libraries/STM32F4xx_HAL_Driver/Src/stm32f4xx_hal_adc_ex.c ****   tmpADC_Common->CCR |= multimode->DMAAccessMode;
 2023              		.loc 1 974 3 is_stmt 1 discriminator 2 view .LVU642
 974:Libraries/STM32F4xx_HAL_Driver/Src/stm32f4xx_hal_adc_ex.c ****   tmpADC_Common->CCR |= multimode->DMAAccessMode;
 2024              		.loc 1 974 22 is_stmt 0 discriminator 2 view .LVU643
 2025 0022 5A68     		ldr	r2, [r3, #4]
 2026 0024 22F44042 		bic	r2, r2, #49152
 2027 0028 5A60     		str	r2, [r3, #4]
 975:Libraries/STM32F4xx_HAL_Driver/Src/stm32f4xx_hal_adc_ex.c ****   
 2028              		.loc 1 975 3 is_stmt 1 discriminator 2 view .LVU644
ARM GAS  C:\Users\yzy\AppData\Local\Temp\ccN466ht.s 			page 66


 975:Libraries/STM32F4xx_HAL_Driver/Src/stm32f4xx_hal_adc_ex.c ****   
 2029              		.loc 1 975 22 is_stmt 0 discriminator 2 view .LVU645
 2030 002a 5A68     		ldr	r2, [r3, #4]
 975:Libraries/STM32F4xx_HAL_Driver/Src/stm32f4xx_hal_adc_ex.c ****   
 2031              		.loc 1 975 34 discriminator 2 view .LVU646
 2032 002c 4C68     		ldr	r4, [r1, #4]
 975:Libraries/STM32F4xx_HAL_Driver/Src/stm32f4xx_hal_adc_ex.c ****   
 2033              		.loc 1 975 22 discriminator 2 view .LVU647
 2034 002e 2243     		orrs	r2, r2, r4
 2035 0030 5A60     		str	r2, [r3, #4]
 978:Libraries/STM32F4xx_HAL_Driver/Src/stm32f4xx_hal_adc_ex.c ****   tmpADC_Common->CCR |= multimode->TwoSamplingDelay;
 2036              		.loc 1 978 3 is_stmt 1 discriminator 2 view .LVU648
 978:Libraries/STM32F4xx_HAL_Driver/Src/stm32f4xx_hal_adc_ex.c ****   tmpADC_Common->CCR |= multimode->TwoSamplingDelay;
 2037              		.loc 1 978 22 is_stmt 0 discriminator 2 view .LVU649
 2038 0032 5A68     		ldr	r2, [r3, #4]
 2039 0034 22F47062 		bic	r2, r2, #3840
 2040 0038 5A60     		str	r2, [r3, #4]
 979:Libraries/STM32F4xx_HAL_Driver/Src/stm32f4xx_hal_adc_ex.c ****   
 2041              		.loc 1 979 3 is_stmt 1 discriminator 2 view .LVU650
 979:Libraries/STM32F4xx_HAL_Driver/Src/stm32f4xx_hal_adc_ex.c ****   
 2042              		.loc 1 979 22 is_stmt 0 discriminator 2 view .LVU651
 2043 003a 5A68     		ldr	r2, [r3, #4]
 979:Libraries/STM32F4xx_HAL_Driver/Src/stm32f4xx_hal_adc_ex.c ****   
 2044              		.loc 1 979 34 discriminator 2 view .LVU652
 2045 003c 8968     		ldr	r1, [r1, #8]
 2046              	.LVL119:
 979:Libraries/STM32F4xx_HAL_Driver/Src/stm32f4xx_hal_adc_ex.c ****   
 2047              		.loc 1 979 22 discriminator 2 view .LVU653
 2048 003e 0A43     		orrs	r2, r2, r1
 2049 0040 5A60     		str	r2, [r3, #4]
 982:Libraries/STM32F4xx_HAL_Driver/Src/stm32f4xx_hal_adc_ex.c ****   
 2050              		.loc 1 982 3 is_stmt 1 discriminator 2 view .LVU654
 982:Libraries/STM32F4xx_HAL_Driver/Src/stm32f4xx_hal_adc_ex.c ****   
 2051              		.loc 1 982 3 discriminator 2 view .LVU655
 2052 0042 0023     		movs	r3, #0
 2053 0044 80F83C30 		strb	r3, [r0, #60]
 982:Libraries/STM32F4xx_HAL_Driver/Src/stm32f4xx_hal_adc_ex.c ****   
 2054              		.loc 1 982 3 discriminator 2 view .LVU656
 985:Libraries/STM32F4xx_HAL_Driver/Src/stm32f4xx_hal_adc_ex.c **** }
 2055              		.loc 1 985 3 discriminator 2 view .LVU657
 985:Libraries/STM32F4xx_HAL_Driver/Src/stm32f4xx_hal_adc_ex.c **** }
 2056              		.loc 1 985 10 is_stmt 0 discriminator 2 view .LVU658
 2057 0048 1846     		mov	r0, r3
 2058              	.LVL120:
 986:Libraries/STM32F4xx_HAL_Driver/Src/stm32f4xx_hal_adc_ex.c **** 
 2059              		.loc 1 986 1 discriminator 2 view .LVU659
 2060 004a 10BC     		pop	{r4}
 2061              	.LCFI24:
 2062              		.cfi_restore 4
 2063              		.cfi_def_cfa_offset 0
 2064 004c 7047     		bx	lr
 2065              	.LVL121:
 2066              	.L141:
 962:Libraries/STM32F4xx_HAL_Driver/Src/stm32f4xx_hal_adc_ex.c **** 
 2067              		.loc 1 962 3 view .LVU660
 2068 004e 0220     		movs	r0, #2
 2069              	.LVL122:
ARM GAS  C:\Users\yzy\AppData\Local\Temp\ccN466ht.s 			page 67


 986:Libraries/STM32F4xx_HAL_Driver/Src/stm32f4xx_hal_adc_ex.c **** 
 2070              		.loc 1 986 1 view .LVU661
 2071 0050 7047     		bx	lr
 2072              	.L147:
 2073 0052 00BF     		.align	2
 2074              	.L146:
 2075 0054 00230140 		.word	1073816320
 2076              		.cfi_endproc
 2077              	.LFE141:
 2079              		.text
 2080              	.Letext0:
 2081              		.file 2 "c:\\program files (x86)\\gnu arm embedded toolchain\\2020-q2-update\\arm-none-eabi\\inclu
 2082              		.file 3 "c:\\program files (x86)\\gnu arm embedded toolchain\\2020-q2-update\\arm-none-eabi\\inclu
 2083              		.file 4 "Libraries/CMSIS/Include/core_cm4.h"
 2084              		.file 5 "Libraries/CMSIS/Device/ST/STM32F4xx/Include/system_stm32f4xx.h"
 2085              		.file 6 "Libraries/CMSIS/Device/ST/STM32F4xx/Include/stm32f407xx.h"
 2086              		.file 7 "Libraries/CMSIS/Device/ST/STM32F4xx/Include/stm32f4xx.h"
 2087              		.file 8 "Libraries/STM32F4xx_HAL_Driver/Inc/stm32f4xx_hal_def.h"
 2088              		.file 9 "Libraries/STM32F4xx_HAL_Driver/Inc/stm32f4xx_hal_dma.h"
 2089              		.file 10 "Libraries/STM32F4xx_HAL_Driver/Inc/stm32f4xx_hal_adc.h"
 2090              		.file 11 "Libraries/STM32F4xx_HAL_Driver/Inc/stm32f4xx_hal_adc_ex.h"
 2091              		.file 12 "Libraries/STM32F4xx_HAL_Driver/Inc/stm32f4xx_hal.h"
ARM GAS  C:\Users\yzy\AppData\Local\Temp\ccN466ht.s 			page 68


DEFINED SYMBOLS
                            *ABS*:00000000 stm32f4xx_hal_adc_ex.c
C:\Users\yzy\AppData\Local\Temp\ccN466ht.s:16     .text.ADC_MultiModeDMAError:00000000 $t
C:\Users\yzy\AppData\Local\Temp\ccN466ht.s:23     .text.ADC_MultiModeDMAError:00000000 ADC_MultiModeDMAError
C:\Users\yzy\AppData\Local\Temp\ccN466ht.s:59     .text.ADC_MultiModeDMAHalfConvCplt:00000000 $t
C:\Users\yzy\AppData\Local\Temp\ccN466ht.s:65     .text.ADC_MultiModeDMAHalfConvCplt:00000000 ADC_MultiModeDMAHalfConvCplt
C:\Users\yzy\AppData\Local\Temp\ccN466ht.s:92     .text.ADC_MultiModeDMAConvCplt:00000000 $t
C:\Users\yzy\AppData\Local\Temp\ccN466ht.s:98     .text.ADC_MultiModeDMAConvCplt:00000000 ADC_MultiModeDMAConvCplt
C:\Users\yzy\AppData\Local\Temp\ccN466ht.s:192    .text.HAL_ADCEx_InjectedStart:00000000 $t
C:\Users\yzy\AppData\Local\Temp\ccN466ht.s:199    .text.HAL_ADCEx_InjectedStart:00000000 HAL_ADCEx_InjectedStart
C:\Users\yzy\AppData\Local\Temp\ccN466ht.s:420    .text.HAL_ADCEx_InjectedStart:000000e4 $d
C:\Users\yzy\AppData\Local\Temp\ccN466ht.s:428    .text.HAL_ADCEx_InjectedStart_IT:00000000 $t
C:\Users\yzy\AppData\Local\Temp\ccN466ht.s:435    .text.HAL_ADCEx_InjectedStart_IT:00000000 HAL_ADCEx_InjectedStart_IT
C:\Users\yzy\AppData\Local\Temp\ccN466ht.s:661    .text.HAL_ADCEx_InjectedStart_IT:000000ec $d
C:\Users\yzy\AppData\Local\Temp\ccN466ht.s:669    .text.HAL_ADCEx_InjectedStop:00000000 $t
C:\Users\yzy\AppData\Local\Temp\ccN466ht.s:676    .text.HAL_ADCEx_InjectedStop:00000000 HAL_ADCEx_InjectedStop
C:\Users\yzy\AppData\Local\Temp\ccN466ht.s:770    .text.HAL_ADCEx_InjectedPollForConversion:00000000 $t
C:\Users\yzy\AppData\Local\Temp\ccN466ht.s:777    .text.HAL_ADCEx_InjectedPollForConversion:00000000 HAL_ADCEx_InjectedPollForConversion
C:\Users\yzy\AppData\Local\Temp\ccN466ht.s:921    .text.HAL_ADCEx_InjectedStop_IT:00000000 $t
C:\Users\yzy\AppData\Local\Temp\ccN466ht.s:928    .text.HAL_ADCEx_InjectedStop_IT:00000000 HAL_ADCEx_InjectedStop_IT
C:\Users\yzy\AppData\Local\Temp\ccN466ht.s:1026   .text.HAL_ADCEx_InjectedGetValue:00000000 $t
C:\Users\yzy\AppData\Local\Temp\ccN466ht.s:1033   .text.HAL_ADCEx_InjectedGetValue:00000000 HAL_ADCEx_InjectedGetValue
C:\Users\yzy\AppData\Local\Temp\ccN466ht.s:1062   .text.HAL_ADCEx_InjectedGetValue:00000018 $d
C:\Users\yzy\AppData\Local\Temp\ccN466ht.s:1066   .text.HAL_ADCEx_InjectedGetValue:0000001c $t
C:\Users\yzy\AppData\Local\Temp\ccN466ht.s:1125   .text.HAL_ADCEx_MultiModeStart_DMA:00000000 $t
C:\Users\yzy\AppData\Local\Temp\ccN466ht.s:1132   .text.HAL_ADCEx_MultiModeStart_DMA:00000000 HAL_ADCEx_MultiModeStart_DMA
C:\Users\yzy\AppData\Local\Temp\ccN466ht.s:1362   .text.HAL_ADCEx_MultiModeStart_DMA:00000104 $d
C:\Users\yzy\AppData\Local\Temp\ccN466ht.s:1373   .text.HAL_ADCEx_MultiModeStop_DMA:00000000 $t
C:\Users\yzy\AppData\Local\Temp\ccN466ht.s:1380   .text.HAL_ADCEx_MultiModeStop_DMA:00000000 HAL_ADCEx_MultiModeStop_DMA
C:\Users\yzy\AppData\Local\Temp\ccN466ht.s:1473   .text.HAL_ADCEx_MultiModeStop_DMA:00000060 $d
C:\Users\yzy\AppData\Local\Temp\ccN466ht.s:1478   .text.HAL_ADCEx_MultiModeGetValue:00000000 $t
C:\Users\yzy\AppData\Local\Temp\ccN466ht.s:1485   .text.HAL_ADCEx_MultiModeGetValue:00000000 HAL_ADCEx_MultiModeGetValue
C:\Users\yzy\AppData\Local\Temp\ccN466ht.s:1505   .text.HAL_ADCEx_MultiModeGetValue:00000008 $d
C:\Users\yzy\AppData\Local\Temp\ccN466ht.s:1510   .text.HAL_ADCEx_InjectedConvCpltCallback:00000000 $t
C:\Users\yzy\AppData\Local\Temp\ccN466ht.s:1517   .text.HAL_ADCEx_InjectedConvCpltCallback:00000000 HAL_ADCEx_InjectedConvCpltCallback
C:\Users\yzy\AppData\Local\Temp\ccN466ht.s:1532   .text.HAL_ADCEx_InjectedConfigChannel:00000000 $t
C:\Users\yzy\AppData\Local\Temp\ccN466ht.s:1539   .text.HAL_ADCEx_InjectedConfigChannel:00000000 HAL_ADCEx_InjectedConfigChannel
C:\Users\yzy\AppData\Local\Temp\ccN466ht.s:1967   .text.HAL_ADCEx_InjectedConfigChannel:00000200 $d
C:\Users\yzy\AppData\Local\Temp\ccN466ht.s:1974   .text.HAL_ADCEx_MultiModeConfigChannel:00000000 $t
C:\Users\yzy\AppData\Local\Temp\ccN466ht.s:1981   .text.HAL_ADCEx_MultiModeConfigChannel:00000000 HAL_ADCEx_MultiModeConfigChannel
C:\Users\yzy\AppData\Local\Temp\ccN466ht.s:2075   .text.HAL_ADCEx_MultiModeConfigChannel:00000054 $d

UNDEFINED SYMBOLS
HAL_ADC_ErrorCallback
HAL_ADC_ConvHalfCpltCallback
HAL_ADC_ConvCpltCallback
SystemCoreClock
HAL_GetTick
HAL_DMA_Start_IT
HAL_DMA_Abort
