ARM GAS  C:\Users\yzy\AppData\Local\Temp\ccuah9XY.s 			page 1


   1              		.cpu cortex-m4
   2              		.eabi_attribute 20, 1
   3              		.eabi_attribute 21, 1
   4              		.eabi_attribute 23, 3
   5              		.eabi_attribute 24, 1
   6              		.eabi_attribute 25, 1
   7              		.eabi_attribute 26, 1
   8              		.eabi_attribute 30, 1
   9              		.eabi_attribute 34, 1
  10              		.eabi_attribute 18, 4
  11              		.file	"stm32f4xx_hal_rtc_ex.c"
  12              		.text
  13              	.Ltext0:
  14              		.cfi_sections	.debug_frame
  15              		.section	.text.HAL_RTCEx_SetTimeStamp,"ax",%progbits
  16              		.align	1
  17              		.global	HAL_RTCEx_SetTimeStamp
  18              		.arch armv7e-m
  19              		.syntax unified
  20              		.thumb
  21              		.thumb_func
  22              		.fpu softvfp
  24              	HAL_RTCEx_SetTimeStamp:
  25              	.LVL0:
  26              	.LFB130:
  27              		.file 1 "Libraries/STM32F4xx_HAL_Driver/Src/stm32f4xx_hal_rtc_ex.c"
   1:Libraries/STM32F4xx_HAL_Driver/Src/stm32f4xx_hal_rtc_ex.c **** /**
   2:Libraries/STM32F4xx_HAL_Driver/Src/stm32f4xx_hal_rtc_ex.c ****   ******************************************************************************
   3:Libraries/STM32F4xx_HAL_Driver/Src/stm32f4xx_hal_rtc_ex.c ****   * @file    stm32f4xx_hal_rtc_ex.c
   4:Libraries/STM32F4xx_HAL_Driver/Src/stm32f4xx_hal_rtc_ex.c ****   * @author  MCD Application Team
   5:Libraries/STM32F4xx_HAL_Driver/Src/stm32f4xx_hal_rtc_ex.c ****   * @brief   RTC HAL module driver.
   6:Libraries/STM32F4xx_HAL_Driver/Src/stm32f4xx_hal_rtc_ex.c ****   *          This file provides firmware functions to manage the following
   7:Libraries/STM32F4xx_HAL_Driver/Src/stm32f4xx_hal_rtc_ex.c ****   *          functionalities of the Real Time Clock (RTC) Extension peripheral:
   8:Libraries/STM32F4xx_HAL_Driver/Src/stm32f4xx_hal_rtc_ex.c ****   *           + RTC Time Stamp functions
   9:Libraries/STM32F4xx_HAL_Driver/Src/stm32f4xx_hal_rtc_ex.c ****   *           + RTC Tamper functions
  10:Libraries/STM32F4xx_HAL_Driver/Src/stm32f4xx_hal_rtc_ex.c ****   *           + RTC Wake-up functions
  11:Libraries/STM32F4xx_HAL_Driver/Src/stm32f4xx_hal_rtc_ex.c ****   *           + Extension Control functions
  12:Libraries/STM32F4xx_HAL_Driver/Src/stm32f4xx_hal_rtc_ex.c ****   *           + Extension RTC features functions
  13:Libraries/STM32F4xx_HAL_Driver/Src/stm32f4xx_hal_rtc_ex.c ****   *
  14:Libraries/STM32F4xx_HAL_Driver/Src/stm32f4xx_hal_rtc_ex.c ****   @verbatim
  15:Libraries/STM32F4xx_HAL_Driver/Src/stm32f4xx_hal_rtc_ex.c ****   ==============================================================================
  16:Libraries/STM32F4xx_HAL_Driver/Src/stm32f4xx_hal_rtc_ex.c ****                   ##### How to use this driver #####
  17:Libraries/STM32F4xx_HAL_Driver/Src/stm32f4xx_hal_rtc_ex.c ****   ==============================================================================
  18:Libraries/STM32F4xx_HAL_Driver/Src/stm32f4xx_hal_rtc_ex.c ****   [..]
  19:Libraries/STM32F4xx_HAL_Driver/Src/stm32f4xx_hal_rtc_ex.c ****     (+) Enable the RTC domain access.
  20:Libraries/STM32F4xx_HAL_Driver/Src/stm32f4xx_hal_rtc_ex.c ****     (+) Configure the RTC Prescaler (Asynchronous and Synchronous) and RTC hour
  21:Libraries/STM32F4xx_HAL_Driver/Src/stm32f4xx_hal_rtc_ex.c ****         format using the HAL_RTC_Init() function.
  22:Libraries/STM32F4xx_HAL_Driver/Src/stm32f4xx_hal_rtc_ex.c **** 
  23:Libraries/STM32F4xx_HAL_Driver/Src/stm32f4xx_hal_rtc_ex.c ****   *** RTC Wake-up configuration ***
  24:Libraries/STM32F4xx_HAL_Driver/Src/stm32f4xx_hal_rtc_ex.c ****   ================================
  25:Libraries/STM32F4xx_HAL_Driver/Src/stm32f4xx_hal_rtc_ex.c ****   [..]
  26:Libraries/STM32F4xx_HAL_Driver/Src/stm32f4xx_hal_rtc_ex.c ****     (+) To configure the RTC Wake-up Clock source and Counter use the HAL_RTCEx_SetWakeUpTimer()
  27:Libraries/STM32F4xx_HAL_Driver/Src/stm32f4xx_hal_rtc_ex.c ****         function. You can also configure the RTC Wake-up timer in interrupt mode
  28:Libraries/STM32F4xx_HAL_Driver/Src/stm32f4xx_hal_rtc_ex.c ****         using the HAL_RTCEx_SetWakeUpTimer_IT() function.
  29:Libraries/STM32F4xx_HAL_Driver/Src/stm32f4xx_hal_rtc_ex.c ****     (+) To read the RTC Wake-up Counter register, use the HAL_RTCEx_GetWakeUpTimer()
  30:Libraries/STM32F4xx_HAL_Driver/Src/stm32f4xx_hal_rtc_ex.c ****         function.
  31:Libraries/STM32F4xx_HAL_Driver/Src/stm32f4xx_hal_rtc_ex.c **** 
ARM GAS  C:\Users\yzy\AppData\Local\Temp\ccuah9XY.s 			page 2


  32:Libraries/STM32F4xx_HAL_Driver/Src/stm32f4xx_hal_rtc_ex.c ****   *** TimeStamp configuration ***
  33:Libraries/STM32F4xx_HAL_Driver/Src/stm32f4xx_hal_rtc_ex.c ****   ===============================
  34:Libraries/STM32F4xx_HAL_Driver/Src/stm32f4xx_hal_rtc_ex.c ****   [..]
  35:Libraries/STM32F4xx_HAL_Driver/Src/stm32f4xx_hal_rtc_ex.c ****     (+) Configure the RTC_AFx trigger and enable the RTC TimeStamp using the
  36:Libraries/STM32F4xx_HAL_Driver/Src/stm32f4xx_hal_rtc_ex.c ****         HAL_RTCEx_SetTimeStamp() function. You can also configure the RTC TimeStamp with
  37:Libraries/STM32F4xx_HAL_Driver/Src/stm32f4xx_hal_rtc_ex.c ****         interrupt mode using the HAL_RTCEx_SetTimeStamp_IT() function.
  38:Libraries/STM32F4xx_HAL_Driver/Src/stm32f4xx_hal_rtc_ex.c ****     (+) To read the RTC TimeStamp Time and Date register, use the HAL_RTCEx_GetTimeStamp()
  39:Libraries/STM32F4xx_HAL_Driver/Src/stm32f4xx_hal_rtc_ex.c ****         function.
  40:Libraries/STM32F4xx_HAL_Driver/Src/stm32f4xx_hal_rtc_ex.c ****     (+) The TIMESTAMP alternate function can be mapped either to RTC_AF1 (PC13)
  41:Libraries/STM32F4xx_HAL_Driver/Src/stm32f4xx_hal_rtc_ex.c ****         or RTC_AF2 (PI8 or PA0 only for STM32F446xx devices) depending on the value of TSINSEL bit 
  42:Libraries/STM32F4xx_HAL_Driver/Src/stm32f4xx_hal_rtc_ex.c ****         RTC_TAFCR register. The corresponding pin is also selected by HAL_RTCEx_SetTimeStamp()
  43:Libraries/STM32F4xx_HAL_Driver/Src/stm32f4xx_hal_rtc_ex.c ****         or HAL_RTCEx_SetTimeStamp_IT() function.
  44:Libraries/STM32F4xx_HAL_Driver/Src/stm32f4xx_hal_rtc_ex.c **** 
  45:Libraries/STM32F4xx_HAL_Driver/Src/stm32f4xx_hal_rtc_ex.c ****   *** Tamper configuration ***
  46:Libraries/STM32F4xx_HAL_Driver/Src/stm32f4xx_hal_rtc_ex.c ****   ============================
  47:Libraries/STM32F4xx_HAL_Driver/Src/stm32f4xx_hal_rtc_ex.c ****   [..]
  48:Libraries/STM32F4xx_HAL_Driver/Src/stm32f4xx_hal_rtc_ex.c ****     (+) Enable the RTC Tamper and configure the Tamper filter count, trigger Edge
  49:Libraries/STM32F4xx_HAL_Driver/Src/stm32f4xx_hal_rtc_ex.c ****         or Level according to the Tamper filter (if equal to 0 Edge else Level)
  50:Libraries/STM32F4xx_HAL_Driver/Src/stm32f4xx_hal_rtc_ex.c ****         value, sampling frequency, precharge or discharge and Pull-UP using the
  51:Libraries/STM32F4xx_HAL_Driver/Src/stm32f4xx_hal_rtc_ex.c ****         HAL_RTCEx_SetTamper() function. You can configure RTC Tamper in interrupt
  52:Libraries/STM32F4xx_HAL_Driver/Src/stm32f4xx_hal_rtc_ex.c ****         mode using HAL_RTCEx_SetTamper_IT() function.
  53:Libraries/STM32F4xx_HAL_Driver/Src/stm32f4xx_hal_rtc_ex.c ****     (+) The TAMPER1 alternate function can be mapped either to RTC_AF1 (PC13)
  54:Libraries/STM32F4xx_HAL_Driver/Src/stm32f4xx_hal_rtc_ex.c ****         or RTC_AF2 (PI8 or PA0 only for STM32F446xx devices) depending on the value of TAMP1INSEL b
  55:Libraries/STM32F4xx_HAL_Driver/Src/stm32f4xx_hal_rtc_ex.c ****         RTC_TAFCR register. The corresponding pin is also selected by HAL_RTCEx_SetTamper()
  56:Libraries/STM32F4xx_HAL_Driver/Src/stm32f4xx_hal_rtc_ex.c ****         or HAL_RTCEx_SetTamper_IT() function.
  57:Libraries/STM32F4xx_HAL_Driver/Src/stm32f4xx_hal_rtc_ex.c **** 
  58:Libraries/STM32F4xx_HAL_Driver/Src/stm32f4xx_hal_rtc_ex.c ****   *** Backup Data Registers configuration ***
  59:Libraries/STM32F4xx_HAL_Driver/Src/stm32f4xx_hal_rtc_ex.c ****   ===========================================
  60:Libraries/STM32F4xx_HAL_Driver/Src/stm32f4xx_hal_rtc_ex.c ****   [..]
  61:Libraries/STM32F4xx_HAL_Driver/Src/stm32f4xx_hal_rtc_ex.c ****     (+) To write to the RTC Backup Data registers, use the HAL_RTCEx_BKUPWrite()
  62:Libraries/STM32F4xx_HAL_Driver/Src/stm32f4xx_hal_rtc_ex.c ****         function.
  63:Libraries/STM32F4xx_HAL_Driver/Src/stm32f4xx_hal_rtc_ex.c ****     (+) To read the RTC Backup Data registers, use the HAL_RTCEx_BKUPRead()
  64:Libraries/STM32F4xx_HAL_Driver/Src/stm32f4xx_hal_rtc_ex.c ****         function.
  65:Libraries/STM32F4xx_HAL_Driver/Src/stm32f4xx_hal_rtc_ex.c **** 
  66:Libraries/STM32F4xx_HAL_Driver/Src/stm32f4xx_hal_rtc_ex.c ****    @endverbatim
  67:Libraries/STM32F4xx_HAL_Driver/Src/stm32f4xx_hal_rtc_ex.c ****   ******************************************************************************
  68:Libraries/STM32F4xx_HAL_Driver/Src/stm32f4xx_hal_rtc_ex.c ****   * @attention
  69:Libraries/STM32F4xx_HAL_Driver/Src/stm32f4xx_hal_rtc_ex.c ****   *
  70:Libraries/STM32F4xx_HAL_Driver/Src/stm32f4xx_hal_rtc_ex.c ****   * <h2><center>&copy; Copyright (c) 2017 STMicroelectronics.
  71:Libraries/STM32F4xx_HAL_Driver/Src/stm32f4xx_hal_rtc_ex.c ****   * All rights reserved.</center></h2>
  72:Libraries/STM32F4xx_HAL_Driver/Src/stm32f4xx_hal_rtc_ex.c ****   *
  73:Libraries/STM32F4xx_HAL_Driver/Src/stm32f4xx_hal_rtc_ex.c ****   * This software component is licensed by ST under BSD 3-Clause license,
  74:Libraries/STM32F4xx_HAL_Driver/Src/stm32f4xx_hal_rtc_ex.c ****   * the "License"; You may not use this file except in compliance with the
  75:Libraries/STM32F4xx_HAL_Driver/Src/stm32f4xx_hal_rtc_ex.c ****   * License. You may obtain a copy of the License at:
  76:Libraries/STM32F4xx_HAL_Driver/Src/stm32f4xx_hal_rtc_ex.c ****   *                        opensource.org/licenses/BSD-3-Clause
  77:Libraries/STM32F4xx_HAL_Driver/Src/stm32f4xx_hal_rtc_ex.c ****   *
  78:Libraries/STM32F4xx_HAL_Driver/Src/stm32f4xx_hal_rtc_ex.c ****   ******************************************************************************
  79:Libraries/STM32F4xx_HAL_Driver/Src/stm32f4xx_hal_rtc_ex.c ****   */
  80:Libraries/STM32F4xx_HAL_Driver/Src/stm32f4xx_hal_rtc_ex.c **** 
  81:Libraries/STM32F4xx_HAL_Driver/Src/stm32f4xx_hal_rtc_ex.c **** /* Includes ------------------------------------------------------------------*/
  82:Libraries/STM32F4xx_HAL_Driver/Src/stm32f4xx_hal_rtc_ex.c **** #include "stm32f4xx_hal.h"
  83:Libraries/STM32F4xx_HAL_Driver/Src/stm32f4xx_hal_rtc_ex.c **** 
  84:Libraries/STM32F4xx_HAL_Driver/Src/stm32f4xx_hal_rtc_ex.c **** /** @addtogroup STM32F4xx_HAL_Driver
  85:Libraries/STM32F4xx_HAL_Driver/Src/stm32f4xx_hal_rtc_ex.c ****   * @{
  86:Libraries/STM32F4xx_HAL_Driver/Src/stm32f4xx_hal_rtc_ex.c ****   */
  87:Libraries/STM32F4xx_HAL_Driver/Src/stm32f4xx_hal_rtc_ex.c **** 
  88:Libraries/STM32F4xx_HAL_Driver/Src/stm32f4xx_hal_rtc_ex.c **** /** @defgroup RTCEx RTCEx
ARM GAS  C:\Users\yzy\AppData\Local\Temp\ccuah9XY.s 			page 3


  89:Libraries/STM32F4xx_HAL_Driver/Src/stm32f4xx_hal_rtc_ex.c ****   * @brief RTC HAL module driver
  90:Libraries/STM32F4xx_HAL_Driver/Src/stm32f4xx_hal_rtc_ex.c ****   * @{
  91:Libraries/STM32F4xx_HAL_Driver/Src/stm32f4xx_hal_rtc_ex.c ****   */
  92:Libraries/STM32F4xx_HAL_Driver/Src/stm32f4xx_hal_rtc_ex.c **** 
  93:Libraries/STM32F4xx_HAL_Driver/Src/stm32f4xx_hal_rtc_ex.c **** #ifdef HAL_RTC_MODULE_ENABLED
  94:Libraries/STM32F4xx_HAL_Driver/Src/stm32f4xx_hal_rtc_ex.c **** 
  95:Libraries/STM32F4xx_HAL_Driver/Src/stm32f4xx_hal_rtc_ex.c **** /* Private typedef -----------------------------------------------------------*/
  96:Libraries/STM32F4xx_HAL_Driver/Src/stm32f4xx_hal_rtc_ex.c **** /* Private define ------------------------------------------------------------*/
  97:Libraries/STM32F4xx_HAL_Driver/Src/stm32f4xx_hal_rtc_ex.c **** /* Private macro -------------------------------------------------------------*/
  98:Libraries/STM32F4xx_HAL_Driver/Src/stm32f4xx_hal_rtc_ex.c **** /* Private variables ---------------------------------------------------------*/
  99:Libraries/STM32F4xx_HAL_Driver/Src/stm32f4xx_hal_rtc_ex.c **** /* Private function prototypes -----------------------------------------------*/
 100:Libraries/STM32F4xx_HAL_Driver/Src/stm32f4xx_hal_rtc_ex.c **** /* Private functions ---------------------------------------------------------*/
 101:Libraries/STM32F4xx_HAL_Driver/Src/stm32f4xx_hal_rtc_ex.c **** 
 102:Libraries/STM32F4xx_HAL_Driver/Src/stm32f4xx_hal_rtc_ex.c **** /** @defgroup RTCEx_Exported_Functions RTCEx Exported Functions
 103:Libraries/STM32F4xx_HAL_Driver/Src/stm32f4xx_hal_rtc_ex.c ****   * @{
 104:Libraries/STM32F4xx_HAL_Driver/Src/stm32f4xx_hal_rtc_ex.c ****   */
 105:Libraries/STM32F4xx_HAL_Driver/Src/stm32f4xx_hal_rtc_ex.c **** 
 106:Libraries/STM32F4xx_HAL_Driver/Src/stm32f4xx_hal_rtc_ex.c **** /** @defgroup RTCEx_Exported_Functions_Group1 RTC TimeStamp and Tamper functions
 107:Libraries/STM32F4xx_HAL_Driver/Src/stm32f4xx_hal_rtc_ex.c ****  *  @brief   RTC TimeStamp and Tamper functions
 108:Libraries/STM32F4xx_HAL_Driver/Src/stm32f4xx_hal_rtc_ex.c ****  *
 109:Libraries/STM32F4xx_HAL_Driver/Src/stm32f4xx_hal_rtc_ex.c **** @verbatim
 110:Libraries/STM32F4xx_HAL_Driver/Src/stm32f4xx_hal_rtc_ex.c ****  ===============================================================================
 111:Libraries/STM32F4xx_HAL_Driver/Src/stm32f4xx_hal_rtc_ex.c ****                  ##### RTC TimeStamp and Tamper functions #####
 112:Libraries/STM32F4xx_HAL_Driver/Src/stm32f4xx_hal_rtc_ex.c ****  ===============================================================================
 113:Libraries/STM32F4xx_HAL_Driver/Src/stm32f4xx_hal_rtc_ex.c **** 
 114:Libraries/STM32F4xx_HAL_Driver/Src/stm32f4xx_hal_rtc_ex.c ****  [..] This section provides functions allowing to configure TimeStamp feature
 115:Libraries/STM32F4xx_HAL_Driver/Src/stm32f4xx_hal_rtc_ex.c **** 
 116:Libraries/STM32F4xx_HAL_Driver/Src/stm32f4xx_hal_rtc_ex.c **** @endverbatim
 117:Libraries/STM32F4xx_HAL_Driver/Src/stm32f4xx_hal_rtc_ex.c ****   * @{
 118:Libraries/STM32F4xx_HAL_Driver/Src/stm32f4xx_hal_rtc_ex.c ****   */
 119:Libraries/STM32F4xx_HAL_Driver/Src/stm32f4xx_hal_rtc_ex.c **** 
 120:Libraries/STM32F4xx_HAL_Driver/Src/stm32f4xx_hal_rtc_ex.c **** /**
 121:Libraries/STM32F4xx_HAL_Driver/Src/stm32f4xx_hal_rtc_ex.c ****   * @brief  Sets TimeStamp.
 122:Libraries/STM32F4xx_HAL_Driver/Src/stm32f4xx_hal_rtc_ex.c ****   * @note   This API must be called before enabling the TimeStamp feature.
 123:Libraries/STM32F4xx_HAL_Driver/Src/stm32f4xx_hal_rtc_ex.c ****   * @param  hrtc pointer to a RTC_HandleTypeDef structure that contains
 124:Libraries/STM32F4xx_HAL_Driver/Src/stm32f4xx_hal_rtc_ex.c ****   *                the configuration information for RTC.
 125:Libraries/STM32F4xx_HAL_Driver/Src/stm32f4xx_hal_rtc_ex.c ****   * @param  TimeStampEdge Specifies the pin edge on which the TimeStamp is
 126:Libraries/STM32F4xx_HAL_Driver/Src/stm32f4xx_hal_rtc_ex.c ****   *         activated.
 127:Libraries/STM32F4xx_HAL_Driver/Src/stm32f4xx_hal_rtc_ex.c ****   *          This parameter can be one of the following values:
 128:Libraries/STM32F4xx_HAL_Driver/Src/stm32f4xx_hal_rtc_ex.c ****   *             @arg RTC_TIMESTAMPEDGE_RISING: the Time stamp event occurs on the
 129:Libraries/STM32F4xx_HAL_Driver/Src/stm32f4xx_hal_rtc_ex.c ****   *                                        rising edge of the related pin.
 130:Libraries/STM32F4xx_HAL_Driver/Src/stm32f4xx_hal_rtc_ex.c ****   *             @arg RTC_TIMESTAMPEDGE_FALLING: the Time stamp event occurs on the
 131:Libraries/STM32F4xx_HAL_Driver/Src/stm32f4xx_hal_rtc_ex.c ****   *                                         falling edge of the related pin.
 132:Libraries/STM32F4xx_HAL_Driver/Src/stm32f4xx_hal_rtc_ex.c ****   * @param  RTC_TimeStampPin specifies the RTC TimeStamp Pin.
 133:Libraries/STM32F4xx_HAL_Driver/Src/stm32f4xx_hal_rtc_ex.c ****   *          This parameter can be one of the following values:
 134:Libraries/STM32F4xx_HAL_Driver/Src/stm32f4xx_hal_rtc_ex.c ****   *             @arg RTC_TIMESTAMPPIN_DEFAULT: PC13 is selected as RTC TimeStamp Pin.
 135:Libraries/STM32F4xx_HAL_Driver/Src/stm32f4xx_hal_rtc_ex.c ****   *             @arg RTC_TIMESTAMPPIN_POS1: PI8/PA0 is selected as RTC TimeStamp Pin.
 136:Libraries/STM32F4xx_HAL_Driver/Src/stm32f4xx_hal_rtc_ex.c ****   *             (not applicable in the case of STM32F412xx, STM32F413xx and STM32F423xx devices)
 137:Libraries/STM32F4xx_HAL_Driver/Src/stm32f4xx_hal_rtc_ex.c ****   *             (PI8 for all STM32 devices except for STM32F446xx devices the PA0 is used)
 138:Libraries/STM32F4xx_HAL_Driver/Src/stm32f4xx_hal_rtc_ex.c ****   *             @arg RTC_TIMESTAMPPIN_PA0: PA0 is selected as RTC TimeStamp Pin only for STM32F446x
 139:Libraries/STM32F4xx_HAL_Driver/Src/stm32f4xx_hal_rtc_ex.c ****   * @retval HAL status
 140:Libraries/STM32F4xx_HAL_Driver/Src/stm32f4xx_hal_rtc_ex.c ****   */
 141:Libraries/STM32F4xx_HAL_Driver/Src/stm32f4xx_hal_rtc_ex.c **** HAL_StatusTypeDef HAL_RTCEx_SetTimeStamp(RTC_HandleTypeDef *hrtc, uint32_t TimeStampEdge, uint32_t 
 142:Libraries/STM32F4xx_HAL_Driver/Src/stm32f4xx_hal_rtc_ex.c **** {
  28              		.loc 1 142 1 view -0
  29              		.cfi_startproc
  30              		@ args = 0, pretend = 0, frame = 0
ARM GAS  C:\Users\yzy\AppData\Local\Temp\ccuah9XY.s 			page 4


  31              		@ frame_needed = 0, uses_anonymous_args = 0
  32              		@ link register save eliminated.
 143:Libraries/STM32F4xx_HAL_Driver/Src/stm32f4xx_hal_rtc_ex.c ****   uint32_t tmpreg = 0U;
  33              		.loc 1 143 3 view .LVU1
 144:Libraries/STM32F4xx_HAL_Driver/Src/stm32f4xx_hal_rtc_ex.c **** 
 145:Libraries/STM32F4xx_HAL_Driver/Src/stm32f4xx_hal_rtc_ex.c ****   /* Check the parameters */
 146:Libraries/STM32F4xx_HAL_Driver/Src/stm32f4xx_hal_rtc_ex.c ****   assert_param(IS_TIMESTAMP_EDGE(TimeStampEdge));
  34              		.loc 1 146 3 view .LVU2
 147:Libraries/STM32F4xx_HAL_Driver/Src/stm32f4xx_hal_rtc_ex.c ****   assert_param(IS_RTC_TIMESTAMP_PIN(RTC_TimeStampPin));
  35              		.loc 1 147 3 view .LVU3
 148:Libraries/STM32F4xx_HAL_Driver/Src/stm32f4xx_hal_rtc_ex.c **** 
 149:Libraries/STM32F4xx_HAL_Driver/Src/stm32f4xx_hal_rtc_ex.c ****   /* Process Locked */
 150:Libraries/STM32F4xx_HAL_Driver/Src/stm32f4xx_hal_rtc_ex.c ****   __HAL_LOCK(hrtc);
  36              		.loc 1 150 3 view .LVU4
  37              		.loc 1 150 3 view .LVU5
  38 0000 037F     		ldrb	r3, [r0, #28]	@ zero_extendqisi2
  39 0002 012B     		cmp	r3, #1
  40 0004 29D0     		beq	.L3
 142:Libraries/STM32F4xx_HAL_Driver/Src/stm32f4xx_hal_rtc_ex.c ****   uint32_t tmpreg = 0U;
  41              		.loc 1 142 1 is_stmt 0 discriminator 2 view .LVU6
  42 0006 70B4     		push	{r4, r5, r6}
  43              	.LCFI0:
  44              		.cfi_def_cfa_offset 12
  45              		.cfi_offset 4, -12
  46              		.cfi_offset 5, -8
  47              		.cfi_offset 6, -4
  48              		.loc 1 150 3 is_stmt 1 discriminator 2 view .LVU7
  49 0008 0125     		movs	r5, #1
  50 000a 0577     		strb	r5, [r0, #28]
  51              		.loc 1 150 3 discriminator 2 view .LVU8
 151:Libraries/STM32F4xx_HAL_Driver/Src/stm32f4xx_hal_rtc_ex.c **** 
 152:Libraries/STM32F4xx_HAL_Driver/Src/stm32f4xx_hal_rtc_ex.c ****   hrtc->State = HAL_RTC_STATE_BUSY;
  52              		.loc 1 152 3 discriminator 2 view .LVU9
  53              		.loc 1 152 15 is_stmt 0 discriminator 2 view .LVU10
  54 000c 0223     		movs	r3, #2
  55 000e 4377     		strb	r3, [r0, #29]
 153:Libraries/STM32F4xx_HAL_Driver/Src/stm32f4xx_hal_rtc_ex.c **** 
 154:Libraries/STM32F4xx_HAL_Driver/Src/stm32f4xx_hal_rtc_ex.c ****   /* Get the RTC_CR register and clear the bits to be configured */
 155:Libraries/STM32F4xx_HAL_Driver/Src/stm32f4xx_hal_rtc_ex.c ****   tmpreg = (uint32_t)(hrtc->Instance->CR & (uint32_t)~(RTC_CR_TSEDGE | RTC_CR_TSE));
  56              		.loc 1 155 3 is_stmt 1 discriminator 2 view .LVU11
  57              		.loc 1 155 27 is_stmt 0 discriminator 2 view .LVU12
  58 0010 0668     		ldr	r6, [r0]
  59              		.loc 1 155 37 discriminator 2 view .LVU13
  60 0012 B368     		ldr	r3, [r6, #8]
  61              		.loc 1 155 10 discriminator 2 view .LVU14
  62 0014 23F40063 		bic	r3, r3, #2048
  63 0018 23F00803 		bic	r3, r3, #8
  64              	.LVL1:
 156:Libraries/STM32F4xx_HAL_Driver/Src/stm32f4xx_hal_rtc_ex.c **** 
 157:Libraries/STM32F4xx_HAL_Driver/Src/stm32f4xx_hal_rtc_ex.c ****   tmpreg|= TimeStampEdge;
  65              		.loc 1 157 3 is_stmt 1 discriminator 2 view .LVU15
  66              		.loc 1 157 9 is_stmt 0 discriminator 2 view .LVU16
  67 001c 0B43     		orrs	r3, r3, r1
  68              	.LVL2:
 158:Libraries/STM32F4xx_HAL_Driver/Src/stm32f4xx_hal_rtc_ex.c **** 
 159:Libraries/STM32F4xx_HAL_Driver/Src/stm32f4xx_hal_rtc_ex.c ****   /* Disable the write protection for RTC registers */
 160:Libraries/STM32F4xx_HAL_Driver/Src/stm32f4xx_hal_rtc_ex.c ****   __HAL_RTC_WRITEPROTECTION_DISABLE(hrtc);
ARM GAS  C:\Users\yzy\AppData\Local\Temp\ccuah9XY.s 			page 5


  69              		.loc 1 160 3 is_stmt 1 discriminator 2 view .LVU17
  70              		.loc 1 160 3 discriminator 2 view .LVU18
  71 001e CA21     		movs	r1, #202
  72              	.LVL3:
  73              		.loc 1 160 3 is_stmt 0 discriminator 2 view .LVU19
  74 0020 7162     		str	r1, [r6, #36]
  75              		.loc 1 160 3 is_stmt 1 discriminator 2 view .LVU20
  76 0022 0168     		ldr	r1, [r0]
  77 0024 5324     		movs	r4, #83
  78 0026 4C62     		str	r4, [r1, #36]
  79              		.loc 1 160 3 discriminator 2 view .LVU21
 161:Libraries/STM32F4xx_HAL_Driver/Src/stm32f4xx_hal_rtc_ex.c **** 
 162:Libraries/STM32F4xx_HAL_Driver/Src/stm32f4xx_hal_rtc_ex.c ****   hrtc->Instance->TAFCR &= (uint32_t)~RTC_TAFCR_TSINSEL;
  80              		.loc 1 162 3 discriminator 2 view .LVU22
  81              		.loc 1 162 7 is_stmt 0 discriminator 2 view .LVU23
  82 0028 0468     		ldr	r4, [r0]
  83              		.loc 1 162 25 discriminator 2 view .LVU24
  84 002a 216C     		ldr	r1, [r4, #64]
  85 002c 21F40031 		bic	r1, r1, #131072
  86 0030 2164     		str	r1, [r4, #64]
 163:Libraries/STM32F4xx_HAL_Driver/Src/stm32f4xx_hal_rtc_ex.c ****   hrtc->Instance->TAFCR |= (uint32_t)(RTC_TimeStampPin);
  87              		.loc 1 163 3 is_stmt 1 discriminator 2 view .LVU25
  88              		.loc 1 163 7 is_stmt 0 discriminator 2 view .LVU26
  89 0032 0468     		ldr	r4, [r0]
  90              		.loc 1 163 25 discriminator 2 view .LVU27
  91 0034 216C     		ldr	r1, [r4, #64]
  92 0036 0A43     		orrs	r2, r2, r1
  93              	.LVL4:
  94              		.loc 1 163 25 discriminator 2 view .LVU28
  95 0038 2264     		str	r2, [r4, #64]
 164:Libraries/STM32F4xx_HAL_Driver/Src/stm32f4xx_hal_rtc_ex.c **** 
 165:Libraries/STM32F4xx_HAL_Driver/Src/stm32f4xx_hal_rtc_ex.c ****   /* Configure the Time Stamp TSEDGE and Enable bits */
 166:Libraries/STM32F4xx_HAL_Driver/Src/stm32f4xx_hal_rtc_ex.c ****   hrtc->Instance->CR = (uint32_t)tmpreg;
  96              		.loc 1 166 3 is_stmt 1 discriminator 2 view .LVU29
  97              		.loc 1 166 7 is_stmt 0 discriminator 2 view .LVU30
  98 003a 0268     		ldr	r2, [r0]
  99              		.loc 1 166 22 discriminator 2 view .LVU31
 100 003c 9360     		str	r3, [r2, #8]
 167:Libraries/STM32F4xx_HAL_Driver/Src/stm32f4xx_hal_rtc_ex.c **** 
 168:Libraries/STM32F4xx_HAL_Driver/Src/stm32f4xx_hal_rtc_ex.c ****   __HAL_RTC_TIMESTAMP_ENABLE(hrtc);
 101              		.loc 1 168 3 is_stmt 1 discriminator 2 view .LVU32
 102 003e 0268     		ldr	r2, [r0]
 103 0040 9368     		ldr	r3, [r2, #8]
 104              	.LVL5:
 105              		.loc 1 168 3 is_stmt 0 discriminator 2 view .LVU33
 106 0042 43F40063 		orr	r3, r3, #2048
 107 0046 9360     		str	r3, [r2, #8]
 169:Libraries/STM32F4xx_HAL_Driver/Src/stm32f4xx_hal_rtc_ex.c **** 
 170:Libraries/STM32F4xx_HAL_Driver/Src/stm32f4xx_hal_rtc_ex.c ****   /* Enable the write protection for RTC registers */
 171:Libraries/STM32F4xx_HAL_Driver/Src/stm32f4xx_hal_rtc_ex.c ****   __HAL_RTC_WRITEPROTECTION_ENABLE(hrtc);
 108              		.loc 1 171 3 is_stmt 1 discriminator 2 view .LVU34
 109              		.loc 1 171 3 discriminator 2 view .LVU35
 110 0048 0368     		ldr	r3, [r0]
 111 004a FF22     		movs	r2, #255
 112 004c 5A62     		str	r2, [r3, #36]
 113              		.loc 1 171 3 discriminator 2 view .LVU36
 172:Libraries/STM32F4xx_HAL_Driver/Src/stm32f4xx_hal_rtc_ex.c **** 
ARM GAS  C:\Users\yzy\AppData\Local\Temp\ccuah9XY.s 			page 6


 173:Libraries/STM32F4xx_HAL_Driver/Src/stm32f4xx_hal_rtc_ex.c ****   /* Change RTC state */
 174:Libraries/STM32F4xx_HAL_Driver/Src/stm32f4xx_hal_rtc_ex.c ****   hrtc->State = HAL_RTC_STATE_READY;
 114              		.loc 1 174 3 discriminator 2 view .LVU37
 115              		.loc 1 174 15 is_stmt 0 discriminator 2 view .LVU38
 116 004e 4577     		strb	r5, [r0, #29]
 175:Libraries/STM32F4xx_HAL_Driver/Src/stm32f4xx_hal_rtc_ex.c **** 
 176:Libraries/STM32F4xx_HAL_Driver/Src/stm32f4xx_hal_rtc_ex.c ****   /* Process Unlocked */
 177:Libraries/STM32F4xx_HAL_Driver/Src/stm32f4xx_hal_rtc_ex.c ****   __HAL_UNLOCK(hrtc);
 117              		.loc 1 177 3 is_stmt 1 discriminator 2 view .LVU39
 118              		.loc 1 177 3 discriminator 2 view .LVU40
 119 0050 0023     		movs	r3, #0
 120 0052 0377     		strb	r3, [r0, #28]
 121              		.loc 1 177 3 discriminator 2 view .LVU41
 178:Libraries/STM32F4xx_HAL_Driver/Src/stm32f4xx_hal_rtc_ex.c **** 
 179:Libraries/STM32F4xx_HAL_Driver/Src/stm32f4xx_hal_rtc_ex.c ****   return HAL_OK;
 122              		.loc 1 179 3 discriminator 2 view .LVU42
 123              		.loc 1 179 10 is_stmt 0 discriminator 2 view .LVU43
 124 0054 1846     		mov	r0, r3
 125              	.LVL6:
 180:Libraries/STM32F4xx_HAL_Driver/Src/stm32f4xx_hal_rtc_ex.c **** }
 126              		.loc 1 180 1 discriminator 2 view .LVU44
 127 0056 70BC     		pop	{r4, r5, r6}
 128              	.LCFI1:
 129              		.cfi_restore 6
 130              		.cfi_restore 5
 131              		.cfi_restore 4
 132              		.cfi_def_cfa_offset 0
 133 0058 7047     		bx	lr
 134              	.LVL7:
 135              	.L3:
 150:Libraries/STM32F4xx_HAL_Driver/Src/stm32f4xx_hal_rtc_ex.c **** 
 136              		.loc 1 150 3 view .LVU45
 137 005a 0220     		movs	r0, #2
 138              	.LVL8:
 139              		.loc 1 180 1 view .LVU46
 140 005c 7047     		bx	lr
 141              		.cfi_endproc
 142              	.LFE130:
 144              		.section	.text.HAL_RTCEx_SetTimeStamp_IT,"ax",%progbits
 145              		.align	1
 146              		.global	HAL_RTCEx_SetTimeStamp_IT
 147              		.syntax unified
 148              		.thumb
 149              		.thumb_func
 150              		.fpu softvfp
 152              	HAL_RTCEx_SetTimeStamp_IT:
 153              	.LVL9:
 154              	.LFB131:
 181:Libraries/STM32F4xx_HAL_Driver/Src/stm32f4xx_hal_rtc_ex.c **** 
 182:Libraries/STM32F4xx_HAL_Driver/Src/stm32f4xx_hal_rtc_ex.c **** /**
 183:Libraries/STM32F4xx_HAL_Driver/Src/stm32f4xx_hal_rtc_ex.c ****   * @brief  Sets TimeStamp with Interrupt.
 184:Libraries/STM32F4xx_HAL_Driver/Src/stm32f4xx_hal_rtc_ex.c ****   * @param  hrtc pointer to a RTC_HandleTypeDef structure that contains
 185:Libraries/STM32F4xx_HAL_Driver/Src/stm32f4xx_hal_rtc_ex.c ****   *                the configuration information for RTC.
 186:Libraries/STM32F4xx_HAL_Driver/Src/stm32f4xx_hal_rtc_ex.c ****   * @note   This API must be called before enabling the TimeStamp feature.
 187:Libraries/STM32F4xx_HAL_Driver/Src/stm32f4xx_hal_rtc_ex.c ****   * @param  TimeStampEdge Specifies the pin edge on which the TimeStamp is
 188:Libraries/STM32F4xx_HAL_Driver/Src/stm32f4xx_hal_rtc_ex.c ****   *         activated.
 189:Libraries/STM32F4xx_HAL_Driver/Src/stm32f4xx_hal_rtc_ex.c ****   *          This parameter can be one of the following values:
ARM GAS  C:\Users\yzy\AppData\Local\Temp\ccuah9XY.s 			page 7


 190:Libraries/STM32F4xx_HAL_Driver/Src/stm32f4xx_hal_rtc_ex.c ****   *             @arg RTC_TIMESTAMPEDGE_RISING: the Time stamp event occurs on the
 191:Libraries/STM32F4xx_HAL_Driver/Src/stm32f4xx_hal_rtc_ex.c ****   *                                        rising edge of the related pin.
 192:Libraries/STM32F4xx_HAL_Driver/Src/stm32f4xx_hal_rtc_ex.c ****   *             @arg RTC_TIMESTAMPEDGE_FALLING: the Time stamp event occurs on the
 193:Libraries/STM32F4xx_HAL_Driver/Src/stm32f4xx_hal_rtc_ex.c ****   *                                         falling edge of the related pin.
 194:Libraries/STM32F4xx_HAL_Driver/Src/stm32f4xx_hal_rtc_ex.c ****   * @param  RTC_TimeStampPin Specifies the RTC TimeStamp Pin.
 195:Libraries/STM32F4xx_HAL_Driver/Src/stm32f4xx_hal_rtc_ex.c ****   *          This parameter can be one of the following values:
 196:Libraries/STM32F4xx_HAL_Driver/Src/stm32f4xx_hal_rtc_ex.c ****   *             @arg RTC_TIMESTAMPPIN_DEFAULT: PC13 is selected as RTC TimeStamp Pin.
 197:Libraries/STM32F4xx_HAL_Driver/Src/stm32f4xx_hal_rtc_ex.c ****   *             @arg RTC_TIMESTAMPPIN_PI8: PI8 is selected as RTC TimeStamp Pin. (not applicable in
 198:Libraries/STM32F4xx_HAL_Driver/Src/stm32f4xx_hal_rtc_ex.c ****   *             @arg RTC_TIMESTAMPPIN_PA0: PA0 is selected as RTC TimeStamp Pin only for STM32F446x
 199:Libraries/STM32F4xx_HAL_Driver/Src/stm32f4xx_hal_rtc_ex.c ****   * @retval HAL status
 200:Libraries/STM32F4xx_HAL_Driver/Src/stm32f4xx_hal_rtc_ex.c ****   */
 201:Libraries/STM32F4xx_HAL_Driver/Src/stm32f4xx_hal_rtc_ex.c **** HAL_StatusTypeDef HAL_RTCEx_SetTimeStamp_IT(RTC_HandleTypeDef *hrtc, uint32_t TimeStampEdge, uint32
 202:Libraries/STM32F4xx_HAL_Driver/Src/stm32f4xx_hal_rtc_ex.c **** {
 155              		.loc 1 202 1 is_stmt 1 view -0
 156              		.cfi_startproc
 157              		@ args = 0, pretend = 0, frame = 0
 158              		@ frame_needed = 0, uses_anonymous_args = 0
 159              		@ link register save eliminated.
 203:Libraries/STM32F4xx_HAL_Driver/Src/stm32f4xx_hal_rtc_ex.c ****   uint32_t tmpreg = 0U;
 160              		.loc 1 203 3 view .LVU48
 204:Libraries/STM32F4xx_HAL_Driver/Src/stm32f4xx_hal_rtc_ex.c **** 
 205:Libraries/STM32F4xx_HAL_Driver/Src/stm32f4xx_hal_rtc_ex.c ****   /* Check the parameters */
 206:Libraries/STM32F4xx_HAL_Driver/Src/stm32f4xx_hal_rtc_ex.c ****   assert_param(IS_TIMESTAMP_EDGE(TimeStampEdge));
 161              		.loc 1 206 3 view .LVU49
 207:Libraries/STM32F4xx_HAL_Driver/Src/stm32f4xx_hal_rtc_ex.c ****   assert_param(IS_RTC_TIMESTAMP_PIN(RTC_TimeStampPin));
 162              		.loc 1 207 3 view .LVU50
 208:Libraries/STM32F4xx_HAL_Driver/Src/stm32f4xx_hal_rtc_ex.c **** 
 209:Libraries/STM32F4xx_HAL_Driver/Src/stm32f4xx_hal_rtc_ex.c ****   /* Process Locked */
 210:Libraries/STM32F4xx_HAL_Driver/Src/stm32f4xx_hal_rtc_ex.c ****   __HAL_LOCK(hrtc);
 163              		.loc 1 210 3 view .LVU51
 164              		.loc 1 210 3 view .LVU52
 165 0000 037F     		ldrb	r3, [r0, #28]	@ zero_extendqisi2
 166 0002 012B     		cmp	r3, #1
 167 0004 3DD0     		beq	.L10
 202:Libraries/STM32F4xx_HAL_Driver/Src/stm32f4xx_hal_rtc_ex.c ****   uint32_t tmpreg = 0U;
 168              		.loc 1 202 1 is_stmt 0 discriminator 2 view .LVU53
 169 0006 70B4     		push	{r4, r5, r6}
 170              	.LCFI2:
 171              		.cfi_def_cfa_offset 12
 172              		.cfi_offset 4, -12
 173              		.cfi_offset 5, -8
 174              		.cfi_offset 6, -4
 175              		.loc 1 210 3 is_stmt 1 discriminator 2 view .LVU54
 176 0008 0125     		movs	r5, #1
 177 000a 0577     		strb	r5, [r0, #28]
 178              		.loc 1 210 3 discriminator 2 view .LVU55
 211:Libraries/STM32F4xx_HAL_Driver/Src/stm32f4xx_hal_rtc_ex.c **** 
 212:Libraries/STM32F4xx_HAL_Driver/Src/stm32f4xx_hal_rtc_ex.c ****   hrtc->State = HAL_RTC_STATE_BUSY;
 179              		.loc 1 212 3 discriminator 2 view .LVU56
 180              		.loc 1 212 15 is_stmt 0 discriminator 2 view .LVU57
 181 000c 0223     		movs	r3, #2
 182 000e 4377     		strb	r3, [r0, #29]
 213:Libraries/STM32F4xx_HAL_Driver/Src/stm32f4xx_hal_rtc_ex.c **** 
 214:Libraries/STM32F4xx_HAL_Driver/Src/stm32f4xx_hal_rtc_ex.c ****   /* Get the RTC_CR register and clear the bits to be configured */
 215:Libraries/STM32F4xx_HAL_Driver/Src/stm32f4xx_hal_rtc_ex.c ****   tmpreg = (uint32_t)(hrtc->Instance->CR & (uint32_t)~(RTC_CR_TSEDGE | RTC_CR_TSE));
 183              		.loc 1 215 3 is_stmt 1 discriminator 2 view .LVU58
 184              		.loc 1 215 27 is_stmt 0 discriminator 2 view .LVU59
ARM GAS  C:\Users\yzy\AppData\Local\Temp\ccuah9XY.s 			page 8


 185 0010 0668     		ldr	r6, [r0]
 186              		.loc 1 215 37 discriminator 2 view .LVU60
 187 0012 B368     		ldr	r3, [r6, #8]
 188              		.loc 1 215 10 discriminator 2 view .LVU61
 189 0014 23F40063 		bic	r3, r3, #2048
 190 0018 23F00803 		bic	r3, r3, #8
 191              	.LVL10:
 216:Libraries/STM32F4xx_HAL_Driver/Src/stm32f4xx_hal_rtc_ex.c **** 
 217:Libraries/STM32F4xx_HAL_Driver/Src/stm32f4xx_hal_rtc_ex.c ****   tmpreg |= TimeStampEdge;
 192              		.loc 1 217 3 is_stmt 1 discriminator 2 view .LVU62
 193              		.loc 1 217 10 is_stmt 0 discriminator 2 view .LVU63
 194 001c 0B43     		orrs	r3, r3, r1
 195              	.LVL11:
 218:Libraries/STM32F4xx_HAL_Driver/Src/stm32f4xx_hal_rtc_ex.c **** 
 219:Libraries/STM32F4xx_HAL_Driver/Src/stm32f4xx_hal_rtc_ex.c ****   /* Disable the write protection for RTC registers */
 220:Libraries/STM32F4xx_HAL_Driver/Src/stm32f4xx_hal_rtc_ex.c ****   __HAL_RTC_WRITEPROTECTION_DISABLE(hrtc);
 196              		.loc 1 220 3 is_stmt 1 discriminator 2 view .LVU64
 197              		.loc 1 220 3 discriminator 2 view .LVU65
 198 001e CA21     		movs	r1, #202
 199              	.LVL12:
 200              		.loc 1 220 3 is_stmt 0 discriminator 2 view .LVU66
 201 0020 7162     		str	r1, [r6, #36]
 202              		.loc 1 220 3 is_stmt 1 discriminator 2 view .LVU67
 203 0022 0168     		ldr	r1, [r0]
 204 0024 5324     		movs	r4, #83
 205 0026 4C62     		str	r4, [r1, #36]
 206              		.loc 1 220 3 discriminator 2 view .LVU68
 221:Libraries/STM32F4xx_HAL_Driver/Src/stm32f4xx_hal_rtc_ex.c **** 
 222:Libraries/STM32F4xx_HAL_Driver/Src/stm32f4xx_hal_rtc_ex.c ****   /* Configure the Time Stamp TSEDGE and Enable bits */
 223:Libraries/STM32F4xx_HAL_Driver/Src/stm32f4xx_hal_rtc_ex.c ****   hrtc->Instance->CR = (uint32_t)tmpreg;
 207              		.loc 1 223 3 discriminator 2 view .LVU69
 208              		.loc 1 223 7 is_stmt 0 discriminator 2 view .LVU70
 209 0028 0168     		ldr	r1, [r0]
 210              		.loc 1 223 22 discriminator 2 view .LVU71
 211 002a 8B60     		str	r3, [r1, #8]
 224:Libraries/STM32F4xx_HAL_Driver/Src/stm32f4xx_hal_rtc_ex.c **** 
 225:Libraries/STM32F4xx_HAL_Driver/Src/stm32f4xx_hal_rtc_ex.c ****   hrtc->Instance->TAFCR &= (uint32_t)~RTC_TAFCR_TSINSEL;
 212              		.loc 1 225 3 is_stmt 1 discriminator 2 view .LVU72
 213              		.loc 1 225 7 is_stmt 0 discriminator 2 view .LVU73
 214 002c 0168     		ldr	r1, [r0]
 215              		.loc 1 225 25 discriminator 2 view .LVU74
 216 002e 0B6C     		ldr	r3, [r1, #64]
 217              	.LVL13:
 218              		.loc 1 225 25 discriminator 2 view .LVU75
 219 0030 23F40033 		bic	r3, r3, #131072
 220 0034 0B64     		str	r3, [r1, #64]
 226:Libraries/STM32F4xx_HAL_Driver/Src/stm32f4xx_hal_rtc_ex.c ****   hrtc->Instance->TAFCR |= (uint32_t)(RTC_TimeStampPin);
 221              		.loc 1 226 3 is_stmt 1 discriminator 2 view .LVU76
 222              		.loc 1 226 7 is_stmt 0 discriminator 2 view .LVU77
 223 0036 0168     		ldr	r1, [r0]
 224              		.loc 1 226 25 discriminator 2 view .LVU78
 225 0038 0B6C     		ldr	r3, [r1, #64]
 226 003a 1A43     		orrs	r2, r2, r3
 227              	.LVL14:
 228              		.loc 1 226 25 discriminator 2 view .LVU79
 229 003c 0A64     		str	r2, [r1, #64]
 227:Libraries/STM32F4xx_HAL_Driver/Src/stm32f4xx_hal_rtc_ex.c **** 
ARM GAS  C:\Users\yzy\AppData\Local\Temp\ccuah9XY.s 			page 9


 228:Libraries/STM32F4xx_HAL_Driver/Src/stm32f4xx_hal_rtc_ex.c ****   /* Clear RTC Timestamp flag */
 229:Libraries/STM32F4xx_HAL_Driver/Src/stm32f4xx_hal_rtc_ex.c ****   __HAL_RTC_TIMESTAMP_CLEAR_FLAG(hrtc, RTC_FLAG_TSF);
 230              		.loc 1 229 3 is_stmt 1 discriminator 2 view .LVU80
 231 003e 0268     		ldr	r2, [r0]
 232 0040 D368     		ldr	r3, [r2, #12]
 233 0042 DBB2     		uxtb	r3, r3
 234 0044 63F40863 		orn	r3, r3, #2176
 235 0048 D360     		str	r3, [r2, #12]
 230:Libraries/STM32F4xx_HAL_Driver/Src/stm32f4xx_hal_rtc_ex.c **** 
 231:Libraries/STM32F4xx_HAL_Driver/Src/stm32f4xx_hal_rtc_ex.c ****   __HAL_RTC_TIMESTAMP_ENABLE(hrtc);
 236              		.loc 1 231 3 discriminator 2 view .LVU81
 237 004a 0268     		ldr	r2, [r0]
 238 004c 9368     		ldr	r3, [r2, #8]
 239 004e 43F40063 		orr	r3, r3, #2048
 240 0052 9360     		str	r3, [r2, #8]
 232:Libraries/STM32F4xx_HAL_Driver/Src/stm32f4xx_hal_rtc_ex.c **** 
 233:Libraries/STM32F4xx_HAL_Driver/Src/stm32f4xx_hal_rtc_ex.c ****   /* Enable IT timestamp */
 234:Libraries/STM32F4xx_HAL_Driver/Src/stm32f4xx_hal_rtc_ex.c ****   __HAL_RTC_TIMESTAMP_ENABLE_IT(hrtc,RTC_IT_TS);
 241              		.loc 1 234 3 discriminator 2 view .LVU82
 242 0054 0268     		ldr	r2, [r0]
 243 0056 9368     		ldr	r3, [r2, #8]
 244 0058 43F40043 		orr	r3, r3, #32768
 245 005c 9360     		str	r3, [r2, #8]
 235:Libraries/STM32F4xx_HAL_Driver/Src/stm32f4xx_hal_rtc_ex.c **** 
 236:Libraries/STM32F4xx_HAL_Driver/Src/stm32f4xx_hal_rtc_ex.c ****   /* RTC timestamp Interrupt Configuration: EXTI configuration */
 237:Libraries/STM32F4xx_HAL_Driver/Src/stm32f4xx_hal_rtc_ex.c ****   __HAL_RTC_TAMPER_TIMESTAMP_EXTI_ENABLE_IT();
 246              		.loc 1 237 3 discriminator 2 view .LVU83
 247 005e 0A4B     		ldr	r3, .L15
 248 0060 1A68     		ldr	r2, [r3]
 249 0062 42F40012 		orr	r2, r2, #2097152
 250 0066 1A60     		str	r2, [r3]
 238:Libraries/STM32F4xx_HAL_Driver/Src/stm32f4xx_hal_rtc_ex.c **** 
 239:Libraries/STM32F4xx_HAL_Driver/Src/stm32f4xx_hal_rtc_ex.c ****   EXTI->RTSR |= RTC_EXTI_LINE_TAMPER_TIMESTAMP_EVENT;
 251              		.loc 1 239 3 discriminator 2 view .LVU84
 252              		.loc 1 239 14 is_stmt 0 discriminator 2 view .LVU85
 253 0068 9A68     		ldr	r2, [r3, #8]
 254 006a 42F40012 		orr	r2, r2, #2097152
 255 006e 9A60     		str	r2, [r3, #8]
 240:Libraries/STM32F4xx_HAL_Driver/Src/stm32f4xx_hal_rtc_ex.c **** 
 241:Libraries/STM32F4xx_HAL_Driver/Src/stm32f4xx_hal_rtc_ex.c ****   /* Enable the write protection for RTC registers */
 242:Libraries/STM32F4xx_HAL_Driver/Src/stm32f4xx_hal_rtc_ex.c ****   __HAL_RTC_WRITEPROTECTION_ENABLE(hrtc);
 256              		.loc 1 242 3 is_stmt 1 discriminator 2 view .LVU86
 257              		.loc 1 242 3 discriminator 2 view .LVU87
 258 0070 0368     		ldr	r3, [r0]
 259 0072 FF22     		movs	r2, #255
 260 0074 5A62     		str	r2, [r3, #36]
 261              		.loc 1 242 3 discriminator 2 view .LVU88
 243:Libraries/STM32F4xx_HAL_Driver/Src/stm32f4xx_hal_rtc_ex.c **** 
 244:Libraries/STM32F4xx_HAL_Driver/Src/stm32f4xx_hal_rtc_ex.c ****   hrtc->State = HAL_RTC_STATE_READY;
 262              		.loc 1 244 3 discriminator 2 view .LVU89
 263              		.loc 1 244 15 is_stmt 0 discriminator 2 view .LVU90
 264 0076 4577     		strb	r5, [r0, #29]
 245:Libraries/STM32F4xx_HAL_Driver/Src/stm32f4xx_hal_rtc_ex.c **** 
 246:Libraries/STM32F4xx_HAL_Driver/Src/stm32f4xx_hal_rtc_ex.c ****   /* Process Unlocked */
 247:Libraries/STM32F4xx_HAL_Driver/Src/stm32f4xx_hal_rtc_ex.c ****   __HAL_UNLOCK(hrtc);
 265              		.loc 1 247 3 is_stmt 1 discriminator 2 view .LVU91
 266              		.loc 1 247 3 discriminator 2 view .LVU92
ARM GAS  C:\Users\yzy\AppData\Local\Temp\ccuah9XY.s 			page 10


 267 0078 0023     		movs	r3, #0
 268 007a 0377     		strb	r3, [r0, #28]
 269              		.loc 1 247 3 discriminator 2 view .LVU93
 248:Libraries/STM32F4xx_HAL_Driver/Src/stm32f4xx_hal_rtc_ex.c **** 
 249:Libraries/STM32F4xx_HAL_Driver/Src/stm32f4xx_hal_rtc_ex.c ****   return HAL_OK;
 270              		.loc 1 249 3 discriminator 2 view .LVU94
 271              		.loc 1 249 10 is_stmt 0 discriminator 2 view .LVU95
 272 007c 1846     		mov	r0, r3
 273              	.LVL15:
 250:Libraries/STM32F4xx_HAL_Driver/Src/stm32f4xx_hal_rtc_ex.c **** }
 274              		.loc 1 250 1 discriminator 2 view .LVU96
 275 007e 70BC     		pop	{r4, r5, r6}
 276              	.LCFI3:
 277              		.cfi_restore 6
 278              		.cfi_restore 5
 279              		.cfi_restore 4
 280              		.cfi_def_cfa_offset 0
 281 0080 7047     		bx	lr
 282              	.LVL16:
 283              	.L10:
 210:Libraries/STM32F4xx_HAL_Driver/Src/stm32f4xx_hal_rtc_ex.c **** 
 284              		.loc 1 210 3 view .LVU97
 285 0082 0220     		movs	r0, #2
 286              	.LVL17:
 287              		.loc 1 250 1 view .LVU98
 288 0084 7047     		bx	lr
 289              	.L16:
 290 0086 00BF     		.align	2
 291              	.L15:
 292 0088 003C0140 		.word	1073822720
 293              		.cfi_endproc
 294              	.LFE131:
 296              		.section	.text.HAL_RTCEx_DeactivateTimeStamp,"ax",%progbits
 297              		.align	1
 298              		.global	HAL_RTCEx_DeactivateTimeStamp
 299              		.syntax unified
 300              		.thumb
 301              		.thumb_func
 302              		.fpu softvfp
 304              	HAL_RTCEx_DeactivateTimeStamp:
 305              	.LVL18:
 306              	.LFB132:
 251:Libraries/STM32F4xx_HAL_Driver/Src/stm32f4xx_hal_rtc_ex.c **** 
 252:Libraries/STM32F4xx_HAL_Driver/Src/stm32f4xx_hal_rtc_ex.c **** /**
 253:Libraries/STM32F4xx_HAL_Driver/Src/stm32f4xx_hal_rtc_ex.c ****   * @brief  Deactivates TimeStamp.
 254:Libraries/STM32F4xx_HAL_Driver/Src/stm32f4xx_hal_rtc_ex.c ****   * @param  hrtc pointer to a RTC_HandleTypeDef structure that contains
 255:Libraries/STM32F4xx_HAL_Driver/Src/stm32f4xx_hal_rtc_ex.c ****   *                the configuration information for RTC.
 256:Libraries/STM32F4xx_HAL_Driver/Src/stm32f4xx_hal_rtc_ex.c ****   * @retval HAL status
 257:Libraries/STM32F4xx_HAL_Driver/Src/stm32f4xx_hal_rtc_ex.c ****   */
 258:Libraries/STM32F4xx_HAL_Driver/Src/stm32f4xx_hal_rtc_ex.c **** HAL_StatusTypeDef HAL_RTCEx_DeactivateTimeStamp(RTC_HandleTypeDef *hrtc)
 259:Libraries/STM32F4xx_HAL_Driver/Src/stm32f4xx_hal_rtc_ex.c **** {
 307              		.loc 1 259 1 is_stmt 1 view -0
 308              		.cfi_startproc
 309              		@ args = 0, pretend = 0, frame = 0
 310              		@ frame_needed = 0, uses_anonymous_args = 0
 311              		@ link register save eliminated.
 260:Libraries/STM32F4xx_HAL_Driver/Src/stm32f4xx_hal_rtc_ex.c ****   uint32_t tmpreg = 0U;
ARM GAS  C:\Users\yzy\AppData\Local\Temp\ccuah9XY.s 			page 11


 312              		.loc 1 260 3 view .LVU100
 261:Libraries/STM32F4xx_HAL_Driver/Src/stm32f4xx_hal_rtc_ex.c **** 
 262:Libraries/STM32F4xx_HAL_Driver/Src/stm32f4xx_hal_rtc_ex.c ****   /* Process Locked */
 263:Libraries/STM32F4xx_HAL_Driver/Src/stm32f4xx_hal_rtc_ex.c ****   __HAL_LOCK(hrtc);
 313              		.loc 1 263 3 view .LVU101
 314              		.loc 1 263 3 view .LVU102
 315 0000 037F     		ldrb	r3, [r0, #28]	@ zero_extendqisi2
 316 0002 012B     		cmp	r3, #1
 317 0004 1DD0     		beq	.L19
 318              		.loc 1 263 3 discriminator 2 view .LVU103
 319 0006 0122     		movs	r2, #1
 320 0008 0277     		strb	r2, [r0, #28]
 321              		.loc 1 263 3 discriminator 2 view .LVU104
 264:Libraries/STM32F4xx_HAL_Driver/Src/stm32f4xx_hal_rtc_ex.c **** 
 265:Libraries/STM32F4xx_HAL_Driver/Src/stm32f4xx_hal_rtc_ex.c ****   hrtc->State = HAL_RTC_STATE_BUSY;
 322              		.loc 1 265 3 discriminator 2 view .LVU105
 323              		.loc 1 265 15 is_stmt 0 discriminator 2 view .LVU106
 324 000a 0223     		movs	r3, #2
 325 000c 4377     		strb	r3, [r0, #29]
 266:Libraries/STM32F4xx_HAL_Driver/Src/stm32f4xx_hal_rtc_ex.c **** 
 267:Libraries/STM32F4xx_HAL_Driver/Src/stm32f4xx_hal_rtc_ex.c ****   /* Disable the write protection for RTC registers */
 268:Libraries/STM32F4xx_HAL_Driver/Src/stm32f4xx_hal_rtc_ex.c ****   __HAL_RTC_WRITEPROTECTION_DISABLE(hrtc);
 326              		.loc 1 268 3 is_stmt 1 discriminator 2 view .LVU107
 327              		.loc 1 268 3 discriminator 2 view .LVU108
 328 000e 0368     		ldr	r3, [r0]
 329 0010 CA21     		movs	r1, #202
 330 0012 5962     		str	r1, [r3, #36]
 331              		.loc 1 268 3 discriminator 2 view .LVU109
 332 0014 0368     		ldr	r3, [r0]
 333 0016 5321     		movs	r1, #83
 334 0018 5962     		str	r1, [r3, #36]
 335              		.loc 1 268 3 discriminator 2 view .LVU110
 269:Libraries/STM32F4xx_HAL_Driver/Src/stm32f4xx_hal_rtc_ex.c **** 
 270:Libraries/STM32F4xx_HAL_Driver/Src/stm32f4xx_hal_rtc_ex.c ****   /* In case of interrupt mode is used, the interrupt source must disabled */
 271:Libraries/STM32F4xx_HAL_Driver/Src/stm32f4xx_hal_rtc_ex.c ****   __HAL_RTC_TIMESTAMP_DISABLE_IT(hrtc, RTC_IT_TS);
 336              		.loc 1 271 3 discriminator 2 view .LVU111
 337 001a 0168     		ldr	r1, [r0]
 338 001c 8B68     		ldr	r3, [r1, #8]
 339 001e 23F40043 		bic	r3, r3, #32768
 340 0022 8B60     		str	r3, [r1, #8]
 272:Libraries/STM32F4xx_HAL_Driver/Src/stm32f4xx_hal_rtc_ex.c **** 
 273:Libraries/STM32F4xx_HAL_Driver/Src/stm32f4xx_hal_rtc_ex.c ****   /* Get the RTC_CR register and clear the bits to be configured */
 274:Libraries/STM32F4xx_HAL_Driver/Src/stm32f4xx_hal_rtc_ex.c ****   tmpreg = (uint32_t)(hrtc->Instance->CR & (uint32_t)~(RTC_CR_TSEDGE | RTC_CR_TSE));
 341              		.loc 1 274 3 discriminator 2 view .LVU112
 342              		.loc 1 274 27 is_stmt 0 discriminator 2 view .LVU113
 343 0024 0168     		ldr	r1, [r0]
 344              		.loc 1 274 37 discriminator 2 view .LVU114
 345 0026 8B68     		ldr	r3, [r1, #8]
 346              		.loc 1 274 10 discriminator 2 view .LVU115
 347 0028 23F40063 		bic	r3, r3, #2048
 348 002c 23F00803 		bic	r3, r3, #8
 349              	.LVL19:
 275:Libraries/STM32F4xx_HAL_Driver/Src/stm32f4xx_hal_rtc_ex.c **** 
 276:Libraries/STM32F4xx_HAL_Driver/Src/stm32f4xx_hal_rtc_ex.c ****   /* Configure the Time Stamp TSEDGE and Enable bits */
 277:Libraries/STM32F4xx_HAL_Driver/Src/stm32f4xx_hal_rtc_ex.c ****   hrtc->Instance->CR = (uint32_t)tmpreg;
 350              		.loc 1 277 3 is_stmt 1 discriminator 2 view .LVU116
 351              		.loc 1 277 22 is_stmt 0 discriminator 2 view .LVU117
ARM GAS  C:\Users\yzy\AppData\Local\Temp\ccuah9XY.s 			page 12


 352 0030 8B60     		str	r3, [r1, #8]
 278:Libraries/STM32F4xx_HAL_Driver/Src/stm32f4xx_hal_rtc_ex.c **** 
 279:Libraries/STM32F4xx_HAL_Driver/Src/stm32f4xx_hal_rtc_ex.c ****   /* Enable the write protection for RTC registers */
 280:Libraries/STM32F4xx_HAL_Driver/Src/stm32f4xx_hal_rtc_ex.c ****   __HAL_RTC_WRITEPROTECTION_ENABLE(hrtc);
 353              		.loc 1 280 3 is_stmt 1 discriminator 2 view .LVU118
 354              		.loc 1 280 3 discriminator 2 view .LVU119
 355 0032 0368     		ldr	r3, [r0]
 356              	.LVL20:
 357              		.loc 1 280 3 is_stmt 0 discriminator 2 view .LVU120
 358 0034 FF21     		movs	r1, #255
 359              	.LVL21:
 360              		.loc 1 280 3 discriminator 2 view .LVU121
 361 0036 5962     		str	r1, [r3, #36]
 362              		.loc 1 280 3 is_stmt 1 discriminator 2 view .LVU122
 281:Libraries/STM32F4xx_HAL_Driver/Src/stm32f4xx_hal_rtc_ex.c **** 
 282:Libraries/STM32F4xx_HAL_Driver/Src/stm32f4xx_hal_rtc_ex.c ****   hrtc->State = HAL_RTC_STATE_READY;
 363              		.loc 1 282 3 discriminator 2 view .LVU123
 364              		.loc 1 282 15 is_stmt 0 discriminator 2 view .LVU124
 365 0038 4277     		strb	r2, [r0, #29]
 283:Libraries/STM32F4xx_HAL_Driver/Src/stm32f4xx_hal_rtc_ex.c **** 
 284:Libraries/STM32F4xx_HAL_Driver/Src/stm32f4xx_hal_rtc_ex.c ****   /* Process Unlocked */
 285:Libraries/STM32F4xx_HAL_Driver/Src/stm32f4xx_hal_rtc_ex.c ****   __HAL_UNLOCK(hrtc);
 366              		.loc 1 285 3 is_stmt 1 discriminator 2 view .LVU125
 367              		.loc 1 285 3 discriminator 2 view .LVU126
 368 003a 0023     		movs	r3, #0
 369 003c 0377     		strb	r3, [r0, #28]
 370              		.loc 1 285 3 discriminator 2 view .LVU127
 286:Libraries/STM32F4xx_HAL_Driver/Src/stm32f4xx_hal_rtc_ex.c **** 
 287:Libraries/STM32F4xx_HAL_Driver/Src/stm32f4xx_hal_rtc_ex.c ****   return HAL_OK;
 371              		.loc 1 287 3 discriminator 2 view .LVU128
 372              		.loc 1 287 10 is_stmt 0 discriminator 2 view .LVU129
 373 003e 1846     		mov	r0, r3
 374              	.LVL22:
 375              		.loc 1 287 10 discriminator 2 view .LVU130
 376 0040 7047     		bx	lr
 377              	.LVL23:
 378              	.L19:
 263:Libraries/STM32F4xx_HAL_Driver/Src/stm32f4xx_hal_rtc_ex.c **** 
 379              		.loc 1 263 3 view .LVU131
 380 0042 0220     		movs	r0, #2
 381              	.LVL24:
 288:Libraries/STM32F4xx_HAL_Driver/Src/stm32f4xx_hal_rtc_ex.c **** }
 382              		.loc 1 288 1 view .LVU132
 383 0044 7047     		bx	lr
 384              		.cfi_endproc
 385              	.LFE132:
 387              		.section	.text.HAL_RTCEx_GetTimeStamp,"ax",%progbits
 388              		.align	1
 389              		.global	HAL_RTCEx_GetTimeStamp
 390              		.syntax unified
 391              		.thumb
 392              		.thumb_func
 393              		.fpu softvfp
 395              	HAL_RTCEx_GetTimeStamp:
 396              	.LVL25:
 397              	.LFB133:
 289:Libraries/STM32F4xx_HAL_Driver/Src/stm32f4xx_hal_rtc_ex.c **** 
ARM GAS  C:\Users\yzy\AppData\Local\Temp\ccuah9XY.s 			page 13


 290:Libraries/STM32F4xx_HAL_Driver/Src/stm32f4xx_hal_rtc_ex.c **** /**
 291:Libraries/STM32F4xx_HAL_Driver/Src/stm32f4xx_hal_rtc_ex.c ****   * @brief  Gets the RTC TimeStamp value.
 292:Libraries/STM32F4xx_HAL_Driver/Src/stm32f4xx_hal_rtc_ex.c ****   * @param  hrtc pointer to a RTC_HandleTypeDef structure that contains
 293:Libraries/STM32F4xx_HAL_Driver/Src/stm32f4xx_hal_rtc_ex.c ****   *                the configuration information for RTC.
 294:Libraries/STM32F4xx_HAL_Driver/Src/stm32f4xx_hal_rtc_ex.c ****   * @param  sTimeStamp Pointer to Time structure
 295:Libraries/STM32F4xx_HAL_Driver/Src/stm32f4xx_hal_rtc_ex.c ****   * @param  sTimeStampDate Pointer to Date structure
 296:Libraries/STM32F4xx_HAL_Driver/Src/stm32f4xx_hal_rtc_ex.c ****   * @param  Format specifies the format of the entered parameters.
 297:Libraries/STM32F4xx_HAL_Driver/Src/stm32f4xx_hal_rtc_ex.c ****   *          This parameter can be one of the following values:
 298:Libraries/STM32F4xx_HAL_Driver/Src/stm32f4xx_hal_rtc_ex.c ****   *             RTC_FORMAT_BIN: Binary data format
 299:Libraries/STM32F4xx_HAL_Driver/Src/stm32f4xx_hal_rtc_ex.c ****   *             RTC_FORMAT_BCD: BCD data format
 300:Libraries/STM32F4xx_HAL_Driver/Src/stm32f4xx_hal_rtc_ex.c ****   * @retval HAL status
 301:Libraries/STM32F4xx_HAL_Driver/Src/stm32f4xx_hal_rtc_ex.c ****   */
 302:Libraries/STM32F4xx_HAL_Driver/Src/stm32f4xx_hal_rtc_ex.c **** HAL_StatusTypeDef HAL_RTCEx_GetTimeStamp(RTC_HandleTypeDef *hrtc, RTC_TimeTypeDef* sTimeStamp, RTC_
 303:Libraries/STM32F4xx_HAL_Driver/Src/stm32f4xx_hal_rtc_ex.c **** {
 398              		.loc 1 303 1 is_stmt 1 view -0
 399              		.cfi_startproc
 400              		@ args = 0, pretend = 0, frame = 0
 401              		@ frame_needed = 0, uses_anonymous_args = 0
 402              		.loc 1 303 1 is_stmt 0 view .LVU134
 403 0000 F8B5     		push	{r3, r4, r5, r6, r7, lr}
 404              	.LCFI4:
 405              		.cfi_def_cfa_offset 24
 406              		.cfi_offset 3, -24
 407              		.cfi_offset 4, -20
 408              		.cfi_offset 5, -16
 409              		.cfi_offset 6, -12
 410              		.cfi_offset 7, -8
 411              		.cfi_offset 14, -4
 412 0002 0646     		mov	r6, r0
 413 0004 0C46     		mov	r4, r1
 414 0006 1546     		mov	r5, r2
 304:Libraries/STM32F4xx_HAL_Driver/Src/stm32f4xx_hal_rtc_ex.c ****   uint32_t tmptime = 0U, tmpdate = 0U;
 415              		.loc 1 304 3 is_stmt 1 view .LVU135
 416              	.LVL26:
 305:Libraries/STM32F4xx_HAL_Driver/Src/stm32f4xx_hal_rtc_ex.c **** 
 306:Libraries/STM32F4xx_HAL_Driver/Src/stm32f4xx_hal_rtc_ex.c ****   /* Check the parameters */
 307:Libraries/STM32F4xx_HAL_Driver/Src/stm32f4xx_hal_rtc_ex.c ****   assert_param(IS_RTC_FORMAT(Format));
 417              		.loc 1 307 3 view .LVU136
 308:Libraries/STM32F4xx_HAL_Driver/Src/stm32f4xx_hal_rtc_ex.c **** 
 309:Libraries/STM32F4xx_HAL_Driver/Src/stm32f4xx_hal_rtc_ex.c ****   /* Get the TimeStamp time and date registers values */
 310:Libraries/STM32F4xx_HAL_Driver/Src/stm32f4xx_hal_rtc_ex.c ****   tmptime = (uint32_t)(hrtc->Instance->TSTR & RTC_TR_RESERVED_MASK);
 418              		.loc 1 310 3 view .LVU137
 419              		.loc 1 310 28 is_stmt 0 view .LVU138
 420 0008 0168     		ldr	r1, [r0]
 421              	.LVL27:
 422              		.loc 1 310 38 view .LVU139
 423 000a 0A6B     		ldr	r2, [r1, #48]
 424              	.LVL28:
 311:Libraries/STM32F4xx_HAL_Driver/Src/stm32f4xx_hal_rtc_ex.c ****   tmpdate = (uint32_t)(hrtc->Instance->TSDR & RTC_DR_RESERVED_MASK);
 425              		.loc 1 311 3 is_stmt 1 view .LVU140
 426              		.loc 1 311 38 is_stmt 0 view .LVU141
 427 000c 496B     		ldr	r1, [r1, #52]
 428              	.LVL29:
 312:Libraries/STM32F4xx_HAL_Driver/Src/stm32f4xx_hal_rtc_ex.c **** 
 313:Libraries/STM32F4xx_HAL_Driver/Src/stm32f4xx_hal_rtc_ex.c ****   /* Fill the Time structure fields with the read parameters */
 314:Libraries/STM32F4xx_HAL_Driver/Src/stm32f4xx_hal_rtc_ex.c ****   sTimeStamp->Hours = (uint8_t)((tmptime & (RTC_TR_HT | RTC_TR_HU)) >> 16U);
 429              		.loc 1 314 3 is_stmt 1 view .LVU142
ARM GAS  C:\Users\yzy\AppData\Local\Temp\ccuah9XY.s 			page 14


 430              		.loc 1 314 23 is_stmt 0 view .LVU143
 431 000e C2F30640 		ubfx	r0, r2, #16, #7
 432              	.LVL30:
 433              		.loc 1 314 23 view .LVU144
 434 0012 C2F30547 		ubfx	r7, r2, #16, #6
 435              		.loc 1 314 21 view .LVU145
 436 0016 2770     		strb	r7, [r4]
 315:Libraries/STM32F4xx_HAL_Driver/Src/stm32f4xx_hal_rtc_ex.c ****   sTimeStamp->Minutes = (uint8_t)((tmptime & (RTC_TR_MNT | RTC_TR_MNU)) >> 8U);
 437              		.loc 1 315 3 is_stmt 1 view .LVU146
 438              		.loc 1 315 25 is_stmt 0 view .LVU147
 439 0018 C2F30627 		ubfx	r7, r2, #8, #7
 440              		.loc 1 315 23 view .LVU148
 441 001c 6770     		strb	r7, [r4, #1]
 316:Libraries/STM32F4xx_HAL_Driver/Src/stm32f4xx_hal_rtc_ex.c ****   sTimeStamp->Seconds = (uint8_t)(tmptime & (RTC_TR_ST | RTC_TR_SU));
 442              		.loc 1 316 3 is_stmt 1 view .LVU149
 443              		.loc 1 316 25 is_stmt 0 view .LVU150
 444 001e 02F07F02 		and	r2, r2, #127
 445              	.LVL31:
 446              		.loc 1 316 23 view .LVU151
 447 0022 A270     		strb	r2, [r4, #2]
 317:Libraries/STM32F4xx_HAL_Driver/Src/stm32f4xx_hal_rtc_ex.c ****   sTimeStamp->TimeFormat = (uint8_t)((tmptime & (RTC_TR_PM)) >> 16U);
 448              		.loc 1 317 3 is_stmt 1 view .LVU152
 449              		.loc 1 317 28 is_stmt 0 view .LVU153
 450 0024 00F04002 		and	r2, r0, #64
 451              		.loc 1 317 26 view .LVU154
 452 0028 E270     		strb	r2, [r4, #3]
 318:Libraries/STM32F4xx_HAL_Driver/Src/stm32f4xx_hal_rtc_ex.c ****   sTimeStamp->SubSeconds = (uint32_t) hrtc->Instance->TSSSR;
 453              		.loc 1 318 3 is_stmt 1 view .LVU155
 454              		.loc 1 318 43 is_stmt 0 view .LVU156
 455 002a 3268     		ldr	r2, [r6]
 456              		.loc 1 318 53 view .LVU157
 457 002c 926B     		ldr	r2, [r2, #56]
 458              		.loc 1 318 26 view .LVU158
 459 002e 6260     		str	r2, [r4, #4]
 319:Libraries/STM32F4xx_HAL_Driver/Src/stm32f4xx_hal_rtc_ex.c **** 
 320:Libraries/STM32F4xx_HAL_Driver/Src/stm32f4xx_hal_rtc_ex.c ****   /* Fill the Date structure fields with the read parameters */
 321:Libraries/STM32F4xx_HAL_Driver/Src/stm32f4xx_hal_rtc_ex.c ****   sTimeStampDate->Year = 0U;
 460              		.loc 1 321 3 is_stmt 1 view .LVU159
 461              		.loc 1 321 24 is_stmt 0 view .LVU160
 462 0030 0022     		movs	r2, #0
 463 0032 EA70     		strb	r2, [r5, #3]
 322:Libraries/STM32F4xx_HAL_Driver/Src/stm32f4xx_hal_rtc_ex.c ****   sTimeStampDate->Month = (uint8_t)((tmpdate & (RTC_DR_MT | RTC_DR_MU)) >> 8U);
 464              		.loc 1 322 3 is_stmt 1 view .LVU161
 465              		.loc 1 322 27 is_stmt 0 view .LVU162
 466 0034 C1F30422 		ubfx	r2, r1, #8, #5
 467              		.loc 1 322 25 view .LVU163
 468 0038 6A70     		strb	r2, [r5, #1]
 323:Libraries/STM32F4xx_HAL_Driver/Src/stm32f4xx_hal_rtc_ex.c ****   sTimeStampDate->Date = (uint8_t)(tmpdate & (RTC_DR_DT | RTC_DR_DU));
 469              		.loc 1 323 3 is_stmt 1 view .LVU164
 470              		.loc 1 323 26 is_stmt 0 view .LVU165
 471 003a 01F03F02 		and	r2, r1, #63
 472              		.loc 1 323 24 view .LVU166
 473 003e AA70     		strb	r2, [r5, #2]
 324:Libraries/STM32F4xx_HAL_Driver/Src/stm32f4xx_hal_rtc_ex.c ****   sTimeStampDate->WeekDay = (uint8_t)((tmpdate & (RTC_DR_WDU)) >> 13U);
 474              		.loc 1 324 3 is_stmt 1 view .LVU167
 475              		.loc 1 324 29 is_stmt 0 view .LVU168
 476 0040 C1F34231 		ubfx	r1, r1, #13, #3
ARM GAS  C:\Users\yzy\AppData\Local\Temp\ccuah9XY.s 			page 15


 477              	.LVL32:
 478              		.loc 1 324 27 view .LVU169
 479 0044 2970     		strb	r1, [r5]
 325:Libraries/STM32F4xx_HAL_Driver/Src/stm32f4xx_hal_rtc_ex.c **** 
 326:Libraries/STM32F4xx_HAL_Driver/Src/stm32f4xx_hal_rtc_ex.c ****   /* Check the input parameters format */
 327:Libraries/STM32F4xx_HAL_Driver/Src/stm32f4xx_hal_rtc_ex.c ****   if(Format == RTC_FORMAT_BIN)
 480              		.loc 1 327 3 is_stmt 1 view .LVU170
 481              		.loc 1 327 5 is_stmt 0 view .LVU171
 482 0046 3BB1     		cbz	r3, .L23
 483              	.LVL33:
 484              	.L21:
 328:Libraries/STM32F4xx_HAL_Driver/Src/stm32f4xx_hal_rtc_ex.c ****   {
 329:Libraries/STM32F4xx_HAL_Driver/Src/stm32f4xx_hal_rtc_ex.c ****     /* Convert the TimeStamp structure parameters to Binary format */
 330:Libraries/STM32F4xx_HAL_Driver/Src/stm32f4xx_hal_rtc_ex.c ****     sTimeStamp->Hours = (uint8_t)RTC_Bcd2ToByte(sTimeStamp->Hours);
 331:Libraries/STM32F4xx_HAL_Driver/Src/stm32f4xx_hal_rtc_ex.c ****     sTimeStamp->Minutes = (uint8_t)RTC_Bcd2ToByte(sTimeStamp->Minutes);
 332:Libraries/STM32F4xx_HAL_Driver/Src/stm32f4xx_hal_rtc_ex.c ****     sTimeStamp->Seconds = (uint8_t)RTC_Bcd2ToByte(sTimeStamp->Seconds);
 333:Libraries/STM32F4xx_HAL_Driver/Src/stm32f4xx_hal_rtc_ex.c **** 
 334:Libraries/STM32F4xx_HAL_Driver/Src/stm32f4xx_hal_rtc_ex.c ****     /* Convert the DateTimeStamp structure parameters to Binary format */
 335:Libraries/STM32F4xx_HAL_Driver/Src/stm32f4xx_hal_rtc_ex.c ****     sTimeStampDate->Month = (uint8_t)RTC_Bcd2ToByte(sTimeStampDate->Month);
 336:Libraries/STM32F4xx_HAL_Driver/Src/stm32f4xx_hal_rtc_ex.c ****     sTimeStampDate->Date = (uint8_t)RTC_Bcd2ToByte(sTimeStampDate->Date);
 337:Libraries/STM32F4xx_HAL_Driver/Src/stm32f4xx_hal_rtc_ex.c ****     sTimeStampDate->WeekDay = (uint8_t)RTC_Bcd2ToByte(sTimeStampDate->WeekDay);
 338:Libraries/STM32F4xx_HAL_Driver/Src/stm32f4xx_hal_rtc_ex.c ****   }
 339:Libraries/STM32F4xx_HAL_Driver/Src/stm32f4xx_hal_rtc_ex.c **** 
 340:Libraries/STM32F4xx_HAL_Driver/Src/stm32f4xx_hal_rtc_ex.c ****   /* Clear the TIMESTAMP Flag */
 341:Libraries/STM32F4xx_HAL_Driver/Src/stm32f4xx_hal_rtc_ex.c ****   __HAL_RTC_TIMESTAMP_CLEAR_FLAG(hrtc, RTC_FLAG_TSF);
 485              		.loc 1 341 3 is_stmt 1 view .LVU172
 486 0048 3268     		ldr	r2, [r6]
 487 004a D368     		ldr	r3, [r2, #12]
 488 004c DBB2     		uxtb	r3, r3
 489 004e 63F40863 		orn	r3, r3, #2176
 490 0052 D360     		str	r3, [r2, #12]
 342:Libraries/STM32F4xx_HAL_Driver/Src/stm32f4xx_hal_rtc_ex.c **** 
 343:Libraries/STM32F4xx_HAL_Driver/Src/stm32f4xx_hal_rtc_ex.c ****   return HAL_OK;
 491              		.loc 1 343 3 view .LVU173
 344:Libraries/STM32F4xx_HAL_Driver/Src/stm32f4xx_hal_rtc_ex.c **** }
 492              		.loc 1 344 1 is_stmt 0 view .LVU174
 493 0054 0020     		movs	r0, #0
 494 0056 F8BD     		pop	{r3, r4, r5, r6, r7, pc}
 495              	.LVL34:
 496              	.L23:
 330:Libraries/STM32F4xx_HAL_Driver/Src/stm32f4xx_hal_rtc_ex.c ****     sTimeStamp->Minutes = (uint8_t)RTC_Bcd2ToByte(sTimeStamp->Minutes);
 497              		.loc 1 330 5 is_stmt 1 view .LVU175
 330:Libraries/STM32F4xx_HAL_Driver/Src/stm32f4xx_hal_rtc_ex.c ****     sTimeStamp->Minutes = (uint8_t)RTC_Bcd2ToByte(sTimeStamp->Minutes);
 498              		.loc 1 330 34 is_stmt 0 view .LVU176
 499 0058 2078     		ldrb	r0, [r4]	@ zero_extendqisi2
 500 005a FFF7FEFF 		bl	RTC_Bcd2ToByte
 501              	.LVL35:
 330:Libraries/STM32F4xx_HAL_Driver/Src/stm32f4xx_hal_rtc_ex.c ****     sTimeStamp->Minutes = (uint8_t)RTC_Bcd2ToByte(sTimeStamp->Minutes);
 502              		.loc 1 330 23 view .LVU177
 503 005e 2070     		strb	r0, [r4]
 331:Libraries/STM32F4xx_HAL_Driver/Src/stm32f4xx_hal_rtc_ex.c ****     sTimeStamp->Seconds = (uint8_t)RTC_Bcd2ToByte(sTimeStamp->Seconds);
 504              		.loc 1 331 5 is_stmt 1 view .LVU178
 331:Libraries/STM32F4xx_HAL_Driver/Src/stm32f4xx_hal_rtc_ex.c ****     sTimeStamp->Seconds = (uint8_t)RTC_Bcd2ToByte(sTimeStamp->Seconds);
 505              		.loc 1 331 36 is_stmt 0 view .LVU179
 506 0060 6078     		ldrb	r0, [r4, #1]	@ zero_extendqisi2
 507 0062 FFF7FEFF 		bl	RTC_Bcd2ToByte
 508              	.LVL36:
ARM GAS  C:\Users\yzy\AppData\Local\Temp\ccuah9XY.s 			page 16


 331:Libraries/STM32F4xx_HAL_Driver/Src/stm32f4xx_hal_rtc_ex.c ****     sTimeStamp->Seconds = (uint8_t)RTC_Bcd2ToByte(sTimeStamp->Seconds);
 509              		.loc 1 331 25 view .LVU180
 510 0066 6070     		strb	r0, [r4, #1]
 332:Libraries/STM32F4xx_HAL_Driver/Src/stm32f4xx_hal_rtc_ex.c **** 
 511              		.loc 1 332 5 is_stmt 1 view .LVU181
 332:Libraries/STM32F4xx_HAL_Driver/Src/stm32f4xx_hal_rtc_ex.c **** 
 512              		.loc 1 332 36 is_stmt 0 view .LVU182
 513 0068 A078     		ldrb	r0, [r4, #2]	@ zero_extendqisi2
 514 006a FFF7FEFF 		bl	RTC_Bcd2ToByte
 515              	.LVL37:
 332:Libraries/STM32F4xx_HAL_Driver/Src/stm32f4xx_hal_rtc_ex.c **** 
 516              		.loc 1 332 25 view .LVU183
 517 006e A070     		strb	r0, [r4, #2]
 335:Libraries/STM32F4xx_HAL_Driver/Src/stm32f4xx_hal_rtc_ex.c ****     sTimeStampDate->Date = (uint8_t)RTC_Bcd2ToByte(sTimeStampDate->Date);
 518              		.loc 1 335 5 is_stmt 1 view .LVU184
 335:Libraries/STM32F4xx_HAL_Driver/Src/stm32f4xx_hal_rtc_ex.c ****     sTimeStampDate->Date = (uint8_t)RTC_Bcd2ToByte(sTimeStampDate->Date);
 519              		.loc 1 335 38 is_stmt 0 view .LVU185
 520 0070 6878     		ldrb	r0, [r5, #1]	@ zero_extendqisi2
 521 0072 FFF7FEFF 		bl	RTC_Bcd2ToByte
 522              	.LVL38:
 335:Libraries/STM32F4xx_HAL_Driver/Src/stm32f4xx_hal_rtc_ex.c ****     sTimeStampDate->Date = (uint8_t)RTC_Bcd2ToByte(sTimeStampDate->Date);
 523              		.loc 1 335 27 view .LVU186
 524 0076 6870     		strb	r0, [r5, #1]
 336:Libraries/STM32F4xx_HAL_Driver/Src/stm32f4xx_hal_rtc_ex.c ****     sTimeStampDate->WeekDay = (uint8_t)RTC_Bcd2ToByte(sTimeStampDate->WeekDay);
 525              		.loc 1 336 5 is_stmt 1 view .LVU187
 336:Libraries/STM32F4xx_HAL_Driver/Src/stm32f4xx_hal_rtc_ex.c ****     sTimeStampDate->WeekDay = (uint8_t)RTC_Bcd2ToByte(sTimeStampDate->WeekDay);
 526              		.loc 1 336 37 is_stmt 0 view .LVU188
 527 0078 A878     		ldrb	r0, [r5, #2]	@ zero_extendqisi2
 528 007a FFF7FEFF 		bl	RTC_Bcd2ToByte
 529              	.LVL39:
 336:Libraries/STM32F4xx_HAL_Driver/Src/stm32f4xx_hal_rtc_ex.c ****     sTimeStampDate->WeekDay = (uint8_t)RTC_Bcd2ToByte(sTimeStampDate->WeekDay);
 530              		.loc 1 336 26 view .LVU189
 531 007e A870     		strb	r0, [r5, #2]
 337:Libraries/STM32F4xx_HAL_Driver/Src/stm32f4xx_hal_rtc_ex.c ****   }
 532              		.loc 1 337 5 is_stmt 1 view .LVU190
 337:Libraries/STM32F4xx_HAL_Driver/Src/stm32f4xx_hal_rtc_ex.c ****   }
 533              		.loc 1 337 40 is_stmt 0 view .LVU191
 534 0080 2878     		ldrb	r0, [r5]	@ zero_extendqisi2
 535 0082 FFF7FEFF 		bl	RTC_Bcd2ToByte
 536              	.LVL40:
 337:Libraries/STM32F4xx_HAL_Driver/Src/stm32f4xx_hal_rtc_ex.c ****   }
 537              		.loc 1 337 29 view .LVU192
 538 0086 2870     		strb	r0, [r5]
 539 0088 DEE7     		b	.L21
 540              		.cfi_endproc
 541              	.LFE133:
 543              		.section	.text.HAL_RTCEx_SetTamper,"ax",%progbits
 544              		.align	1
 545              		.global	HAL_RTCEx_SetTamper
 546              		.syntax unified
 547              		.thumb
 548              		.thumb_func
 549              		.fpu softvfp
 551              	HAL_RTCEx_SetTamper:
 552              	.LVL41:
 553              	.LFB134:
 345:Libraries/STM32F4xx_HAL_Driver/Src/stm32f4xx_hal_rtc_ex.c **** 
ARM GAS  C:\Users\yzy\AppData\Local\Temp\ccuah9XY.s 			page 17


 346:Libraries/STM32F4xx_HAL_Driver/Src/stm32f4xx_hal_rtc_ex.c **** /**
 347:Libraries/STM32F4xx_HAL_Driver/Src/stm32f4xx_hal_rtc_ex.c ****   * @brief  Sets Tamper
 348:Libraries/STM32F4xx_HAL_Driver/Src/stm32f4xx_hal_rtc_ex.c ****   * @note   By calling this API we disable the tamper interrupt for all tampers.
 349:Libraries/STM32F4xx_HAL_Driver/Src/stm32f4xx_hal_rtc_ex.c ****   * @param  hrtc pointer to a RTC_HandleTypeDef structure that contains
 350:Libraries/STM32F4xx_HAL_Driver/Src/stm32f4xx_hal_rtc_ex.c ****   *                the configuration information for RTC.
 351:Libraries/STM32F4xx_HAL_Driver/Src/stm32f4xx_hal_rtc_ex.c ****   * @param  sTamper Pointer to Tamper Structure.
 352:Libraries/STM32F4xx_HAL_Driver/Src/stm32f4xx_hal_rtc_ex.c ****   * @retval HAL status
 353:Libraries/STM32F4xx_HAL_Driver/Src/stm32f4xx_hal_rtc_ex.c ****   */
 354:Libraries/STM32F4xx_HAL_Driver/Src/stm32f4xx_hal_rtc_ex.c **** HAL_StatusTypeDef HAL_RTCEx_SetTamper(RTC_HandleTypeDef *hrtc, RTC_TamperTypeDef* sTamper)
 355:Libraries/STM32F4xx_HAL_Driver/Src/stm32f4xx_hal_rtc_ex.c **** {
 554              		.loc 1 355 1 is_stmt 1 view -0
 555              		.cfi_startproc
 556              		@ args = 0, pretend = 0, frame = 0
 557              		@ frame_needed = 0, uses_anonymous_args = 0
 558              		@ link register save eliminated.
 356:Libraries/STM32F4xx_HAL_Driver/Src/stm32f4xx_hal_rtc_ex.c ****   uint32_t tmpreg = 0U;
 559              		.loc 1 356 3 view .LVU194
 357:Libraries/STM32F4xx_HAL_Driver/Src/stm32f4xx_hal_rtc_ex.c **** 
 358:Libraries/STM32F4xx_HAL_Driver/Src/stm32f4xx_hal_rtc_ex.c ****   /* Check the parameters */
 359:Libraries/STM32F4xx_HAL_Driver/Src/stm32f4xx_hal_rtc_ex.c ****   assert_param(IS_RTC_TAMPER(sTamper->Tamper));
 560              		.loc 1 359 3 view .LVU195
 360:Libraries/STM32F4xx_HAL_Driver/Src/stm32f4xx_hal_rtc_ex.c ****   assert_param(IS_RTC_TAMPER_PIN(sTamper->PinSelection));
 561              		.loc 1 360 3 view .LVU196
 361:Libraries/STM32F4xx_HAL_Driver/Src/stm32f4xx_hal_rtc_ex.c ****   assert_param(IS_RTC_TAMPER_TRIGGER(sTamper->Trigger));
 562              		.loc 1 361 3 view .LVU197
 362:Libraries/STM32F4xx_HAL_Driver/Src/stm32f4xx_hal_rtc_ex.c ****   assert_param(IS_RTC_TAMPER_FILTER(sTamper->Filter));
 563              		.loc 1 362 3 view .LVU198
 363:Libraries/STM32F4xx_HAL_Driver/Src/stm32f4xx_hal_rtc_ex.c ****   assert_param(IS_RTC_TAMPER_SAMPLING_FREQ(sTamper->SamplingFrequency));
 564              		.loc 1 363 3 view .LVU199
 364:Libraries/STM32F4xx_HAL_Driver/Src/stm32f4xx_hal_rtc_ex.c ****   assert_param(IS_RTC_TAMPER_PRECHARGE_DURATION(sTamper->PrechargeDuration));
 565              		.loc 1 364 3 view .LVU200
 365:Libraries/STM32F4xx_HAL_Driver/Src/stm32f4xx_hal_rtc_ex.c ****   assert_param(IS_RTC_TAMPER_PULLUP_STATE(sTamper->TamperPullUp));
 566              		.loc 1 365 3 view .LVU201
 366:Libraries/STM32F4xx_HAL_Driver/Src/stm32f4xx_hal_rtc_ex.c ****   assert_param(IS_RTC_TAMPER_TIMESTAMPONTAMPER_DETECTION(sTamper->TimeStampOnTamperDetection));
 567              		.loc 1 366 3 view .LVU202
 367:Libraries/STM32F4xx_HAL_Driver/Src/stm32f4xx_hal_rtc_ex.c **** 
 368:Libraries/STM32F4xx_HAL_Driver/Src/stm32f4xx_hal_rtc_ex.c ****   /* Process Locked */
 369:Libraries/STM32F4xx_HAL_Driver/Src/stm32f4xx_hal_rtc_ex.c ****   __HAL_LOCK(hrtc);
 568              		.loc 1 369 3 view .LVU203
 569              		.loc 1 369 3 view .LVU204
 570 0000 037F     		ldrb	r3, [r0, #28]	@ zero_extendqisi2
 571 0002 012B     		cmp	r3, #1
 572 0004 2ED0     		beq	.L27
 355:Libraries/STM32F4xx_HAL_Driver/Src/stm32f4xx_hal_rtc_ex.c ****   uint32_t tmpreg = 0U;
 573              		.loc 1 355 1 is_stmt 0 discriminator 2 view .LVU205
 574 0006 10B4     		push	{r4}
 575              	.LCFI5:
 576              		.cfi_def_cfa_offset 4
 577              		.cfi_offset 4, -4
 578              		.loc 1 369 3 is_stmt 1 discriminator 2 view .LVU206
 579 0008 0123     		movs	r3, #1
 580 000a 0377     		strb	r3, [r0, #28]
 581              		.loc 1 369 3 discriminator 2 view .LVU207
 370:Libraries/STM32F4xx_HAL_Driver/Src/stm32f4xx_hal_rtc_ex.c **** 
 371:Libraries/STM32F4xx_HAL_Driver/Src/stm32f4xx_hal_rtc_ex.c ****   hrtc->State = HAL_RTC_STATE_BUSY;
 582              		.loc 1 371 3 discriminator 2 view .LVU208
 583              		.loc 1 371 15 is_stmt 0 discriminator 2 view .LVU209
ARM GAS  C:\Users\yzy\AppData\Local\Temp\ccuah9XY.s 			page 18


 584 000c 0223     		movs	r3, #2
 585 000e 4377     		strb	r3, [r0, #29]
 372:Libraries/STM32F4xx_HAL_Driver/Src/stm32f4xx_hal_rtc_ex.c **** 
 373:Libraries/STM32F4xx_HAL_Driver/Src/stm32f4xx_hal_rtc_ex.c ****   if(sTamper->Trigger != RTC_TAMPERTRIGGER_RISINGEDGE)
 586              		.loc 1 373 3 is_stmt 1 discriminator 2 view .LVU210
 587              		.loc 1 373 13 is_stmt 0 discriminator 2 view .LVU211
 588 0010 8B68     		ldr	r3, [r1, #8]
 589              		.loc 1 373 5 discriminator 2 view .LVU212
 590 0012 13B1     		cbz	r3, .L26
 374:Libraries/STM32F4xx_HAL_Driver/Src/stm32f4xx_hal_rtc_ex.c ****   {
 375:Libraries/STM32F4xx_HAL_Driver/Src/stm32f4xx_hal_rtc_ex.c ****     sTamper->Trigger = (uint32_t)(sTamper->Tamper << 1U);
 591              		.loc 1 375 5 is_stmt 1 view .LVU213
 592              		.loc 1 375 42 is_stmt 0 view .LVU214
 593 0014 0B68     		ldr	r3, [r1]
 594              		.loc 1 375 51 view .LVU215
 595 0016 5B00     		lsls	r3, r3, #1
 596              		.loc 1 375 22 view .LVU216
 597 0018 8B60     		str	r3, [r1, #8]
 598              	.L26:
 376:Libraries/STM32F4xx_HAL_Driver/Src/stm32f4xx_hal_rtc_ex.c ****   }
 377:Libraries/STM32F4xx_HAL_Driver/Src/stm32f4xx_hal_rtc_ex.c **** 
 378:Libraries/STM32F4xx_HAL_Driver/Src/stm32f4xx_hal_rtc_ex.c ****   tmpreg = ((uint32_t)sTamper->Tamper | (uint32_t)sTamper->PinSelection | (uint32_t)sTamper->Trigge
 599              		.loc 1 378 3 is_stmt 1 view .LVU217
 600              		.loc 1 378 30 is_stmt 0 view .LVU218
 601 001a 0A68     		ldr	r2, [r1]
 602              		.loc 1 378 58 view .LVU219
 603 001c 4B68     		ldr	r3, [r1, #4]
 604              		.loc 1 378 39 view .LVU220
 605 001e 1343     		orrs	r3, r3, r2
 606              		.loc 1 378 92 view .LVU221
 607 0020 8C68     		ldr	r4, [r1, #8]
 608              		.loc 1 378 73 view .LVU222
 609 0022 2343     		orrs	r3, r3, r4
 379:Libraries/STM32F4xx_HAL_Driver/Src/stm32f4xx_hal_rtc_ex.c ****             (uint32_t)sTamper->Filter | (uint32_t)sTamper->SamplingFrequency | (uint32_t)sTamper->P
 610              		.loc 1 379 30 view .LVU223
 611 0024 CC68     		ldr	r4, [r1, #12]
 378:Libraries/STM32F4xx_HAL_Driver/Src/stm32f4xx_hal_rtc_ex.c ****             (uint32_t)sTamper->Filter | (uint32_t)sTamper->SamplingFrequency | (uint32_t)sTamper->P
 612              		.loc 1 378 103 view .LVU224
 613 0026 2343     		orrs	r3, r3, r4
 614              		.loc 1 379 58 view .LVU225
 615 0028 0C69     		ldr	r4, [r1, #16]
 616              		.loc 1 379 39 view .LVU226
 617 002a 2343     		orrs	r3, r3, r4
 618              		.loc 1 379 97 view .LVU227
 619 002c 4C69     		ldr	r4, [r1, #20]
 620              		.loc 1 379 78 view .LVU228
 621 002e 2343     		orrs	r3, r3, r4
 380:Libraries/STM32F4xx_HAL_Driver/Src/stm32f4xx_hal_rtc_ex.c ****             (uint32_t)sTamper->TamperPullUp | sTamper->TimeStampOnTamperDetection);
 622              		.loc 1 380 30 view .LVU229
 623 0030 8C69     		ldr	r4, [r1, #24]
 379:Libraries/STM32F4xx_HAL_Driver/Src/stm32f4xx_hal_rtc_ex.c ****             (uint32_t)sTamper->Filter | (uint32_t)sTamper->SamplingFrequency | (uint32_t)sTamper->P
 624              		.loc 1 379 117 view .LVU230
 625 0032 2343     		orrs	r3, r3, r4
 626              		.loc 1 380 54 view .LVU231
 627 0034 C969     		ldr	r1, [r1, #28]
 628              	.LVL42:
 378:Libraries/STM32F4xx_HAL_Driver/Src/stm32f4xx_hal_rtc_ex.c ****             (uint32_t)sTamper->Filter | (uint32_t)sTamper->SamplingFrequency | (uint32_t)sTamper->P
ARM GAS  C:\Users\yzy\AppData\Local\Temp\ccuah9XY.s 			page 19


 629              		.loc 1 378 10 view .LVU232
 630 0036 0B43     		orrs	r3, r3, r1
 631              	.LVL43:
 381:Libraries/STM32F4xx_HAL_Driver/Src/stm32f4xx_hal_rtc_ex.c **** 
 382:Libraries/STM32F4xx_HAL_Driver/Src/stm32f4xx_hal_rtc_ex.c ****   hrtc->Instance->TAFCR &= (uint32_t)~((uint32_t)sTamper->Tamper | (uint32_t)(sTamper->Tamper << 1U
 632              		.loc 1 382 3 is_stmt 1 view .LVU233
 633              		.loc 1 382 7 is_stmt 0 view .LVU234
 634 0038 0468     		ldr	r4, [r0]
 635              		.loc 1 382 25 view .LVU235
 636 003a 216C     		ldr	r1, [r4, #64]
 637              		.loc 1 382 66 view .LVU236
 638 003c 42EA4202 		orr	r2, r2, r2, lsl #1
 383:Libraries/STM32F4xx_HAL_Driver/Src/stm32f4xx_hal_rtc_ex.c ****                                        (uint32_t)RTC_TAFCR_TAMPFREQ | (uint32_t)RTC_TAFCR_TAMPFLT |
 384:Libraries/STM32F4xx_HAL_Driver/Src/stm32f4xx_hal_rtc_ex.c ****                                        (uint32_t)RTC_TAFCR_TAMPPUDIS | (uint32_t)RTC_TAFCR_TAMPINSE
 639              		.loc 1 384 102 view .LVU237
 640 0040 42F4FF32 		orr	r2, r2, #130560
 641 0044 42F4C272 		orr	r2, r2, #388
 382:Libraries/STM32F4xx_HAL_Driver/Src/stm32f4xx_hal_rtc_ex.c ****                                        (uint32_t)RTC_TAFCR_TAMPFREQ | (uint32_t)RTC_TAFCR_TAMPFLT |
 642              		.loc 1 382 25 view .LVU238
 643 0048 21EA0202 		bic	r2, r1, r2
 644 004c 2264     		str	r2, [r4, #64]
 385:Libraries/STM32F4xx_HAL_Driver/Src/stm32f4xx_hal_rtc_ex.c **** 
 386:Libraries/STM32F4xx_HAL_Driver/Src/stm32f4xx_hal_rtc_ex.c ****   hrtc->Instance->TAFCR |= tmpreg;
 645              		.loc 1 386 3 is_stmt 1 view .LVU239
 646              		.loc 1 386 7 is_stmt 0 view .LVU240
 647 004e 0168     		ldr	r1, [r0]
 648              		.loc 1 386 25 view .LVU241
 649 0050 0A6C     		ldr	r2, [r1, #64]
 650 0052 1343     		orrs	r3, r3, r2
 651              	.LVL44:
 652              		.loc 1 386 25 view .LVU242
 653 0054 0B64     		str	r3, [r1, #64]
 387:Libraries/STM32F4xx_HAL_Driver/Src/stm32f4xx_hal_rtc_ex.c **** 
 388:Libraries/STM32F4xx_HAL_Driver/Src/stm32f4xx_hal_rtc_ex.c ****   hrtc->State = HAL_RTC_STATE_READY;
 654              		.loc 1 388 3 is_stmt 1 view .LVU243
 655              		.loc 1 388 15 is_stmt 0 view .LVU244
 656 0056 0123     		movs	r3, #1
 657 0058 4377     		strb	r3, [r0, #29]
 389:Libraries/STM32F4xx_HAL_Driver/Src/stm32f4xx_hal_rtc_ex.c **** 
 390:Libraries/STM32F4xx_HAL_Driver/Src/stm32f4xx_hal_rtc_ex.c ****   /* Process Unlocked */
 391:Libraries/STM32F4xx_HAL_Driver/Src/stm32f4xx_hal_rtc_ex.c ****   __HAL_UNLOCK(hrtc);
 658              		.loc 1 391 3 is_stmt 1 view .LVU245
 659              		.loc 1 391 3 view .LVU246
 660 005a 0023     		movs	r3, #0
 661 005c 0377     		strb	r3, [r0, #28]
 662              		.loc 1 391 3 view .LVU247
 392:Libraries/STM32F4xx_HAL_Driver/Src/stm32f4xx_hal_rtc_ex.c **** 
 393:Libraries/STM32F4xx_HAL_Driver/Src/stm32f4xx_hal_rtc_ex.c ****   return HAL_OK;
 663              		.loc 1 393 3 view .LVU248
 664              		.loc 1 393 10 is_stmt 0 view .LVU249
 665 005e 1846     		mov	r0, r3
 666              	.LVL45:
 394:Libraries/STM32F4xx_HAL_Driver/Src/stm32f4xx_hal_rtc_ex.c **** }
 667              		.loc 1 394 1 view .LVU250
 668 0060 10BC     		pop	{r4}
 669              	.LCFI6:
 670              		.cfi_restore 4
ARM GAS  C:\Users\yzy\AppData\Local\Temp\ccuah9XY.s 			page 20


 671              		.cfi_def_cfa_offset 0
 672 0062 7047     		bx	lr
 673              	.LVL46:
 674              	.L27:
 369:Libraries/STM32F4xx_HAL_Driver/Src/stm32f4xx_hal_rtc_ex.c **** 
 675              		.loc 1 369 3 view .LVU251
 676 0064 0220     		movs	r0, #2
 677              	.LVL47:
 678              		.loc 1 394 1 view .LVU252
 679 0066 7047     		bx	lr
 680              		.cfi_endproc
 681              	.LFE134:
 683              		.section	.text.HAL_RTCEx_SetTamper_IT,"ax",%progbits
 684              		.align	1
 685              		.global	HAL_RTCEx_SetTamper_IT
 686              		.syntax unified
 687              		.thumb
 688              		.thumb_func
 689              		.fpu softvfp
 691              	HAL_RTCEx_SetTamper_IT:
 692              	.LVL48:
 693              	.LFB135:
 395:Libraries/STM32F4xx_HAL_Driver/Src/stm32f4xx_hal_rtc_ex.c **** 
 396:Libraries/STM32F4xx_HAL_Driver/Src/stm32f4xx_hal_rtc_ex.c **** /**
 397:Libraries/STM32F4xx_HAL_Driver/Src/stm32f4xx_hal_rtc_ex.c ****   * @brief  Sets Tamper with interrupt.
 398:Libraries/STM32F4xx_HAL_Driver/Src/stm32f4xx_hal_rtc_ex.c ****   * @note   By calling this API we force the tamper interrupt for all tampers.
 399:Libraries/STM32F4xx_HAL_Driver/Src/stm32f4xx_hal_rtc_ex.c ****   * @param  hrtc pointer to a RTC_HandleTypeDef structure that contains
 400:Libraries/STM32F4xx_HAL_Driver/Src/stm32f4xx_hal_rtc_ex.c ****   *                the configuration information for RTC.
 401:Libraries/STM32F4xx_HAL_Driver/Src/stm32f4xx_hal_rtc_ex.c ****   * @param  sTamper Pointer to RTC Tamper.
 402:Libraries/STM32F4xx_HAL_Driver/Src/stm32f4xx_hal_rtc_ex.c ****   * @retval HAL status
 403:Libraries/STM32F4xx_HAL_Driver/Src/stm32f4xx_hal_rtc_ex.c ****   */
 404:Libraries/STM32F4xx_HAL_Driver/Src/stm32f4xx_hal_rtc_ex.c **** HAL_StatusTypeDef HAL_RTCEx_SetTamper_IT(RTC_HandleTypeDef *hrtc, RTC_TamperTypeDef* sTamper)
 405:Libraries/STM32F4xx_HAL_Driver/Src/stm32f4xx_hal_rtc_ex.c **** {
 694              		.loc 1 405 1 is_stmt 1 view -0
 695              		.cfi_startproc
 696              		@ args = 0, pretend = 0, frame = 0
 697              		@ frame_needed = 0, uses_anonymous_args = 0
 698              		@ link register save eliminated.
 406:Libraries/STM32F4xx_HAL_Driver/Src/stm32f4xx_hal_rtc_ex.c ****   uint32_t tmpreg = 0U;
 699              		.loc 1 406 3 view .LVU254
 407:Libraries/STM32F4xx_HAL_Driver/Src/stm32f4xx_hal_rtc_ex.c **** 
 408:Libraries/STM32F4xx_HAL_Driver/Src/stm32f4xx_hal_rtc_ex.c ****   /* Check the parameters */
 409:Libraries/STM32F4xx_HAL_Driver/Src/stm32f4xx_hal_rtc_ex.c ****   assert_param(IS_RTC_TAMPER(sTamper->Tamper));
 700              		.loc 1 409 3 view .LVU255
 410:Libraries/STM32F4xx_HAL_Driver/Src/stm32f4xx_hal_rtc_ex.c ****   assert_param(IS_RTC_TAMPER_PIN(sTamper->PinSelection));
 701              		.loc 1 410 3 view .LVU256
 411:Libraries/STM32F4xx_HAL_Driver/Src/stm32f4xx_hal_rtc_ex.c ****   assert_param(IS_RTC_TAMPER_TRIGGER(sTamper->Trigger));
 702              		.loc 1 411 3 view .LVU257
 412:Libraries/STM32F4xx_HAL_Driver/Src/stm32f4xx_hal_rtc_ex.c ****   assert_param(IS_RTC_TAMPER_FILTER(sTamper->Filter));
 703              		.loc 1 412 3 view .LVU258
 413:Libraries/STM32F4xx_HAL_Driver/Src/stm32f4xx_hal_rtc_ex.c ****   assert_param(IS_RTC_TAMPER_SAMPLING_FREQ(sTamper->SamplingFrequency));
 704              		.loc 1 413 3 view .LVU259
 414:Libraries/STM32F4xx_HAL_Driver/Src/stm32f4xx_hal_rtc_ex.c ****   assert_param(IS_RTC_TAMPER_PRECHARGE_DURATION(sTamper->PrechargeDuration));
 705              		.loc 1 414 3 view .LVU260
 415:Libraries/STM32F4xx_HAL_Driver/Src/stm32f4xx_hal_rtc_ex.c ****   assert_param(IS_RTC_TAMPER_PULLUP_STATE(sTamper->TamperPullUp));
 706              		.loc 1 415 3 view .LVU261
 416:Libraries/STM32F4xx_HAL_Driver/Src/stm32f4xx_hal_rtc_ex.c ****   assert_param(IS_RTC_TAMPER_TIMESTAMPONTAMPER_DETECTION(sTamper->TimeStampOnTamperDetection));
ARM GAS  C:\Users\yzy\AppData\Local\Temp\ccuah9XY.s 			page 21


 707              		.loc 1 416 3 view .LVU262
 417:Libraries/STM32F4xx_HAL_Driver/Src/stm32f4xx_hal_rtc_ex.c **** 
 418:Libraries/STM32F4xx_HAL_Driver/Src/stm32f4xx_hal_rtc_ex.c ****   /* Process Locked */
 419:Libraries/STM32F4xx_HAL_Driver/Src/stm32f4xx_hal_rtc_ex.c ****   __HAL_LOCK(hrtc);
 708              		.loc 1 419 3 view .LVU263
 709              		.loc 1 419 3 view .LVU264
 710 0000 037F     		ldrb	r3, [r0, #28]	@ zero_extendqisi2
 711 0002 012B     		cmp	r3, #1
 712 0004 4CD0     		beq	.L37
 405:Libraries/STM32F4xx_HAL_Driver/Src/stm32f4xx_hal_rtc_ex.c ****   uint32_t tmpreg = 0U;
 713              		.loc 1 405 1 is_stmt 0 discriminator 2 view .LVU265
 714 0006 30B4     		push	{r4, r5}
 715              	.LCFI7:
 716              		.cfi_def_cfa_offset 8
 717              		.cfi_offset 4, -8
 718              		.cfi_offset 5, -4
 719              		.loc 1 419 3 is_stmt 1 discriminator 2 view .LVU266
 720 0008 0123     		movs	r3, #1
 721 000a 0377     		strb	r3, [r0, #28]
 722              		.loc 1 419 3 discriminator 2 view .LVU267
 420:Libraries/STM32F4xx_HAL_Driver/Src/stm32f4xx_hal_rtc_ex.c **** 
 421:Libraries/STM32F4xx_HAL_Driver/Src/stm32f4xx_hal_rtc_ex.c ****   hrtc->State = HAL_RTC_STATE_BUSY;
 723              		.loc 1 421 3 discriminator 2 view .LVU268
 724              		.loc 1 421 15 is_stmt 0 discriminator 2 view .LVU269
 725 000c 0223     		movs	r3, #2
 726 000e 4377     		strb	r3, [r0, #29]
 422:Libraries/STM32F4xx_HAL_Driver/Src/stm32f4xx_hal_rtc_ex.c **** 
 423:Libraries/STM32F4xx_HAL_Driver/Src/stm32f4xx_hal_rtc_ex.c ****   /* Configure the tamper trigger */
 424:Libraries/STM32F4xx_HAL_Driver/Src/stm32f4xx_hal_rtc_ex.c ****   if(sTamper->Trigger != RTC_TAMPERTRIGGER_RISINGEDGE)
 727              		.loc 1 424 3 is_stmt 1 discriminator 2 view .LVU270
 728              		.loc 1 424 13 is_stmt 0 discriminator 2 view .LVU271
 729 0010 8B68     		ldr	r3, [r1, #8]
 730              		.loc 1 424 5 discriminator 2 view .LVU272
 731 0012 13B1     		cbz	r3, .L34
 425:Libraries/STM32F4xx_HAL_Driver/Src/stm32f4xx_hal_rtc_ex.c ****   {
 426:Libraries/STM32F4xx_HAL_Driver/Src/stm32f4xx_hal_rtc_ex.c ****     sTamper->Trigger = (uint32_t)(sTamper->Tamper << 1U);
 732              		.loc 1 426 5 is_stmt 1 view .LVU273
 733              		.loc 1 426 42 is_stmt 0 view .LVU274
 734 0014 0B68     		ldr	r3, [r1]
 735              		.loc 1 426 51 view .LVU275
 736 0016 5B00     		lsls	r3, r3, #1
 737              		.loc 1 426 22 view .LVU276
 738 0018 8B60     		str	r3, [r1, #8]
 739              	.L34:
 427:Libraries/STM32F4xx_HAL_Driver/Src/stm32f4xx_hal_rtc_ex.c ****   }
 428:Libraries/STM32F4xx_HAL_Driver/Src/stm32f4xx_hal_rtc_ex.c **** 
 429:Libraries/STM32F4xx_HAL_Driver/Src/stm32f4xx_hal_rtc_ex.c ****   tmpreg = ((uint32_t)sTamper->Tamper | (uint32_t)sTamper->PinSelection | (uint32_t)sTamper->Trigge
 740              		.loc 1 429 3 is_stmt 1 view .LVU277
 741              		.loc 1 429 30 is_stmt 0 view .LVU278
 742 001a 0A68     		ldr	r2, [r1]
 743              		.loc 1 429 58 view .LVU279
 744 001c 4B68     		ldr	r3, [r1, #4]
 745              		.loc 1 429 39 view .LVU280
 746 001e 1343     		orrs	r3, r3, r2
 747              		.loc 1 429 92 view .LVU281
 748 0020 8C68     		ldr	r4, [r1, #8]
 749              		.loc 1 429 73 view .LVU282
ARM GAS  C:\Users\yzy\AppData\Local\Temp\ccuah9XY.s 			page 22


 750 0022 2343     		orrs	r3, r3, r4
 430:Libraries/STM32F4xx_HAL_Driver/Src/stm32f4xx_hal_rtc_ex.c ****             (uint32_t)sTamper->Filter | (uint32_t)sTamper->SamplingFrequency | (uint32_t)sTamper->P
 751              		.loc 1 430 30 view .LVU283
 752 0024 CC68     		ldr	r4, [r1, #12]
 429:Libraries/STM32F4xx_HAL_Driver/Src/stm32f4xx_hal_rtc_ex.c ****             (uint32_t)sTamper->Filter | (uint32_t)sTamper->SamplingFrequency | (uint32_t)sTamper->P
 753              		.loc 1 429 103 view .LVU284
 754 0026 2343     		orrs	r3, r3, r4
 755              		.loc 1 430 58 view .LVU285
 756 0028 0C69     		ldr	r4, [r1, #16]
 757              		.loc 1 430 39 view .LVU286
 758 002a 2343     		orrs	r3, r3, r4
 759              		.loc 1 430 97 view .LVU287
 760 002c 4C69     		ldr	r4, [r1, #20]
 761              		.loc 1 430 78 view .LVU288
 762 002e 2343     		orrs	r3, r3, r4
 431:Libraries/STM32F4xx_HAL_Driver/Src/stm32f4xx_hal_rtc_ex.c ****             (uint32_t)sTamper->TamperPullUp | sTamper->TimeStampOnTamperDetection);
 763              		.loc 1 431 30 view .LVU289
 764 0030 8C69     		ldr	r4, [r1, #24]
 430:Libraries/STM32F4xx_HAL_Driver/Src/stm32f4xx_hal_rtc_ex.c ****             (uint32_t)sTamper->Filter | (uint32_t)sTamper->SamplingFrequency | (uint32_t)sTamper->P
 765              		.loc 1 430 117 view .LVU290
 766 0032 2343     		orrs	r3, r3, r4
 767              		.loc 1 431 54 view .LVU291
 768 0034 CC69     		ldr	r4, [r1, #28]
 429:Libraries/STM32F4xx_HAL_Driver/Src/stm32f4xx_hal_rtc_ex.c ****             (uint32_t)sTamper->Filter | (uint32_t)sTamper->SamplingFrequency | (uint32_t)sTamper->P
 769              		.loc 1 429 10 view .LVU292
 770 0036 2343     		orrs	r3, r3, r4
 771              	.LVL49:
 432:Libraries/STM32F4xx_HAL_Driver/Src/stm32f4xx_hal_rtc_ex.c **** 
 433:Libraries/STM32F4xx_HAL_Driver/Src/stm32f4xx_hal_rtc_ex.c ****   hrtc->Instance->TAFCR &= (uint32_t)~((uint32_t)sTamper->Tamper | (uint32_t)(sTamper->Tamper << 1U
 772              		.loc 1 433 3 is_stmt 1 view .LVU293
 773              		.loc 1 433 7 is_stmt 0 view .LVU294
 774 0038 0568     		ldr	r5, [r0]
 775              		.loc 1 433 25 view .LVU295
 776 003a 2C6C     		ldr	r4, [r5, #64]
 777              		.loc 1 433 66 view .LVU296
 778 003c 42EA4202 		orr	r2, r2, r2, lsl #1
 434:Libraries/STM32F4xx_HAL_Driver/Src/stm32f4xx_hal_rtc_ex.c ****                                        (uint32_t)RTC_TAFCR_TAMPFREQ | (uint32_t)RTC_TAFCR_TAMPFLT |
 435:Libraries/STM32F4xx_HAL_Driver/Src/stm32f4xx_hal_rtc_ex.c ****                                        (uint32_t)RTC_TAFCR_TAMPPUDIS | (uint32_t)RTC_TAFCR_TAMPINSE
 779              		.loc 1 435 70 view .LVU297
 780 0040 42F4FF32 		orr	r2, r2, #130560
 781 0044 42F4C072 		orr	r2, r2, #384
 433:Libraries/STM32F4xx_HAL_Driver/Src/stm32f4xx_hal_rtc_ex.c ****                                        (uint32_t)RTC_TAFCR_TAMPFREQ | (uint32_t)RTC_TAFCR_TAMPFLT |
 782              		.loc 1 433 25 view .LVU298
 783 0048 24EA0202 		bic	r2, r4, r2
 784 004c 2A64     		str	r2, [r5, #64]
 436:Libraries/STM32F4xx_HAL_Driver/Src/stm32f4xx_hal_rtc_ex.c **** 
 437:Libraries/STM32F4xx_HAL_Driver/Src/stm32f4xx_hal_rtc_ex.c ****   hrtc->Instance->TAFCR |= tmpreg;
 785              		.loc 1 437 3 is_stmt 1 view .LVU299
 786              		.loc 1 437 7 is_stmt 0 view .LVU300
 787 004e 0468     		ldr	r4, [r0]
 788              		.loc 1 437 25 view .LVU301
 789 0050 226C     		ldr	r2, [r4, #64]
 790 0052 1343     		orrs	r3, r3, r2
 791              	.LVL50:
 792              		.loc 1 437 25 view .LVU302
 793 0054 2364     		str	r3, [r4, #64]
 438:Libraries/STM32F4xx_HAL_Driver/Src/stm32f4xx_hal_rtc_ex.c **** 
ARM GAS  C:\Users\yzy\AppData\Local\Temp\ccuah9XY.s 			page 23


 439:Libraries/STM32F4xx_HAL_Driver/Src/stm32f4xx_hal_rtc_ex.c ****   /* Configure the Tamper Interrupt in the RTC_TAFCR */
 440:Libraries/STM32F4xx_HAL_Driver/Src/stm32f4xx_hal_rtc_ex.c ****   hrtc->Instance->TAFCR |= (uint32_t)RTC_TAFCR_TAMPIE;
 794              		.loc 1 440 3 is_stmt 1 view .LVU303
 795              		.loc 1 440 7 is_stmt 0 view .LVU304
 796 0056 0268     		ldr	r2, [r0]
 797              		.loc 1 440 25 view .LVU305
 798 0058 136C     		ldr	r3, [r2, #64]
 799 005a 43F00403 		orr	r3, r3, #4
 800 005e 1364     		str	r3, [r2, #64]
 441:Libraries/STM32F4xx_HAL_Driver/Src/stm32f4xx_hal_rtc_ex.c **** 
 442:Libraries/STM32F4xx_HAL_Driver/Src/stm32f4xx_hal_rtc_ex.c ****   if(sTamper->Tamper == RTC_TAMPER_1)
 801              		.loc 1 442 3 is_stmt 1 view .LVU306
 802              		.loc 1 442 13 is_stmt 0 view .LVU307
 803 0060 0B68     		ldr	r3, [r1]
 804              		.loc 1 442 5 view .LVU308
 805 0062 012B     		cmp	r3, #1
 806 0064 15D0     		beq	.L42
 443:Libraries/STM32F4xx_HAL_Driver/Src/stm32f4xx_hal_rtc_ex.c ****   {
 444:Libraries/STM32F4xx_HAL_Driver/Src/stm32f4xx_hal_rtc_ex.c ****     /* Clear RTC Tamper 1 flag */
 445:Libraries/STM32F4xx_HAL_Driver/Src/stm32f4xx_hal_rtc_ex.c ****     __HAL_RTC_TAMPER_CLEAR_FLAG(hrtc, RTC_FLAG_TAMP1F);
 446:Libraries/STM32F4xx_HAL_Driver/Src/stm32f4xx_hal_rtc_ex.c ****   }
 447:Libraries/STM32F4xx_HAL_Driver/Src/stm32f4xx_hal_rtc_ex.c ****   else
 448:Libraries/STM32F4xx_HAL_Driver/Src/stm32f4xx_hal_rtc_ex.c ****   {
 449:Libraries/STM32F4xx_HAL_Driver/Src/stm32f4xx_hal_rtc_ex.c ****     /* Clear RTC Tamper 2 flag */
 450:Libraries/STM32F4xx_HAL_Driver/Src/stm32f4xx_hal_rtc_ex.c ****     __HAL_RTC_TAMPER_CLEAR_FLAG(hrtc, RTC_FLAG_TAMP2F);
 807              		.loc 1 450 5 is_stmt 1 view .LVU309
 808 0066 0268     		ldr	r2, [r0]
 809 0068 D368     		ldr	r3, [r2, #12]
 810 006a DBB2     		uxtb	r3, r3
 811 006c 63F48143 		orn	r3, r3, #16512
 812 0070 D360     		str	r3, [r2, #12]
 813              	.L36:
 451:Libraries/STM32F4xx_HAL_Driver/Src/stm32f4xx_hal_rtc_ex.c ****   }
 452:Libraries/STM32F4xx_HAL_Driver/Src/stm32f4xx_hal_rtc_ex.c **** 
 453:Libraries/STM32F4xx_HAL_Driver/Src/stm32f4xx_hal_rtc_ex.c ****   /* RTC Tamper Interrupt Configuration: EXTI configuration */
 454:Libraries/STM32F4xx_HAL_Driver/Src/stm32f4xx_hal_rtc_ex.c ****   __HAL_RTC_TAMPER_TIMESTAMP_EXTI_ENABLE_IT();
 814              		.loc 1 454 3 view .LVU310
 815 0072 0C4B     		ldr	r3, .L43
 816 0074 1A68     		ldr	r2, [r3]
 817 0076 42F40012 		orr	r2, r2, #2097152
 818 007a 1A60     		str	r2, [r3]
 455:Libraries/STM32F4xx_HAL_Driver/Src/stm32f4xx_hal_rtc_ex.c **** 
 456:Libraries/STM32F4xx_HAL_Driver/Src/stm32f4xx_hal_rtc_ex.c ****   EXTI->RTSR |= RTC_EXTI_LINE_TAMPER_TIMESTAMP_EVENT;
 819              		.loc 1 456 3 view .LVU311
 820              		.loc 1 456 14 is_stmt 0 view .LVU312
 821 007c 9A68     		ldr	r2, [r3, #8]
 822 007e 42F40012 		orr	r2, r2, #2097152
 823 0082 9A60     		str	r2, [r3, #8]
 457:Libraries/STM32F4xx_HAL_Driver/Src/stm32f4xx_hal_rtc_ex.c **** 
 458:Libraries/STM32F4xx_HAL_Driver/Src/stm32f4xx_hal_rtc_ex.c ****   hrtc->State = HAL_RTC_STATE_READY;
 824              		.loc 1 458 3 is_stmt 1 view .LVU313
 825              		.loc 1 458 15 is_stmt 0 view .LVU314
 826 0084 0123     		movs	r3, #1
 827 0086 4377     		strb	r3, [r0, #29]
 459:Libraries/STM32F4xx_HAL_Driver/Src/stm32f4xx_hal_rtc_ex.c **** 
 460:Libraries/STM32F4xx_HAL_Driver/Src/stm32f4xx_hal_rtc_ex.c ****   /* Process Unlocked */
 461:Libraries/STM32F4xx_HAL_Driver/Src/stm32f4xx_hal_rtc_ex.c ****   __HAL_UNLOCK(hrtc);
ARM GAS  C:\Users\yzy\AppData\Local\Temp\ccuah9XY.s 			page 24


 828              		.loc 1 461 3 is_stmt 1 view .LVU315
 829              		.loc 1 461 3 view .LVU316
 830 0088 0023     		movs	r3, #0
 831 008a 0377     		strb	r3, [r0, #28]
 832              		.loc 1 461 3 view .LVU317
 462:Libraries/STM32F4xx_HAL_Driver/Src/stm32f4xx_hal_rtc_ex.c **** 
 463:Libraries/STM32F4xx_HAL_Driver/Src/stm32f4xx_hal_rtc_ex.c ****   return HAL_OK;
 833              		.loc 1 463 3 view .LVU318
 834              		.loc 1 463 10 is_stmt 0 view .LVU319
 835 008c 1846     		mov	r0, r3
 836              	.LVL51:
 464:Libraries/STM32F4xx_HAL_Driver/Src/stm32f4xx_hal_rtc_ex.c **** }
 837              		.loc 1 464 1 view .LVU320
 838 008e 30BC     		pop	{r4, r5}
 839              	.LCFI8:
 840              		.cfi_remember_state
 841              		.cfi_restore 5
 842              		.cfi_restore 4
 843              		.cfi_def_cfa_offset 0
 844 0090 7047     		bx	lr
 845              	.LVL52:
 846              	.L42:
 847              	.LCFI9:
 848              		.cfi_restore_state
 445:Libraries/STM32F4xx_HAL_Driver/Src/stm32f4xx_hal_rtc_ex.c ****   }
 849              		.loc 1 445 5 is_stmt 1 view .LVU321
 850 0092 0268     		ldr	r2, [r0]
 851 0094 D368     		ldr	r3, [r2, #12]
 852 0096 DBB2     		uxtb	r3, r3
 853 0098 63F40253 		orn	r3, r3, #8320
 854 009c D360     		str	r3, [r2, #12]
 855 009e E8E7     		b	.L36
 856              	.LVL53:
 857              	.L37:
 858              	.LCFI10:
 859              		.cfi_def_cfa_offset 0
 860              		.cfi_restore 4
 861              		.cfi_restore 5
 419:Libraries/STM32F4xx_HAL_Driver/Src/stm32f4xx_hal_rtc_ex.c **** 
 862              		.loc 1 419 3 is_stmt 0 view .LVU322
 863 00a0 0220     		movs	r0, #2
 864              	.LVL54:
 865              		.loc 1 464 1 view .LVU323
 866 00a2 7047     		bx	lr
 867              	.L44:
 868              		.align	2
 869              	.L43:
 870 00a4 003C0140 		.word	1073822720
 871              		.cfi_endproc
 872              	.LFE135:
 874              		.section	.text.HAL_RTCEx_DeactivateTamper,"ax",%progbits
 875              		.align	1
 876              		.global	HAL_RTCEx_DeactivateTamper
 877              		.syntax unified
 878              		.thumb
 879              		.thumb_func
 880              		.fpu softvfp
ARM GAS  C:\Users\yzy\AppData\Local\Temp\ccuah9XY.s 			page 25


 882              	HAL_RTCEx_DeactivateTamper:
 883              	.LVL55:
 884              	.LFB136:
 465:Libraries/STM32F4xx_HAL_Driver/Src/stm32f4xx_hal_rtc_ex.c **** 
 466:Libraries/STM32F4xx_HAL_Driver/Src/stm32f4xx_hal_rtc_ex.c **** /**
 467:Libraries/STM32F4xx_HAL_Driver/Src/stm32f4xx_hal_rtc_ex.c ****   * @brief  Deactivates Tamper.
 468:Libraries/STM32F4xx_HAL_Driver/Src/stm32f4xx_hal_rtc_ex.c ****   * @param  hrtc pointer to a RTC_HandleTypeDef structure that contains
 469:Libraries/STM32F4xx_HAL_Driver/Src/stm32f4xx_hal_rtc_ex.c ****   *                the configuration information for RTC.
 470:Libraries/STM32F4xx_HAL_Driver/Src/stm32f4xx_hal_rtc_ex.c ****   * @param  Tamper Selected tamper pin.
 471:Libraries/STM32F4xx_HAL_Driver/Src/stm32f4xx_hal_rtc_ex.c ****   *          This parameter can be RTC_Tamper_1 and/or RTC_TAMPER_2.
 472:Libraries/STM32F4xx_HAL_Driver/Src/stm32f4xx_hal_rtc_ex.c ****   * @retval HAL status
 473:Libraries/STM32F4xx_HAL_Driver/Src/stm32f4xx_hal_rtc_ex.c ****   */
 474:Libraries/STM32F4xx_HAL_Driver/Src/stm32f4xx_hal_rtc_ex.c **** HAL_StatusTypeDef HAL_RTCEx_DeactivateTamper(RTC_HandleTypeDef *hrtc, uint32_t Tamper)
 475:Libraries/STM32F4xx_HAL_Driver/Src/stm32f4xx_hal_rtc_ex.c **** {
 885              		.loc 1 475 1 is_stmt 1 view -0
 886              		.cfi_startproc
 887              		@ args = 0, pretend = 0, frame = 0
 888              		@ frame_needed = 0, uses_anonymous_args = 0
 889              		@ link register save eliminated.
 476:Libraries/STM32F4xx_HAL_Driver/Src/stm32f4xx_hal_rtc_ex.c ****   assert_param(IS_RTC_TAMPER(Tamper));
 890              		.loc 1 476 3 view .LVU325
 477:Libraries/STM32F4xx_HAL_Driver/Src/stm32f4xx_hal_rtc_ex.c **** 
 478:Libraries/STM32F4xx_HAL_Driver/Src/stm32f4xx_hal_rtc_ex.c ****   /* Process Locked */
 479:Libraries/STM32F4xx_HAL_Driver/Src/stm32f4xx_hal_rtc_ex.c ****   __HAL_LOCK(hrtc);
 891              		.loc 1 479 3 view .LVU326
 892              		.loc 1 479 3 view .LVU327
 893 0000 037F     		ldrb	r3, [r0, #28]	@ zero_extendqisi2
 894 0002 012B     		cmp	r3, #1
 895 0004 0FD0     		beq	.L47
 475:Libraries/STM32F4xx_HAL_Driver/Src/stm32f4xx_hal_rtc_ex.c ****   assert_param(IS_RTC_TAMPER(Tamper));
 896              		.loc 1 475 1 is_stmt 0 discriminator 2 view .LVU328
 897 0006 10B4     		push	{r4}
 898              	.LCFI11:
 899              		.cfi_def_cfa_offset 4
 900              		.cfi_offset 4, -4
 901              		.loc 1 479 3 is_stmt 1 discriminator 2 view .LVU329
 902 0008 0122     		movs	r2, #1
 903 000a 0277     		strb	r2, [r0, #28]
 904              		.loc 1 479 3 discriminator 2 view .LVU330
 480:Libraries/STM32F4xx_HAL_Driver/Src/stm32f4xx_hal_rtc_ex.c **** 
 481:Libraries/STM32F4xx_HAL_Driver/Src/stm32f4xx_hal_rtc_ex.c ****   hrtc->State = HAL_RTC_STATE_BUSY;
 905              		.loc 1 481 3 discriminator 2 view .LVU331
 906              		.loc 1 481 15 is_stmt 0 discriminator 2 view .LVU332
 907 000c 0223     		movs	r3, #2
 908 000e 4377     		strb	r3, [r0, #29]
 482:Libraries/STM32F4xx_HAL_Driver/Src/stm32f4xx_hal_rtc_ex.c **** 
 483:Libraries/STM32F4xx_HAL_Driver/Src/stm32f4xx_hal_rtc_ex.c ****   /* Disable the selected Tamper pin */
 484:Libraries/STM32F4xx_HAL_Driver/Src/stm32f4xx_hal_rtc_ex.c ****   hrtc->Instance->TAFCR &= (uint32_t)~Tamper;
 909              		.loc 1 484 3 is_stmt 1 discriminator 2 view .LVU333
 910              		.loc 1 484 7 is_stmt 0 discriminator 2 view .LVU334
 911 0010 0468     		ldr	r4, [r0]
 912              		.loc 1 484 25 discriminator 2 view .LVU335
 913 0012 236C     		ldr	r3, [r4, #64]
 914 0014 23EA0101 		bic	r1, r3, r1
 915              	.LVL56:
 916              		.loc 1 484 25 discriminator 2 view .LVU336
 917 0018 2164     		str	r1, [r4, #64]
ARM GAS  C:\Users\yzy\AppData\Local\Temp\ccuah9XY.s 			page 26


 485:Libraries/STM32F4xx_HAL_Driver/Src/stm32f4xx_hal_rtc_ex.c **** 
 486:Libraries/STM32F4xx_HAL_Driver/Src/stm32f4xx_hal_rtc_ex.c ****   hrtc->State = HAL_RTC_STATE_READY;
 918              		.loc 1 486 3 is_stmt 1 discriminator 2 view .LVU337
 919              		.loc 1 486 15 is_stmt 0 discriminator 2 view .LVU338
 920 001a 4277     		strb	r2, [r0, #29]
 487:Libraries/STM32F4xx_HAL_Driver/Src/stm32f4xx_hal_rtc_ex.c **** 
 488:Libraries/STM32F4xx_HAL_Driver/Src/stm32f4xx_hal_rtc_ex.c ****   /* Process Unlocked */
 489:Libraries/STM32F4xx_HAL_Driver/Src/stm32f4xx_hal_rtc_ex.c ****   __HAL_UNLOCK(hrtc);
 921              		.loc 1 489 3 is_stmt 1 discriminator 2 view .LVU339
 922              		.loc 1 489 3 discriminator 2 view .LVU340
 923 001c 0023     		movs	r3, #0
 924 001e 0377     		strb	r3, [r0, #28]
 925              		.loc 1 489 3 discriminator 2 view .LVU341
 490:Libraries/STM32F4xx_HAL_Driver/Src/stm32f4xx_hal_rtc_ex.c **** 
 491:Libraries/STM32F4xx_HAL_Driver/Src/stm32f4xx_hal_rtc_ex.c ****   return HAL_OK;
 926              		.loc 1 491 3 discriminator 2 view .LVU342
 927              		.loc 1 491 10 is_stmt 0 discriminator 2 view .LVU343
 928 0020 1846     		mov	r0, r3
 929              	.LVL57:
 492:Libraries/STM32F4xx_HAL_Driver/Src/stm32f4xx_hal_rtc_ex.c **** }
 930              		.loc 1 492 1 discriminator 2 view .LVU344
 931 0022 10BC     		pop	{r4}
 932              	.LCFI12:
 933              		.cfi_restore 4
 934              		.cfi_def_cfa_offset 0
 935 0024 7047     		bx	lr
 936              	.LVL58:
 937              	.L47:
 479:Libraries/STM32F4xx_HAL_Driver/Src/stm32f4xx_hal_rtc_ex.c **** 
 938              		.loc 1 479 3 view .LVU345
 939 0026 0220     		movs	r0, #2
 940              	.LVL59:
 941              		.loc 1 492 1 view .LVU346
 942 0028 7047     		bx	lr
 943              		.cfi_endproc
 944              	.LFE136:
 946              		.section	.text.HAL_RTCEx_TimeStampEventCallback,"ax",%progbits
 947              		.align	1
 948              		.weak	HAL_RTCEx_TimeStampEventCallback
 949              		.syntax unified
 950              		.thumb
 951              		.thumb_func
 952              		.fpu softvfp
 954              	HAL_RTCEx_TimeStampEventCallback:
 955              	.LVL60:
 956              	.LFB138:
 493:Libraries/STM32F4xx_HAL_Driver/Src/stm32f4xx_hal_rtc_ex.c **** 
 494:Libraries/STM32F4xx_HAL_Driver/Src/stm32f4xx_hal_rtc_ex.c **** /**
 495:Libraries/STM32F4xx_HAL_Driver/Src/stm32f4xx_hal_rtc_ex.c ****   * @brief  This function handles TimeStamp interrupt request.
 496:Libraries/STM32F4xx_HAL_Driver/Src/stm32f4xx_hal_rtc_ex.c ****   * @param  hrtc pointer to a RTC_HandleTypeDef structure that contains
 497:Libraries/STM32F4xx_HAL_Driver/Src/stm32f4xx_hal_rtc_ex.c ****   *                the configuration information for RTC.
 498:Libraries/STM32F4xx_HAL_Driver/Src/stm32f4xx_hal_rtc_ex.c ****   * @retval None
 499:Libraries/STM32F4xx_HAL_Driver/Src/stm32f4xx_hal_rtc_ex.c ****   */
 500:Libraries/STM32F4xx_HAL_Driver/Src/stm32f4xx_hal_rtc_ex.c **** void HAL_RTCEx_TamperTimeStampIRQHandler(RTC_HandleTypeDef *hrtc)
 501:Libraries/STM32F4xx_HAL_Driver/Src/stm32f4xx_hal_rtc_ex.c **** {
 502:Libraries/STM32F4xx_HAL_Driver/Src/stm32f4xx_hal_rtc_ex.c ****   /* Get the TimeStamp interrupt source enable status */
 503:Libraries/STM32F4xx_HAL_Driver/Src/stm32f4xx_hal_rtc_ex.c ****   if(__HAL_RTC_TIMESTAMP_GET_IT_SOURCE(hrtc, RTC_IT_TS) != (uint32_t)RESET)
ARM GAS  C:\Users\yzy\AppData\Local\Temp\ccuah9XY.s 			page 27


 504:Libraries/STM32F4xx_HAL_Driver/Src/stm32f4xx_hal_rtc_ex.c ****   {
 505:Libraries/STM32F4xx_HAL_Driver/Src/stm32f4xx_hal_rtc_ex.c ****     /* Get the pending status of the TIMESTAMP Interrupt */
 506:Libraries/STM32F4xx_HAL_Driver/Src/stm32f4xx_hal_rtc_ex.c ****     if(__HAL_RTC_TIMESTAMP_GET_FLAG(hrtc, RTC_FLAG_TSF) != (uint32_t)RESET)
 507:Libraries/STM32F4xx_HAL_Driver/Src/stm32f4xx_hal_rtc_ex.c ****     {
 508:Libraries/STM32F4xx_HAL_Driver/Src/stm32f4xx_hal_rtc_ex.c ****       /* TIMESTAMP callback */
 509:Libraries/STM32F4xx_HAL_Driver/Src/stm32f4xx_hal_rtc_ex.c **** #if (USE_HAL_RTC_REGISTER_CALLBACKS == 1)
 510:Libraries/STM32F4xx_HAL_Driver/Src/stm32f4xx_hal_rtc_ex.c ****       hrtc->TimeStampEventCallback(hrtc);
 511:Libraries/STM32F4xx_HAL_Driver/Src/stm32f4xx_hal_rtc_ex.c **** #else
 512:Libraries/STM32F4xx_HAL_Driver/Src/stm32f4xx_hal_rtc_ex.c ****       HAL_RTCEx_TimeStampEventCallback(hrtc);
 513:Libraries/STM32F4xx_HAL_Driver/Src/stm32f4xx_hal_rtc_ex.c **** #endif /* USE_HAL_RTC_REGISTER_CALLBACKS */
 514:Libraries/STM32F4xx_HAL_Driver/Src/stm32f4xx_hal_rtc_ex.c **** 
 515:Libraries/STM32F4xx_HAL_Driver/Src/stm32f4xx_hal_rtc_ex.c ****       /* Clear the TIMESTAMP interrupt pending bit */
 516:Libraries/STM32F4xx_HAL_Driver/Src/stm32f4xx_hal_rtc_ex.c ****       __HAL_RTC_TIMESTAMP_CLEAR_FLAG(hrtc,RTC_FLAG_TSF);
 517:Libraries/STM32F4xx_HAL_Driver/Src/stm32f4xx_hal_rtc_ex.c ****     }
 518:Libraries/STM32F4xx_HAL_Driver/Src/stm32f4xx_hal_rtc_ex.c ****   }
 519:Libraries/STM32F4xx_HAL_Driver/Src/stm32f4xx_hal_rtc_ex.c **** 
 520:Libraries/STM32F4xx_HAL_Driver/Src/stm32f4xx_hal_rtc_ex.c ****   /* Get the Tamper1 interrupt source enable status */
 521:Libraries/STM32F4xx_HAL_Driver/Src/stm32f4xx_hal_rtc_ex.c ****   if(__HAL_RTC_TAMPER_GET_IT_SOURCE(hrtc, RTC_IT_TAMP) != (uint32_t)RESET)
 522:Libraries/STM32F4xx_HAL_Driver/Src/stm32f4xx_hal_rtc_ex.c ****   {
 523:Libraries/STM32F4xx_HAL_Driver/Src/stm32f4xx_hal_rtc_ex.c ****     /* Get the pending status of the Tamper1 Interrupt */
 524:Libraries/STM32F4xx_HAL_Driver/Src/stm32f4xx_hal_rtc_ex.c ****     if(__HAL_RTC_TAMPER_GET_FLAG(hrtc, RTC_FLAG_TAMP1F) != (uint32_t)RESET)
 525:Libraries/STM32F4xx_HAL_Driver/Src/stm32f4xx_hal_rtc_ex.c ****     {
 526:Libraries/STM32F4xx_HAL_Driver/Src/stm32f4xx_hal_rtc_ex.c ****       /* Tamper callback */
 527:Libraries/STM32F4xx_HAL_Driver/Src/stm32f4xx_hal_rtc_ex.c **** #if (USE_HAL_RTC_REGISTER_CALLBACKS == 1)
 528:Libraries/STM32F4xx_HAL_Driver/Src/stm32f4xx_hal_rtc_ex.c ****       hrtc->Tamper1EventCallback(hrtc);
 529:Libraries/STM32F4xx_HAL_Driver/Src/stm32f4xx_hal_rtc_ex.c **** #else
 530:Libraries/STM32F4xx_HAL_Driver/Src/stm32f4xx_hal_rtc_ex.c ****       HAL_RTCEx_Tamper1EventCallback(hrtc);
 531:Libraries/STM32F4xx_HAL_Driver/Src/stm32f4xx_hal_rtc_ex.c **** #endif /* USE_HAL_RTC_REGISTER_CALLBACKS */
 532:Libraries/STM32F4xx_HAL_Driver/Src/stm32f4xx_hal_rtc_ex.c **** 
 533:Libraries/STM32F4xx_HAL_Driver/Src/stm32f4xx_hal_rtc_ex.c ****       /* Clear the Tamper interrupt pending bit */
 534:Libraries/STM32F4xx_HAL_Driver/Src/stm32f4xx_hal_rtc_ex.c ****       __HAL_RTC_TAMPER_CLEAR_FLAG(hrtc,RTC_FLAG_TAMP1F);
 535:Libraries/STM32F4xx_HAL_Driver/Src/stm32f4xx_hal_rtc_ex.c ****     }
 536:Libraries/STM32F4xx_HAL_Driver/Src/stm32f4xx_hal_rtc_ex.c ****   }
 537:Libraries/STM32F4xx_HAL_Driver/Src/stm32f4xx_hal_rtc_ex.c **** 
 538:Libraries/STM32F4xx_HAL_Driver/Src/stm32f4xx_hal_rtc_ex.c ****   /* Get the Tamper2 interrupt source enable status */
 539:Libraries/STM32F4xx_HAL_Driver/Src/stm32f4xx_hal_rtc_ex.c ****   if(__HAL_RTC_TAMPER_GET_IT_SOURCE(hrtc, RTC_IT_TAMP) != (uint32_t)RESET)
 540:Libraries/STM32F4xx_HAL_Driver/Src/stm32f4xx_hal_rtc_ex.c ****   {
 541:Libraries/STM32F4xx_HAL_Driver/Src/stm32f4xx_hal_rtc_ex.c ****     /* Get the pending status of the Tamper2 Interrupt */
 542:Libraries/STM32F4xx_HAL_Driver/Src/stm32f4xx_hal_rtc_ex.c ****     if(__HAL_RTC_TAMPER_GET_FLAG(hrtc, RTC_FLAG_TAMP2F) != (uint32_t)RESET)
 543:Libraries/STM32F4xx_HAL_Driver/Src/stm32f4xx_hal_rtc_ex.c ****     {
 544:Libraries/STM32F4xx_HAL_Driver/Src/stm32f4xx_hal_rtc_ex.c ****       /* Tamper callback */
 545:Libraries/STM32F4xx_HAL_Driver/Src/stm32f4xx_hal_rtc_ex.c **** #if (USE_HAL_RTC_REGISTER_CALLBACKS == 1)
 546:Libraries/STM32F4xx_HAL_Driver/Src/stm32f4xx_hal_rtc_ex.c ****       hrtc->Tamper2EventCallback(hrtc);
 547:Libraries/STM32F4xx_HAL_Driver/Src/stm32f4xx_hal_rtc_ex.c **** #else
 548:Libraries/STM32F4xx_HAL_Driver/Src/stm32f4xx_hal_rtc_ex.c ****       HAL_RTCEx_Tamper2EventCallback(hrtc);
 549:Libraries/STM32F4xx_HAL_Driver/Src/stm32f4xx_hal_rtc_ex.c **** #endif /* USE_HAL_RTC_REGISTER_CALLBACKS */
 550:Libraries/STM32F4xx_HAL_Driver/Src/stm32f4xx_hal_rtc_ex.c **** 
 551:Libraries/STM32F4xx_HAL_Driver/Src/stm32f4xx_hal_rtc_ex.c ****       /* Clear the Tamper interrupt pending bit */
 552:Libraries/STM32F4xx_HAL_Driver/Src/stm32f4xx_hal_rtc_ex.c ****       __HAL_RTC_TAMPER_CLEAR_FLAG(hrtc, RTC_FLAG_TAMP2F);
 553:Libraries/STM32F4xx_HAL_Driver/Src/stm32f4xx_hal_rtc_ex.c ****     }
 554:Libraries/STM32F4xx_HAL_Driver/Src/stm32f4xx_hal_rtc_ex.c ****   }
 555:Libraries/STM32F4xx_HAL_Driver/Src/stm32f4xx_hal_rtc_ex.c **** 
 556:Libraries/STM32F4xx_HAL_Driver/Src/stm32f4xx_hal_rtc_ex.c ****   /* Clear the EXTI's Flag for RTC TimeStamp and Tamper */
 557:Libraries/STM32F4xx_HAL_Driver/Src/stm32f4xx_hal_rtc_ex.c ****   __HAL_RTC_TAMPER_TIMESTAMP_EXTI_CLEAR_FLAG();
 558:Libraries/STM32F4xx_HAL_Driver/Src/stm32f4xx_hal_rtc_ex.c **** 
 559:Libraries/STM32F4xx_HAL_Driver/Src/stm32f4xx_hal_rtc_ex.c ****   /* Change RTC state */
 560:Libraries/STM32F4xx_HAL_Driver/Src/stm32f4xx_hal_rtc_ex.c ****   hrtc->State = HAL_RTC_STATE_READY;
ARM GAS  C:\Users\yzy\AppData\Local\Temp\ccuah9XY.s 			page 28


 561:Libraries/STM32F4xx_HAL_Driver/Src/stm32f4xx_hal_rtc_ex.c **** }
 562:Libraries/STM32F4xx_HAL_Driver/Src/stm32f4xx_hal_rtc_ex.c **** 
 563:Libraries/STM32F4xx_HAL_Driver/Src/stm32f4xx_hal_rtc_ex.c **** /**
 564:Libraries/STM32F4xx_HAL_Driver/Src/stm32f4xx_hal_rtc_ex.c ****   * @brief  TimeStamp callback.
 565:Libraries/STM32F4xx_HAL_Driver/Src/stm32f4xx_hal_rtc_ex.c ****   * @param  hrtc pointer to a RTC_HandleTypeDef structure that contains
 566:Libraries/STM32F4xx_HAL_Driver/Src/stm32f4xx_hal_rtc_ex.c ****   *                the configuration information for RTC.
 567:Libraries/STM32F4xx_HAL_Driver/Src/stm32f4xx_hal_rtc_ex.c ****   * @retval None
 568:Libraries/STM32F4xx_HAL_Driver/Src/stm32f4xx_hal_rtc_ex.c ****   */
 569:Libraries/STM32F4xx_HAL_Driver/Src/stm32f4xx_hal_rtc_ex.c **** __weak void HAL_RTCEx_TimeStampEventCallback(RTC_HandleTypeDef *hrtc)
 570:Libraries/STM32F4xx_HAL_Driver/Src/stm32f4xx_hal_rtc_ex.c **** {
 957              		.loc 1 570 1 is_stmt 1 view -0
 958              		.cfi_startproc
 959              		@ args = 0, pretend = 0, frame = 0
 960              		@ frame_needed = 0, uses_anonymous_args = 0
 961              		@ link register save eliminated.
 571:Libraries/STM32F4xx_HAL_Driver/Src/stm32f4xx_hal_rtc_ex.c ****   /* Prevent unused argument(s) compilation warning */
 572:Libraries/STM32F4xx_HAL_Driver/Src/stm32f4xx_hal_rtc_ex.c ****   UNUSED(hrtc);
 962              		.loc 1 572 3 view .LVU348
 573:Libraries/STM32F4xx_HAL_Driver/Src/stm32f4xx_hal_rtc_ex.c ****   /* NOTE : This function Should not be modified, when the callback is needed,
 574:Libraries/STM32F4xx_HAL_Driver/Src/stm32f4xx_hal_rtc_ex.c ****             the HAL_RTC_TimeStampEventCallback could be implemented in the user file
 575:Libraries/STM32F4xx_HAL_Driver/Src/stm32f4xx_hal_rtc_ex.c ****   */
 576:Libraries/STM32F4xx_HAL_Driver/Src/stm32f4xx_hal_rtc_ex.c **** }
 963              		.loc 1 576 1 is_stmt 0 view .LVU349
 964 0000 7047     		bx	lr
 965              		.cfi_endproc
 966              	.LFE138:
 968              		.section	.text.HAL_RTCEx_Tamper1EventCallback,"ax",%progbits
 969              		.align	1
 970              		.weak	HAL_RTCEx_Tamper1EventCallback
 971              		.syntax unified
 972              		.thumb
 973              		.thumb_func
 974              		.fpu softvfp
 976              	HAL_RTCEx_Tamper1EventCallback:
 977              	.LVL61:
 978              	.LFB139:
 577:Libraries/STM32F4xx_HAL_Driver/Src/stm32f4xx_hal_rtc_ex.c **** 
 578:Libraries/STM32F4xx_HAL_Driver/Src/stm32f4xx_hal_rtc_ex.c **** /**
 579:Libraries/STM32F4xx_HAL_Driver/Src/stm32f4xx_hal_rtc_ex.c ****   * @brief  Tamper 1 callback.
 580:Libraries/STM32F4xx_HAL_Driver/Src/stm32f4xx_hal_rtc_ex.c ****   * @param  hrtc pointer to a RTC_HandleTypeDef structure that contains
 581:Libraries/STM32F4xx_HAL_Driver/Src/stm32f4xx_hal_rtc_ex.c ****   *                the configuration information for RTC.
 582:Libraries/STM32F4xx_HAL_Driver/Src/stm32f4xx_hal_rtc_ex.c ****   * @retval None
 583:Libraries/STM32F4xx_HAL_Driver/Src/stm32f4xx_hal_rtc_ex.c ****   */
 584:Libraries/STM32F4xx_HAL_Driver/Src/stm32f4xx_hal_rtc_ex.c **** __weak void HAL_RTCEx_Tamper1EventCallback(RTC_HandleTypeDef *hrtc)
 585:Libraries/STM32F4xx_HAL_Driver/Src/stm32f4xx_hal_rtc_ex.c **** {
 979              		.loc 1 585 1 is_stmt 1 view -0
 980              		.cfi_startproc
 981              		@ args = 0, pretend = 0, frame = 0
 982              		@ frame_needed = 0, uses_anonymous_args = 0
 983              		@ link register save eliminated.
 586:Libraries/STM32F4xx_HAL_Driver/Src/stm32f4xx_hal_rtc_ex.c ****   /* Prevent unused argument(s) compilation warning */
 587:Libraries/STM32F4xx_HAL_Driver/Src/stm32f4xx_hal_rtc_ex.c ****   UNUSED(hrtc);
 984              		.loc 1 587 3 view .LVU351
 588:Libraries/STM32F4xx_HAL_Driver/Src/stm32f4xx_hal_rtc_ex.c ****   /* NOTE : This function Should not be modified, when the callback is needed,
 589:Libraries/STM32F4xx_HAL_Driver/Src/stm32f4xx_hal_rtc_ex.c ****             the HAL_RTC_Tamper1EventCallback could be implemented in the user file
 590:Libraries/STM32F4xx_HAL_Driver/Src/stm32f4xx_hal_rtc_ex.c ****    */
 591:Libraries/STM32F4xx_HAL_Driver/Src/stm32f4xx_hal_rtc_ex.c **** }
ARM GAS  C:\Users\yzy\AppData\Local\Temp\ccuah9XY.s 			page 29


 985              		.loc 1 591 1 is_stmt 0 view .LVU352
 986 0000 7047     		bx	lr
 987              		.cfi_endproc
 988              	.LFE139:
 990              		.section	.text.HAL_RTCEx_Tamper2EventCallback,"ax",%progbits
 991              		.align	1
 992              		.weak	HAL_RTCEx_Tamper2EventCallback
 993              		.syntax unified
 994              		.thumb
 995              		.thumb_func
 996              		.fpu softvfp
 998              	HAL_RTCEx_Tamper2EventCallback:
 999              	.LVL62:
 1000              	.LFB140:
 592:Libraries/STM32F4xx_HAL_Driver/Src/stm32f4xx_hal_rtc_ex.c **** 
 593:Libraries/STM32F4xx_HAL_Driver/Src/stm32f4xx_hal_rtc_ex.c **** /**
 594:Libraries/STM32F4xx_HAL_Driver/Src/stm32f4xx_hal_rtc_ex.c ****   * @brief  Tamper 2 callback.
 595:Libraries/STM32F4xx_HAL_Driver/Src/stm32f4xx_hal_rtc_ex.c ****   * @param  hrtc pointer to a RTC_HandleTypeDef structure that contains
 596:Libraries/STM32F4xx_HAL_Driver/Src/stm32f4xx_hal_rtc_ex.c ****   *                the configuration information for RTC.
 597:Libraries/STM32F4xx_HAL_Driver/Src/stm32f4xx_hal_rtc_ex.c ****   * @retval None
 598:Libraries/STM32F4xx_HAL_Driver/Src/stm32f4xx_hal_rtc_ex.c ****   */
 599:Libraries/STM32F4xx_HAL_Driver/Src/stm32f4xx_hal_rtc_ex.c **** __weak void HAL_RTCEx_Tamper2EventCallback(RTC_HandleTypeDef *hrtc)
 600:Libraries/STM32F4xx_HAL_Driver/Src/stm32f4xx_hal_rtc_ex.c **** {
 1001              		.loc 1 600 1 is_stmt 1 view -0
 1002              		.cfi_startproc
 1003              		@ args = 0, pretend = 0, frame = 0
 1004              		@ frame_needed = 0, uses_anonymous_args = 0
 1005              		@ link register save eliminated.
 601:Libraries/STM32F4xx_HAL_Driver/Src/stm32f4xx_hal_rtc_ex.c ****   /* Prevent unused argument(s) compilation warning */
 602:Libraries/STM32F4xx_HAL_Driver/Src/stm32f4xx_hal_rtc_ex.c ****   UNUSED(hrtc);
 1006              		.loc 1 602 3 view .LVU354
 603:Libraries/STM32F4xx_HAL_Driver/Src/stm32f4xx_hal_rtc_ex.c ****   /* NOTE : This function Should not be modified, when the callback is needed,
 604:Libraries/STM32F4xx_HAL_Driver/Src/stm32f4xx_hal_rtc_ex.c ****             the HAL_RTC_Tamper2EventCallback could be implemented in the user file
 605:Libraries/STM32F4xx_HAL_Driver/Src/stm32f4xx_hal_rtc_ex.c ****    */
 606:Libraries/STM32F4xx_HAL_Driver/Src/stm32f4xx_hal_rtc_ex.c **** }
 1007              		.loc 1 606 1 is_stmt 0 view .LVU355
 1008 0000 7047     		bx	lr
 1009              		.cfi_endproc
 1010              	.LFE140:
 1012              		.section	.text.HAL_RTCEx_TamperTimeStampIRQHandler,"ax",%progbits
 1013              		.align	1
 1014              		.global	HAL_RTCEx_TamperTimeStampIRQHandler
 1015              		.syntax unified
 1016              		.thumb
 1017              		.thumb_func
 1018              		.fpu softvfp
 1020              	HAL_RTCEx_TamperTimeStampIRQHandler:
 1021              	.LVL63:
 1022              	.LFB137:
 501:Libraries/STM32F4xx_HAL_Driver/Src/stm32f4xx_hal_rtc_ex.c ****   /* Get the TimeStamp interrupt source enable status */
 1023              		.loc 1 501 1 is_stmt 1 view -0
 1024              		.cfi_startproc
 1025              		@ args = 0, pretend = 0, frame = 0
 1026              		@ frame_needed = 0, uses_anonymous_args = 0
 501:Libraries/STM32F4xx_HAL_Driver/Src/stm32f4xx_hal_rtc_ex.c ****   /* Get the TimeStamp interrupt source enable status */
 1027              		.loc 1 501 1 is_stmt 0 view .LVU357
 1028 0000 10B5     		push	{r4, lr}
ARM GAS  C:\Users\yzy\AppData\Local\Temp\ccuah9XY.s 			page 30


 1029              	.LCFI13:
 1030              		.cfi_def_cfa_offset 8
 1031              		.cfi_offset 4, -8
 1032              		.cfi_offset 14, -4
 1033 0002 0446     		mov	r4, r0
 503:Libraries/STM32F4xx_HAL_Driver/Src/stm32f4xx_hal_rtc_ex.c ****   {
 1034              		.loc 1 503 3 is_stmt 1 view .LVU358
 503:Libraries/STM32F4xx_HAL_Driver/Src/stm32f4xx_hal_rtc_ex.c ****   {
 1035              		.loc 1 503 6 is_stmt 0 view .LVU359
 1036 0004 0368     		ldr	r3, [r0]
 1037 0006 9A68     		ldr	r2, [r3, #8]
 503:Libraries/STM32F4xx_HAL_Driver/Src/stm32f4xx_hal_rtc_ex.c ****   {
 1038              		.loc 1 503 5 view .LVU360
 1039 0008 12F4004F 		tst	r2, #32768
 1040 000c 03D0     		beq	.L56
 506:Libraries/STM32F4xx_HAL_Driver/Src/stm32f4xx_hal_rtc_ex.c ****     {
 1041              		.loc 1 506 5 is_stmt 1 view .LVU361
 506:Libraries/STM32F4xx_HAL_Driver/Src/stm32f4xx_hal_rtc_ex.c ****     {
 1042              		.loc 1 506 8 is_stmt 0 view .LVU362
 1043 000e DB68     		ldr	r3, [r3, #12]
 506:Libraries/STM32F4xx_HAL_Driver/Src/stm32f4xx_hal_rtc_ex.c ****     {
 1044              		.loc 1 506 7 view .LVU363
 1045 0010 13F4006F 		tst	r3, #2048
 1046 0014 18D1     		bne	.L60
 1047              	.LVL64:
 1048              	.L56:
 521:Libraries/STM32F4xx_HAL_Driver/Src/stm32f4xx_hal_rtc_ex.c ****   {
 1049              		.loc 1 521 3 is_stmt 1 view .LVU364
 521:Libraries/STM32F4xx_HAL_Driver/Src/stm32f4xx_hal_rtc_ex.c ****   {
 1050              		.loc 1 521 6 is_stmt 0 view .LVU365
 1051 0016 2368     		ldr	r3, [r4]
 1052 0018 1A6C     		ldr	r2, [r3, #64]
 521:Libraries/STM32F4xx_HAL_Driver/Src/stm32f4xx_hal_rtc_ex.c ****   {
 1053              		.loc 1 521 5 view .LVU366
 1054 001a 12F0040F 		tst	r2, #4
 1055 001e 03D0     		beq	.L57
 524:Libraries/STM32F4xx_HAL_Driver/Src/stm32f4xx_hal_rtc_ex.c ****     {
 1056              		.loc 1 524 5 is_stmt 1 view .LVU367
 524:Libraries/STM32F4xx_HAL_Driver/Src/stm32f4xx_hal_rtc_ex.c ****     {
 1057              		.loc 1 524 8 is_stmt 0 view .LVU368
 1058 0020 DB68     		ldr	r3, [r3, #12]
 524:Libraries/STM32F4xx_HAL_Driver/Src/stm32f4xx_hal_rtc_ex.c ****     {
 1059              		.loc 1 524 7 view .LVU369
 1060 0022 13F4005F 		tst	r3, #8192
 1061 0026 18D1     		bne	.L61
 1062              	.L57:
 539:Libraries/STM32F4xx_HAL_Driver/Src/stm32f4xx_hal_rtc_ex.c ****   {
 1063              		.loc 1 539 3 is_stmt 1 view .LVU370
 539:Libraries/STM32F4xx_HAL_Driver/Src/stm32f4xx_hal_rtc_ex.c ****   {
 1064              		.loc 1 539 6 is_stmt 0 view .LVU371
 1065 0028 2368     		ldr	r3, [r4]
 1066 002a 1A6C     		ldr	r2, [r3, #64]
 539:Libraries/STM32F4xx_HAL_Driver/Src/stm32f4xx_hal_rtc_ex.c ****   {
 1067              		.loc 1 539 5 view .LVU372
 1068 002c 12F0040F 		tst	r2, #4
 1069 0030 03D0     		beq	.L58
 542:Libraries/STM32F4xx_HAL_Driver/Src/stm32f4xx_hal_rtc_ex.c ****     {
ARM GAS  C:\Users\yzy\AppData\Local\Temp\ccuah9XY.s 			page 31


 1070              		.loc 1 542 5 is_stmt 1 view .LVU373
 542:Libraries/STM32F4xx_HAL_Driver/Src/stm32f4xx_hal_rtc_ex.c ****     {
 1071              		.loc 1 542 8 is_stmt 0 view .LVU374
 1072 0032 DB68     		ldr	r3, [r3, #12]
 542:Libraries/STM32F4xx_HAL_Driver/Src/stm32f4xx_hal_rtc_ex.c ****     {
 1073              		.loc 1 542 7 view .LVU375
 1074 0034 13F4804F 		tst	r3, #16384
 1075 0038 19D1     		bne	.L62
 1076              	.L58:
 557:Libraries/STM32F4xx_HAL_Driver/Src/stm32f4xx_hal_rtc_ex.c **** 
 1077              		.loc 1 557 3 is_stmt 1 view .LVU376
 1078 003a 124B     		ldr	r3, .L63
 1079 003c 4FF40012 		mov	r2, #2097152
 1080 0040 5A61     		str	r2, [r3, #20]
 560:Libraries/STM32F4xx_HAL_Driver/Src/stm32f4xx_hal_rtc_ex.c **** }
 1081              		.loc 1 560 3 view .LVU377
 560:Libraries/STM32F4xx_HAL_Driver/Src/stm32f4xx_hal_rtc_ex.c **** }
 1082              		.loc 1 560 15 is_stmt 0 view .LVU378
 1083 0042 0123     		movs	r3, #1
 1084 0044 6377     		strb	r3, [r4, #29]
 561:Libraries/STM32F4xx_HAL_Driver/Src/stm32f4xx_hal_rtc_ex.c **** 
 1085              		.loc 1 561 1 view .LVU379
 1086 0046 10BD     		pop	{r4, pc}
 1087              	.LVL65:
 1088              	.L60:
 512:Libraries/STM32F4xx_HAL_Driver/Src/stm32f4xx_hal_rtc_ex.c **** #endif /* USE_HAL_RTC_REGISTER_CALLBACKS */
 1089              		.loc 1 512 7 is_stmt 1 view .LVU380
 1090 0048 FFF7FEFF 		bl	HAL_RTCEx_TimeStampEventCallback
 1091              	.LVL66:
 516:Libraries/STM32F4xx_HAL_Driver/Src/stm32f4xx_hal_rtc_ex.c ****     }
 1092              		.loc 1 516 7 view .LVU381
 1093 004c 2268     		ldr	r2, [r4]
 1094 004e D368     		ldr	r3, [r2, #12]
 1095 0050 DBB2     		uxtb	r3, r3
 1096 0052 63F40863 		orn	r3, r3, #2176
 1097 0056 D360     		str	r3, [r2, #12]
 1098 0058 DDE7     		b	.L56
 1099              	.L61:
 530:Libraries/STM32F4xx_HAL_Driver/Src/stm32f4xx_hal_rtc_ex.c **** #endif /* USE_HAL_RTC_REGISTER_CALLBACKS */
 1100              		.loc 1 530 7 view .LVU382
 1101 005a 2046     		mov	r0, r4
 1102 005c FFF7FEFF 		bl	HAL_RTCEx_Tamper1EventCallback
 1103              	.LVL67:
 534:Libraries/STM32F4xx_HAL_Driver/Src/stm32f4xx_hal_rtc_ex.c ****     }
 1104              		.loc 1 534 7 view .LVU383
 1105 0060 2268     		ldr	r2, [r4]
 1106 0062 D368     		ldr	r3, [r2, #12]
 1107 0064 DBB2     		uxtb	r3, r3
 1108 0066 63F40253 		orn	r3, r3, #8320
 1109 006a D360     		str	r3, [r2, #12]
 1110 006c DCE7     		b	.L57
 1111              	.L62:
 548:Libraries/STM32F4xx_HAL_Driver/Src/stm32f4xx_hal_rtc_ex.c **** #endif /* USE_HAL_RTC_REGISTER_CALLBACKS */
 1112              		.loc 1 548 7 view .LVU384
 1113 006e 2046     		mov	r0, r4
 1114 0070 FFF7FEFF 		bl	HAL_RTCEx_Tamper2EventCallback
 1115              	.LVL68:
ARM GAS  C:\Users\yzy\AppData\Local\Temp\ccuah9XY.s 			page 32


 552:Libraries/STM32F4xx_HAL_Driver/Src/stm32f4xx_hal_rtc_ex.c ****     }
 1116              		.loc 1 552 7 view .LVU385
 1117 0074 2268     		ldr	r2, [r4]
 1118 0076 D368     		ldr	r3, [r2, #12]
 1119 0078 DBB2     		uxtb	r3, r3
 1120 007a 63F48143 		orn	r3, r3, #16512
 1121 007e D360     		str	r3, [r2, #12]
 1122 0080 DBE7     		b	.L58
 1123              	.L64:
 1124 0082 00BF     		.align	2
 1125              	.L63:
 1126 0084 003C0140 		.word	1073822720
 1127              		.cfi_endproc
 1128              	.LFE137:
 1130              		.section	.text.HAL_RTCEx_PollForTimeStampEvent,"ax",%progbits
 1131              		.align	1
 1132              		.global	HAL_RTCEx_PollForTimeStampEvent
 1133              		.syntax unified
 1134              		.thumb
 1135              		.thumb_func
 1136              		.fpu softvfp
 1138              	HAL_RTCEx_PollForTimeStampEvent:
 1139              	.LVL69:
 1140              	.LFB141:
 607:Libraries/STM32F4xx_HAL_Driver/Src/stm32f4xx_hal_rtc_ex.c **** 
 608:Libraries/STM32F4xx_HAL_Driver/Src/stm32f4xx_hal_rtc_ex.c **** /**
 609:Libraries/STM32F4xx_HAL_Driver/Src/stm32f4xx_hal_rtc_ex.c ****   * @brief  This function handles TimeStamp polling request.
 610:Libraries/STM32F4xx_HAL_Driver/Src/stm32f4xx_hal_rtc_ex.c ****   * @param  hrtc pointer to a RTC_HandleTypeDef structure that contains
 611:Libraries/STM32F4xx_HAL_Driver/Src/stm32f4xx_hal_rtc_ex.c ****   *                the configuration information for RTC.
 612:Libraries/STM32F4xx_HAL_Driver/Src/stm32f4xx_hal_rtc_ex.c ****   * @param  Timeout Timeout duration
 613:Libraries/STM32F4xx_HAL_Driver/Src/stm32f4xx_hal_rtc_ex.c ****   * @retval HAL status
 614:Libraries/STM32F4xx_HAL_Driver/Src/stm32f4xx_hal_rtc_ex.c ****   */
 615:Libraries/STM32F4xx_HAL_Driver/Src/stm32f4xx_hal_rtc_ex.c **** HAL_StatusTypeDef HAL_RTCEx_PollForTimeStampEvent(RTC_HandleTypeDef *hrtc, uint32_t Timeout)
 616:Libraries/STM32F4xx_HAL_Driver/Src/stm32f4xx_hal_rtc_ex.c **** {
 1141              		.loc 1 616 1 view -0
 1142              		.cfi_startproc
 1143              		@ args = 0, pretend = 0, frame = 0
 1144              		@ frame_needed = 0, uses_anonymous_args = 0
 1145              		.loc 1 616 1 is_stmt 0 view .LVU387
 1146 0000 70B5     		push	{r4, r5, r6, lr}
 1147              	.LCFI14:
 1148              		.cfi_def_cfa_offset 16
 1149              		.cfi_offset 4, -16
 1150              		.cfi_offset 5, -12
 1151              		.cfi_offset 6, -8
 1152              		.cfi_offset 14, -4
 1153 0002 0446     		mov	r4, r0
 1154 0004 0D46     		mov	r5, r1
 617:Libraries/STM32F4xx_HAL_Driver/Src/stm32f4xx_hal_rtc_ex.c ****   uint32_t tickstart = 0U;
 1155              		.loc 1 617 3 is_stmt 1 view .LVU388
 1156              	.LVL70:
 618:Libraries/STM32F4xx_HAL_Driver/Src/stm32f4xx_hal_rtc_ex.c **** 
 619:Libraries/STM32F4xx_HAL_Driver/Src/stm32f4xx_hal_rtc_ex.c ****   /* Get tick */
 620:Libraries/STM32F4xx_HAL_Driver/Src/stm32f4xx_hal_rtc_ex.c ****   tickstart = HAL_GetTick();
 1157              		.loc 1 620 3 view .LVU389
 1158              		.loc 1 620 15 is_stmt 0 view .LVU390
 1159 0006 FFF7FEFF 		bl	HAL_GetTick
ARM GAS  C:\Users\yzy\AppData\Local\Temp\ccuah9XY.s 			page 33


 1160              	.LVL71:
 1161              		.loc 1 620 15 view .LVU391
 1162 000a 0646     		mov	r6, r0
 1163              	.LVL72:
 621:Libraries/STM32F4xx_HAL_Driver/Src/stm32f4xx_hal_rtc_ex.c **** 
 622:Libraries/STM32F4xx_HAL_Driver/Src/stm32f4xx_hal_rtc_ex.c ****   while(__HAL_RTC_TIMESTAMP_GET_FLAG(hrtc, RTC_FLAG_TSF) == RESET)
 1164              		.loc 1 622 3 is_stmt 1 view .LVU392
 1165              	.L69:
 1166              		.loc 1 622 8 view .LVU393
 1167              		.loc 1 622 9 is_stmt 0 view .LVU394
 1168 000c 2368     		ldr	r3, [r4]
 1169 000e DA68     		ldr	r2, [r3, #12]
 1170              		.loc 1 622 8 view .LVU395
 1171 0010 12F4006F 		tst	r2, #2048
 1172 0014 18D1     		bne	.L73
 623:Libraries/STM32F4xx_HAL_Driver/Src/stm32f4xx_hal_rtc_ex.c ****   {
 624:Libraries/STM32F4xx_HAL_Driver/Src/stm32f4xx_hal_rtc_ex.c ****     if(__HAL_RTC_TIMESTAMP_GET_FLAG(hrtc, RTC_FLAG_TSOVF) != RESET)
 1173              		.loc 1 624 5 is_stmt 1 view .LVU396
 1174              		.loc 1 624 8 is_stmt 0 view .LVU397
 1175 0016 DA68     		ldr	r2, [r3, #12]
 1176              		.loc 1 624 7 view .LVU398
 1177 0018 12F4805F 		tst	r2, #4096
 1178 001c 0BD1     		bne	.L74
 625:Libraries/STM32F4xx_HAL_Driver/Src/stm32f4xx_hal_rtc_ex.c ****     {
 626:Libraries/STM32F4xx_HAL_Driver/Src/stm32f4xx_hal_rtc_ex.c ****       /* Clear the TIMESTAMP Overrun Flag */
 627:Libraries/STM32F4xx_HAL_Driver/Src/stm32f4xx_hal_rtc_ex.c ****       __HAL_RTC_TIMESTAMP_CLEAR_FLAG(hrtc, RTC_FLAG_TSOVF);
 628:Libraries/STM32F4xx_HAL_Driver/Src/stm32f4xx_hal_rtc_ex.c **** 
 629:Libraries/STM32F4xx_HAL_Driver/Src/stm32f4xx_hal_rtc_ex.c ****       /* Change TIMESTAMP state */
 630:Libraries/STM32F4xx_HAL_Driver/Src/stm32f4xx_hal_rtc_ex.c ****       hrtc->State = HAL_RTC_STATE_ERROR;
 631:Libraries/STM32F4xx_HAL_Driver/Src/stm32f4xx_hal_rtc_ex.c **** 
 632:Libraries/STM32F4xx_HAL_Driver/Src/stm32f4xx_hal_rtc_ex.c ****       return HAL_ERROR;
 633:Libraries/STM32F4xx_HAL_Driver/Src/stm32f4xx_hal_rtc_ex.c ****     }
 634:Libraries/STM32F4xx_HAL_Driver/Src/stm32f4xx_hal_rtc_ex.c **** 
 635:Libraries/STM32F4xx_HAL_Driver/Src/stm32f4xx_hal_rtc_ex.c ****     if(Timeout != HAL_MAX_DELAY)
 1179              		.loc 1 635 5 is_stmt 1 view .LVU399
 1180              		.loc 1 635 7 is_stmt 0 view .LVU400
 1181 001e B5F1FF3F 		cmp	r5, #-1
 1182 0022 F3D0     		beq	.L69
 636:Libraries/STM32F4xx_HAL_Driver/Src/stm32f4xx_hal_rtc_ex.c ****     {
 637:Libraries/STM32F4xx_HAL_Driver/Src/stm32f4xx_hal_rtc_ex.c ****       if((Timeout == 0U)||((HAL_GetTick() - tickstart ) > Timeout))
 1183              		.loc 1 637 7 is_stmt 1 view .LVU401
 1184              		.loc 1 637 9 is_stmt 0 view .LVU402
 1185 0024 25B1     		cbz	r5, .L70
 1186              		.loc 1 637 29 discriminator 1 view .LVU403
 1187 0026 FFF7FEFF 		bl	HAL_GetTick
 1188              	.LVL73:
 1189              		.loc 1 637 43 discriminator 1 view .LVU404
 1190 002a 801B     		subs	r0, r0, r6
 1191              		.loc 1 637 25 discriminator 1 view .LVU405
 1192 002c A842     		cmp	r0, r5
 1193 002e EDD9     		bls	.L69
 1194              	.L70:
 638:Libraries/STM32F4xx_HAL_Driver/Src/stm32f4xx_hal_rtc_ex.c ****       {
 639:Libraries/STM32F4xx_HAL_Driver/Src/stm32f4xx_hal_rtc_ex.c ****         hrtc->State = HAL_RTC_STATE_TIMEOUT;
 1195              		.loc 1 639 9 is_stmt 1 view .LVU406
 1196              		.loc 1 639 21 is_stmt 0 view .LVU407
 1197 0030 0320     		movs	r0, #3
ARM GAS  C:\Users\yzy\AppData\Local\Temp\ccuah9XY.s 			page 34


 1198 0032 6077     		strb	r0, [r4, #29]
 640:Libraries/STM32F4xx_HAL_Driver/Src/stm32f4xx_hal_rtc_ex.c ****         return HAL_TIMEOUT;
 1199              		.loc 1 640 9 is_stmt 1 view .LVU408
 1200              		.loc 1 640 16 is_stmt 0 view .LVU409
 1201 0034 0BE0     		b	.L68
 1202              	.L74:
 627:Libraries/STM32F4xx_HAL_Driver/Src/stm32f4xx_hal_rtc_ex.c **** 
 1203              		.loc 1 627 7 is_stmt 1 view .LVU410
 1204 0036 DA68     		ldr	r2, [r3, #12]
 1205 0038 D2B2     		uxtb	r2, r2
 1206 003a 62F48452 		orn	r2, r2, #4224
 1207 003e DA60     		str	r2, [r3, #12]
 630:Libraries/STM32F4xx_HAL_Driver/Src/stm32f4xx_hal_rtc_ex.c **** 
 1208              		.loc 1 630 7 view .LVU411
 630:Libraries/STM32F4xx_HAL_Driver/Src/stm32f4xx_hal_rtc_ex.c **** 
 1209              		.loc 1 630 19 is_stmt 0 view .LVU412
 1210 0040 0423     		movs	r3, #4
 1211 0042 6377     		strb	r3, [r4, #29]
 632:Libraries/STM32F4xx_HAL_Driver/Src/stm32f4xx_hal_rtc_ex.c ****     }
 1212              		.loc 1 632 7 is_stmt 1 view .LVU413
 632:Libraries/STM32F4xx_HAL_Driver/Src/stm32f4xx_hal_rtc_ex.c ****     }
 1213              		.loc 1 632 14 is_stmt 0 view .LVU414
 1214 0044 0120     		movs	r0, #1
 1215 0046 02E0     		b	.L68
 1216              	.L73:
 641:Libraries/STM32F4xx_HAL_Driver/Src/stm32f4xx_hal_rtc_ex.c ****       }
 642:Libraries/STM32F4xx_HAL_Driver/Src/stm32f4xx_hal_rtc_ex.c ****     }
 643:Libraries/STM32F4xx_HAL_Driver/Src/stm32f4xx_hal_rtc_ex.c ****   }
 644:Libraries/STM32F4xx_HAL_Driver/Src/stm32f4xx_hal_rtc_ex.c **** 
 645:Libraries/STM32F4xx_HAL_Driver/Src/stm32f4xx_hal_rtc_ex.c ****   /* Change RTC state */
 646:Libraries/STM32F4xx_HAL_Driver/Src/stm32f4xx_hal_rtc_ex.c ****   hrtc->State = HAL_RTC_STATE_READY;
 1217              		.loc 1 646 3 is_stmt 1 view .LVU415
 1218              		.loc 1 646 15 is_stmt 0 view .LVU416
 1219 0048 0123     		movs	r3, #1
 1220 004a 6377     		strb	r3, [r4, #29]
 647:Libraries/STM32F4xx_HAL_Driver/Src/stm32f4xx_hal_rtc_ex.c **** 
 648:Libraries/STM32F4xx_HAL_Driver/Src/stm32f4xx_hal_rtc_ex.c ****   return HAL_OK;
 1221              		.loc 1 648 3 is_stmt 1 view .LVU417
 1222              		.loc 1 648 10 is_stmt 0 view .LVU418
 1223 004c 0020     		movs	r0, #0
 1224              	.L68:
 649:Libraries/STM32F4xx_HAL_Driver/Src/stm32f4xx_hal_rtc_ex.c **** }
 1225              		.loc 1 649 1 view .LVU419
 1226 004e 70BD     		pop	{r4, r5, r6, pc}
 1227              		.loc 1 649 1 view .LVU420
 1228              		.cfi_endproc
 1229              	.LFE141:
 1231              		.section	.text.HAL_RTCEx_PollForTamper1Event,"ax",%progbits
 1232              		.align	1
 1233              		.global	HAL_RTCEx_PollForTamper1Event
 1234              		.syntax unified
 1235              		.thumb
 1236              		.thumb_func
 1237              		.fpu softvfp
 1239              	HAL_RTCEx_PollForTamper1Event:
 1240              	.LVL74:
 1241              	.LFB142:
ARM GAS  C:\Users\yzy\AppData\Local\Temp\ccuah9XY.s 			page 35


 650:Libraries/STM32F4xx_HAL_Driver/Src/stm32f4xx_hal_rtc_ex.c **** 
 651:Libraries/STM32F4xx_HAL_Driver/Src/stm32f4xx_hal_rtc_ex.c **** /**
 652:Libraries/STM32F4xx_HAL_Driver/Src/stm32f4xx_hal_rtc_ex.c ****   * @brief  This function handles Tamper1 Polling.
 653:Libraries/STM32F4xx_HAL_Driver/Src/stm32f4xx_hal_rtc_ex.c ****   * @param  hrtc pointer to a RTC_HandleTypeDef structure that contains
 654:Libraries/STM32F4xx_HAL_Driver/Src/stm32f4xx_hal_rtc_ex.c ****   *                the configuration information for RTC.
 655:Libraries/STM32F4xx_HAL_Driver/Src/stm32f4xx_hal_rtc_ex.c ****   * @param  Timeout Timeout duration
 656:Libraries/STM32F4xx_HAL_Driver/Src/stm32f4xx_hal_rtc_ex.c ****   * @retval HAL status
 657:Libraries/STM32F4xx_HAL_Driver/Src/stm32f4xx_hal_rtc_ex.c ****   */
 658:Libraries/STM32F4xx_HAL_Driver/Src/stm32f4xx_hal_rtc_ex.c **** HAL_StatusTypeDef HAL_RTCEx_PollForTamper1Event(RTC_HandleTypeDef *hrtc, uint32_t Timeout)
 659:Libraries/STM32F4xx_HAL_Driver/Src/stm32f4xx_hal_rtc_ex.c **** {
 1242              		.loc 1 659 1 is_stmt 1 view -0
 1243              		.cfi_startproc
 1244              		@ args = 0, pretend = 0, frame = 0
 1245              		@ frame_needed = 0, uses_anonymous_args = 0
 1246              		.loc 1 659 1 is_stmt 0 view .LVU422
 1247 0000 70B5     		push	{r4, r5, r6, lr}
 1248              	.LCFI15:
 1249              		.cfi_def_cfa_offset 16
 1250              		.cfi_offset 4, -16
 1251              		.cfi_offset 5, -12
 1252              		.cfi_offset 6, -8
 1253              		.cfi_offset 14, -4
 1254 0002 0446     		mov	r4, r0
 1255 0004 0D46     		mov	r5, r1
 660:Libraries/STM32F4xx_HAL_Driver/Src/stm32f4xx_hal_rtc_ex.c ****   uint32_t tickstart = 0U;
 1256              		.loc 1 660 3 is_stmt 1 view .LVU423
 1257              	.LVL75:
 661:Libraries/STM32F4xx_HAL_Driver/Src/stm32f4xx_hal_rtc_ex.c **** 
 662:Libraries/STM32F4xx_HAL_Driver/Src/stm32f4xx_hal_rtc_ex.c ****   /* Get tick */
 663:Libraries/STM32F4xx_HAL_Driver/Src/stm32f4xx_hal_rtc_ex.c ****   tickstart = HAL_GetTick();
 1258              		.loc 1 663 3 view .LVU424
 1259              		.loc 1 663 15 is_stmt 0 view .LVU425
 1260 0006 FFF7FEFF 		bl	HAL_GetTick
 1261              	.LVL76:
 1262              		.loc 1 663 15 view .LVU426
 1263 000a 0646     		mov	r6, r0
 1264              	.LVL77:
 664:Libraries/STM32F4xx_HAL_Driver/Src/stm32f4xx_hal_rtc_ex.c **** 
 665:Libraries/STM32F4xx_HAL_Driver/Src/stm32f4xx_hal_rtc_ex.c ****   /* Get the status of the Interrupt */
 666:Libraries/STM32F4xx_HAL_Driver/Src/stm32f4xx_hal_rtc_ex.c ****   while(__HAL_RTC_TAMPER_GET_FLAG(hrtc, RTC_FLAG_TAMP1F)== RESET)
 1265              		.loc 1 666 3 is_stmt 1 view .LVU427
 1266              	.L77:
 1267              		.loc 1 666 8 view .LVU428
 1268              		.loc 1 666 9 is_stmt 0 view .LVU429
 1269 000c 2368     		ldr	r3, [r4]
 1270 000e DA68     		ldr	r2, [r3, #12]
 1271              		.loc 1 666 8 view .LVU430
 1272 0010 12F4005F 		tst	r2, #8192
 1273 0014 0BD1     		bne	.L82
 667:Libraries/STM32F4xx_HAL_Driver/Src/stm32f4xx_hal_rtc_ex.c ****   {
 668:Libraries/STM32F4xx_HAL_Driver/Src/stm32f4xx_hal_rtc_ex.c ****     if(Timeout != HAL_MAX_DELAY)
 1274              		.loc 1 668 5 is_stmt 1 view .LVU431
 1275              		.loc 1 668 7 is_stmt 0 view .LVU432
 1276 0016 B5F1FF3F 		cmp	r5, #-1
 1277 001a F7D0     		beq	.L77
 669:Libraries/STM32F4xx_HAL_Driver/Src/stm32f4xx_hal_rtc_ex.c ****     {
 670:Libraries/STM32F4xx_HAL_Driver/Src/stm32f4xx_hal_rtc_ex.c ****       if((Timeout == 0U)||((HAL_GetTick() - tickstart ) > Timeout))
ARM GAS  C:\Users\yzy\AppData\Local\Temp\ccuah9XY.s 			page 36


 1278              		.loc 1 670 7 is_stmt 1 view .LVU433
 1279              		.loc 1 670 9 is_stmt 0 view .LVU434
 1280 001c 25B1     		cbz	r5, .L78
 1281              		.loc 1 670 29 discriminator 1 view .LVU435
 1282 001e FFF7FEFF 		bl	HAL_GetTick
 1283              	.LVL78:
 1284              		.loc 1 670 43 discriminator 1 view .LVU436
 1285 0022 801B     		subs	r0, r0, r6
 1286              		.loc 1 670 25 discriminator 1 view .LVU437
 1287 0024 A842     		cmp	r0, r5
 1288 0026 F1D9     		bls	.L77
 1289              	.L78:
 671:Libraries/STM32F4xx_HAL_Driver/Src/stm32f4xx_hal_rtc_ex.c ****       {
 672:Libraries/STM32F4xx_HAL_Driver/Src/stm32f4xx_hal_rtc_ex.c ****         hrtc->State = HAL_RTC_STATE_TIMEOUT;
 1290              		.loc 1 672 9 is_stmt 1 view .LVU438
 1291              		.loc 1 672 21 is_stmt 0 view .LVU439
 1292 0028 0320     		movs	r0, #3
 1293 002a 6077     		strb	r0, [r4, #29]
 673:Libraries/STM32F4xx_HAL_Driver/Src/stm32f4xx_hal_rtc_ex.c ****         return HAL_TIMEOUT;
 1294              		.loc 1 673 9 is_stmt 1 view .LVU440
 1295              		.loc 1 673 16 is_stmt 0 view .LVU441
 1296 002c 07E0     		b	.L79
 1297              	.L82:
 674:Libraries/STM32F4xx_HAL_Driver/Src/stm32f4xx_hal_rtc_ex.c ****       }
 675:Libraries/STM32F4xx_HAL_Driver/Src/stm32f4xx_hal_rtc_ex.c ****     }
 676:Libraries/STM32F4xx_HAL_Driver/Src/stm32f4xx_hal_rtc_ex.c ****   }
 677:Libraries/STM32F4xx_HAL_Driver/Src/stm32f4xx_hal_rtc_ex.c **** 
 678:Libraries/STM32F4xx_HAL_Driver/Src/stm32f4xx_hal_rtc_ex.c ****   /* Clear the Tamper Flag */
 679:Libraries/STM32F4xx_HAL_Driver/Src/stm32f4xx_hal_rtc_ex.c ****   __HAL_RTC_TAMPER_CLEAR_FLAG(hrtc,RTC_FLAG_TAMP1F);
 1298              		.loc 1 679 3 is_stmt 1 view .LVU442
 1299 002e DA68     		ldr	r2, [r3, #12]
 1300 0030 D2B2     		uxtb	r2, r2
 1301 0032 62F40252 		orn	r2, r2, #8320
 1302 0036 DA60     		str	r2, [r3, #12]
 680:Libraries/STM32F4xx_HAL_Driver/Src/stm32f4xx_hal_rtc_ex.c **** 
 681:Libraries/STM32F4xx_HAL_Driver/Src/stm32f4xx_hal_rtc_ex.c ****   /* Change RTC state */
 682:Libraries/STM32F4xx_HAL_Driver/Src/stm32f4xx_hal_rtc_ex.c ****   hrtc->State = HAL_RTC_STATE_READY;
 1303              		.loc 1 682 3 view .LVU443
 1304              		.loc 1 682 15 is_stmt 0 view .LVU444
 1305 0038 0123     		movs	r3, #1
 1306 003a 6377     		strb	r3, [r4, #29]
 683:Libraries/STM32F4xx_HAL_Driver/Src/stm32f4xx_hal_rtc_ex.c **** 
 684:Libraries/STM32F4xx_HAL_Driver/Src/stm32f4xx_hal_rtc_ex.c ****   return HAL_OK;
 1307              		.loc 1 684 3 is_stmt 1 view .LVU445
 1308              		.loc 1 684 10 is_stmt 0 view .LVU446
 1309 003c 0020     		movs	r0, #0
 1310              	.L79:
 685:Libraries/STM32F4xx_HAL_Driver/Src/stm32f4xx_hal_rtc_ex.c **** }
 1311              		.loc 1 685 1 view .LVU447
 1312 003e 70BD     		pop	{r4, r5, r6, pc}
 1313              		.loc 1 685 1 view .LVU448
 1314              		.cfi_endproc
 1315              	.LFE142:
 1317              		.section	.text.HAL_RTCEx_PollForTamper2Event,"ax",%progbits
 1318              		.align	1
 1319              		.global	HAL_RTCEx_PollForTamper2Event
 1320              		.syntax unified
ARM GAS  C:\Users\yzy\AppData\Local\Temp\ccuah9XY.s 			page 37


 1321              		.thumb
 1322              		.thumb_func
 1323              		.fpu softvfp
 1325              	HAL_RTCEx_PollForTamper2Event:
 1326              	.LVL79:
 1327              	.LFB143:
 686:Libraries/STM32F4xx_HAL_Driver/Src/stm32f4xx_hal_rtc_ex.c **** 
 687:Libraries/STM32F4xx_HAL_Driver/Src/stm32f4xx_hal_rtc_ex.c **** /**
 688:Libraries/STM32F4xx_HAL_Driver/Src/stm32f4xx_hal_rtc_ex.c ****   * @brief  This function handles Tamper2 Polling.
 689:Libraries/STM32F4xx_HAL_Driver/Src/stm32f4xx_hal_rtc_ex.c ****   * @param  hrtc pointer to a RTC_HandleTypeDef structure that contains
 690:Libraries/STM32F4xx_HAL_Driver/Src/stm32f4xx_hal_rtc_ex.c ****   *                the configuration information for RTC.
 691:Libraries/STM32F4xx_HAL_Driver/Src/stm32f4xx_hal_rtc_ex.c ****   * @param  Timeout Timeout duration
 692:Libraries/STM32F4xx_HAL_Driver/Src/stm32f4xx_hal_rtc_ex.c ****   * @retval HAL status
 693:Libraries/STM32F4xx_HAL_Driver/Src/stm32f4xx_hal_rtc_ex.c ****   */
 694:Libraries/STM32F4xx_HAL_Driver/Src/stm32f4xx_hal_rtc_ex.c **** HAL_StatusTypeDef HAL_RTCEx_PollForTamper2Event(RTC_HandleTypeDef *hrtc, uint32_t Timeout)
 695:Libraries/STM32F4xx_HAL_Driver/Src/stm32f4xx_hal_rtc_ex.c **** {
 1328              		.loc 1 695 1 is_stmt 1 view -0
 1329              		.cfi_startproc
 1330              		@ args = 0, pretend = 0, frame = 0
 1331              		@ frame_needed = 0, uses_anonymous_args = 0
 1332              		.loc 1 695 1 is_stmt 0 view .LVU450
 1333 0000 70B5     		push	{r4, r5, r6, lr}
 1334              	.LCFI16:
 1335              		.cfi_def_cfa_offset 16
 1336              		.cfi_offset 4, -16
 1337              		.cfi_offset 5, -12
 1338              		.cfi_offset 6, -8
 1339              		.cfi_offset 14, -4
 1340 0002 0446     		mov	r4, r0
 1341 0004 0D46     		mov	r5, r1
 696:Libraries/STM32F4xx_HAL_Driver/Src/stm32f4xx_hal_rtc_ex.c ****   uint32_t tickstart = 0U;
 1342              		.loc 1 696 3 is_stmt 1 view .LVU451
 1343              	.LVL80:
 697:Libraries/STM32F4xx_HAL_Driver/Src/stm32f4xx_hal_rtc_ex.c **** 
 698:Libraries/STM32F4xx_HAL_Driver/Src/stm32f4xx_hal_rtc_ex.c ****   /* Get tick */
 699:Libraries/STM32F4xx_HAL_Driver/Src/stm32f4xx_hal_rtc_ex.c ****   tickstart = HAL_GetTick();
 1344              		.loc 1 699 3 view .LVU452
 1345              		.loc 1 699 15 is_stmt 0 view .LVU453
 1346 0006 FFF7FEFF 		bl	HAL_GetTick
 1347              	.LVL81:
 1348              		.loc 1 699 15 view .LVU454
 1349 000a 0646     		mov	r6, r0
 1350              	.LVL82:
 700:Libraries/STM32F4xx_HAL_Driver/Src/stm32f4xx_hal_rtc_ex.c **** 
 701:Libraries/STM32F4xx_HAL_Driver/Src/stm32f4xx_hal_rtc_ex.c ****   /* Get the status of the Interrupt */
 702:Libraries/STM32F4xx_HAL_Driver/Src/stm32f4xx_hal_rtc_ex.c ****   while(__HAL_RTC_TAMPER_GET_FLAG(hrtc, RTC_FLAG_TAMP2F) == RESET)
 1351              		.loc 1 702 3 is_stmt 1 view .LVU455
 1352              	.L85:
 1353              		.loc 1 702 8 view .LVU456
 1354              		.loc 1 702 9 is_stmt 0 view .LVU457
 1355 000c 2368     		ldr	r3, [r4]
 1356 000e DA68     		ldr	r2, [r3, #12]
 1357              		.loc 1 702 8 view .LVU458
 1358 0010 12F4804F 		tst	r2, #16384
 1359 0014 0BD1     		bne	.L90
 703:Libraries/STM32F4xx_HAL_Driver/Src/stm32f4xx_hal_rtc_ex.c ****   {
 704:Libraries/STM32F4xx_HAL_Driver/Src/stm32f4xx_hal_rtc_ex.c ****     if(Timeout != HAL_MAX_DELAY)
ARM GAS  C:\Users\yzy\AppData\Local\Temp\ccuah9XY.s 			page 38


 1360              		.loc 1 704 5 is_stmt 1 view .LVU459
 1361              		.loc 1 704 7 is_stmt 0 view .LVU460
 1362 0016 B5F1FF3F 		cmp	r5, #-1
 1363 001a F7D0     		beq	.L85
 705:Libraries/STM32F4xx_HAL_Driver/Src/stm32f4xx_hal_rtc_ex.c ****     {
 706:Libraries/STM32F4xx_HAL_Driver/Src/stm32f4xx_hal_rtc_ex.c ****       if((Timeout == 0U)||((HAL_GetTick() - tickstart ) > Timeout))
 1364              		.loc 1 706 7 is_stmt 1 view .LVU461
 1365              		.loc 1 706 9 is_stmt 0 view .LVU462
 1366 001c 25B1     		cbz	r5, .L86
 1367              		.loc 1 706 29 discriminator 1 view .LVU463
 1368 001e FFF7FEFF 		bl	HAL_GetTick
 1369              	.LVL83:
 1370              		.loc 1 706 43 discriminator 1 view .LVU464
 1371 0022 801B     		subs	r0, r0, r6
 1372              		.loc 1 706 25 discriminator 1 view .LVU465
 1373 0024 A842     		cmp	r0, r5
 1374 0026 F1D9     		bls	.L85
 1375              	.L86:
 707:Libraries/STM32F4xx_HAL_Driver/Src/stm32f4xx_hal_rtc_ex.c ****       {
 708:Libraries/STM32F4xx_HAL_Driver/Src/stm32f4xx_hal_rtc_ex.c ****         hrtc->State = HAL_RTC_STATE_TIMEOUT;
 1376              		.loc 1 708 9 is_stmt 1 view .LVU466
 1377              		.loc 1 708 21 is_stmt 0 view .LVU467
 1378 0028 0320     		movs	r0, #3
 1379 002a 6077     		strb	r0, [r4, #29]
 709:Libraries/STM32F4xx_HAL_Driver/Src/stm32f4xx_hal_rtc_ex.c ****         return HAL_TIMEOUT;
 1380              		.loc 1 709 9 is_stmt 1 view .LVU468
 1381              		.loc 1 709 16 is_stmt 0 view .LVU469
 1382 002c 07E0     		b	.L87
 1383              	.L90:
 710:Libraries/STM32F4xx_HAL_Driver/Src/stm32f4xx_hal_rtc_ex.c ****       }
 711:Libraries/STM32F4xx_HAL_Driver/Src/stm32f4xx_hal_rtc_ex.c ****     }
 712:Libraries/STM32F4xx_HAL_Driver/Src/stm32f4xx_hal_rtc_ex.c ****   }
 713:Libraries/STM32F4xx_HAL_Driver/Src/stm32f4xx_hal_rtc_ex.c **** 
 714:Libraries/STM32F4xx_HAL_Driver/Src/stm32f4xx_hal_rtc_ex.c ****   /* Clear the Tamper Flag */
 715:Libraries/STM32F4xx_HAL_Driver/Src/stm32f4xx_hal_rtc_ex.c ****   __HAL_RTC_TAMPER_CLEAR_FLAG(hrtc,RTC_FLAG_TAMP2F);
 1384              		.loc 1 715 3 is_stmt 1 view .LVU470
 1385 002e DA68     		ldr	r2, [r3, #12]
 1386 0030 D2B2     		uxtb	r2, r2
 1387 0032 62F48142 		orn	r2, r2, #16512
 1388 0036 DA60     		str	r2, [r3, #12]
 716:Libraries/STM32F4xx_HAL_Driver/Src/stm32f4xx_hal_rtc_ex.c **** 
 717:Libraries/STM32F4xx_HAL_Driver/Src/stm32f4xx_hal_rtc_ex.c ****   /* Change RTC state */
 718:Libraries/STM32F4xx_HAL_Driver/Src/stm32f4xx_hal_rtc_ex.c ****   hrtc->State = HAL_RTC_STATE_READY;
 1389              		.loc 1 718 3 view .LVU471
 1390              		.loc 1 718 15 is_stmt 0 view .LVU472
 1391 0038 0123     		movs	r3, #1
 1392 003a 6377     		strb	r3, [r4, #29]
 719:Libraries/STM32F4xx_HAL_Driver/Src/stm32f4xx_hal_rtc_ex.c **** 
 720:Libraries/STM32F4xx_HAL_Driver/Src/stm32f4xx_hal_rtc_ex.c ****   return HAL_OK;
 1393              		.loc 1 720 3 is_stmt 1 view .LVU473
 1394              		.loc 1 720 10 is_stmt 0 view .LVU474
 1395 003c 0020     		movs	r0, #0
 1396              	.L87:
 721:Libraries/STM32F4xx_HAL_Driver/Src/stm32f4xx_hal_rtc_ex.c **** }
 1397              		.loc 1 721 1 view .LVU475
 1398 003e 70BD     		pop	{r4, r5, r6, pc}
 1399              		.loc 1 721 1 view .LVU476
ARM GAS  C:\Users\yzy\AppData\Local\Temp\ccuah9XY.s 			page 39


 1400              		.cfi_endproc
 1401              	.LFE143:
 1403              		.section	.text.HAL_RTCEx_SetWakeUpTimer,"ax",%progbits
 1404              		.align	1
 1405              		.global	HAL_RTCEx_SetWakeUpTimer
 1406              		.syntax unified
 1407              		.thumb
 1408              		.thumb_func
 1409              		.fpu softvfp
 1411              	HAL_RTCEx_SetWakeUpTimer:
 1412              	.LVL84:
 1413              	.LFB144:
 722:Libraries/STM32F4xx_HAL_Driver/Src/stm32f4xx_hal_rtc_ex.c **** 
 723:Libraries/STM32F4xx_HAL_Driver/Src/stm32f4xx_hal_rtc_ex.c **** /**
 724:Libraries/STM32F4xx_HAL_Driver/Src/stm32f4xx_hal_rtc_ex.c ****   * @}
 725:Libraries/STM32F4xx_HAL_Driver/Src/stm32f4xx_hal_rtc_ex.c ****   */
 726:Libraries/STM32F4xx_HAL_Driver/Src/stm32f4xx_hal_rtc_ex.c **** 
 727:Libraries/STM32F4xx_HAL_Driver/Src/stm32f4xx_hal_rtc_ex.c **** /** @defgroup RTCEx_Exported_Functions_Group2 RTC Wake-up functions
 728:Libraries/STM32F4xx_HAL_Driver/Src/stm32f4xx_hal_rtc_ex.c ****  *  @brief   RTC Wake-up functions
 729:Libraries/STM32F4xx_HAL_Driver/Src/stm32f4xx_hal_rtc_ex.c ****  *
 730:Libraries/STM32F4xx_HAL_Driver/Src/stm32f4xx_hal_rtc_ex.c **** @verbatim
 731:Libraries/STM32F4xx_HAL_Driver/Src/stm32f4xx_hal_rtc_ex.c ****  ===============================================================================
 732:Libraries/STM32F4xx_HAL_Driver/Src/stm32f4xx_hal_rtc_ex.c ****                         ##### RTC Wake-up functions #####
 733:Libraries/STM32F4xx_HAL_Driver/Src/stm32f4xx_hal_rtc_ex.c ****  ===============================================================================
 734:Libraries/STM32F4xx_HAL_Driver/Src/stm32f4xx_hal_rtc_ex.c **** 
 735:Libraries/STM32F4xx_HAL_Driver/Src/stm32f4xx_hal_rtc_ex.c ****  [..] This section provides functions allowing to configure Wake-up feature
 736:Libraries/STM32F4xx_HAL_Driver/Src/stm32f4xx_hal_rtc_ex.c **** 
 737:Libraries/STM32F4xx_HAL_Driver/Src/stm32f4xx_hal_rtc_ex.c **** @endverbatim
 738:Libraries/STM32F4xx_HAL_Driver/Src/stm32f4xx_hal_rtc_ex.c ****   * @{
 739:Libraries/STM32F4xx_HAL_Driver/Src/stm32f4xx_hal_rtc_ex.c ****   */
 740:Libraries/STM32F4xx_HAL_Driver/Src/stm32f4xx_hal_rtc_ex.c **** 
 741:Libraries/STM32F4xx_HAL_Driver/Src/stm32f4xx_hal_rtc_ex.c **** /**
 742:Libraries/STM32F4xx_HAL_Driver/Src/stm32f4xx_hal_rtc_ex.c ****   * @brief  Sets wake up timer.
 743:Libraries/STM32F4xx_HAL_Driver/Src/stm32f4xx_hal_rtc_ex.c ****   * @param  hrtc pointer to a RTC_HandleTypeDef structure that contains
 744:Libraries/STM32F4xx_HAL_Driver/Src/stm32f4xx_hal_rtc_ex.c ****   *                the configuration information for RTC.
 745:Libraries/STM32F4xx_HAL_Driver/Src/stm32f4xx_hal_rtc_ex.c ****   * @param  WakeUpCounter Wake up counter
 746:Libraries/STM32F4xx_HAL_Driver/Src/stm32f4xx_hal_rtc_ex.c ****   * @param  WakeUpClock Wake up clock
 747:Libraries/STM32F4xx_HAL_Driver/Src/stm32f4xx_hal_rtc_ex.c ****   * @retval HAL status
 748:Libraries/STM32F4xx_HAL_Driver/Src/stm32f4xx_hal_rtc_ex.c ****   */
 749:Libraries/STM32F4xx_HAL_Driver/Src/stm32f4xx_hal_rtc_ex.c **** HAL_StatusTypeDef HAL_RTCEx_SetWakeUpTimer(RTC_HandleTypeDef *hrtc, uint32_t WakeUpCounter, uint32_
 750:Libraries/STM32F4xx_HAL_Driver/Src/stm32f4xx_hal_rtc_ex.c **** {
 1414              		.loc 1 750 1 is_stmt 1 view -0
 1415              		.cfi_startproc
 1416              		@ args = 0, pretend = 0, frame = 0
 1417              		@ frame_needed = 0, uses_anonymous_args = 0
 1418              		.loc 1 750 1 is_stmt 0 view .LVU478
 1419 0000 F8B5     		push	{r3, r4, r5, r6, r7, lr}
 1420              	.LCFI17:
 1421              		.cfi_def_cfa_offset 24
 1422              		.cfi_offset 3, -24
 1423              		.cfi_offset 4, -20
 1424              		.cfi_offset 5, -16
 1425              		.cfi_offset 6, -12
 1426              		.cfi_offset 7, -8
 1427              		.cfi_offset 14, -4
 751:Libraries/STM32F4xx_HAL_Driver/Src/stm32f4xx_hal_rtc_ex.c ****   uint32_t tickstart = 0U;
 1428              		.loc 1 751 3 is_stmt 1 view .LVU479
ARM GAS  C:\Users\yzy\AppData\Local\Temp\ccuah9XY.s 			page 40


 1429              	.LVL85:
 752:Libraries/STM32F4xx_HAL_Driver/Src/stm32f4xx_hal_rtc_ex.c **** 
 753:Libraries/STM32F4xx_HAL_Driver/Src/stm32f4xx_hal_rtc_ex.c ****   /* Check the parameters */
 754:Libraries/STM32F4xx_HAL_Driver/Src/stm32f4xx_hal_rtc_ex.c ****   assert_param(IS_RTC_WAKEUP_CLOCK(WakeUpClock));
 1430              		.loc 1 754 3 view .LVU480
 755:Libraries/STM32F4xx_HAL_Driver/Src/stm32f4xx_hal_rtc_ex.c ****   assert_param(IS_RTC_WAKEUP_COUNTER(WakeUpCounter));
 1431              		.loc 1 755 3 view .LVU481
 756:Libraries/STM32F4xx_HAL_Driver/Src/stm32f4xx_hal_rtc_ex.c **** 
 757:Libraries/STM32F4xx_HAL_Driver/Src/stm32f4xx_hal_rtc_ex.c ****   /* Process Locked */
 758:Libraries/STM32F4xx_HAL_Driver/Src/stm32f4xx_hal_rtc_ex.c ****   __HAL_LOCK(hrtc);
 1432              		.loc 1 758 3 view .LVU482
 1433              		.loc 1 758 3 view .LVU483
 1434 0002 037F     		ldrb	r3, [r0, #28]	@ zero_extendqisi2
 1435 0004 012B     		cmp	r3, #1
 1436 0006 59D0     		beq	.L98
 1437 0008 0446     		mov	r4, r0
 1438 000a 0D46     		mov	r5, r1
 1439 000c 1646     		mov	r6, r2
 1440              		.loc 1 758 3 discriminator 2 view .LVU484
 1441 000e 0123     		movs	r3, #1
 1442 0010 0377     		strb	r3, [r0, #28]
 1443              		.loc 1 758 3 discriminator 2 view .LVU485
 759:Libraries/STM32F4xx_HAL_Driver/Src/stm32f4xx_hal_rtc_ex.c **** 
 760:Libraries/STM32F4xx_HAL_Driver/Src/stm32f4xx_hal_rtc_ex.c ****   hrtc->State = HAL_RTC_STATE_BUSY;
 1444              		.loc 1 760 3 discriminator 2 view .LVU486
 1445              		.loc 1 760 15 is_stmt 0 discriminator 2 view .LVU487
 1446 0012 0223     		movs	r3, #2
 1447 0014 4377     		strb	r3, [r0, #29]
 761:Libraries/STM32F4xx_HAL_Driver/Src/stm32f4xx_hal_rtc_ex.c **** 
 762:Libraries/STM32F4xx_HAL_Driver/Src/stm32f4xx_hal_rtc_ex.c ****   /* Disable the write protection for RTC registers */
 763:Libraries/STM32F4xx_HAL_Driver/Src/stm32f4xx_hal_rtc_ex.c ****   __HAL_RTC_WRITEPROTECTION_DISABLE(hrtc);
 1448              		.loc 1 763 3 is_stmt 1 discriminator 2 view .LVU488
 1449              		.loc 1 763 3 discriminator 2 view .LVU489
 1450 0016 0368     		ldr	r3, [r0]
 1451 0018 CA22     		movs	r2, #202
 1452              	.LVL86:
 1453              		.loc 1 763 3 is_stmt 0 discriminator 2 view .LVU490
 1454 001a 5A62     		str	r2, [r3, #36]
 1455              		.loc 1 763 3 is_stmt 1 discriminator 2 view .LVU491
 1456 001c 0368     		ldr	r3, [r0]
 1457 001e 5322     		movs	r2, #83
 1458 0020 5A62     		str	r2, [r3, #36]
 1459              		.loc 1 763 3 discriminator 2 view .LVU492
 764:Libraries/STM32F4xx_HAL_Driver/Src/stm32f4xx_hal_rtc_ex.c **** 
 765:Libraries/STM32F4xx_HAL_Driver/Src/stm32f4xx_hal_rtc_ex.c ****   /*Check RTC WUTWF flag is reset only when wake up timer enabled*/
 766:Libraries/STM32F4xx_HAL_Driver/Src/stm32f4xx_hal_rtc_ex.c ****   if((hrtc->Instance->CR & RTC_CR_WUTE) != RESET)
 1460              		.loc 1 766 3 discriminator 2 view .LVU493
 1461              		.loc 1 766 11 is_stmt 0 discriminator 2 view .LVU494
 1462 0022 0368     		ldr	r3, [r0]
 1463              		.loc 1 766 21 discriminator 2 view .LVU495
 1464 0024 9B68     		ldr	r3, [r3, #8]
 1465              		.loc 1 766 5 discriminator 2 view .LVU496
 1466 0026 13F4806F 		tst	r3, #1024
 1467 002a 15D0     		beq	.L93
 767:Libraries/STM32F4xx_HAL_Driver/Src/stm32f4xx_hal_rtc_ex.c ****   {
 768:Libraries/STM32F4xx_HAL_Driver/Src/stm32f4xx_hal_rtc_ex.c ****     tickstart = HAL_GetTick();
 1468              		.loc 1 768 5 is_stmt 1 view .LVU497
ARM GAS  C:\Users\yzy\AppData\Local\Temp\ccuah9XY.s 			page 41


 1469              		.loc 1 768 17 is_stmt 0 view .LVU498
 1470 002c FFF7FEFF 		bl	HAL_GetTick
 1471              	.LVL87:
 1472              		.loc 1 768 17 view .LVU499
 1473 0030 0746     		mov	r7, r0
 1474              	.LVL88:
 769:Libraries/STM32F4xx_HAL_Driver/Src/stm32f4xx_hal_rtc_ex.c **** 
 770:Libraries/STM32F4xx_HAL_Driver/Src/stm32f4xx_hal_rtc_ex.c ****     /* Wait till RTC WUTWF flag is reset and if Time out is reached exit */
 771:Libraries/STM32F4xx_HAL_Driver/Src/stm32f4xx_hal_rtc_ex.c ****     while(__HAL_RTC_WAKEUPTIMER_GET_FLAG(hrtc, RTC_FLAG_WUTWF) == SET)
 1475              		.loc 1 771 5 is_stmt 1 view .LVU500
 1476              	.L94:
 1477              		.loc 1 771 10 view .LVU501
 1478              		.loc 1 771 11 is_stmt 0 view .LVU502
 1479 0032 2368     		ldr	r3, [r4]
 1480 0034 DB68     		ldr	r3, [r3, #12]
 1481              		.loc 1 771 10 view .LVU503
 1482 0036 13F0040F 		tst	r3, #4
 1483 003a 0DD0     		beq	.L93
 772:Libraries/STM32F4xx_HAL_Driver/Src/stm32f4xx_hal_rtc_ex.c ****     {
 773:Libraries/STM32F4xx_HAL_Driver/Src/stm32f4xx_hal_rtc_ex.c ****       if((HAL_GetTick() - tickstart ) > RTC_TIMEOUT_VALUE)
 1484              		.loc 1 773 7 is_stmt 1 view .LVU504
 1485              		.loc 1 773 11 is_stmt 0 view .LVU505
 1486 003c FFF7FEFF 		bl	HAL_GetTick
 1487              	.LVL89:
 1488              		.loc 1 773 25 view .LVU506
 1489 0040 C01B     		subs	r0, r0, r7
 1490              		.loc 1 773 9 view .LVU507
 1491 0042 B0F57A7F 		cmp	r0, #1000
 1492 0046 F4D9     		bls	.L94
 774:Libraries/STM32F4xx_HAL_Driver/Src/stm32f4xx_hal_rtc_ex.c ****       {
 775:Libraries/STM32F4xx_HAL_Driver/Src/stm32f4xx_hal_rtc_ex.c ****         /* Enable the write protection for RTC registers */
 776:Libraries/STM32F4xx_HAL_Driver/Src/stm32f4xx_hal_rtc_ex.c ****         __HAL_RTC_WRITEPROTECTION_ENABLE(hrtc);
 1493              		.loc 1 776 9 is_stmt 1 view .LVU508
 1494              		.loc 1 776 9 view .LVU509
 1495 0048 2368     		ldr	r3, [r4]
 1496 004a FF22     		movs	r2, #255
 1497 004c 5A62     		str	r2, [r3, #36]
 1498              		.loc 1 776 9 view .LVU510
 777:Libraries/STM32F4xx_HAL_Driver/Src/stm32f4xx_hal_rtc_ex.c **** 
 778:Libraries/STM32F4xx_HAL_Driver/Src/stm32f4xx_hal_rtc_ex.c ****         hrtc->State = HAL_RTC_STATE_TIMEOUT;
 1499              		.loc 1 778 9 view .LVU511
 1500              		.loc 1 778 21 is_stmt 0 view .LVU512
 1501 004e 0320     		movs	r0, #3
 1502 0050 6077     		strb	r0, [r4, #29]
 779:Libraries/STM32F4xx_HAL_Driver/Src/stm32f4xx_hal_rtc_ex.c **** 
 780:Libraries/STM32F4xx_HAL_Driver/Src/stm32f4xx_hal_rtc_ex.c ****         /* Process Unlocked */
 781:Libraries/STM32F4xx_HAL_Driver/Src/stm32f4xx_hal_rtc_ex.c ****         __HAL_UNLOCK(hrtc);
 1503              		.loc 1 781 9 is_stmt 1 view .LVU513
 1504              		.loc 1 781 9 view .LVU514
 1505 0052 0023     		movs	r3, #0
 1506 0054 2377     		strb	r3, [r4, #28]
 1507              		.loc 1 781 9 view .LVU515
 782:Libraries/STM32F4xx_HAL_Driver/Src/stm32f4xx_hal_rtc_ex.c **** 
 783:Libraries/STM32F4xx_HAL_Driver/Src/stm32f4xx_hal_rtc_ex.c ****         return HAL_TIMEOUT;
 1508              		.loc 1 783 9 view .LVU516
 1509              		.loc 1 783 16 is_stmt 0 view .LVU517
 1510 0056 30E0     		b	.L92
ARM GAS  C:\Users\yzy\AppData\Local\Temp\ccuah9XY.s 			page 42


 1511              	.LVL90:
 1512              	.L93:
 784:Libraries/STM32F4xx_HAL_Driver/Src/stm32f4xx_hal_rtc_ex.c ****       }
 785:Libraries/STM32F4xx_HAL_Driver/Src/stm32f4xx_hal_rtc_ex.c ****     }
 786:Libraries/STM32F4xx_HAL_Driver/Src/stm32f4xx_hal_rtc_ex.c ****   }
 787:Libraries/STM32F4xx_HAL_Driver/Src/stm32f4xx_hal_rtc_ex.c **** 
 788:Libraries/STM32F4xx_HAL_Driver/Src/stm32f4xx_hal_rtc_ex.c ****   __HAL_RTC_WAKEUPTIMER_DISABLE(hrtc);
 1513              		.loc 1 788 3 is_stmt 1 view .LVU518
 1514 0058 2268     		ldr	r2, [r4]
 1515 005a 9368     		ldr	r3, [r2, #8]
 1516 005c 23F48063 		bic	r3, r3, #1024
 1517 0060 9360     		str	r3, [r2, #8]
 789:Libraries/STM32F4xx_HAL_Driver/Src/stm32f4xx_hal_rtc_ex.c **** 
 790:Libraries/STM32F4xx_HAL_Driver/Src/stm32f4xx_hal_rtc_ex.c ****   tickstart = HAL_GetTick();
 1518              		.loc 1 790 3 view .LVU519
 1519              		.loc 1 790 15 is_stmt 0 view .LVU520
 1520 0062 FFF7FEFF 		bl	HAL_GetTick
 1521              	.LVL91:
 1522 0066 0746     		mov	r7, r0
 1523              	.LVL92:
 791:Libraries/STM32F4xx_HAL_Driver/Src/stm32f4xx_hal_rtc_ex.c **** 
 792:Libraries/STM32F4xx_HAL_Driver/Src/stm32f4xx_hal_rtc_ex.c ****   /* Wait till RTC WUTWF flag is set and if Time out is reached exit */
 793:Libraries/STM32F4xx_HAL_Driver/Src/stm32f4xx_hal_rtc_ex.c ****   while(__HAL_RTC_WAKEUPTIMER_GET_FLAG(hrtc, RTC_FLAG_WUTWF) == RESET)
 1524              		.loc 1 793 3 is_stmt 1 view .LVU521
 1525              	.L96:
 1526              		.loc 1 793 8 view .LVU522
 1527              		.loc 1 793 9 is_stmt 0 view .LVU523
 1528 0068 2368     		ldr	r3, [r4]
 1529 006a DA68     		ldr	r2, [r3, #12]
 1530              		.loc 1 793 8 view .LVU524
 1531 006c 12F0040F 		tst	r2, #4
 1532 0070 0DD1     		bne	.L100
 794:Libraries/STM32F4xx_HAL_Driver/Src/stm32f4xx_hal_rtc_ex.c ****   {
 795:Libraries/STM32F4xx_HAL_Driver/Src/stm32f4xx_hal_rtc_ex.c ****     if((HAL_GetTick() - tickstart ) > RTC_TIMEOUT_VALUE)
 1533              		.loc 1 795 5 is_stmt 1 view .LVU525
 1534              		.loc 1 795 9 is_stmt 0 view .LVU526
 1535 0072 FFF7FEFF 		bl	HAL_GetTick
 1536              	.LVL93:
 1537              		.loc 1 795 23 view .LVU527
 1538 0076 C31B     		subs	r3, r0, r7
 1539              		.loc 1 795 7 view .LVU528
 1540 0078 B3F57A7F 		cmp	r3, #1000
 1541 007c F4D9     		bls	.L96
 796:Libraries/STM32F4xx_HAL_Driver/Src/stm32f4xx_hal_rtc_ex.c ****     {
 797:Libraries/STM32F4xx_HAL_Driver/Src/stm32f4xx_hal_rtc_ex.c ****       /* Enable the write protection for RTC registers */
 798:Libraries/STM32F4xx_HAL_Driver/Src/stm32f4xx_hal_rtc_ex.c ****       __HAL_RTC_WRITEPROTECTION_ENABLE(hrtc);
 1542              		.loc 1 798 7 is_stmt 1 view .LVU529
 1543              		.loc 1 798 7 view .LVU530
 1544 007e 2368     		ldr	r3, [r4]
 1545 0080 FF22     		movs	r2, #255
 1546 0082 5A62     		str	r2, [r3, #36]
 1547              		.loc 1 798 7 view .LVU531
 799:Libraries/STM32F4xx_HAL_Driver/Src/stm32f4xx_hal_rtc_ex.c **** 
 800:Libraries/STM32F4xx_HAL_Driver/Src/stm32f4xx_hal_rtc_ex.c ****       hrtc->State = HAL_RTC_STATE_TIMEOUT;
 1548              		.loc 1 800 7 view .LVU532
 1549              		.loc 1 800 19 is_stmt 0 view .LVU533
 1550 0084 0320     		movs	r0, #3
ARM GAS  C:\Users\yzy\AppData\Local\Temp\ccuah9XY.s 			page 43


 1551 0086 6077     		strb	r0, [r4, #29]
 801:Libraries/STM32F4xx_HAL_Driver/Src/stm32f4xx_hal_rtc_ex.c **** 
 802:Libraries/STM32F4xx_HAL_Driver/Src/stm32f4xx_hal_rtc_ex.c ****       /* Process Unlocked */
 803:Libraries/STM32F4xx_HAL_Driver/Src/stm32f4xx_hal_rtc_ex.c ****       __HAL_UNLOCK(hrtc);
 1552              		.loc 1 803 7 is_stmt 1 view .LVU534
 1553              		.loc 1 803 7 view .LVU535
 1554 0088 0023     		movs	r3, #0
 1555 008a 2377     		strb	r3, [r4, #28]
 1556              		.loc 1 803 7 view .LVU536
 804:Libraries/STM32F4xx_HAL_Driver/Src/stm32f4xx_hal_rtc_ex.c **** 
 805:Libraries/STM32F4xx_HAL_Driver/Src/stm32f4xx_hal_rtc_ex.c ****       return HAL_TIMEOUT;
 1557              		.loc 1 805 7 view .LVU537
 1558              		.loc 1 805 14 is_stmt 0 view .LVU538
 1559 008c 15E0     		b	.L92
 1560              	.L100:
 806:Libraries/STM32F4xx_HAL_Driver/Src/stm32f4xx_hal_rtc_ex.c ****     }
 807:Libraries/STM32F4xx_HAL_Driver/Src/stm32f4xx_hal_rtc_ex.c ****   }
 808:Libraries/STM32F4xx_HAL_Driver/Src/stm32f4xx_hal_rtc_ex.c **** 
 809:Libraries/STM32F4xx_HAL_Driver/Src/stm32f4xx_hal_rtc_ex.c ****   /* Clear the Wake-up Timer clock source bits in CR register */
 810:Libraries/STM32F4xx_HAL_Driver/Src/stm32f4xx_hal_rtc_ex.c ****   hrtc->Instance->CR &= (uint32_t)~RTC_CR_WUCKSEL;
 1561              		.loc 1 810 3 is_stmt 1 view .LVU539
 1562              		.loc 1 810 22 is_stmt 0 view .LVU540
 1563 008e 9A68     		ldr	r2, [r3, #8]
 1564 0090 22F00702 		bic	r2, r2, #7
 1565 0094 9A60     		str	r2, [r3, #8]
 811:Libraries/STM32F4xx_HAL_Driver/Src/stm32f4xx_hal_rtc_ex.c **** 
 812:Libraries/STM32F4xx_HAL_Driver/Src/stm32f4xx_hal_rtc_ex.c ****   /* Configure the clock source */
 813:Libraries/STM32F4xx_HAL_Driver/Src/stm32f4xx_hal_rtc_ex.c ****   hrtc->Instance->CR |= (uint32_t)WakeUpClock;
 1566              		.loc 1 813 3 is_stmt 1 view .LVU541
 1567              		.loc 1 813 7 is_stmt 0 view .LVU542
 1568 0096 2268     		ldr	r2, [r4]
 1569              		.loc 1 813 22 view .LVU543
 1570 0098 9368     		ldr	r3, [r2, #8]
 1571 009a 1E43     		orrs	r6, r6, r3
 1572              	.LVL94:
 1573              		.loc 1 813 22 view .LVU544
 1574 009c 9660     		str	r6, [r2, #8]
 814:Libraries/STM32F4xx_HAL_Driver/Src/stm32f4xx_hal_rtc_ex.c **** 
 815:Libraries/STM32F4xx_HAL_Driver/Src/stm32f4xx_hal_rtc_ex.c ****   /* Configure the Wake-up Timer counter */
 816:Libraries/STM32F4xx_HAL_Driver/Src/stm32f4xx_hal_rtc_ex.c ****   hrtc->Instance->WUTR = (uint32_t)WakeUpCounter;
 1575              		.loc 1 816 3 is_stmt 1 view .LVU545
 1576              		.loc 1 816 7 is_stmt 0 view .LVU546
 1577 009e 2368     		ldr	r3, [r4]
 1578              		.loc 1 816 24 view .LVU547
 1579 00a0 5D61     		str	r5, [r3, #20]
 817:Libraries/STM32F4xx_HAL_Driver/Src/stm32f4xx_hal_rtc_ex.c **** 
 818:Libraries/STM32F4xx_HAL_Driver/Src/stm32f4xx_hal_rtc_ex.c ****    /* Enable the Wake-up Timer */
 819:Libraries/STM32F4xx_HAL_Driver/Src/stm32f4xx_hal_rtc_ex.c ****   __HAL_RTC_WAKEUPTIMER_ENABLE(hrtc);
 1580              		.loc 1 819 3 is_stmt 1 view .LVU548
 1581 00a2 2268     		ldr	r2, [r4]
 1582 00a4 9368     		ldr	r3, [r2, #8]
 1583 00a6 43F48063 		orr	r3, r3, #1024
 1584 00aa 9360     		str	r3, [r2, #8]
 820:Libraries/STM32F4xx_HAL_Driver/Src/stm32f4xx_hal_rtc_ex.c **** 
 821:Libraries/STM32F4xx_HAL_Driver/Src/stm32f4xx_hal_rtc_ex.c ****   /* Enable the write protection for RTC registers */
 822:Libraries/STM32F4xx_HAL_Driver/Src/stm32f4xx_hal_rtc_ex.c ****   __HAL_RTC_WRITEPROTECTION_ENABLE(hrtc);
 1585              		.loc 1 822 3 view .LVU549
ARM GAS  C:\Users\yzy\AppData\Local\Temp\ccuah9XY.s 			page 44


 1586              		.loc 1 822 3 view .LVU550
 1587 00ac 2368     		ldr	r3, [r4]
 1588 00ae FF22     		movs	r2, #255
 1589 00b0 5A62     		str	r2, [r3, #36]
 1590              		.loc 1 822 3 view .LVU551
 823:Libraries/STM32F4xx_HAL_Driver/Src/stm32f4xx_hal_rtc_ex.c **** 
 824:Libraries/STM32F4xx_HAL_Driver/Src/stm32f4xx_hal_rtc_ex.c ****   hrtc->State = HAL_RTC_STATE_READY;
 1591              		.loc 1 824 3 view .LVU552
 1592              		.loc 1 824 15 is_stmt 0 view .LVU553
 1593 00b2 0123     		movs	r3, #1
 1594 00b4 6377     		strb	r3, [r4, #29]
 825:Libraries/STM32F4xx_HAL_Driver/Src/stm32f4xx_hal_rtc_ex.c **** 
 826:Libraries/STM32F4xx_HAL_Driver/Src/stm32f4xx_hal_rtc_ex.c ****   /* Process Unlocked */
 827:Libraries/STM32F4xx_HAL_Driver/Src/stm32f4xx_hal_rtc_ex.c ****   __HAL_UNLOCK(hrtc);
 1595              		.loc 1 827 3 is_stmt 1 view .LVU554
 1596              		.loc 1 827 3 view .LVU555
 1597 00b6 0020     		movs	r0, #0
 1598 00b8 2077     		strb	r0, [r4, #28]
 1599              		.loc 1 827 3 view .LVU556
 828:Libraries/STM32F4xx_HAL_Driver/Src/stm32f4xx_hal_rtc_ex.c **** 
 829:Libraries/STM32F4xx_HAL_Driver/Src/stm32f4xx_hal_rtc_ex.c ****   return HAL_OK;
 1600              		.loc 1 829 3 view .LVU557
 1601              	.LVL95:
 1602              	.L92:
 830:Libraries/STM32F4xx_HAL_Driver/Src/stm32f4xx_hal_rtc_ex.c **** }
 1603              		.loc 1 830 1 is_stmt 0 view .LVU558
 1604 00ba F8BD     		pop	{r3, r4, r5, r6, r7, pc}
 1605              	.LVL96:
 1606              	.L98:
 758:Libraries/STM32F4xx_HAL_Driver/Src/stm32f4xx_hal_rtc_ex.c **** 
 1607              		.loc 1 758 3 view .LVU559
 1608 00bc 0220     		movs	r0, #2
 1609              	.LVL97:
 758:Libraries/STM32F4xx_HAL_Driver/Src/stm32f4xx_hal_rtc_ex.c **** 
 1610              		.loc 1 758 3 view .LVU560
 1611 00be FCE7     		b	.L92
 1612              		.cfi_endproc
 1613              	.LFE144:
 1615              		.section	.text.HAL_RTCEx_SetWakeUpTimer_IT,"ax",%progbits
 1616              		.align	1
 1617              		.global	HAL_RTCEx_SetWakeUpTimer_IT
 1618              		.syntax unified
 1619              		.thumb
 1620              		.thumb_func
 1621              		.fpu softvfp
 1623              	HAL_RTCEx_SetWakeUpTimer_IT:
 1624              	.LVL98:
 1625              	.LFB145:
 831:Libraries/STM32F4xx_HAL_Driver/Src/stm32f4xx_hal_rtc_ex.c **** 
 832:Libraries/STM32F4xx_HAL_Driver/Src/stm32f4xx_hal_rtc_ex.c **** /**
 833:Libraries/STM32F4xx_HAL_Driver/Src/stm32f4xx_hal_rtc_ex.c ****   * @brief  Sets wake up timer with interrupt
 834:Libraries/STM32F4xx_HAL_Driver/Src/stm32f4xx_hal_rtc_ex.c ****   * @param  hrtc pointer to a RTC_HandleTypeDef structure that contains
 835:Libraries/STM32F4xx_HAL_Driver/Src/stm32f4xx_hal_rtc_ex.c ****   *                the configuration information for RTC.
 836:Libraries/STM32F4xx_HAL_Driver/Src/stm32f4xx_hal_rtc_ex.c ****   * @param  WakeUpCounter Wake up counter
 837:Libraries/STM32F4xx_HAL_Driver/Src/stm32f4xx_hal_rtc_ex.c ****   * @param  WakeUpClock Wake up clock
 838:Libraries/STM32F4xx_HAL_Driver/Src/stm32f4xx_hal_rtc_ex.c ****   * @retval HAL status
 839:Libraries/STM32F4xx_HAL_Driver/Src/stm32f4xx_hal_rtc_ex.c ****   */
ARM GAS  C:\Users\yzy\AppData\Local\Temp\ccuah9XY.s 			page 45


 840:Libraries/STM32F4xx_HAL_Driver/Src/stm32f4xx_hal_rtc_ex.c **** HAL_StatusTypeDef HAL_RTCEx_SetWakeUpTimer_IT(RTC_HandleTypeDef *hrtc, uint32_t WakeUpCounter, uint
 841:Libraries/STM32F4xx_HAL_Driver/Src/stm32f4xx_hal_rtc_ex.c **** {
 1626              		.loc 1 841 1 is_stmt 1 view -0
 1627              		.cfi_startproc
 1628              		@ args = 0, pretend = 0, frame = 8
 1629              		@ frame_needed = 0, uses_anonymous_args = 0
 1630              		@ link register save eliminated.
 842:Libraries/STM32F4xx_HAL_Driver/Src/stm32f4xx_hal_rtc_ex.c ****   __IO uint32_t count;
 1631              		.loc 1 842 3 view .LVU562
 843:Libraries/STM32F4xx_HAL_Driver/Src/stm32f4xx_hal_rtc_ex.c **** 
 844:Libraries/STM32F4xx_HAL_Driver/Src/stm32f4xx_hal_rtc_ex.c ****   /* Check the parameters */
 845:Libraries/STM32F4xx_HAL_Driver/Src/stm32f4xx_hal_rtc_ex.c ****   assert_param(IS_RTC_WAKEUP_CLOCK(WakeUpClock));
 1632              		.loc 1 845 3 view .LVU563
 846:Libraries/STM32F4xx_HAL_Driver/Src/stm32f4xx_hal_rtc_ex.c ****   assert_param(IS_RTC_WAKEUP_COUNTER(WakeUpCounter));
 1633              		.loc 1 846 3 view .LVU564
 847:Libraries/STM32F4xx_HAL_Driver/Src/stm32f4xx_hal_rtc_ex.c **** 
 848:Libraries/STM32F4xx_HAL_Driver/Src/stm32f4xx_hal_rtc_ex.c ****   /* Process Locked */
 849:Libraries/STM32F4xx_HAL_Driver/Src/stm32f4xx_hal_rtc_ex.c ****   __HAL_LOCK(hrtc);
 1634              		.loc 1 849 3 view .LVU565
 1635              		.loc 1 849 3 view .LVU566
 1636 0000 037F     		ldrb	r3, [r0, #28]	@ zero_extendqisi2
 1637 0002 012B     		cmp	r3, #1
 1638 0004 7CD0     		beq	.L108
 841:Libraries/STM32F4xx_HAL_Driver/Src/stm32f4xx_hal_rtc_ex.c ****   __IO uint32_t count;
 1639              		.loc 1 841 1 is_stmt 0 discriminator 2 view .LVU567
 1640 0006 30B4     		push	{r4, r5}
 1641              	.LCFI18:
 1642              		.cfi_def_cfa_offset 8
 1643              		.cfi_offset 4, -8
 1644              		.cfi_offset 5, -4
 1645 0008 82B0     		sub	sp, sp, #8
 1646              	.LCFI19:
 1647              		.cfi_def_cfa_offset 16
 1648              		.loc 1 849 3 is_stmt 1 discriminator 2 view .LVU568
 1649 000a 0123     		movs	r3, #1
 1650 000c 0377     		strb	r3, [r0, #28]
 1651              		.loc 1 849 3 discriminator 2 view .LVU569
 850:Libraries/STM32F4xx_HAL_Driver/Src/stm32f4xx_hal_rtc_ex.c **** 
 851:Libraries/STM32F4xx_HAL_Driver/Src/stm32f4xx_hal_rtc_ex.c ****   hrtc->State = HAL_RTC_STATE_BUSY;
 1652              		.loc 1 851 3 discriminator 2 view .LVU570
 1653              		.loc 1 851 15 is_stmt 0 discriminator 2 view .LVU571
 1654 000e 0223     		movs	r3, #2
 1655 0010 4377     		strb	r3, [r0, #29]
 852:Libraries/STM32F4xx_HAL_Driver/Src/stm32f4xx_hal_rtc_ex.c **** 
 853:Libraries/STM32F4xx_HAL_Driver/Src/stm32f4xx_hal_rtc_ex.c ****   /* Disable the write protection for RTC registers */
 854:Libraries/STM32F4xx_HAL_Driver/Src/stm32f4xx_hal_rtc_ex.c ****   __HAL_RTC_WRITEPROTECTION_DISABLE(hrtc);
 1656              		.loc 1 854 3 is_stmt 1 discriminator 2 view .LVU572
 1657              		.loc 1 854 3 discriminator 2 view .LVU573
 1658 0012 0368     		ldr	r3, [r0]
 1659 0014 CA24     		movs	r4, #202
 1660 0016 5C62     		str	r4, [r3, #36]
 1661              		.loc 1 854 3 discriminator 2 view .LVU574
 1662 0018 0368     		ldr	r3, [r0]
 1663 001a 5324     		movs	r4, #83
 1664 001c 5C62     		str	r4, [r3, #36]
 1665              		.loc 1 854 3 discriminator 2 view .LVU575
 855:Libraries/STM32F4xx_HAL_Driver/Src/stm32f4xx_hal_rtc_ex.c **** 
ARM GAS  C:\Users\yzy\AppData\Local\Temp\ccuah9XY.s 			page 46


 856:Libraries/STM32F4xx_HAL_Driver/Src/stm32f4xx_hal_rtc_ex.c ****   /* Check RTC WUTWF flag is reset only when wake up timer enabled */
 857:Libraries/STM32F4xx_HAL_Driver/Src/stm32f4xx_hal_rtc_ex.c ****   if((hrtc->Instance->CR & RTC_CR_WUTE) != RESET)
 1666              		.loc 1 857 3 discriminator 2 view .LVU576
 1667              		.loc 1 857 11 is_stmt 0 discriminator 2 view .LVU577
 1668 001e 0568     		ldr	r5, [r0]
 1669              		.loc 1 857 21 discriminator 2 view .LVU578
 1670 0020 AB68     		ldr	r3, [r5, #8]
 1671              		.loc 1 857 5 discriminator 2 view .LVU579
 1672 0022 13F4806F 		tst	r3, #1024
 1673 0026 13D0     		beq	.L103
 858:Libraries/STM32F4xx_HAL_Driver/Src/stm32f4xx_hal_rtc_ex.c ****   {
 859:Libraries/STM32F4xx_HAL_Driver/Src/stm32f4xx_hal_rtc_ex.c ****     /* Wait till RTC WUTWF flag is reset and if Time out is reached exit */
 860:Libraries/STM32F4xx_HAL_Driver/Src/stm32f4xx_hal_rtc_ex.c ****     count = RTC_TIMEOUT_VALUE  * (SystemCoreClock / 32U / 1000U);
 1674              		.loc 1 860 5 is_stmt 1 view .LVU580
 1675              		.loc 1 860 57 is_stmt 0 view .LVU581
 1676 0028 364B     		ldr	r3, .L115
 1677 002a 1B68     		ldr	r3, [r3]
 1678 002c 364C     		ldr	r4, .L115+4
 1679 002e A4FB0343 		umull	r4, r3, r4, r3
 1680 0032 DB0A     		lsrs	r3, r3, #11
 1681              		.loc 1 860 32 view .LVU582
 1682 0034 4FF47A74 		mov	r4, #1000
 1683 0038 04FB03F3 		mul	r3, r4, r3
 1684              		.loc 1 860 11 view .LVU583
 1685 003c 0193     		str	r3, [sp, #4]
 1686              	.L105:
 861:Libraries/STM32F4xx_HAL_Driver/Src/stm32f4xx_hal_rtc_ex.c ****     do
 1687              		.loc 1 861 5 is_stmt 1 view .LVU584
 862:Libraries/STM32F4xx_HAL_Driver/Src/stm32f4xx_hal_rtc_ex.c ****     {
 863:Libraries/STM32F4xx_HAL_Driver/Src/stm32f4xx_hal_rtc_ex.c ****       if(count-- == 0U)
 1688              		.loc 1 863 7 view .LVU585
 1689              		.loc 1 863 15 is_stmt 0 view .LVU586
 1690 003e 019B     		ldr	r3, [sp, #4]
 1691 0040 5C1E     		subs	r4, r3, #1
 1692 0042 0194     		str	r4, [sp, #4]
 1693              		.loc 1 863 9 view .LVU587
 1694 0044 002B     		cmp	r3, #0
 1695 0046 48D0     		beq	.L113
 864:Libraries/STM32F4xx_HAL_Driver/Src/stm32f4xx_hal_rtc_ex.c ****       {
 865:Libraries/STM32F4xx_HAL_Driver/Src/stm32f4xx_hal_rtc_ex.c ****         /* Enable the write protection for RTC registers */
 866:Libraries/STM32F4xx_HAL_Driver/Src/stm32f4xx_hal_rtc_ex.c ****         __HAL_RTC_WRITEPROTECTION_ENABLE(hrtc);
 867:Libraries/STM32F4xx_HAL_Driver/Src/stm32f4xx_hal_rtc_ex.c **** 
 868:Libraries/STM32F4xx_HAL_Driver/Src/stm32f4xx_hal_rtc_ex.c ****         hrtc->State = HAL_RTC_STATE_TIMEOUT;
 869:Libraries/STM32F4xx_HAL_Driver/Src/stm32f4xx_hal_rtc_ex.c **** 
 870:Libraries/STM32F4xx_HAL_Driver/Src/stm32f4xx_hal_rtc_ex.c ****         /* Process Unlocked */
 871:Libraries/STM32F4xx_HAL_Driver/Src/stm32f4xx_hal_rtc_ex.c ****         __HAL_UNLOCK(hrtc);
 872:Libraries/STM32F4xx_HAL_Driver/Src/stm32f4xx_hal_rtc_ex.c **** 
 873:Libraries/STM32F4xx_HAL_Driver/Src/stm32f4xx_hal_rtc_ex.c ****         return HAL_TIMEOUT;
 874:Libraries/STM32F4xx_HAL_Driver/Src/stm32f4xx_hal_rtc_ex.c ****       }
 875:Libraries/STM32F4xx_HAL_Driver/Src/stm32f4xx_hal_rtc_ex.c ****     }
 876:Libraries/STM32F4xx_HAL_Driver/Src/stm32f4xx_hal_rtc_ex.c ****     while(__HAL_RTC_WAKEUPTIMER_GET_FLAG(hrtc, RTC_FLAG_WUTWF) == SET);
 1696              		.loc 1 876 10 is_stmt 1 view .LVU588
 1697              		.loc 1 876 11 is_stmt 0 view .LVU589
 1698 0048 EB68     		ldr	r3, [r5, #12]
 1699              		.loc 1 876 5 view .LVU590
 1700 004a 13F0040F 		tst	r3, #4
 1701 004e F6D1     		bne	.L105
ARM GAS  C:\Users\yzy\AppData\Local\Temp\ccuah9XY.s 			page 47


 1702              	.L103:
 877:Libraries/STM32F4xx_HAL_Driver/Src/stm32f4xx_hal_rtc_ex.c ****   }
 878:Libraries/STM32F4xx_HAL_Driver/Src/stm32f4xx_hal_rtc_ex.c **** 
 879:Libraries/STM32F4xx_HAL_Driver/Src/stm32f4xx_hal_rtc_ex.c ****   __HAL_RTC_WAKEUPTIMER_DISABLE(hrtc);
 1703              		.loc 1 879 3 is_stmt 1 view .LVU591
 1704 0050 AB68     		ldr	r3, [r5, #8]
 1705 0052 23F48063 		bic	r3, r3, #1024
 1706 0056 AB60     		str	r3, [r5, #8]
 880:Libraries/STM32F4xx_HAL_Driver/Src/stm32f4xx_hal_rtc_ex.c **** 
 881:Libraries/STM32F4xx_HAL_Driver/Src/stm32f4xx_hal_rtc_ex.c ****   /* Wait till RTC WUTWF flag is set and if Time out is reached exit */
 882:Libraries/STM32F4xx_HAL_Driver/Src/stm32f4xx_hal_rtc_ex.c ****   count = RTC_TIMEOUT_VALUE  * (SystemCoreClock / 32U / 1000U);
 1707              		.loc 1 882 3 view .LVU592
 1708              		.loc 1 882 55 is_stmt 0 view .LVU593
 1709 0058 2A4B     		ldr	r3, .L115
 1710 005a 1B68     		ldr	r3, [r3]
 1711 005c 2A4C     		ldr	r4, .L115+4
 1712 005e A4FB0343 		umull	r4, r3, r4, r3
 1713 0062 DB0A     		lsrs	r3, r3, #11
 1714              		.loc 1 882 30 view .LVU594
 1715 0064 4FF47A74 		mov	r4, #1000
 1716 0068 04FB03F3 		mul	r3, r4, r3
 1717              		.loc 1 882 9 view .LVU595
 1718 006c 0193     		str	r3, [sp, #4]
 1719              	.L107:
 883:Libraries/STM32F4xx_HAL_Driver/Src/stm32f4xx_hal_rtc_ex.c ****   do
 1720              		.loc 1 883 3 is_stmt 1 view .LVU596
 884:Libraries/STM32F4xx_HAL_Driver/Src/stm32f4xx_hal_rtc_ex.c ****   {
 885:Libraries/STM32F4xx_HAL_Driver/Src/stm32f4xx_hal_rtc_ex.c ****     if(count-- == 0U)
 1721              		.loc 1 885 5 view .LVU597
 1722              		.loc 1 885 13 is_stmt 0 view .LVU598
 1723 006e 019B     		ldr	r3, [sp, #4]
 1724 0070 5C1E     		subs	r4, r3, #1
 1725 0072 0194     		str	r4, [sp, #4]
 1726              		.loc 1 885 7 view .LVU599
 1727 0074 002B     		cmp	r3, #0
 1728 0076 38D0     		beq	.L114
 886:Libraries/STM32F4xx_HAL_Driver/Src/stm32f4xx_hal_rtc_ex.c ****     {
 887:Libraries/STM32F4xx_HAL_Driver/Src/stm32f4xx_hal_rtc_ex.c ****       /* Enable the write protection for RTC registers */
 888:Libraries/STM32F4xx_HAL_Driver/Src/stm32f4xx_hal_rtc_ex.c ****       __HAL_RTC_WRITEPROTECTION_ENABLE(hrtc);
 889:Libraries/STM32F4xx_HAL_Driver/Src/stm32f4xx_hal_rtc_ex.c **** 
 890:Libraries/STM32F4xx_HAL_Driver/Src/stm32f4xx_hal_rtc_ex.c ****       hrtc->State = HAL_RTC_STATE_TIMEOUT;
 891:Libraries/STM32F4xx_HAL_Driver/Src/stm32f4xx_hal_rtc_ex.c **** 
 892:Libraries/STM32F4xx_HAL_Driver/Src/stm32f4xx_hal_rtc_ex.c ****       /* Process Unlocked */
 893:Libraries/STM32F4xx_HAL_Driver/Src/stm32f4xx_hal_rtc_ex.c ****       __HAL_UNLOCK(hrtc);
 894:Libraries/STM32F4xx_HAL_Driver/Src/stm32f4xx_hal_rtc_ex.c **** 
 895:Libraries/STM32F4xx_HAL_Driver/Src/stm32f4xx_hal_rtc_ex.c ****       return HAL_TIMEOUT;
 896:Libraries/STM32F4xx_HAL_Driver/Src/stm32f4xx_hal_rtc_ex.c ****     }
 897:Libraries/STM32F4xx_HAL_Driver/Src/stm32f4xx_hal_rtc_ex.c ****   }
 898:Libraries/STM32F4xx_HAL_Driver/Src/stm32f4xx_hal_rtc_ex.c ****   while(__HAL_RTC_WAKEUPTIMER_GET_FLAG(hrtc, RTC_FLAG_WUTWF) == RESET);
 1729              		.loc 1 898 8 is_stmt 1 view .LVU600
 1730              		.loc 1 898 9 is_stmt 0 view .LVU601
 1731 0078 0368     		ldr	r3, [r0]
 1732 007a DC68     		ldr	r4, [r3, #12]
 1733              		.loc 1 898 3 view .LVU602
 1734 007c 14F0040F 		tst	r4, #4
 1735 0080 F5D0     		beq	.L107
 899:Libraries/STM32F4xx_HAL_Driver/Src/stm32f4xx_hal_rtc_ex.c **** 
ARM GAS  C:\Users\yzy\AppData\Local\Temp\ccuah9XY.s 			page 48


 900:Libraries/STM32F4xx_HAL_Driver/Src/stm32f4xx_hal_rtc_ex.c ****   /* Configure the Wake-up Timer counter */
 901:Libraries/STM32F4xx_HAL_Driver/Src/stm32f4xx_hal_rtc_ex.c ****   hrtc->Instance->WUTR = (uint32_t)WakeUpCounter;
 1736              		.loc 1 901 3 is_stmt 1 view .LVU603
 1737              		.loc 1 901 24 is_stmt 0 view .LVU604
 1738 0082 5961     		str	r1, [r3, #20]
 902:Libraries/STM32F4xx_HAL_Driver/Src/stm32f4xx_hal_rtc_ex.c **** 
 903:Libraries/STM32F4xx_HAL_Driver/Src/stm32f4xx_hal_rtc_ex.c ****   /* Clear the Wake-up Timer clock source bits in CR register */
 904:Libraries/STM32F4xx_HAL_Driver/Src/stm32f4xx_hal_rtc_ex.c ****   hrtc->Instance->CR &= (uint32_t)~RTC_CR_WUCKSEL;
 1739              		.loc 1 904 3 is_stmt 1 view .LVU605
 1740              		.loc 1 904 7 is_stmt 0 view .LVU606
 1741 0084 0168     		ldr	r1, [r0]
 1742              	.LVL99:
 1743              		.loc 1 904 22 view .LVU607
 1744 0086 8B68     		ldr	r3, [r1, #8]
 1745              	.LVL100:
 1746              		.loc 1 904 22 view .LVU608
 1747 0088 23F00703 		bic	r3, r3, #7
 1748 008c 8B60     		str	r3, [r1, #8]
 905:Libraries/STM32F4xx_HAL_Driver/Src/stm32f4xx_hal_rtc_ex.c **** 
 906:Libraries/STM32F4xx_HAL_Driver/Src/stm32f4xx_hal_rtc_ex.c ****   /* Configure the clock source */
 907:Libraries/STM32F4xx_HAL_Driver/Src/stm32f4xx_hal_rtc_ex.c ****   hrtc->Instance->CR |= (uint32_t)WakeUpClock;
 1749              		.loc 1 907 3 is_stmt 1 view .LVU609
 1750              		.loc 1 907 7 is_stmt 0 view .LVU610
 1751 008e 0168     		ldr	r1, [r0]
 1752              		.loc 1 907 22 view .LVU611
 1753 0090 8B68     		ldr	r3, [r1, #8]
 1754 0092 1A43     		orrs	r2, r2, r3
 1755              	.LVL101:
 1756              		.loc 1 907 22 view .LVU612
 1757 0094 8A60     		str	r2, [r1, #8]
 908:Libraries/STM32F4xx_HAL_Driver/Src/stm32f4xx_hal_rtc_ex.c **** 
 909:Libraries/STM32F4xx_HAL_Driver/Src/stm32f4xx_hal_rtc_ex.c ****   /* RTC WakeUpTimer Interrupt Configuration: EXTI configuration */
 910:Libraries/STM32F4xx_HAL_Driver/Src/stm32f4xx_hal_rtc_ex.c ****   __HAL_RTC_WAKEUPTIMER_EXTI_ENABLE_IT();
 1758              		.loc 1 910 3 is_stmt 1 view .LVU613
 1759 0096 1D4B     		ldr	r3, .L115+8
 1760 0098 1A68     		ldr	r2, [r3]
 1761 009a 42F48002 		orr	r2, r2, #4194304
 1762 009e 1A60     		str	r2, [r3]
 911:Libraries/STM32F4xx_HAL_Driver/Src/stm32f4xx_hal_rtc_ex.c **** 
 912:Libraries/STM32F4xx_HAL_Driver/Src/stm32f4xx_hal_rtc_ex.c ****   EXTI->RTSR |= RTC_EXTI_LINE_WAKEUPTIMER_EVENT;
 1763              		.loc 1 912 3 view .LVU614
 1764              		.loc 1 912 14 is_stmt 0 view .LVU615
 1765 00a0 9A68     		ldr	r2, [r3, #8]
 1766 00a2 42F48002 		orr	r2, r2, #4194304
 1767 00a6 9A60     		str	r2, [r3, #8]
 913:Libraries/STM32F4xx_HAL_Driver/Src/stm32f4xx_hal_rtc_ex.c **** 
 914:Libraries/STM32F4xx_HAL_Driver/Src/stm32f4xx_hal_rtc_ex.c ****   /* Clear RTC Wake Up timer Flag */
 915:Libraries/STM32F4xx_HAL_Driver/Src/stm32f4xx_hal_rtc_ex.c ****   __HAL_RTC_WAKEUPTIMER_CLEAR_FLAG(hrtc, RTC_FLAG_WUTF);
 1768              		.loc 1 915 3 is_stmt 1 view .LVU616
 1769 00a8 0268     		ldr	r2, [r0]
 1770 00aa D368     		ldr	r3, [r2, #12]
 1771 00ac DBB2     		uxtb	r3, r3
 1772 00ae 63F49063 		orn	r3, r3, #1152
 1773 00b2 D360     		str	r3, [r2, #12]
 916:Libraries/STM32F4xx_HAL_Driver/Src/stm32f4xx_hal_rtc_ex.c **** 
 917:Libraries/STM32F4xx_HAL_Driver/Src/stm32f4xx_hal_rtc_ex.c ****   /* Configure the Interrupt in the RTC_CR register */
 918:Libraries/STM32F4xx_HAL_Driver/Src/stm32f4xx_hal_rtc_ex.c ****   __HAL_RTC_WAKEUPTIMER_ENABLE_IT(hrtc,RTC_IT_WUT);
ARM GAS  C:\Users\yzy\AppData\Local\Temp\ccuah9XY.s 			page 49


 1774              		.loc 1 918 3 view .LVU617
 1775 00b4 0268     		ldr	r2, [r0]
 1776 00b6 9368     		ldr	r3, [r2, #8]
 1777 00b8 43F48043 		orr	r3, r3, #16384
 1778 00bc 9360     		str	r3, [r2, #8]
 919:Libraries/STM32F4xx_HAL_Driver/Src/stm32f4xx_hal_rtc_ex.c **** 
 920:Libraries/STM32F4xx_HAL_Driver/Src/stm32f4xx_hal_rtc_ex.c ****   /* Enable the Wake-up Timer */
 921:Libraries/STM32F4xx_HAL_Driver/Src/stm32f4xx_hal_rtc_ex.c ****   __HAL_RTC_WAKEUPTIMER_ENABLE(hrtc);
 1779              		.loc 1 921 3 view .LVU618
 1780 00be 0268     		ldr	r2, [r0]
 1781 00c0 9368     		ldr	r3, [r2, #8]
 1782 00c2 43F48063 		orr	r3, r3, #1024
 1783 00c6 9360     		str	r3, [r2, #8]
 922:Libraries/STM32F4xx_HAL_Driver/Src/stm32f4xx_hal_rtc_ex.c **** 
 923:Libraries/STM32F4xx_HAL_Driver/Src/stm32f4xx_hal_rtc_ex.c ****   /* Enable the write protection for RTC registers */
 924:Libraries/STM32F4xx_HAL_Driver/Src/stm32f4xx_hal_rtc_ex.c ****   __HAL_RTC_WRITEPROTECTION_ENABLE(hrtc);
 1784              		.loc 1 924 3 view .LVU619
 1785              		.loc 1 924 3 view .LVU620
 1786 00c8 0368     		ldr	r3, [r0]
 1787 00ca FF22     		movs	r2, #255
 1788 00cc 5A62     		str	r2, [r3, #36]
 1789              		.loc 1 924 3 view .LVU621
 925:Libraries/STM32F4xx_HAL_Driver/Src/stm32f4xx_hal_rtc_ex.c **** 
 926:Libraries/STM32F4xx_HAL_Driver/Src/stm32f4xx_hal_rtc_ex.c ****   hrtc->State = HAL_RTC_STATE_READY;
 1790              		.loc 1 926 3 view .LVU622
 1791              		.loc 1 926 15 is_stmt 0 view .LVU623
 1792 00ce 0123     		movs	r3, #1
 1793 00d0 4377     		strb	r3, [r0, #29]
 927:Libraries/STM32F4xx_HAL_Driver/Src/stm32f4xx_hal_rtc_ex.c **** 
 928:Libraries/STM32F4xx_HAL_Driver/Src/stm32f4xx_hal_rtc_ex.c ****   /* Process Unlocked */
 929:Libraries/STM32F4xx_HAL_Driver/Src/stm32f4xx_hal_rtc_ex.c ****   __HAL_UNLOCK(hrtc);
 1794              		.loc 1 929 3 is_stmt 1 view .LVU624
 1795              		.loc 1 929 3 view .LVU625
 1796 00d2 0023     		movs	r3, #0
 1797 00d4 0377     		strb	r3, [r0, #28]
 1798              		.loc 1 929 3 view .LVU626
 930:Libraries/STM32F4xx_HAL_Driver/Src/stm32f4xx_hal_rtc_ex.c **** 
 931:Libraries/STM32F4xx_HAL_Driver/Src/stm32f4xx_hal_rtc_ex.c ****   return HAL_OK;
 1799              		.loc 1 931 3 view .LVU627
 1800              		.loc 1 931 10 is_stmt 0 view .LVU628
 1801 00d6 1846     		mov	r0, r3
 1802              	.LVL102:
 1803              		.loc 1 931 10 view .LVU629
 1804 00d8 0FE0     		b	.L102
 1805              	.LVL103:
 1806              	.L113:
 866:Libraries/STM32F4xx_HAL_Driver/Src/stm32f4xx_hal_rtc_ex.c **** 
 1807              		.loc 1 866 9 is_stmt 1 view .LVU630
 866:Libraries/STM32F4xx_HAL_Driver/Src/stm32f4xx_hal_rtc_ex.c **** 
 1808              		.loc 1 866 9 view .LVU631
 1809 00da FF23     		movs	r3, #255
 1810 00dc 6B62     		str	r3, [r5, #36]
 866:Libraries/STM32F4xx_HAL_Driver/Src/stm32f4xx_hal_rtc_ex.c **** 
 1811              		.loc 1 866 9 view .LVU632
 868:Libraries/STM32F4xx_HAL_Driver/Src/stm32f4xx_hal_rtc_ex.c **** 
 1812              		.loc 1 868 9 view .LVU633
 868:Libraries/STM32F4xx_HAL_Driver/Src/stm32f4xx_hal_rtc_ex.c **** 
ARM GAS  C:\Users\yzy\AppData\Local\Temp\ccuah9XY.s 			page 50


 1813              		.loc 1 868 21 is_stmt 0 view .LVU634
 1814 00de 0323     		movs	r3, #3
 1815 00e0 4377     		strb	r3, [r0, #29]
 871:Libraries/STM32F4xx_HAL_Driver/Src/stm32f4xx_hal_rtc_ex.c **** 
 1816              		.loc 1 871 9 is_stmt 1 view .LVU635
 871:Libraries/STM32F4xx_HAL_Driver/Src/stm32f4xx_hal_rtc_ex.c **** 
 1817              		.loc 1 871 9 view .LVU636
 1818 00e2 0022     		movs	r2, #0
 1819              	.LVL104:
 871:Libraries/STM32F4xx_HAL_Driver/Src/stm32f4xx_hal_rtc_ex.c **** 
 1820              		.loc 1 871 9 is_stmt 0 view .LVU637
 1821 00e4 0277     		strb	r2, [r0, #28]
 871:Libraries/STM32F4xx_HAL_Driver/Src/stm32f4xx_hal_rtc_ex.c **** 
 1822              		.loc 1 871 9 is_stmt 1 view .LVU638
 873:Libraries/STM32F4xx_HAL_Driver/Src/stm32f4xx_hal_rtc_ex.c ****       }
 1823              		.loc 1 873 9 view .LVU639
 873:Libraries/STM32F4xx_HAL_Driver/Src/stm32f4xx_hal_rtc_ex.c ****       }
 1824              		.loc 1 873 16 is_stmt 0 view .LVU640
 1825 00e6 1846     		mov	r0, r3
 1826              	.LVL105:
 873:Libraries/STM32F4xx_HAL_Driver/Src/stm32f4xx_hal_rtc_ex.c ****       }
 1827              		.loc 1 873 16 view .LVU641
 1828 00e8 07E0     		b	.L102
 1829              	.LVL106:
 1830              	.L114:
 888:Libraries/STM32F4xx_HAL_Driver/Src/stm32f4xx_hal_rtc_ex.c **** 
 1831              		.loc 1 888 7 is_stmt 1 view .LVU642
 888:Libraries/STM32F4xx_HAL_Driver/Src/stm32f4xx_hal_rtc_ex.c **** 
 1832              		.loc 1 888 7 view .LVU643
 1833 00ea 0368     		ldr	r3, [r0]
 1834 00ec FF22     		movs	r2, #255
 1835              	.LVL107:
 888:Libraries/STM32F4xx_HAL_Driver/Src/stm32f4xx_hal_rtc_ex.c **** 
 1836              		.loc 1 888 7 is_stmt 0 view .LVU644
 1837 00ee 5A62     		str	r2, [r3, #36]
 888:Libraries/STM32F4xx_HAL_Driver/Src/stm32f4xx_hal_rtc_ex.c **** 
 1838              		.loc 1 888 7 is_stmt 1 view .LVU645
 890:Libraries/STM32F4xx_HAL_Driver/Src/stm32f4xx_hal_rtc_ex.c **** 
 1839              		.loc 1 890 7 view .LVU646
 890:Libraries/STM32F4xx_HAL_Driver/Src/stm32f4xx_hal_rtc_ex.c **** 
 1840              		.loc 1 890 19 is_stmt 0 view .LVU647
 1841 00f0 0323     		movs	r3, #3
 1842 00f2 4377     		strb	r3, [r0, #29]
 893:Libraries/STM32F4xx_HAL_Driver/Src/stm32f4xx_hal_rtc_ex.c **** 
 1843              		.loc 1 893 7 is_stmt 1 view .LVU648
 893:Libraries/STM32F4xx_HAL_Driver/Src/stm32f4xx_hal_rtc_ex.c **** 
 1844              		.loc 1 893 7 view .LVU649
 1845 00f4 0022     		movs	r2, #0
 1846 00f6 0277     		strb	r2, [r0, #28]
 893:Libraries/STM32F4xx_HAL_Driver/Src/stm32f4xx_hal_rtc_ex.c **** 
 1847              		.loc 1 893 7 view .LVU650
 895:Libraries/STM32F4xx_HAL_Driver/Src/stm32f4xx_hal_rtc_ex.c ****     }
 1848              		.loc 1 895 7 view .LVU651
 895:Libraries/STM32F4xx_HAL_Driver/Src/stm32f4xx_hal_rtc_ex.c ****     }
 1849              		.loc 1 895 14 is_stmt 0 view .LVU652
 1850 00f8 1846     		mov	r0, r3
 1851              	.LVL108:
ARM GAS  C:\Users\yzy\AppData\Local\Temp\ccuah9XY.s 			page 51


 1852              	.L102:
 932:Libraries/STM32F4xx_HAL_Driver/Src/stm32f4xx_hal_rtc_ex.c **** }
 1853              		.loc 1 932 1 view .LVU653
 1854 00fa 02B0     		add	sp, sp, #8
 1855              	.LCFI20:
 1856              		.cfi_def_cfa_offset 8
 1857              		@ sp needed
 1858 00fc 30BC     		pop	{r4, r5}
 1859              	.LCFI21:
 1860              		.cfi_restore 5
 1861              		.cfi_restore 4
 1862              		.cfi_def_cfa_offset 0
 1863 00fe 7047     		bx	lr
 1864              	.LVL109:
 1865              	.L108:
 849:Libraries/STM32F4xx_HAL_Driver/Src/stm32f4xx_hal_rtc_ex.c **** 
 1866              		.loc 1 849 3 view .LVU654
 1867 0100 0220     		movs	r0, #2
 1868              	.LVL110:
 1869              		.loc 1 932 1 view .LVU655
 1870 0102 7047     		bx	lr
 1871              	.L116:
 1872              		.align	2
 1873              	.L115:
 1874 0104 00000000 		.word	SystemCoreClock
 1875 0108 D34D6210 		.word	274877907
 1876 010c 003C0140 		.word	1073822720
 1877              		.cfi_endproc
 1878              	.LFE145:
 1880              		.section	.text.HAL_RTCEx_DeactivateWakeUpTimer,"ax",%progbits
 1881              		.align	1
 1882              		.global	HAL_RTCEx_DeactivateWakeUpTimer
 1883              		.syntax unified
 1884              		.thumb
 1885              		.thumb_func
 1886              		.fpu softvfp
 1888              	HAL_RTCEx_DeactivateWakeUpTimer:
 1889              	.LVL111:
 1890              	.LFB146:
 933:Libraries/STM32F4xx_HAL_Driver/Src/stm32f4xx_hal_rtc_ex.c **** 
 934:Libraries/STM32F4xx_HAL_Driver/Src/stm32f4xx_hal_rtc_ex.c **** /**
 935:Libraries/STM32F4xx_HAL_Driver/Src/stm32f4xx_hal_rtc_ex.c ****   * @brief  Deactivates wake up timer counter.
 936:Libraries/STM32F4xx_HAL_Driver/Src/stm32f4xx_hal_rtc_ex.c ****   * @param  hrtc pointer to a RTC_HandleTypeDef structure that contains
 937:Libraries/STM32F4xx_HAL_Driver/Src/stm32f4xx_hal_rtc_ex.c ****   *                the configuration information for RTC.
 938:Libraries/STM32F4xx_HAL_Driver/Src/stm32f4xx_hal_rtc_ex.c ****   * @retval HAL status
 939:Libraries/STM32F4xx_HAL_Driver/Src/stm32f4xx_hal_rtc_ex.c ****   */
 940:Libraries/STM32F4xx_HAL_Driver/Src/stm32f4xx_hal_rtc_ex.c **** uint32_t HAL_RTCEx_DeactivateWakeUpTimer(RTC_HandleTypeDef *hrtc)
 941:Libraries/STM32F4xx_HAL_Driver/Src/stm32f4xx_hal_rtc_ex.c **** {
 1891              		.loc 1 941 1 is_stmt 1 view -0
 1892              		.cfi_startproc
 1893              		@ args = 0, pretend = 0, frame = 0
 1894              		@ frame_needed = 0, uses_anonymous_args = 0
 1895              		.loc 1 941 1 is_stmt 0 view .LVU657
 1896 0000 38B5     		push	{r3, r4, r5, lr}
 1897              	.LCFI22:
 1898              		.cfi_def_cfa_offset 16
 1899              		.cfi_offset 3, -16
ARM GAS  C:\Users\yzy\AppData\Local\Temp\ccuah9XY.s 			page 52


 1900              		.cfi_offset 4, -12
 1901              		.cfi_offset 5, -8
 1902              		.cfi_offset 14, -4
 942:Libraries/STM32F4xx_HAL_Driver/Src/stm32f4xx_hal_rtc_ex.c ****   uint32_t tickstart = 0U;
 1903              		.loc 1 942 3 is_stmt 1 view .LVU658
 1904              	.LVL112:
 943:Libraries/STM32F4xx_HAL_Driver/Src/stm32f4xx_hal_rtc_ex.c **** 
 944:Libraries/STM32F4xx_HAL_Driver/Src/stm32f4xx_hal_rtc_ex.c ****   /* Process Locked */
 945:Libraries/STM32F4xx_HAL_Driver/Src/stm32f4xx_hal_rtc_ex.c ****   __HAL_LOCK(hrtc);
 1905              		.loc 1 945 3 view .LVU659
 1906              		.loc 1 945 3 view .LVU660
 1907 0002 037F     		ldrb	r3, [r0, #28]	@ zero_extendqisi2
 1908 0004 012B     		cmp	r3, #1
 1909 0006 31D0     		beq	.L121
 1910 0008 0446     		mov	r4, r0
 1911              		.loc 1 945 3 discriminator 2 view .LVU661
 1912 000a 0123     		movs	r3, #1
 1913 000c 0377     		strb	r3, [r0, #28]
 1914              		.loc 1 945 3 discriminator 2 view .LVU662
 946:Libraries/STM32F4xx_HAL_Driver/Src/stm32f4xx_hal_rtc_ex.c **** 
 947:Libraries/STM32F4xx_HAL_Driver/Src/stm32f4xx_hal_rtc_ex.c ****   hrtc->State = HAL_RTC_STATE_BUSY;
 1915              		.loc 1 947 3 discriminator 2 view .LVU663
 1916              		.loc 1 947 15 is_stmt 0 discriminator 2 view .LVU664
 1917 000e 0223     		movs	r3, #2
 1918 0010 4377     		strb	r3, [r0, #29]
 948:Libraries/STM32F4xx_HAL_Driver/Src/stm32f4xx_hal_rtc_ex.c **** 
 949:Libraries/STM32F4xx_HAL_Driver/Src/stm32f4xx_hal_rtc_ex.c ****   /* Disable the write protection for RTC registers */
 950:Libraries/STM32F4xx_HAL_Driver/Src/stm32f4xx_hal_rtc_ex.c ****   __HAL_RTC_WRITEPROTECTION_DISABLE(hrtc);
 1919              		.loc 1 950 3 is_stmt 1 discriminator 2 view .LVU665
 1920              		.loc 1 950 3 discriminator 2 view .LVU666
 1921 0012 0368     		ldr	r3, [r0]
 1922 0014 CA22     		movs	r2, #202
 1923 0016 5A62     		str	r2, [r3, #36]
 1924              		.loc 1 950 3 discriminator 2 view .LVU667
 1925 0018 0368     		ldr	r3, [r0]
 1926 001a 5322     		movs	r2, #83
 1927 001c 5A62     		str	r2, [r3, #36]
 1928              		.loc 1 950 3 discriminator 2 view .LVU668
 951:Libraries/STM32F4xx_HAL_Driver/Src/stm32f4xx_hal_rtc_ex.c **** 
 952:Libraries/STM32F4xx_HAL_Driver/Src/stm32f4xx_hal_rtc_ex.c ****   /* Disable the Wake-up Timer */
 953:Libraries/STM32F4xx_HAL_Driver/Src/stm32f4xx_hal_rtc_ex.c ****   __HAL_RTC_WAKEUPTIMER_DISABLE(hrtc);
 1929              		.loc 1 953 3 discriminator 2 view .LVU669
 1930 001e 0268     		ldr	r2, [r0]
 1931 0020 9368     		ldr	r3, [r2, #8]
 1932 0022 23F48063 		bic	r3, r3, #1024
 1933 0026 9360     		str	r3, [r2, #8]
 954:Libraries/STM32F4xx_HAL_Driver/Src/stm32f4xx_hal_rtc_ex.c **** 
 955:Libraries/STM32F4xx_HAL_Driver/Src/stm32f4xx_hal_rtc_ex.c ****   /* In case of interrupt mode is used, the interrupt source must disabled */
 956:Libraries/STM32F4xx_HAL_Driver/Src/stm32f4xx_hal_rtc_ex.c ****   __HAL_RTC_WAKEUPTIMER_DISABLE_IT(hrtc,RTC_IT_WUT);
 1934              		.loc 1 956 3 discriminator 2 view .LVU670
 1935 0028 0268     		ldr	r2, [r0]
 1936 002a 9368     		ldr	r3, [r2, #8]
 1937 002c 23F48043 		bic	r3, r3, #16384
 1938 0030 9360     		str	r3, [r2, #8]
 957:Libraries/STM32F4xx_HAL_Driver/Src/stm32f4xx_hal_rtc_ex.c **** 
 958:Libraries/STM32F4xx_HAL_Driver/Src/stm32f4xx_hal_rtc_ex.c ****   /* Get tick */
 959:Libraries/STM32F4xx_HAL_Driver/Src/stm32f4xx_hal_rtc_ex.c ****   tickstart = HAL_GetTick();
ARM GAS  C:\Users\yzy\AppData\Local\Temp\ccuah9XY.s 			page 53


 1939              		.loc 1 959 3 discriminator 2 view .LVU671
 1940              		.loc 1 959 15 is_stmt 0 discriminator 2 view .LVU672
 1941 0032 FFF7FEFF 		bl	HAL_GetTick
 1942              	.LVL113:
 1943              		.loc 1 959 15 discriminator 2 view .LVU673
 1944 0036 0546     		mov	r5, r0
 1945              	.LVL114:
 960:Libraries/STM32F4xx_HAL_Driver/Src/stm32f4xx_hal_rtc_ex.c **** 
 961:Libraries/STM32F4xx_HAL_Driver/Src/stm32f4xx_hal_rtc_ex.c ****   /* Wait till RTC WUTWF flag is set and if Time out is reached exit */
 962:Libraries/STM32F4xx_HAL_Driver/Src/stm32f4xx_hal_rtc_ex.c ****   while(__HAL_RTC_WAKEUPTIMER_GET_FLAG(hrtc, RTC_FLAG_WUTWF) == RESET)
 1946              		.loc 1 962 3 is_stmt 1 discriminator 2 view .LVU674
 1947              	.L119:
 1948              		.loc 1 962 8 view .LVU675
 1949              		.loc 1 962 9 is_stmt 0 view .LVU676
 1950 0038 2368     		ldr	r3, [r4]
 1951 003a DA68     		ldr	r2, [r3, #12]
 1952              		.loc 1 962 8 view .LVU677
 1953 003c 12F0040F 		tst	r2, #4
 1954 0040 0DD1     		bne	.L123
 963:Libraries/STM32F4xx_HAL_Driver/Src/stm32f4xx_hal_rtc_ex.c ****   {
 964:Libraries/STM32F4xx_HAL_Driver/Src/stm32f4xx_hal_rtc_ex.c ****     if((HAL_GetTick() - tickstart ) > RTC_TIMEOUT_VALUE)
 1955              		.loc 1 964 5 is_stmt 1 view .LVU678
 1956              		.loc 1 964 9 is_stmt 0 view .LVU679
 1957 0042 FFF7FEFF 		bl	HAL_GetTick
 1958              	.LVL115:
 1959              		.loc 1 964 23 view .LVU680
 1960 0046 431B     		subs	r3, r0, r5
 1961              		.loc 1 964 7 view .LVU681
 1962 0048 B3F57A7F 		cmp	r3, #1000
 1963 004c F4D9     		bls	.L119
 965:Libraries/STM32F4xx_HAL_Driver/Src/stm32f4xx_hal_rtc_ex.c ****     {
 966:Libraries/STM32F4xx_HAL_Driver/Src/stm32f4xx_hal_rtc_ex.c ****       /* Enable the write protection for RTC registers */
 967:Libraries/STM32F4xx_HAL_Driver/Src/stm32f4xx_hal_rtc_ex.c ****       __HAL_RTC_WRITEPROTECTION_ENABLE(hrtc);
 1964              		.loc 1 967 7 is_stmt 1 view .LVU682
 1965              		.loc 1 967 7 view .LVU683
 1966 004e 2368     		ldr	r3, [r4]
 1967 0050 FF22     		movs	r2, #255
 1968 0052 5A62     		str	r2, [r3, #36]
 1969              		.loc 1 967 7 view .LVU684
 968:Libraries/STM32F4xx_HAL_Driver/Src/stm32f4xx_hal_rtc_ex.c **** 
 969:Libraries/STM32F4xx_HAL_Driver/Src/stm32f4xx_hal_rtc_ex.c ****       hrtc->State = HAL_RTC_STATE_TIMEOUT;
 1970              		.loc 1 969 7 view .LVU685
 1971              		.loc 1 969 19 is_stmt 0 view .LVU686
 1972 0054 0320     		movs	r0, #3
 1973 0056 6077     		strb	r0, [r4, #29]
 970:Libraries/STM32F4xx_HAL_Driver/Src/stm32f4xx_hal_rtc_ex.c **** 
 971:Libraries/STM32F4xx_HAL_Driver/Src/stm32f4xx_hal_rtc_ex.c ****       /* Process Unlocked */
 972:Libraries/STM32F4xx_HAL_Driver/Src/stm32f4xx_hal_rtc_ex.c ****       __HAL_UNLOCK(hrtc);
 1974              		.loc 1 972 7 is_stmt 1 view .LVU687
 1975              		.loc 1 972 7 view .LVU688
 1976 0058 0023     		movs	r3, #0
 1977 005a 2377     		strb	r3, [r4, #28]
 1978              		.loc 1 972 7 view .LVU689
 973:Libraries/STM32F4xx_HAL_Driver/Src/stm32f4xx_hal_rtc_ex.c **** 
 974:Libraries/STM32F4xx_HAL_Driver/Src/stm32f4xx_hal_rtc_ex.c ****       return HAL_TIMEOUT;
 1979              		.loc 1 974 7 view .LVU690
 1980              		.loc 1 974 14 is_stmt 0 view .LVU691
ARM GAS  C:\Users\yzy\AppData\Local\Temp\ccuah9XY.s 			page 54


 1981 005c 05E0     		b	.L117
 1982              	.L123:
 975:Libraries/STM32F4xx_HAL_Driver/Src/stm32f4xx_hal_rtc_ex.c ****     }
 976:Libraries/STM32F4xx_HAL_Driver/Src/stm32f4xx_hal_rtc_ex.c ****   }
 977:Libraries/STM32F4xx_HAL_Driver/Src/stm32f4xx_hal_rtc_ex.c **** 
 978:Libraries/STM32F4xx_HAL_Driver/Src/stm32f4xx_hal_rtc_ex.c ****   /* Enable the write protection for RTC registers */
 979:Libraries/STM32F4xx_HAL_Driver/Src/stm32f4xx_hal_rtc_ex.c ****   __HAL_RTC_WRITEPROTECTION_ENABLE(hrtc);
 1983              		.loc 1 979 3 is_stmt 1 view .LVU692
 1984              		.loc 1 979 3 view .LVU693
 1985 005e FF22     		movs	r2, #255
 1986 0060 5A62     		str	r2, [r3, #36]
 1987              		.loc 1 979 3 view .LVU694
 980:Libraries/STM32F4xx_HAL_Driver/Src/stm32f4xx_hal_rtc_ex.c **** 
 981:Libraries/STM32F4xx_HAL_Driver/Src/stm32f4xx_hal_rtc_ex.c ****   hrtc->State = HAL_RTC_STATE_READY;
 1988              		.loc 1 981 3 view .LVU695
 1989              		.loc 1 981 15 is_stmt 0 view .LVU696
 1990 0062 0123     		movs	r3, #1
 1991 0064 6377     		strb	r3, [r4, #29]
 982:Libraries/STM32F4xx_HAL_Driver/Src/stm32f4xx_hal_rtc_ex.c **** 
 983:Libraries/STM32F4xx_HAL_Driver/Src/stm32f4xx_hal_rtc_ex.c ****   /* Process Unlocked */
 984:Libraries/STM32F4xx_HAL_Driver/Src/stm32f4xx_hal_rtc_ex.c ****   __HAL_UNLOCK(hrtc);
 1992              		.loc 1 984 3 is_stmt 1 view .LVU697
 1993              		.loc 1 984 3 view .LVU698
 1994 0066 0020     		movs	r0, #0
 1995 0068 2077     		strb	r0, [r4, #28]
 1996              		.loc 1 984 3 view .LVU699
 985:Libraries/STM32F4xx_HAL_Driver/Src/stm32f4xx_hal_rtc_ex.c **** 
 986:Libraries/STM32F4xx_HAL_Driver/Src/stm32f4xx_hal_rtc_ex.c ****   return HAL_OK;
 1997              		.loc 1 986 3 view .LVU700
 1998              	.LVL116:
 1999              	.L117:
 987:Libraries/STM32F4xx_HAL_Driver/Src/stm32f4xx_hal_rtc_ex.c **** }
 2000              		.loc 1 987 1 is_stmt 0 view .LVU701
 2001 006a 38BD     		pop	{r3, r4, r5, pc}
 2002              	.LVL117:
 2003              	.L121:
 945:Libraries/STM32F4xx_HAL_Driver/Src/stm32f4xx_hal_rtc_ex.c **** 
 2004              		.loc 1 945 3 view .LVU702
 2005 006c 0220     		movs	r0, #2
 2006              	.LVL118:
 945:Libraries/STM32F4xx_HAL_Driver/Src/stm32f4xx_hal_rtc_ex.c **** 
 2007              		.loc 1 945 3 view .LVU703
 2008 006e FCE7     		b	.L117
 2009              		.cfi_endproc
 2010              	.LFE146:
 2012              		.section	.text.HAL_RTCEx_GetWakeUpTimer,"ax",%progbits
 2013              		.align	1
 2014              		.global	HAL_RTCEx_GetWakeUpTimer
 2015              		.syntax unified
 2016              		.thumb
 2017              		.thumb_func
 2018              		.fpu softvfp
 2020              	HAL_RTCEx_GetWakeUpTimer:
 2021              	.LVL119:
 2022              	.LFB147:
 988:Libraries/STM32F4xx_HAL_Driver/Src/stm32f4xx_hal_rtc_ex.c **** 
 989:Libraries/STM32F4xx_HAL_Driver/Src/stm32f4xx_hal_rtc_ex.c **** /**
ARM GAS  C:\Users\yzy\AppData\Local\Temp\ccuah9XY.s 			page 55


 990:Libraries/STM32F4xx_HAL_Driver/Src/stm32f4xx_hal_rtc_ex.c ****   * @brief  Gets wake up timer counter.
 991:Libraries/STM32F4xx_HAL_Driver/Src/stm32f4xx_hal_rtc_ex.c ****   * @param  hrtc pointer to a RTC_HandleTypeDef structure that contains
 992:Libraries/STM32F4xx_HAL_Driver/Src/stm32f4xx_hal_rtc_ex.c ****   *                the configuration information for RTC.
 993:Libraries/STM32F4xx_HAL_Driver/Src/stm32f4xx_hal_rtc_ex.c ****   * @retval Counter value
 994:Libraries/STM32F4xx_HAL_Driver/Src/stm32f4xx_hal_rtc_ex.c ****   */
 995:Libraries/STM32F4xx_HAL_Driver/Src/stm32f4xx_hal_rtc_ex.c **** uint32_t HAL_RTCEx_GetWakeUpTimer(RTC_HandleTypeDef *hrtc)
 996:Libraries/STM32F4xx_HAL_Driver/Src/stm32f4xx_hal_rtc_ex.c **** {
 2023              		.loc 1 996 1 is_stmt 1 view -0
 2024              		.cfi_startproc
 2025              		@ args = 0, pretend = 0, frame = 0
 2026              		@ frame_needed = 0, uses_anonymous_args = 0
 2027              		@ link register save eliminated.
 997:Libraries/STM32F4xx_HAL_Driver/Src/stm32f4xx_hal_rtc_ex.c ****   /* Get the counter value */
 998:Libraries/STM32F4xx_HAL_Driver/Src/stm32f4xx_hal_rtc_ex.c ****   return ((uint32_t)(hrtc->Instance->WUTR & RTC_WUTR_WUT));
 2028              		.loc 1 998 3 view .LVU705
 2029              		.loc 1 998 26 is_stmt 0 view .LVU706
 2030 0000 0368     		ldr	r3, [r0]
 2031              		.loc 1 998 36 view .LVU707
 2032 0002 5869     		ldr	r0, [r3, #20]
 2033              	.LVL120:
 999:Libraries/STM32F4xx_HAL_Driver/Src/stm32f4xx_hal_rtc_ex.c **** }
 2034              		.loc 1 999 1 view .LVU708
 2035 0004 80B2     		uxth	r0, r0
 2036 0006 7047     		bx	lr
 2037              		.cfi_endproc
 2038              	.LFE147:
 2040              		.section	.text.HAL_RTCEx_WakeUpTimerEventCallback,"ax",%progbits
 2041              		.align	1
 2042              		.weak	HAL_RTCEx_WakeUpTimerEventCallback
 2043              		.syntax unified
 2044              		.thumb
 2045              		.thumb_func
 2046              		.fpu softvfp
 2048              	HAL_RTCEx_WakeUpTimerEventCallback:
 2049              	.LVL121:
 2050              	.LFB149:
1000:Libraries/STM32F4xx_HAL_Driver/Src/stm32f4xx_hal_rtc_ex.c **** 
1001:Libraries/STM32F4xx_HAL_Driver/Src/stm32f4xx_hal_rtc_ex.c **** /**
1002:Libraries/STM32F4xx_HAL_Driver/Src/stm32f4xx_hal_rtc_ex.c ****   * @brief  This function handles Wake Up Timer interrupt request.
1003:Libraries/STM32F4xx_HAL_Driver/Src/stm32f4xx_hal_rtc_ex.c ****   * @note   Unlike alarm interrupt line (shared by AlarmA and AlarmB) and tamper
1004:Libraries/STM32F4xx_HAL_Driver/Src/stm32f4xx_hal_rtc_ex.c ****   *         interrupt line (shared by timestamp and tampers) wakeup timer
1005:Libraries/STM32F4xx_HAL_Driver/Src/stm32f4xx_hal_rtc_ex.c ****   *         interrupt line is exclusive to the wakeup timer.
1006:Libraries/STM32F4xx_HAL_Driver/Src/stm32f4xx_hal_rtc_ex.c ****   *         There is no need in this case to check on the interrupt enable
1007:Libraries/STM32F4xx_HAL_Driver/Src/stm32f4xx_hal_rtc_ex.c ****   *         status via __HAL_RTC_WAKEUPTIMER_GET_IT_SOURCE().
1008:Libraries/STM32F4xx_HAL_Driver/Src/stm32f4xx_hal_rtc_ex.c ****   * @param  hrtc pointer to a RTC_HandleTypeDef structure that contains
1009:Libraries/STM32F4xx_HAL_Driver/Src/stm32f4xx_hal_rtc_ex.c ****   *                the configuration information for RTC.
1010:Libraries/STM32F4xx_HAL_Driver/Src/stm32f4xx_hal_rtc_ex.c ****   * @retval None
1011:Libraries/STM32F4xx_HAL_Driver/Src/stm32f4xx_hal_rtc_ex.c ****   */
1012:Libraries/STM32F4xx_HAL_Driver/Src/stm32f4xx_hal_rtc_ex.c **** void HAL_RTCEx_WakeUpTimerIRQHandler(RTC_HandleTypeDef *hrtc)
1013:Libraries/STM32F4xx_HAL_Driver/Src/stm32f4xx_hal_rtc_ex.c **** {
1014:Libraries/STM32F4xx_HAL_Driver/Src/stm32f4xx_hal_rtc_ex.c ****   /* Get the pending status of the WAKEUPTIMER Interrupt */
1015:Libraries/STM32F4xx_HAL_Driver/Src/stm32f4xx_hal_rtc_ex.c ****   if(__HAL_RTC_WAKEUPTIMER_GET_FLAG(hrtc, RTC_FLAG_WUTF) != (uint32_t)RESET)
1016:Libraries/STM32F4xx_HAL_Driver/Src/stm32f4xx_hal_rtc_ex.c ****   {
1017:Libraries/STM32F4xx_HAL_Driver/Src/stm32f4xx_hal_rtc_ex.c ****     /* WAKEUPTIMER callback */
1018:Libraries/STM32F4xx_HAL_Driver/Src/stm32f4xx_hal_rtc_ex.c **** #if (USE_HAL_RTC_REGISTER_CALLBACKS == 1)
1019:Libraries/STM32F4xx_HAL_Driver/Src/stm32f4xx_hal_rtc_ex.c ****     hrtc->WakeUpTimerEventCallback(hrtc);
1020:Libraries/STM32F4xx_HAL_Driver/Src/stm32f4xx_hal_rtc_ex.c **** #else
ARM GAS  C:\Users\yzy\AppData\Local\Temp\ccuah9XY.s 			page 56


1021:Libraries/STM32F4xx_HAL_Driver/Src/stm32f4xx_hal_rtc_ex.c ****     HAL_RTCEx_WakeUpTimerEventCallback(hrtc);
1022:Libraries/STM32F4xx_HAL_Driver/Src/stm32f4xx_hal_rtc_ex.c **** #endif /* USE_HAL_RTC_REGISTER_CALLBACKS */
1023:Libraries/STM32F4xx_HAL_Driver/Src/stm32f4xx_hal_rtc_ex.c **** 
1024:Libraries/STM32F4xx_HAL_Driver/Src/stm32f4xx_hal_rtc_ex.c ****     /* Clear the WAKEUPTIMER interrupt pending bit */
1025:Libraries/STM32F4xx_HAL_Driver/Src/stm32f4xx_hal_rtc_ex.c ****     __HAL_RTC_WAKEUPTIMER_CLEAR_FLAG(hrtc, RTC_FLAG_WUTF);
1026:Libraries/STM32F4xx_HAL_Driver/Src/stm32f4xx_hal_rtc_ex.c ****   }
1027:Libraries/STM32F4xx_HAL_Driver/Src/stm32f4xx_hal_rtc_ex.c **** 
1028:Libraries/STM32F4xx_HAL_Driver/Src/stm32f4xx_hal_rtc_ex.c ****   /* Clear the EXTI's line Flag for RTC WakeUpTimer */
1029:Libraries/STM32F4xx_HAL_Driver/Src/stm32f4xx_hal_rtc_ex.c ****   __HAL_RTC_WAKEUPTIMER_EXTI_CLEAR_FLAG();
1030:Libraries/STM32F4xx_HAL_Driver/Src/stm32f4xx_hal_rtc_ex.c **** 
1031:Libraries/STM32F4xx_HAL_Driver/Src/stm32f4xx_hal_rtc_ex.c ****   /* Change RTC state */
1032:Libraries/STM32F4xx_HAL_Driver/Src/stm32f4xx_hal_rtc_ex.c ****   hrtc->State = HAL_RTC_STATE_READY;
1033:Libraries/STM32F4xx_HAL_Driver/Src/stm32f4xx_hal_rtc_ex.c **** }
1034:Libraries/STM32F4xx_HAL_Driver/Src/stm32f4xx_hal_rtc_ex.c **** 
1035:Libraries/STM32F4xx_HAL_Driver/Src/stm32f4xx_hal_rtc_ex.c **** /**
1036:Libraries/STM32F4xx_HAL_Driver/Src/stm32f4xx_hal_rtc_ex.c ****   * @brief  Wake Up Timer callback.
1037:Libraries/STM32F4xx_HAL_Driver/Src/stm32f4xx_hal_rtc_ex.c ****   * @param  hrtc pointer to a RTC_HandleTypeDef structure that contains
1038:Libraries/STM32F4xx_HAL_Driver/Src/stm32f4xx_hal_rtc_ex.c ****   *                the configuration information for RTC.
1039:Libraries/STM32F4xx_HAL_Driver/Src/stm32f4xx_hal_rtc_ex.c ****   * @retval None
1040:Libraries/STM32F4xx_HAL_Driver/Src/stm32f4xx_hal_rtc_ex.c ****   */
1041:Libraries/STM32F4xx_HAL_Driver/Src/stm32f4xx_hal_rtc_ex.c **** __weak void HAL_RTCEx_WakeUpTimerEventCallback(RTC_HandleTypeDef *hrtc)
1042:Libraries/STM32F4xx_HAL_Driver/Src/stm32f4xx_hal_rtc_ex.c **** {
 2051              		.loc 1 1042 1 is_stmt 1 view -0
 2052              		.cfi_startproc
 2053              		@ args = 0, pretend = 0, frame = 0
 2054              		@ frame_needed = 0, uses_anonymous_args = 0
 2055              		@ link register save eliminated.
1043:Libraries/STM32F4xx_HAL_Driver/Src/stm32f4xx_hal_rtc_ex.c ****   /* Prevent unused argument(s) compilation warning */
1044:Libraries/STM32F4xx_HAL_Driver/Src/stm32f4xx_hal_rtc_ex.c ****   UNUSED(hrtc);
 2056              		.loc 1 1044 3 view .LVU710
1045:Libraries/STM32F4xx_HAL_Driver/Src/stm32f4xx_hal_rtc_ex.c ****   /* NOTE : This function Should not be modified, when the callback is needed,
1046:Libraries/STM32F4xx_HAL_Driver/Src/stm32f4xx_hal_rtc_ex.c ****             the HAL_RTC_WakeUpTimerEventCallback could be implemented in the user file
1047:Libraries/STM32F4xx_HAL_Driver/Src/stm32f4xx_hal_rtc_ex.c ****    */
1048:Libraries/STM32F4xx_HAL_Driver/Src/stm32f4xx_hal_rtc_ex.c **** }
 2057              		.loc 1 1048 1 is_stmt 0 view .LVU711
 2058 0000 7047     		bx	lr
 2059              		.cfi_endproc
 2060              	.LFE149:
 2062              		.section	.text.HAL_RTCEx_WakeUpTimerIRQHandler,"ax",%progbits
 2063              		.align	1
 2064              		.global	HAL_RTCEx_WakeUpTimerIRQHandler
 2065              		.syntax unified
 2066              		.thumb
 2067              		.thumb_func
 2068              		.fpu softvfp
 2070              	HAL_RTCEx_WakeUpTimerIRQHandler:
 2071              	.LVL122:
 2072              	.LFB148:
1013:Libraries/STM32F4xx_HAL_Driver/Src/stm32f4xx_hal_rtc_ex.c ****   /* Get the pending status of the WAKEUPTIMER Interrupt */
 2073              		.loc 1 1013 1 is_stmt 1 view -0
 2074              		.cfi_startproc
 2075              		@ args = 0, pretend = 0, frame = 0
 2076              		@ frame_needed = 0, uses_anonymous_args = 0
1013:Libraries/STM32F4xx_HAL_Driver/Src/stm32f4xx_hal_rtc_ex.c ****   /* Get the pending status of the WAKEUPTIMER Interrupt */
 2077              		.loc 1 1013 1 is_stmt 0 view .LVU713
 2078 0000 10B5     		push	{r4, lr}
 2079              	.LCFI23:
ARM GAS  C:\Users\yzy\AppData\Local\Temp\ccuah9XY.s 			page 57


 2080              		.cfi_def_cfa_offset 8
 2081              		.cfi_offset 4, -8
 2082              		.cfi_offset 14, -4
 2083 0002 0446     		mov	r4, r0
1015:Libraries/STM32F4xx_HAL_Driver/Src/stm32f4xx_hal_rtc_ex.c ****   {
 2084              		.loc 1 1015 3 is_stmt 1 view .LVU714
1015:Libraries/STM32F4xx_HAL_Driver/Src/stm32f4xx_hal_rtc_ex.c ****   {
 2085              		.loc 1 1015 6 is_stmt 0 view .LVU715
 2086 0004 0368     		ldr	r3, [r0]
 2087 0006 DB68     		ldr	r3, [r3, #12]
1015:Libraries/STM32F4xx_HAL_Driver/Src/stm32f4xx_hal_rtc_ex.c ****   {
 2088              		.loc 1 1015 5 view .LVU716
 2089 0008 13F4806F 		tst	r3, #1024
 2090 000c 06D1     		bne	.L129
 2091              	.LVL123:
 2092              	.L127:
1029:Libraries/STM32F4xx_HAL_Driver/Src/stm32f4xx_hal_rtc_ex.c **** 
 2093              		.loc 1 1029 3 is_stmt 1 view .LVU717
 2094 000e 084B     		ldr	r3, .L130
 2095 0010 4FF48002 		mov	r2, #4194304
 2096 0014 5A61     		str	r2, [r3, #20]
1032:Libraries/STM32F4xx_HAL_Driver/Src/stm32f4xx_hal_rtc_ex.c **** }
 2097              		.loc 1 1032 3 view .LVU718
1032:Libraries/STM32F4xx_HAL_Driver/Src/stm32f4xx_hal_rtc_ex.c **** }
 2098              		.loc 1 1032 15 is_stmt 0 view .LVU719
 2099 0016 0123     		movs	r3, #1
 2100 0018 6377     		strb	r3, [r4, #29]
1033:Libraries/STM32F4xx_HAL_Driver/Src/stm32f4xx_hal_rtc_ex.c **** 
 2101              		.loc 1 1033 1 view .LVU720
 2102 001a 10BD     		pop	{r4, pc}
 2103              	.LVL124:
 2104              	.L129:
1021:Libraries/STM32F4xx_HAL_Driver/Src/stm32f4xx_hal_rtc_ex.c **** #endif /* USE_HAL_RTC_REGISTER_CALLBACKS */
 2105              		.loc 1 1021 5 is_stmt 1 view .LVU721
 2106 001c FFF7FEFF 		bl	HAL_RTCEx_WakeUpTimerEventCallback
 2107              	.LVL125:
1025:Libraries/STM32F4xx_HAL_Driver/Src/stm32f4xx_hal_rtc_ex.c ****   }
 2108              		.loc 1 1025 5 view .LVU722
 2109 0020 2268     		ldr	r2, [r4]
 2110 0022 D368     		ldr	r3, [r2, #12]
 2111 0024 DBB2     		uxtb	r3, r3
 2112 0026 63F49063 		orn	r3, r3, #1152
 2113 002a D360     		str	r3, [r2, #12]
 2114 002c EFE7     		b	.L127
 2115              	.L131:
 2116 002e 00BF     		.align	2
 2117              	.L130:
 2118 0030 003C0140 		.word	1073822720
 2119              		.cfi_endproc
 2120              	.LFE148:
 2122              		.section	.text.HAL_RTCEx_PollForWakeUpTimerEvent,"ax",%progbits
 2123              		.align	1
 2124              		.global	HAL_RTCEx_PollForWakeUpTimerEvent
 2125              		.syntax unified
 2126              		.thumb
 2127              		.thumb_func
 2128              		.fpu softvfp
ARM GAS  C:\Users\yzy\AppData\Local\Temp\ccuah9XY.s 			page 58


 2130              	HAL_RTCEx_PollForWakeUpTimerEvent:
 2131              	.LVL126:
 2132              	.LFB150:
1049:Libraries/STM32F4xx_HAL_Driver/Src/stm32f4xx_hal_rtc_ex.c **** 
1050:Libraries/STM32F4xx_HAL_Driver/Src/stm32f4xx_hal_rtc_ex.c **** /**
1051:Libraries/STM32F4xx_HAL_Driver/Src/stm32f4xx_hal_rtc_ex.c ****   * @brief  This function handles Wake Up Timer Polling.
1052:Libraries/STM32F4xx_HAL_Driver/Src/stm32f4xx_hal_rtc_ex.c ****   * @param  hrtc pointer to a RTC_HandleTypeDef structure that contains
1053:Libraries/STM32F4xx_HAL_Driver/Src/stm32f4xx_hal_rtc_ex.c ****   *                the configuration information for RTC.
1054:Libraries/STM32F4xx_HAL_Driver/Src/stm32f4xx_hal_rtc_ex.c ****   * @param  Timeout Timeout duration
1055:Libraries/STM32F4xx_HAL_Driver/Src/stm32f4xx_hal_rtc_ex.c ****   * @retval HAL status
1056:Libraries/STM32F4xx_HAL_Driver/Src/stm32f4xx_hal_rtc_ex.c ****   */
1057:Libraries/STM32F4xx_HAL_Driver/Src/stm32f4xx_hal_rtc_ex.c **** HAL_StatusTypeDef HAL_RTCEx_PollForWakeUpTimerEvent(RTC_HandleTypeDef *hrtc, uint32_t Timeout)
1058:Libraries/STM32F4xx_HAL_Driver/Src/stm32f4xx_hal_rtc_ex.c **** {
 2133              		.loc 1 1058 1 view -0
 2134              		.cfi_startproc
 2135              		@ args = 0, pretend = 0, frame = 0
 2136              		@ frame_needed = 0, uses_anonymous_args = 0
 2137              		.loc 1 1058 1 is_stmt 0 view .LVU724
 2138 0000 70B5     		push	{r4, r5, r6, lr}
 2139              	.LCFI24:
 2140              		.cfi_def_cfa_offset 16
 2141              		.cfi_offset 4, -16
 2142              		.cfi_offset 5, -12
 2143              		.cfi_offset 6, -8
 2144              		.cfi_offset 14, -4
 2145 0002 0446     		mov	r4, r0
 2146 0004 0D46     		mov	r5, r1
1059:Libraries/STM32F4xx_HAL_Driver/Src/stm32f4xx_hal_rtc_ex.c ****   uint32_t tickstart = 0U;
 2147              		.loc 1 1059 3 is_stmt 1 view .LVU725
 2148              	.LVL127:
1060:Libraries/STM32F4xx_HAL_Driver/Src/stm32f4xx_hal_rtc_ex.c **** 
1061:Libraries/STM32F4xx_HAL_Driver/Src/stm32f4xx_hal_rtc_ex.c ****   /* Get tick */
1062:Libraries/STM32F4xx_HAL_Driver/Src/stm32f4xx_hal_rtc_ex.c ****   tickstart = HAL_GetTick();
 2149              		.loc 1 1062 3 view .LVU726
 2150              		.loc 1 1062 15 is_stmt 0 view .LVU727
 2151 0006 FFF7FEFF 		bl	HAL_GetTick
 2152              	.LVL128:
 2153              		.loc 1 1062 15 view .LVU728
 2154 000a 0646     		mov	r6, r0
 2155              	.LVL129:
1063:Libraries/STM32F4xx_HAL_Driver/Src/stm32f4xx_hal_rtc_ex.c **** 
1064:Libraries/STM32F4xx_HAL_Driver/Src/stm32f4xx_hal_rtc_ex.c ****   while(__HAL_RTC_WAKEUPTIMER_GET_FLAG(hrtc, RTC_FLAG_WUTF) == RESET)
 2156              		.loc 1 1064 3 is_stmt 1 view .LVU729
 2157              	.L134:
 2158              		.loc 1 1064 8 view .LVU730
 2159              		.loc 1 1064 9 is_stmt 0 view .LVU731
 2160 000c 2368     		ldr	r3, [r4]
 2161 000e DA68     		ldr	r2, [r3, #12]
 2162              		.loc 1 1064 8 view .LVU732
 2163 0010 12F4806F 		tst	r2, #1024
 2164 0014 0BD1     		bne	.L139
1065:Libraries/STM32F4xx_HAL_Driver/Src/stm32f4xx_hal_rtc_ex.c ****   {
1066:Libraries/STM32F4xx_HAL_Driver/Src/stm32f4xx_hal_rtc_ex.c ****     if(Timeout != HAL_MAX_DELAY)
 2165              		.loc 1 1066 5 is_stmt 1 view .LVU733
 2166              		.loc 1 1066 7 is_stmt 0 view .LVU734
 2167 0016 B5F1FF3F 		cmp	r5, #-1
 2168 001a F7D0     		beq	.L134
ARM GAS  C:\Users\yzy\AppData\Local\Temp\ccuah9XY.s 			page 59


1067:Libraries/STM32F4xx_HAL_Driver/Src/stm32f4xx_hal_rtc_ex.c ****     {
1068:Libraries/STM32F4xx_HAL_Driver/Src/stm32f4xx_hal_rtc_ex.c ****       if((Timeout == 0U)||((HAL_GetTick() - tickstart ) > Timeout))
 2169              		.loc 1 1068 7 is_stmt 1 view .LVU735
 2170              		.loc 1 1068 9 is_stmt 0 view .LVU736
 2171 001c 25B1     		cbz	r5, .L135
 2172              		.loc 1 1068 29 discriminator 1 view .LVU737
 2173 001e FFF7FEFF 		bl	HAL_GetTick
 2174              	.LVL130:
 2175              		.loc 1 1068 43 discriminator 1 view .LVU738
 2176 0022 801B     		subs	r0, r0, r6
 2177              		.loc 1 1068 25 discriminator 1 view .LVU739
 2178 0024 A842     		cmp	r0, r5
 2179 0026 F1D9     		bls	.L134
 2180              	.L135:
1069:Libraries/STM32F4xx_HAL_Driver/Src/stm32f4xx_hal_rtc_ex.c ****       {
1070:Libraries/STM32F4xx_HAL_Driver/Src/stm32f4xx_hal_rtc_ex.c ****         hrtc->State = HAL_RTC_STATE_TIMEOUT;
 2181              		.loc 1 1070 9 is_stmt 1 view .LVU740
 2182              		.loc 1 1070 21 is_stmt 0 view .LVU741
 2183 0028 0320     		movs	r0, #3
 2184 002a 6077     		strb	r0, [r4, #29]
1071:Libraries/STM32F4xx_HAL_Driver/Src/stm32f4xx_hal_rtc_ex.c **** 
1072:Libraries/STM32F4xx_HAL_Driver/Src/stm32f4xx_hal_rtc_ex.c ****         return HAL_TIMEOUT;
 2185              		.loc 1 1072 9 is_stmt 1 view .LVU742
 2186              		.loc 1 1072 16 is_stmt 0 view .LVU743
 2187 002c 07E0     		b	.L136
 2188              	.L139:
1073:Libraries/STM32F4xx_HAL_Driver/Src/stm32f4xx_hal_rtc_ex.c ****       }
1074:Libraries/STM32F4xx_HAL_Driver/Src/stm32f4xx_hal_rtc_ex.c ****     }
1075:Libraries/STM32F4xx_HAL_Driver/Src/stm32f4xx_hal_rtc_ex.c ****   }
1076:Libraries/STM32F4xx_HAL_Driver/Src/stm32f4xx_hal_rtc_ex.c **** 
1077:Libraries/STM32F4xx_HAL_Driver/Src/stm32f4xx_hal_rtc_ex.c ****   /* Clear the WAKEUPTIMER Flag */
1078:Libraries/STM32F4xx_HAL_Driver/Src/stm32f4xx_hal_rtc_ex.c ****   __HAL_RTC_WAKEUPTIMER_CLEAR_FLAG(hrtc, RTC_FLAG_WUTF);
 2189              		.loc 1 1078 3 is_stmt 1 view .LVU744
 2190 002e DA68     		ldr	r2, [r3, #12]
 2191 0030 D2B2     		uxtb	r2, r2
 2192 0032 62F49062 		orn	r2, r2, #1152
 2193 0036 DA60     		str	r2, [r3, #12]
1079:Libraries/STM32F4xx_HAL_Driver/Src/stm32f4xx_hal_rtc_ex.c **** 
1080:Libraries/STM32F4xx_HAL_Driver/Src/stm32f4xx_hal_rtc_ex.c ****   /* Change RTC state */
1081:Libraries/STM32F4xx_HAL_Driver/Src/stm32f4xx_hal_rtc_ex.c ****   hrtc->State = HAL_RTC_STATE_READY;
 2194              		.loc 1 1081 3 view .LVU745
 2195              		.loc 1 1081 15 is_stmt 0 view .LVU746
 2196 0038 0123     		movs	r3, #1
 2197 003a 6377     		strb	r3, [r4, #29]
1082:Libraries/STM32F4xx_HAL_Driver/Src/stm32f4xx_hal_rtc_ex.c **** 
1083:Libraries/STM32F4xx_HAL_Driver/Src/stm32f4xx_hal_rtc_ex.c ****   return HAL_OK;
 2198              		.loc 1 1083 3 is_stmt 1 view .LVU747
 2199              		.loc 1 1083 10 is_stmt 0 view .LVU748
 2200 003c 0020     		movs	r0, #0
 2201              	.L136:
1084:Libraries/STM32F4xx_HAL_Driver/Src/stm32f4xx_hal_rtc_ex.c **** }
 2202              		.loc 1 1084 1 view .LVU749
 2203 003e 70BD     		pop	{r4, r5, r6, pc}
 2204              		.loc 1 1084 1 view .LVU750
 2205              		.cfi_endproc
 2206              	.LFE150:
 2208              		.section	.text.HAL_RTCEx_BKUPWrite,"ax",%progbits
ARM GAS  C:\Users\yzy\AppData\Local\Temp\ccuah9XY.s 			page 60


 2209              		.align	1
 2210              		.global	HAL_RTCEx_BKUPWrite
 2211              		.syntax unified
 2212              		.thumb
 2213              		.thumb_func
 2214              		.fpu softvfp
 2216              	HAL_RTCEx_BKUPWrite:
 2217              	.LVL131:
 2218              	.LFB151:
1085:Libraries/STM32F4xx_HAL_Driver/Src/stm32f4xx_hal_rtc_ex.c **** 
1086:Libraries/STM32F4xx_HAL_Driver/Src/stm32f4xx_hal_rtc_ex.c **** /**
1087:Libraries/STM32F4xx_HAL_Driver/Src/stm32f4xx_hal_rtc_ex.c ****   * @}
1088:Libraries/STM32F4xx_HAL_Driver/Src/stm32f4xx_hal_rtc_ex.c ****   */
1089:Libraries/STM32F4xx_HAL_Driver/Src/stm32f4xx_hal_rtc_ex.c **** 
1090:Libraries/STM32F4xx_HAL_Driver/Src/stm32f4xx_hal_rtc_ex.c **** 
1091:Libraries/STM32F4xx_HAL_Driver/Src/stm32f4xx_hal_rtc_ex.c **** /** @defgroup RTCEx_Exported_Functions_Group3 Extension Peripheral Control functions
1092:Libraries/STM32F4xx_HAL_Driver/Src/stm32f4xx_hal_rtc_ex.c ****  *  @brief   Extension Peripheral Control functions
1093:Libraries/STM32F4xx_HAL_Driver/Src/stm32f4xx_hal_rtc_ex.c ****  *
1094:Libraries/STM32F4xx_HAL_Driver/Src/stm32f4xx_hal_rtc_ex.c **** @verbatim
1095:Libraries/STM32F4xx_HAL_Driver/Src/stm32f4xx_hal_rtc_ex.c ****  ===============================================================================
1096:Libraries/STM32F4xx_HAL_Driver/Src/stm32f4xx_hal_rtc_ex.c ****               ##### Extension Peripheral Control functions #####
1097:Libraries/STM32F4xx_HAL_Driver/Src/stm32f4xx_hal_rtc_ex.c ****  ===============================================================================
1098:Libraries/STM32F4xx_HAL_Driver/Src/stm32f4xx_hal_rtc_ex.c ****     [..]
1099:Libraries/STM32F4xx_HAL_Driver/Src/stm32f4xx_hal_rtc_ex.c ****     This subsection provides functions allowing to
1100:Libraries/STM32F4xx_HAL_Driver/Src/stm32f4xx_hal_rtc_ex.c ****       (+) Write a data in a specified RTC Backup data register
1101:Libraries/STM32F4xx_HAL_Driver/Src/stm32f4xx_hal_rtc_ex.c ****       (+) Read a data in a specified RTC Backup data register
1102:Libraries/STM32F4xx_HAL_Driver/Src/stm32f4xx_hal_rtc_ex.c ****       (+) Set the Coarse calibration parameters.
1103:Libraries/STM32F4xx_HAL_Driver/Src/stm32f4xx_hal_rtc_ex.c ****       (+) Deactivate the Coarse calibration parameters
1104:Libraries/STM32F4xx_HAL_Driver/Src/stm32f4xx_hal_rtc_ex.c ****       (+) Set the Smooth calibration parameters.
1105:Libraries/STM32F4xx_HAL_Driver/Src/stm32f4xx_hal_rtc_ex.c ****       (+) Configure the Synchronization Shift Control Settings.
1106:Libraries/STM32F4xx_HAL_Driver/Src/stm32f4xx_hal_rtc_ex.c ****       (+) Configure the Calibration Pinout (RTC_CALIB) Selection (1Hz or 512Hz).
1107:Libraries/STM32F4xx_HAL_Driver/Src/stm32f4xx_hal_rtc_ex.c ****       (+) Deactivate the Calibration Pinout (RTC_CALIB) Selection (1Hz or 512Hz).
1108:Libraries/STM32F4xx_HAL_Driver/Src/stm32f4xx_hal_rtc_ex.c ****       (+) Enable the RTC reference clock detection.
1109:Libraries/STM32F4xx_HAL_Driver/Src/stm32f4xx_hal_rtc_ex.c ****       (+) Disable the RTC reference clock detection.
1110:Libraries/STM32F4xx_HAL_Driver/Src/stm32f4xx_hal_rtc_ex.c ****       (+) Enable the Bypass Shadow feature.
1111:Libraries/STM32F4xx_HAL_Driver/Src/stm32f4xx_hal_rtc_ex.c ****       (+) Disable the Bypass Shadow feature.
1112:Libraries/STM32F4xx_HAL_Driver/Src/stm32f4xx_hal_rtc_ex.c **** 
1113:Libraries/STM32F4xx_HAL_Driver/Src/stm32f4xx_hal_rtc_ex.c **** @endverbatim
1114:Libraries/STM32F4xx_HAL_Driver/Src/stm32f4xx_hal_rtc_ex.c ****   * @{
1115:Libraries/STM32F4xx_HAL_Driver/Src/stm32f4xx_hal_rtc_ex.c ****   */
1116:Libraries/STM32F4xx_HAL_Driver/Src/stm32f4xx_hal_rtc_ex.c **** 
1117:Libraries/STM32F4xx_HAL_Driver/Src/stm32f4xx_hal_rtc_ex.c **** /**
1118:Libraries/STM32F4xx_HAL_Driver/Src/stm32f4xx_hal_rtc_ex.c ****   * @brief  Writes a data in a specified RTC Backup data register.
1119:Libraries/STM32F4xx_HAL_Driver/Src/stm32f4xx_hal_rtc_ex.c ****   * @param  hrtc pointer to a RTC_HandleTypeDef structure that contains
1120:Libraries/STM32F4xx_HAL_Driver/Src/stm32f4xx_hal_rtc_ex.c ****   *                the configuration information for RTC.
1121:Libraries/STM32F4xx_HAL_Driver/Src/stm32f4xx_hal_rtc_ex.c ****   * @param  BackupRegister RTC Backup data Register number.
1122:Libraries/STM32F4xx_HAL_Driver/Src/stm32f4xx_hal_rtc_ex.c ****   *          This parameter can be: RTC_BKP_DRx where x can be from 0 to 19 to
1123:Libraries/STM32F4xx_HAL_Driver/Src/stm32f4xx_hal_rtc_ex.c ****   *                                 specify the register.
1124:Libraries/STM32F4xx_HAL_Driver/Src/stm32f4xx_hal_rtc_ex.c ****   * @param  Data Data to be written in the specified RTC Backup data register.
1125:Libraries/STM32F4xx_HAL_Driver/Src/stm32f4xx_hal_rtc_ex.c ****   * @retval None
1126:Libraries/STM32F4xx_HAL_Driver/Src/stm32f4xx_hal_rtc_ex.c ****   */
1127:Libraries/STM32F4xx_HAL_Driver/Src/stm32f4xx_hal_rtc_ex.c **** void HAL_RTCEx_BKUPWrite(RTC_HandleTypeDef *hrtc, uint32_t BackupRegister, uint32_t Data)
1128:Libraries/STM32F4xx_HAL_Driver/Src/stm32f4xx_hal_rtc_ex.c **** {
 2219              		.loc 1 1128 1 is_stmt 1 view -0
 2220              		.cfi_startproc
 2221              		@ args = 0, pretend = 0, frame = 0
 2222              		@ frame_needed = 0, uses_anonymous_args = 0
ARM GAS  C:\Users\yzy\AppData\Local\Temp\ccuah9XY.s 			page 61


 2223              		@ link register save eliminated.
1129:Libraries/STM32F4xx_HAL_Driver/Src/stm32f4xx_hal_rtc_ex.c ****   uint32_t tmp = 0U;
 2224              		.loc 1 1129 3 view .LVU752
1130:Libraries/STM32F4xx_HAL_Driver/Src/stm32f4xx_hal_rtc_ex.c **** 
1131:Libraries/STM32F4xx_HAL_Driver/Src/stm32f4xx_hal_rtc_ex.c ****   /* Check the parameters */
1132:Libraries/STM32F4xx_HAL_Driver/Src/stm32f4xx_hal_rtc_ex.c ****   assert_param(IS_RTC_BKP(BackupRegister));
 2225              		.loc 1 1132 3 view .LVU753
1133:Libraries/STM32F4xx_HAL_Driver/Src/stm32f4xx_hal_rtc_ex.c **** 
1134:Libraries/STM32F4xx_HAL_Driver/Src/stm32f4xx_hal_rtc_ex.c ****   tmp = (uint32_t)&(hrtc->Instance->BKP0R);
 2226              		.loc 1 1134 3 view .LVU754
 2227              		.loc 1 1134 25 is_stmt 0 view .LVU755
 2228 0000 0368     		ldr	r3, [r0]
 2229              		.loc 1 1134 19 view .LVU756
 2230 0002 5033     		adds	r3, r3, #80
 2231              	.LVL132:
1135:Libraries/STM32F4xx_HAL_Driver/Src/stm32f4xx_hal_rtc_ex.c ****   tmp += (BackupRegister * 4U);
 2232              		.loc 1 1135 3 is_stmt 1 view .LVU757
1136:Libraries/STM32F4xx_HAL_Driver/Src/stm32f4xx_hal_rtc_ex.c **** 
1137:Libraries/STM32F4xx_HAL_Driver/Src/stm32f4xx_hal_rtc_ex.c ****   /* Write the specified register */
1138:Libraries/STM32F4xx_HAL_Driver/Src/stm32f4xx_hal_rtc_ex.c ****   *(__IO uint32_t *)tmp = (uint32_t)Data;
 2233              		.loc 1 1138 3 view .LVU758
 2234              		.loc 1 1138 25 is_stmt 0 view .LVU759
 2235 0004 43F82120 		str	r2, [r3, r1, lsl #2]
1139:Libraries/STM32F4xx_HAL_Driver/Src/stm32f4xx_hal_rtc_ex.c **** }
 2236              		.loc 1 1139 1 view .LVU760
 2237 0008 7047     		bx	lr
 2238              		.cfi_endproc
 2239              	.LFE151:
 2241              		.section	.text.HAL_RTCEx_BKUPRead,"ax",%progbits
 2242              		.align	1
 2243              		.global	HAL_RTCEx_BKUPRead
 2244              		.syntax unified
 2245              		.thumb
 2246              		.thumb_func
 2247              		.fpu softvfp
 2249              	HAL_RTCEx_BKUPRead:
 2250              	.LVL133:
 2251              	.LFB152:
1140:Libraries/STM32F4xx_HAL_Driver/Src/stm32f4xx_hal_rtc_ex.c **** 
1141:Libraries/STM32F4xx_HAL_Driver/Src/stm32f4xx_hal_rtc_ex.c **** /**
1142:Libraries/STM32F4xx_HAL_Driver/Src/stm32f4xx_hal_rtc_ex.c ****   * @brief  Reads data from the specified RTC Backup data Register.
1143:Libraries/STM32F4xx_HAL_Driver/Src/stm32f4xx_hal_rtc_ex.c ****   * @param  hrtc pointer to a RTC_HandleTypeDef structure that contains
1144:Libraries/STM32F4xx_HAL_Driver/Src/stm32f4xx_hal_rtc_ex.c ****   *                the configuration information for RTC.
1145:Libraries/STM32F4xx_HAL_Driver/Src/stm32f4xx_hal_rtc_ex.c ****   * @param  BackupRegister RTC Backup data Register number.
1146:Libraries/STM32F4xx_HAL_Driver/Src/stm32f4xx_hal_rtc_ex.c ****   *          This parameter can be: RTC_BKP_DRx where x can be from 0 to 19 to
1147:Libraries/STM32F4xx_HAL_Driver/Src/stm32f4xx_hal_rtc_ex.c ****   *                                 specify the register.
1148:Libraries/STM32F4xx_HAL_Driver/Src/stm32f4xx_hal_rtc_ex.c ****   * @retval Read value
1149:Libraries/STM32F4xx_HAL_Driver/Src/stm32f4xx_hal_rtc_ex.c ****   */
1150:Libraries/STM32F4xx_HAL_Driver/Src/stm32f4xx_hal_rtc_ex.c **** uint32_t HAL_RTCEx_BKUPRead(RTC_HandleTypeDef *hrtc, uint32_t BackupRegister)
1151:Libraries/STM32F4xx_HAL_Driver/Src/stm32f4xx_hal_rtc_ex.c **** {
 2252              		.loc 1 1151 1 is_stmt 1 view -0
 2253              		.cfi_startproc
 2254              		@ args = 0, pretend = 0, frame = 0
 2255              		@ frame_needed = 0, uses_anonymous_args = 0
 2256              		@ link register save eliminated.
1152:Libraries/STM32F4xx_HAL_Driver/Src/stm32f4xx_hal_rtc_ex.c ****   uint32_t tmp = 0U;
 2257              		.loc 1 1152 3 view .LVU762
ARM GAS  C:\Users\yzy\AppData\Local\Temp\ccuah9XY.s 			page 62


1153:Libraries/STM32F4xx_HAL_Driver/Src/stm32f4xx_hal_rtc_ex.c **** 
1154:Libraries/STM32F4xx_HAL_Driver/Src/stm32f4xx_hal_rtc_ex.c ****   /* Check the parameters */
1155:Libraries/STM32F4xx_HAL_Driver/Src/stm32f4xx_hal_rtc_ex.c ****   assert_param(IS_RTC_BKP(BackupRegister));
 2258              		.loc 1 1155 3 view .LVU763
1156:Libraries/STM32F4xx_HAL_Driver/Src/stm32f4xx_hal_rtc_ex.c **** 
1157:Libraries/STM32F4xx_HAL_Driver/Src/stm32f4xx_hal_rtc_ex.c ****   tmp = (uint32_t)&(hrtc->Instance->BKP0R);
 2259              		.loc 1 1157 3 view .LVU764
 2260              		.loc 1 1157 25 is_stmt 0 view .LVU765
 2261 0000 0368     		ldr	r3, [r0]
 2262              		.loc 1 1157 19 view .LVU766
 2263 0002 5033     		adds	r3, r3, #80
 2264              	.LVL134:
1158:Libraries/STM32F4xx_HAL_Driver/Src/stm32f4xx_hal_rtc_ex.c ****   tmp += (BackupRegister * 4U);
 2265              		.loc 1 1158 3 is_stmt 1 view .LVU767
1159:Libraries/STM32F4xx_HAL_Driver/Src/stm32f4xx_hal_rtc_ex.c **** 
1160:Libraries/STM32F4xx_HAL_Driver/Src/stm32f4xx_hal_rtc_ex.c ****   /* Read the specified register */
1161:Libraries/STM32F4xx_HAL_Driver/Src/stm32f4xx_hal_rtc_ex.c ****   return (*(__IO uint32_t *)tmp);
 2266              		.loc 1 1161 3 view .LVU768
 2267              		.loc 1 1161 11 is_stmt 0 view .LVU769
 2268 0004 53F82100 		ldr	r0, [r3, r1, lsl #2]
 2269              	.LVL135:
1162:Libraries/STM32F4xx_HAL_Driver/Src/stm32f4xx_hal_rtc_ex.c **** }
 2270              		.loc 1 1162 1 view .LVU770
 2271 0008 7047     		bx	lr
 2272              		.cfi_endproc
 2273              	.LFE152:
 2275              		.section	.text.HAL_RTCEx_SetCoarseCalib,"ax",%progbits
 2276              		.align	1
 2277              		.global	HAL_RTCEx_SetCoarseCalib
 2278              		.syntax unified
 2279              		.thumb
 2280              		.thumb_func
 2281              		.fpu softvfp
 2283              	HAL_RTCEx_SetCoarseCalib:
 2284              	.LVL136:
 2285              	.LFB153:
1163:Libraries/STM32F4xx_HAL_Driver/Src/stm32f4xx_hal_rtc_ex.c **** 
1164:Libraries/STM32F4xx_HAL_Driver/Src/stm32f4xx_hal_rtc_ex.c **** /**
1165:Libraries/STM32F4xx_HAL_Driver/Src/stm32f4xx_hal_rtc_ex.c ****   * @brief  Sets the Coarse calibration parameters.
1166:Libraries/STM32F4xx_HAL_Driver/Src/stm32f4xx_hal_rtc_ex.c ****   * @param  hrtc pointer to a RTC_HandleTypeDef structure that contains
1167:Libraries/STM32F4xx_HAL_Driver/Src/stm32f4xx_hal_rtc_ex.c ****   *                the configuration information for RTC.
1168:Libraries/STM32F4xx_HAL_Driver/Src/stm32f4xx_hal_rtc_ex.c ****   * @param  CalibSign Specifies the sign of the coarse calibration value.
1169:Libraries/STM32F4xx_HAL_Driver/Src/stm32f4xx_hal_rtc_ex.c ****   *          This parameter can be  one of the following values :
1170:Libraries/STM32F4xx_HAL_Driver/Src/stm32f4xx_hal_rtc_ex.c ****   *             @arg RTC_CALIBSIGN_POSITIVE: The value sign is positive
1171:Libraries/STM32F4xx_HAL_Driver/Src/stm32f4xx_hal_rtc_ex.c ****   *             @arg RTC_CALIBSIGN_NEGATIVE: The value sign is negative
1172:Libraries/STM32F4xx_HAL_Driver/Src/stm32f4xx_hal_rtc_ex.c ****   * @param  Value value of coarse calibration expressed in ppm (coded on 5 bits).
1173:Libraries/STM32F4xx_HAL_Driver/Src/stm32f4xx_hal_rtc_ex.c ****   *
1174:Libraries/STM32F4xx_HAL_Driver/Src/stm32f4xx_hal_rtc_ex.c ****   * @note   This Calibration value should be between 0 and 63 when using negative
1175:Libraries/STM32F4xx_HAL_Driver/Src/stm32f4xx_hal_rtc_ex.c ****   *         sign with a 2-ppm step.
1176:Libraries/STM32F4xx_HAL_Driver/Src/stm32f4xx_hal_rtc_ex.c ****   *
1177:Libraries/STM32F4xx_HAL_Driver/Src/stm32f4xx_hal_rtc_ex.c ****   * @note   This Calibration value should be between 0 and 126 when using positive
1178:Libraries/STM32F4xx_HAL_Driver/Src/stm32f4xx_hal_rtc_ex.c ****   *         sign with a 4-ppm step.
1179:Libraries/STM32F4xx_HAL_Driver/Src/stm32f4xx_hal_rtc_ex.c ****   * @retval HAL status
1180:Libraries/STM32F4xx_HAL_Driver/Src/stm32f4xx_hal_rtc_ex.c ****   */
1181:Libraries/STM32F4xx_HAL_Driver/Src/stm32f4xx_hal_rtc_ex.c **** HAL_StatusTypeDef HAL_RTCEx_SetCoarseCalib(RTC_HandleTypeDef* hrtc, uint32_t CalibSign, uint32_t Va
1182:Libraries/STM32F4xx_HAL_Driver/Src/stm32f4xx_hal_rtc_ex.c **** {
 2286              		.loc 1 1182 1 is_stmt 1 view -0
ARM GAS  C:\Users\yzy\AppData\Local\Temp\ccuah9XY.s 			page 63


 2287              		.cfi_startproc
 2288              		@ args = 0, pretend = 0, frame = 0
 2289              		@ frame_needed = 0, uses_anonymous_args = 0
1183:Libraries/STM32F4xx_HAL_Driver/Src/stm32f4xx_hal_rtc_ex.c ****   /* Check the parameters */
1184:Libraries/STM32F4xx_HAL_Driver/Src/stm32f4xx_hal_rtc_ex.c ****   assert_param(IS_RTC_CALIB_SIGN(CalibSign));
 2290              		.loc 1 1184 3 view .LVU772
1185:Libraries/STM32F4xx_HAL_Driver/Src/stm32f4xx_hal_rtc_ex.c ****   assert_param(IS_RTC_CALIB_VALUE(Value));
 2291              		.loc 1 1185 3 view .LVU773
1186:Libraries/STM32F4xx_HAL_Driver/Src/stm32f4xx_hal_rtc_ex.c **** 
1187:Libraries/STM32F4xx_HAL_Driver/Src/stm32f4xx_hal_rtc_ex.c ****   /* Process Locked */
1188:Libraries/STM32F4xx_HAL_Driver/Src/stm32f4xx_hal_rtc_ex.c ****   __HAL_LOCK(hrtc);
 2292              		.loc 1 1188 3 view .LVU774
 2293              		.loc 1 1188 3 view .LVU775
 2294 0000 037F     		ldrb	r3, [r0, #28]	@ zero_extendqisi2
 2295 0002 012B     		cmp	r3, #1
 2296 0004 2ED0     		beq	.L145
1182:Libraries/STM32F4xx_HAL_Driver/Src/stm32f4xx_hal_rtc_ex.c ****   /* Check the parameters */
 2297              		.loc 1 1182 1 is_stmt 0 discriminator 2 view .LVU776
 2298 0006 70B5     		push	{r4, r5, r6, lr}
 2299              	.LCFI25:
 2300              		.cfi_def_cfa_offset 16
 2301              		.cfi_offset 4, -16
 2302              		.cfi_offset 5, -12
 2303              		.cfi_offset 6, -8
 2304              		.cfi_offset 14, -4
 2305 0008 0446     		mov	r4, r0
 2306 000a 0D46     		mov	r5, r1
 2307 000c 1646     		mov	r6, r2
 2308              		.loc 1 1188 3 is_stmt 1 discriminator 2 view .LVU777
 2309 000e 0123     		movs	r3, #1
 2310 0010 0377     		strb	r3, [r0, #28]
 2311              		.loc 1 1188 3 discriminator 2 view .LVU778
1189:Libraries/STM32F4xx_HAL_Driver/Src/stm32f4xx_hal_rtc_ex.c **** 
1190:Libraries/STM32F4xx_HAL_Driver/Src/stm32f4xx_hal_rtc_ex.c ****   hrtc->State = HAL_RTC_STATE_BUSY;
 2312              		.loc 1 1190 3 discriminator 2 view .LVU779
 2313              		.loc 1 1190 15 is_stmt 0 discriminator 2 view .LVU780
 2314 0012 0223     		movs	r3, #2
 2315 0014 4377     		strb	r3, [r0, #29]
1191:Libraries/STM32F4xx_HAL_Driver/Src/stm32f4xx_hal_rtc_ex.c **** 
1192:Libraries/STM32F4xx_HAL_Driver/Src/stm32f4xx_hal_rtc_ex.c ****   /* Disable the write protection for RTC registers */
1193:Libraries/STM32F4xx_HAL_Driver/Src/stm32f4xx_hal_rtc_ex.c ****   __HAL_RTC_WRITEPROTECTION_DISABLE(hrtc);
 2316              		.loc 1 1193 3 is_stmt 1 discriminator 2 view .LVU781
 2317              		.loc 1 1193 3 discriminator 2 view .LVU782
 2318 0016 0368     		ldr	r3, [r0]
 2319 0018 CA22     		movs	r2, #202
 2320              	.LVL137:
 2321              		.loc 1 1193 3 is_stmt 0 discriminator 2 view .LVU783
 2322 001a 5A62     		str	r2, [r3, #36]
 2323              		.loc 1 1193 3 is_stmt 1 discriminator 2 view .LVU784
 2324 001c 0368     		ldr	r3, [r0]
 2325 001e 5322     		movs	r2, #83
 2326 0020 5A62     		str	r2, [r3, #36]
 2327              		.loc 1 1193 3 discriminator 2 view .LVU785
1194:Libraries/STM32F4xx_HAL_Driver/Src/stm32f4xx_hal_rtc_ex.c **** 
1195:Libraries/STM32F4xx_HAL_Driver/Src/stm32f4xx_hal_rtc_ex.c ****   /* Set Initialization mode */
1196:Libraries/STM32F4xx_HAL_Driver/Src/stm32f4xx_hal_rtc_ex.c ****   if(RTC_EnterInitMode(hrtc) != HAL_OK)
 2328              		.loc 1 1196 3 discriminator 2 view .LVU786
ARM GAS  C:\Users\yzy\AppData\Local\Temp\ccuah9XY.s 			page 64


 2329              		.loc 1 1196 6 is_stmt 0 discriminator 2 view .LVU787
 2330 0022 FFF7FEFF 		bl	RTC_EnterInitMode
 2331              	.LVL138:
 2332              		.loc 1 1196 5 discriminator 2 view .LVU788
 2333 0026 A0B9     		cbnz	r0, .L150
1197:Libraries/STM32F4xx_HAL_Driver/Src/stm32f4xx_hal_rtc_ex.c ****   {
1198:Libraries/STM32F4xx_HAL_Driver/Src/stm32f4xx_hal_rtc_ex.c ****     /* Enable the write protection for RTC registers */
1199:Libraries/STM32F4xx_HAL_Driver/Src/stm32f4xx_hal_rtc_ex.c ****     __HAL_RTC_WRITEPROTECTION_ENABLE(hrtc);
1200:Libraries/STM32F4xx_HAL_Driver/Src/stm32f4xx_hal_rtc_ex.c **** 
1201:Libraries/STM32F4xx_HAL_Driver/Src/stm32f4xx_hal_rtc_ex.c ****     /* Set RTC state*/
1202:Libraries/STM32F4xx_HAL_Driver/Src/stm32f4xx_hal_rtc_ex.c ****     hrtc->State = HAL_RTC_STATE_ERROR;
1203:Libraries/STM32F4xx_HAL_Driver/Src/stm32f4xx_hal_rtc_ex.c **** 
1204:Libraries/STM32F4xx_HAL_Driver/Src/stm32f4xx_hal_rtc_ex.c ****     /* Process Unlocked */
1205:Libraries/STM32F4xx_HAL_Driver/Src/stm32f4xx_hal_rtc_ex.c ****     __HAL_UNLOCK(hrtc);
1206:Libraries/STM32F4xx_HAL_Driver/Src/stm32f4xx_hal_rtc_ex.c **** 
1207:Libraries/STM32F4xx_HAL_Driver/Src/stm32f4xx_hal_rtc_ex.c ****     return HAL_ERROR;
1208:Libraries/STM32F4xx_HAL_Driver/Src/stm32f4xx_hal_rtc_ex.c ****   }
1209:Libraries/STM32F4xx_HAL_Driver/Src/stm32f4xx_hal_rtc_ex.c ****   else
1210:Libraries/STM32F4xx_HAL_Driver/Src/stm32f4xx_hal_rtc_ex.c ****   {
1211:Libraries/STM32F4xx_HAL_Driver/Src/stm32f4xx_hal_rtc_ex.c ****     /* Enable the Coarse Calibration */
1212:Libraries/STM32F4xx_HAL_Driver/Src/stm32f4xx_hal_rtc_ex.c ****     __HAL_RTC_COARSE_CALIB_ENABLE(hrtc);
 2334              		.loc 1 1212 5 is_stmt 1 view .LVU789
 2335 0028 2268     		ldr	r2, [r4]
 2336 002a 9368     		ldr	r3, [r2, #8]
 2337 002c 43F08003 		orr	r3, r3, #128
 2338 0030 9360     		str	r3, [r2, #8]
1213:Libraries/STM32F4xx_HAL_Driver/Src/stm32f4xx_hal_rtc_ex.c **** 
1214:Libraries/STM32F4xx_HAL_Driver/Src/stm32f4xx_hal_rtc_ex.c ****     /* Set the coarse calibration value */
1215:Libraries/STM32F4xx_HAL_Driver/Src/stm32f4xx_hal_rtc_ex.c ****     hrtc->Instance->CALIBR = (uint32_t)(CalibSign|Value);
 2339              		.loc 1 1215 5 view .LVU790
 2340              		.loc 1 1215 9 is_stmt 0 view .LVU791
 2341 0032 2368     		ldr	r3, [r4]
 2342              		.loc 1 1215 50 view .LVU792
 2343 0034 3543     		orrs	r5, r5, r6
 2344              	.LVL139:
 2345              		.loc 1 1215 28 view .LVU793
 2346 0036 9D61     		str	r5, [r3, #24]
1216:Libraries/STM32F4xx_HAL_Driver/Src/stm32f4xx_hal_rtc_ex.c **** 
1217:Libraries/STM32F4xx_HAL_Driver/Src/stm32f4xx_hal_rtc_ex.c ****     /* Exit Initialization mode */
1218:Libraries/STM32F4xx_HAL_Driver/Src/stm32f4xx_hal_rtc_ex.c ****     hrtc->Instance->ISR &= (uint32_t)~RTC_ISR_INIT;
 2347              		.loc 1 1218 5 is_stmt 1 view .LVU794
 2348              		.loc 1 1218 9 is_stmt 0 view .LVU795
 2349 0038 2268     		ldr	r2, [r4]
 2350              		.loc 1 1218 25 view .LVU796
 2351 003a D368     		ldr	r3, [r2, #12]
 2352 003c 23F08003 		bic	r3, r3, #128
 2353 0040 D360     		str	r3, [r2, #12]
1219:Libraries/STM32F4xx_HAL_Driver/Src/stm32f4xx_hal_rtc_ex.c ****   }
1220:Libraries/STM32F4xx_HAL_Driver/Src/stm32f4xx_hal_rtc_ex.c **** 
1221:Libraries/STM32F4xx_HAL_Driver/Src/stm32f4xx_hal_rtc_ex.c ****   /* Enable the write protection for RTC registers */
1222:Libraries/STM32F4xx_HAL_Driver/Src/stm32f4xx_hal_rtc_ex.c ****   __HAL_RTC_WRITEPROTECTION_ENABLE(hrtc);
 2354              		.loc 1 1222 3 is_stmt 1 view .LVU797
 2355              		.loc 1 1222 3 view .LVU798
 2356 0042 2368     		ldr	r3, [r4]
 2357 0044 FF22     		movs	r2, #255
 2358 0046 5A62     		str	r2, [r3, #36]
 2359              		.loc 1 1222 3 view .LVU799
ARM GAS  C:\Users\yzy\AppData\Local\Temp\ccuah9XY.s 			page 65


1223:Libraries/STM32F4xx_HAL_Driver/Src/stm32f4xx_hal_rtc_ex.c **** 
1224:Libraries/STM32F4xx_HAL_Driver/Src/stm32f4xx_hal_rtc_ex.c ****   /* Change state */
1225:Libraries/STM32F4xx_HAL_Driver/Src/stm32f4xx_hal_rtc_ex.c ****   hrtc->State = HAL_RTC_STATE_READY;
 2360              		.loc 1 1225 3 view .LVU800
 2361              		.loc 1 1225 15 is_stmt 0 view .LVU801
 2362 0048 0123     		movs	r3, #1
 2363 004a 6377     		strb	r3, [r4, #29]
1226:Libraries/STM32F4xx_HAL_Driver/Src/stm32f4xx_hal_rtc_ex.c **** 
1227:Libraries/STM32F4xx_HAL_Driver/Src/stm32f4xx_hal_rtc_ex.c ****   /* Process Unlocked */
1228:Libraries/STM32F4xx_HAL_Driver/Src/stm32f4xx_hal_rtc_ex.c ****   __HAL_UNLOCK(hrtc);
 2364              		.loc 1 1228 3 is_stmt 1 view .LVU802
 2365              		.loc 1 1228 3 view .LVU803
 2366 004c 0023     		movs	r3, #0
 2367 004e 2377     		strb	r3, [r4, #28]
 2368              		.loc 1 1228 3 view .LVU804
1229:Libraries/STM32F4xx_HAL_Driver/Src/stm32f4xx_hal_rtc_ex.c **** 
1230:Libraries/STM32F4xx_HAL_Driver/Src/stm32f4xx_hal_rtc_ex.c ****   return HAL_OK;
 2369              		.loc 1 1230 3 view .LVU805
 2370              	.L143:
1231:Libraries/STM32F4xx_HAL_Driver/Src/stm32f4xx_hal_rtc_ex.c **** }
 2371              		.loc 1 1231 1 is_stmt 0 view .LVU806
 2372 0050 70BD     		pop	{r4, r5, r6, pc}
 2373              	.LVL140:
 2374              	.L150:
1199:Libraries/STM32F4xx_HAL_Driver/Src/stm32f4xx_hal_rtc_ex.c **** 
 2375              		.loc 1 1199 5 is_stmt 1 view .LVU807
1199:Libraries/STM32F4xx_HAL_Driver/Src/stm32f4xx_hal_rtc_ex.c **** 
 2376              		.loc 1 1199 5 view .LVU808
 2377 0052 2368     		ldr	r3, [r4]
 2378 0054 FF22     		movs	r2, #255
 2379 0056 5A62     		str	r2, [r3, #36]
1199:Libraries/STM32F4xx_HAL_Driver/Src/stm32f4xx_hal_rtc_ex.c **** 
 2380              		.loc 1 1199 5 view .LVU809
1202:Libraries/STM32F4xx_HAL_Driver/Src/stm32f4xx_hal_rtc_ex.c **** 
 2381              		.loc 1 1202 5 view .LVU810
1202:Libraries/STM32F4xx_HAL_Driver/Src/stm32f4xx_hal_rtc_ex.c **** 
 2382              		.loc 1 1202 17 is_stmt 0 view .LVU811
 2383 0058 0423     		movs	r3, #4
 2384 005a 6377     		strb	r3, [r4, #29]
1205:Libraries/STM32F4xx_HAL_Driver/Src/stm32f4xx_hal_rtc_ex.c **** 
 2385              		.loc 1 1205 5 is_stmt 1 view .LVU812
1205:Libraries/STM32F4xx_HAL_Driver/Src/stm32f4xx_hal_rtc_ex.c **** 
 2386              		.loc 1 1205 5 view .LVU813
 2387 005c 0023     		movs	r3, #0
 2388 005e 2377     		strb	r3, [r4, #28]
1205:Libraries/STM32F4xx_HAL_Driver/Src/stm32f4xx_hal_rtc_ex.c **** 
 2389              		.loc 1 1205 5 view .LVU814
1207:Libraries/STM32F4xx_HAL_Driver/Src/stm32f4xx_hal_rtc_ex.c ****   }
 2390              		.loc 1 1207 5 view .LVU815
1207:Libraries/STM32F4xx_HAL_Driver/Src/stm32f4xx_hal_rtc_ex.c ****   }
 2391              		.loc 1 1207 12 is_stmt 0 view .LVU816
 2392 0060 0120     		movs	r0, #1
 2393 0062 F5E7     		b	.L143
 2394              	.LVL141:
 2395              	.L145:
 2396              	.LCFI26:
 2397              		.cfi_def_cfa_offset 0
ARM GAS  C:\Users\yzy\AppData\Local\Temp\ccuah9XY.s 			page 66


 2398              		.cfi_restore 4
 2399              		.cfi_restore 5
 2400              		.cfi_restore 6
 2401              		.cfi_restore 14
1188:Libraries/STM32F4xx_HAL_Driver/Src/stm32f4xx_hal_rtc_ex.c **** 
 2402              		.loc 1 1188 3 view .LVU817
 2403 0064 0220     		movs	r0, #2
 2404              	.LVL142:
 2405              		.loc 1 1231 1 view .LVU818
 2406 0066 7047     		bx	lr
 2407              		.cfi_endproc
 2408              	.LFE153:
 2410              		.section	.text.HAL_RTCEx_DeactivateCoarseCalib,"ax",%progbits
 2411              		.align	1
 2412              		.global	HAL_RTCEx_DeactivateCoarseCalib
 2413              		.syntax unified
 2414              		.thumb
 2415              		.thumb_func
 2416              		.fpu softvfp
 2418              	HAL_RTCEx_DeactivateCoarseCalib:
 2419              	.LVL143:
 2420              	.LFB154:
1232:Libraries/STM32F4xx_HAL_Driver/Src/stm32f4xx_hal_rtc_ex.c **** 
1233:Libraries/STM32F4xx_HAL_Driver/Src/stm32f4xx_hal_rtc_ex.c **** /**
1234:Libraries/STM32F4xx_HAL_Driver/Src/stm32f4xx_hal_rtc_ex.c ****   * @brief  Deactivates the Coarse calibration parameters.
1235:Libraries/STM32F4xx_HAL_Driver/Src/stm32f4xx_hal_rtc_ex.c ****   * @param  hrtc pointer to a RTC_HandleTypeDef structure that contains
1236:Libraries/STM32F4xx_HAL_Driver/Src/stm32f4xx_hal_rtc_ex.c ****   *                the configuration information for RTC.
1237:Libraries/STM32F4xx_HAL_Driver/Src/stm32f4xx_hal_rtc_ex.c ****   * @retval HAL status
1238:Libraries/STM32F4xx_HAL_Driver/Src/stm32f4xx_hal_rtc_ex.c ****   */
1239:Libraries/STM32F4xx_HAL_Driver/Src/stm32f4xx_hal_rtc_ex.c **** HAL_StatusTypeDef HAL_RTCEx_DeactivateCoarseCalib(RTC_HandleTypeDef* hrtc)
1240:Libraries/STM32F4xx_HAL_Driver/Src/stm32f4xx_hal_rtc_ex.c **** {
 2421              		.loc 1 1240 1 is_stmt 1 view -0
 2422              		.cfi_startproc
 2423              		@ args = 0, pretend = 0, frame = 0
 2424              		@ frame_needed = 0, uses_anonymous_args = 0
1241:Libraries/STM32F4xx_HAL_Driver/Src/stm32f4xx_hal_rtc_ex.c ****   /* Process Locked */
1242:Libraries/STM32F4xx_HAL_Driver/Src/stm32f4xx_hal_rtc_ex.c ****   __HAL_LOCK(hrtc);
 2425              		.loc 1 1242 3 view .LVU820
 2426              		.loc 1 1242 3 view .LVU821
 2427 0000 037F     		ldrb	r3, [r0, #28]	@ zero_extendqisi2
 2428 0002 012B     		cmp	r3, #1
 2429 0004 29D0     		beq	.L154
1240:Libraries/STM32F4xx_HAL_Driver/Src/stm32f4xx_hal_rtc_ex.c ****   /* Process Locked */
 2430              		.loc 1 1240 1 is_stmt 0 discriminator 2 view .LVU822
 2431 0006 10B5     		push	{r4, lr}
 2432              	.LCFI27:
 2433              		.cfi_def_cfa_offset 8
 2434              		.cfi_offset 4, -8
 2435              		.cfi_offset 14, -4
 2436 0008 0446     		mov	r4, r0
 2437              		.loc 1 1242 3 is_stmt 1 discriminator 2 view .LVU823
 2438 000a 0123     		movs	r3, #1
 2439 000c 0377     		strb	r3, [r0, #28]
 2440              		.loc 1 1242 3 discriminator 2 view .LVU824
1243:Libraries/STM32F4xx_HAL_Driver/Src/stm32f4xx_hal_rtc_ex.c **** 
1244:Libraries/STM32F4xx_HAL_Driver/Src/stm32f4xx_hal_rtc_ex.c ****   hrtc->State = HAL_RTC_STATE_BUSY;
 2441              		.loc 1 1244 3 discriminator 2 view .LVU825
ARM GAS  C:\Users\yzy\AppData\Local\Temp\ccuah9XY.s 			page 67


 2442              		.loc 1 1244 15 is_stmt 0 discriminator 2 view .LVU826
 2443 000e 0223     		movs	r3, #2
 2444 0010 4377     		strb	r3, [r0, #29]
1245:Libraries/STM32F4xx_HAL_Driver/Src/stm32f4xx_hal_rtc_ex.c **** 
1246:Libraries/STM32F4xx_HAL_Driver/Src/stm32f4xx_hal_rtc_ex.c ****   /* Disable the write protection for RTC registers */
1247:Libraries/STM32F4xx_HAL_Driver/Src/stm32f4xx_hal_rtc_ex.c ****   __HAL_RTC_WRITEPROTECTION_DISABLE(hrtc);
 2445              		.loc 1 1247 3 is_stmt 1 discriminator 2 view .LVU827
 2446              		.loc 1 1247 3 discriminator 2 view .LVU828
 2447 0012 0368     		ldr	r3, [r0]
 2448 0014 CA22     		movs	r2, #202
 2449 0016 5A62     		str	r2, [r3, #36]
 2450              		.loc 1 1247 3 discriminator 2 view .LVU829
 2451 0018 0368     		ldr	r3, [r0]
 2452 001a 5322     		movs	r2, #83
 2453 001c 5A62     		str	r2, [r3, #36]
 2454              		.loc 1 1247 3 discriminator 2 view .LVU830
1248:Libraries/STM32F4xx_HAL_Driver/Src/stm32f4xx_hal_rtc_ex.c **** 
1249:Libraries/STM32F4xx_HAL_Driver/Src/stm32f4xx_hal_rtc_ex.c ****   /* Set Initialization mode */
1250:Libraries/STM32F4xx_HAL_Driver/Src/stm32f4xx_hal_rtc_ex.c ****   if(RTC_EnterInitMode(hrtc) != HAL_OK)
 2455              		.loc 1 1250 3 discriminator 2 view .LVU831
 2456              		.loc 1 1250 6 is_stmt 0 discriminator 2 view .LVU832
 2457 001e FFF7FEFF 		bl	RTC_EnterInitMode
 2458              	.LVL144:
 2459              		.loc 1 1250 5 discriminator 2 view .LVU833
 2460 0022 88B9     		cbnz	r0, .L159
1251:Libraries/STM32F4xx_HAL_Driver/Src/stm32f4xx_hal_rtc_ex.c ****   {
1252:Libraries/STM32F4xx_HAL_Driver/Src/stm32f4xx_hal_rtc_ex.c ****     /* Enable the write protection for RTC registers */
1253:Libraries/STM32F4xx_HAL_Driver/Src/stm32f4xx_hal_rtc_ex.c ****     __HAL_RTC_WRITEPROTECTION_ENABLE(hrtc);
1254:Libraries/STM32F4xx_HAL_Driver/Src/stm32f4xx_hal_rtc_ex.c **** 
1255:Libraries/STM32F4xx_HAL_Driver/Src/stm32f4xx_hal_rtc_ex.c ****     /* Set RTC state*/
1256:Libraries/STM32F4xx_HAL_Driver/Src/stm32f4xx_hal_rtc_ex.c ****     hrtc->State = HAL_RTC_STATE_ERROR;
1257:Libraries/STM32F4xx_HAL_Driver/Src/stm32f4xx_hal_rtc_ex.c **** 
1258:Libraries/STM32F4xx_HAL_Driver/Src/stm32f4xx_hal_rtc_ex.c ****     /* Process Unlocked */
1259:Libraries/STM32F4xx_HAL_Driver/Src/stm32f4xx_hal_rtc_ex.c ****     __HAL_UNLOCK(hrtc);
1260:Libraries/STM32F4xx_HAL_Driver/Src/stm32f4xx_hal_rtc_ex.c **** 
1261:Libraries/STM32F4xx_HAL_Driver/Src/stm32f4xx_hal_rtc_ex.c ****     return HAL_ERROR;
1262:Libraries/STM32F4xx_HAL_Driver/Src/stm32f4xx_hal_rtc_ex.c ****   }
1263:Libraries/STM32F4xx_HAL_Driver/Src/stm32f4xx_hal_rtc_ex.c ****   else
1264:Libraries/STM32F4xx_HAL_Driver/Src/stm32f4xx_hal_rtc_ex.c ****   {
1265:Libraries/STM32F4xx_HAL_Driver/Src/stm32f4xx_hal_rtc_ex.c ****     /* Enable the Coarse Calibration */
1266:Libraries/STM32F4xx_HAL_Driver/Src/stm32f4xx_hal_rtc_ex.c ****     __HAL_RTC_COARSE_CALIB_DISABLE(hrtc);
 2461              		.loc 1 1266 5 is_stmt 1 view .LVU834
 2462 0024 2268     		ldr	r2, [r4]
 2463 0026 9368     		ldr	r3, [r2, #8]
 2464 0028 23F08003 		bic	r3, r3, #128
 2465 002c 9360     		str	r3, [r2, #8]
1267:Libraries/STM32F4xx_HAL_Driver/Src/stm32f4xx_hal_rtc_ex.c **** 
1268:Libraries/STM32F4xx_HAL_Driver/Src/stm32f4xx_hal_rtc_ex.c ****     /* Exit Initialization mode */
1269:Libraries/STM32F4xx_HAL_Driver/Src/stm32f4xx_hal_rtc_ex.c ****     hrtc->Instance->ISR &= (uint32_t)~RTC_ISR_INIT;
 2466              		.loc 1 1269 5 view .LVU835
 2467              		.loc 1 1269 9 is_stmt 0 view .LVU836
 2468 002e 2268     		ldr	r2, [r4]
 2469              		.loc 1 1269 25 view .LVU837
 2470 0030 D368     		ldr	r3, [r2, #12]
 2471 0032 23F08003 		bic	r3, r3, #128
 2472 0036 D360     		str	r3, [r2, #12]
1270:Libraries/STM32F4xx_HAL_Driver/Src/stm32f4xx_hal_rtc_ex.c ****   }
ARM GAS  C:\Users\yzy\AppData\Local\Temp\ccuah9XY.s 			page 68


1271:Libraries/STM32F4xx_HAL_Driver/Src/stm32f4xx_hal_rtc_ex.c **** 
1272:Libraries/STM32F4xx_HAL_Driver/Src/stm32f4xx_hal_rtc_ex.c ****   /* Enable the write protection for RTC registers */
1273:Libraries/STM32F4xx_HAL_Driver/Src/stm32f4xx_hal_rtc_ex.c ****   __HAL_RTC_WRITEPROTECTION_ENABLE(hrtc);
 2473              		.loc 1 1273 3 is_stmt 1 view .LVU838
 2474              		.loc 1 1273 3 view .LVU839
 2475 0038 2368     		ldr	r3, [r4]
 2476 003a FF22     		movs	r2, #255
 2477 003c 5A62     		str	r2, [r3, #36]
 2478              		.loc 1 1273 3 view .LVU840
1274:Libraries/STM32F4xx_HAL_Driver/Src/stm32f4xx_hal_rtc_ex.c **** 
1275:Libraries/STM32F4xx_HAL_Driver/Src/stm32f4xx_hal_rtc_ex.c ****   /* Change state */
1276:Libraries/STM32F4xx_HAL_Driver/Src/stm32f4xx_hal_rtc_ex.c ****   hrtc->State = HAL_RTC_STATE_READY;
 2479              		.loc 1 1276 3 view .LVU841
 2480              		.loc 1 1276 15 is_stmt 0 view .LVU842
 2481 003e 0123     		movs	r3, #1
 2482 0040 6377     		strb	r3, [r4, #29]
1277:Libraries/STM32F4xx_HAL_Driver/Src/stm32f4xx_hal_rtc_ex.c **** 
1278:Libraries/STM32F4xx_HAL_Driver/Src/stm32f4xx_hal_rtc_ex.c ****   /* Process Unlocked */
1279:Libraries/STM32F4xx_HAL_Driver/Src/stm32f4xx_hal_rtc_ex.c ****   __HAL_UNLOCK(hrtc);
 2483              		.loc 1 1279 3 is_stmt 1 view .LVU843
 2484              		.loc 1 1279 3 view .LVU844
