ARM GAS  C:\Users\yzy\AppData\Local\Temp\ccS9Kmk9.s 			page 1


   1              		.cpu cortex-m4
   2              		.eabi_attribute 20, 1
   3              		.eabi_attribute 21, 1
   4              		.eabi_attribute 23, 3
   5              		.eabi_attribute 24, 1
   6              		.eabi_attribute 25, 1
   7              		.eabi_attribute 26, 1
   8              		.eabi_attribute 30, 1
   9              		.eabi_attribute 34, 1
  10              		.eabi_attribute 18, 4
  11              		.file	"stm32f4xx_hal_dac.c"
  12              		.text
  13              	.Ltext0:
  14              		.cfi_sections	.debug_frame
  15              		.section	.text.HAL_DAC_MspInit,"ax",%progbits
  16              		.align	1
  17              		.weak	HAL_DAC_MspInit
  18              		.arch armv7e-m
  19              		.syntax unified
  20              		.thumb
  21              		.thumb_func
  22              		.fpu softvfp
  24              	HAL_DAC_MspInit:
  25              	.LVL0:
  26              	.LFB132:
  27              		.file 1 "Libraries/STM32F4xx_HAL_Driver/Src/stm32f4xx_hal_dac.c"
   1:Libraries/STM32F4xx_HAL_Driver/Src/stm32f4xx_hal_dac.c **** /**
   2:Libraries/STM32F4xx_HAL_Driver/Src/stm32f4xx_hal_dac.c ****   ******************************************************************************
   3:Libraries/STM32F4xx_HAL_Driver/Src/stm32f4xx_hal_dac.c ****   * @file    stm32f4xx_hal_dac.c
   4:Libraries/STM32F4xx_HAL_Driver/Src/stm32f4xx_hal_dac.c ****   * @author  MCD Application Team
   5:Libraries/STM32F4xx_HAL_Driver/Src/stm32f4xx_hal_dac.c ****   * @brief   DAC HAL module driver.
   6:Libraries/STM32F4xx_HAL_Driver/Src/stm32f4xx_hal_dac.c ****   *         This file provides firmware functions to manage the following 
   7:Libraries/STM32F4xx_HAL_Driver/Src/stm32f4xx_hal_dac.c ****   *         functionalities of the Digital to Analog Converter (DAC) peripheral:
   8:Libraries/STM32F4xx_HAL_Driver/Src/stm32f4xx_hal_dac.c ****   *           + Initialization and de-initialization functions
   9:Libraries/STM32F4xx_HAL_Driver/Src/stm32f4xx_hal_dac.c ****   *           + IO operation functions
  10:Libraries/STM32F4xx_HAL_Driver/Src/stm32f4xx_hal_dac.c ****   *           + Peripheral Control functions
  11:Libraries/STM32F4xx_HAL_Driver/Src/stm32f4xx_hal_dac.c ****   *           + Peripheral State and Errors functions      
  12:Libraries/STM32F4xx_HAL_Driver/Src/stm32f4xx_hal_dac.c ****   *     
  13:Libraries/STM32F4xx_HAL_Driver/Src/stm32f4xx_hal_dac.c ****   *
  14:Libraries/STM32F4xx_HAL_Driver/Src/stm32f4xx_hal_dac.c ****   @verbatim      
  15:Libraries/STM32F4xx_HAL_Driver/Src/stm32f4xx_hal_dac.c ****   ==============================================================================
  16:Libraries/STM32F4xx_HAL_Driver/Src/stm32f4xx_hal_dac.c ****                       ##### DAC Peripheral features #####
  17:Libraries/STM32F4xx_HAL_Driver/Src/stm32f4xx_hal_dac.c ****   ==============================================================================
  18:Libraries/STM32F4xx_HAL_Driver/Src/stm32f4xx_hal_dac.c ****     [..]        
  19:Libraries/STM32F4xx_HAL_Driver/Src/stm32f4xx_hal_dac.c ****       *** DAC Channels ***
  20:Libraries/STM32F4xx_HAL_Driver/Src/stm32f4xx_hal_dac.c ****       ====================  
  21:Libraries/STM32F4xx_HAL_Driver/Src/stm32f4xx_hal_dac.c ****     [..]
  22:Libraries/STM32F4xx_HAL_Driver/Src/stm32f4xx_hal_dac.c ****     The device integrates two 12-bit Digital Analog Converters that can 
  23:Libraries/STM32F4xx_HAL_Driver/Src/stm32f4xx_hal_dac.c ****     be used independently or simultaneously (dual mode):
  24:Libraries/STM32F4xx_HAL_Driver/Src/stm32f4xx_hal_dac.c ****       (#) DAC channel1 with DAC_OUT1 (PA4) as output
  25:Libraries/STM32F4xx_HAL_Driver/Src/stm32f4xx_hal_dac.c ****       (#) DAC channel2 with DAC_OUT2 (PA5) as output
  26:Libraries/STM32F4xx_HAL_Driver/Src/stm32f4xx_hal_dac.c ****       
  27:Libraries/STM32F4xx_HAL_Driver/Src/stm32f4xx_hal_dac.c ****       *** DAC Triggers ***
  28:Libraries/STM32F4xx_HAL_Driver/Src/stm32f4xx_hal_dac.c ****       ====================
  29:Libraries/STM32F4xx_HAL_Driver/Src/stm32f4xx_hal_dac.c ****     [..]
  30:Libraries/STM32F4xx_HAL_Driver/Src/stm32f4xx_hal_dac.c ****     Digital to Analog conversion can be non-triggered using DAC_TRIGGER_NONE
  31:Libraries/STM32F4xx_HAL_Driver/Src/stm32f4xx_hal_dac.c ****     and DAC_OUT1/DAC_OUT2 is available once writing to DHRx register. 
ARM GAS  C:\Users\yzy\AppData\Local\Temp\ccS9Kmk9.s 			page 2


  32:Libraries/STM32F4xx_HAL_Driver/Src/stm32f4xx_hal_dac.c ****     [..] 
  33:Libraries/STM32F4xx_HAL_Driver/Src/stm32f4xx_hal_dac.c ****     Digital to Analog conversion can be triggered by:
  34:Libraries/STM32F4xx_HAL_Driver/Src/stm32f4xx_hal_dac.c ****       (#) External event: EXTI Line 9 (any GPIOx_Pin9) using DAC_TRIGGER_EXT_IT9.
  35:Libraries/STM32F4xx_HAL_Driver/Src/stm32f4xx_hal_dac.c ****           The used pin (GPIOx_Pin9) must be configured in input mode.
  36:Libraries/STM32F4xx_HAL_Driver/Src/stm32f4xx_hal_dac.c ****   
  37:Libraries/STM32F4xx_HAL_Driver/Src/stm32f4xx_hal_dac.c ****       (#) Timers TRGO: TIM2, TIM4, TIM5, TIM6, TIM7 and TIM8 
  38:Libraries/STM32F4xx_HAL_Driver/Src/stm32f4xx_hal_dac.c ****           (DAC_TRIGGER_T2_TRGO, DAC_TRIGGER_T4_TRGO...)
  39:Libraries/STM32F4xx_HAL_Driver/Src/stm32f4xx_hal_dac.c ****   
  40:Libraries/STM32F4xx_HAL_Driver/Src/stm32f4xx_hal_dac.c ****       (#) Software using DAC_TRIGGER_SOFTWARE
  41:Libraries/STM32F4xx_HAL_Driver/Src/stm32f4xx_hal_dac.c ****   
  42:Libraries/STM32F4xx_HAL_Driver/Src/stm32f4xx_hal_dac.c ****       *** DAC Buffer mode feature ***
  43:Libraries/STM32F4xx_HAL_Driver/Src/stm32f4xx_hal_dac.c ****       =============================== 
  44:Libraries/STM32F4xx_HAL_Driver/Src/stm32f4xx_hal_dac.c ****       [..] 
  45:Libraries/STM32F4xx_HAL_Driver/Src/stm32f4xx_hal_dac.c ****       Each DAC channel integrates an output buffer that can be used to 
  46:Libraries/STM32F4xx_HAL_Driver/Src/stm32f4xx_hal_dac.c ****       reduce the output impedance, and to drive external loads directly
  47:Libraries/STM32F4xx_HAL_Driver/Src/stm32f4xx_hal_dac.c ****       without having to add an external operational amplifier.
  48:Libraries/STM32F4xx_HAL_Driver/Src/stm32f4xx_hal_dac.c ****       To enable, the output buffer use  
  49:Libraries/STM32F4xx_HAL_Driver/Src/stm32f4xx_hal_dac.c ****       sConfig.DAC_OutputBuffer = DAC_OUTPUTBUFFER_ENABLE;
  50:Libraries/STM32F4xx_HAL_Driver/Src/stm32f4xx_hal_dac.c ****       [..]           
  51:Libraries/STM32F4xx_HAL_Driver/Src/stm32f4xx_hal_dac.c ****       (@) Refer to the device datasheet for more details about output 
  52:Libraries/STM32F4xx_HAL_Driver/Src/stm32f4xx_hal_dac.c ****           impedance value with and without output buffer.
  53:Libraries/STM32F4xx_HAL_Driver/Src/stm32f4xx_hal_dac.c ****             
  54:Libraries/STM32F4xx_HAL_Driver/Src/stm32f4xx_hal_dac.c ****        *** DAC wave generation feature ***
  55:Libraries/STM32F4xx_HAL_Driver/Src/stm32f4xx_hal_dac.c ****        =================================== 
  56:Libraries/STM32F4xx_HAL_Driver/Src/stm32f4xx_hal_dac.c ****        [..]     
  57:Libraries/STM32F4xx_HAL_Driver/Src/stm32f4xx_hal_dac.c ****        Both DAC channels can be used to generate
  58:Libraries/STM32F4xx_HAL_Driver/Src/stm32f4xx_hal_dac.c ****          (#) Noise wave 
  59:Libraries/STM32F4xx_HAL_Driver/Src/stm32f4xx_hal_dac.c ****          (#) Triangle wave
  60:Libraries/STM32F4xx_HAL_Driver/Src/stm32f4xx_hal_dac.c ****             
  61:Libraries/STM32F4xx_HAL_Driver/Src/stm32f4xx_hal_dac.c ****        *** DAC data format ***
  62:Libraries/STM32F4xx_HAL_Driver/Src/stm32f4xx_hal_dac.c ****        =======================
  63:Libraries/STM32F4xx_HAL_Driver/Src/stm32f4xx_hal_dac.c ****        [..]   
  64:Libraries/STM32F4xx_HAL_Driver/Src/stm32f4xx_hal_dac.c ****        The DAC data format can be:
  65:Libraries/STM32F4xx_HAL_Driver/Src/stm32f4xx_hal_dac.c ****          (#) 8-bit right alignment using DAC_ALIGN_8B_R
  66:Libraries/STM32F4xx_HAL_Driver/Src/stm32f4xx_hal_dac.c ****          (#) 12-bit left alignment using DAC_ALIGN_12B_L
  67:Libraries/STM32F4xx_HAL_Driver/Src/stm32f4xx_hal_dac.c ****          (#) 12-bit right alignment using DAC_ALIGN_12B_R
  68:Libraries/STM32F4xx_HAL_Driver/Src/stm32f4xx_hal_dac.c ****   
  69:Libraries/STM32F4xx_HAL_Driver/Src/stm32f4xx_hal_dac.c ****        *** DAC data value to voltage correspondence ***  
  70:Libraries/STM32F4xx_HAL_Driver/Src/stm32f4xx_hal_dac.c ****        ================================================ 
  71:Libraries/STM32F4xx_HAL_Driver/Src/stm32f4xx_hal_dac.c ****        [..] 
  72:Libraries/STM32F4xx_HAL_Driver/Src/stm32f4xx_hal_dac.c ****        The analog output voltage on each DAC channel pin is determined
  73:Libraries/STM32F4xx_HAL_Driver/Src/stm32f4xx_hal_dac.c ****        by the following equation: 
  74:Libraries/STM32F4xx_HAL_Driver/Src/stm32f4xx_hal_dac.c ****        DAC_OUTx = VREF+ * DOR / 4095
  75:Libraries/STM32F4xx_HAL_Driver/Src/stm32f4xx_hal_dac.c ****        with  DOR is the Data Output Register
  76:Libraries/STM32F4xx_HAL_Driver/Src/stm32f4xx_hal_dac.c ****           VEF+ is the input voltage reference (refer to the device datasheet)
  77:Libraries/STM32F4xx_HAL_Driver/Src/stm32f4xx_hal_dac.c ****         e.g. To set DAC_OUT1 to 0.7V, use
  78:Libraries/STM32F4xx_HAL_Driver/Src/stm32f4xx_hal_dac.c ****           Assuming that VREF+ = 3.3V, DAC_OUT1 = (3.3 * 868) / 4095 = 0.7V
  79:Libraries/STM32F4xx_HAL_Driver/Src/stm32f4xx_hal_dac.c ****   
  80:Libraries/STM32F4xx_HAL_Driver/Src/stm32f4xx_hal_dac.c ****        *** DMA requests  ***
  81:Libraries/STM32F4xx_HAL_Driver/Src/stm32f4xx_hal_dac.c ****        =====================
  82:Libraries/STM32F4xx_HAL_Driver/Src/stm32f4xx_hal_dac.c ****        [..]    
  83:Libraries/STM32F4xx_HAL_Driver/Src/stm32f4xx_hal_dac.c ****        A DMA1 request can be generated when an external trigger (but not
  84:Libraries/STM32F4xx_HAL_Driver/Src/stm32f4xx_hal_dac.c ****        a software trigger) occurs if DMA1 requests are enabled using
  85:Libraries/STM32F4xx_HAL_Driver/Src/stm32f4xx_hal_dac.c ****        HAL_DAC_Start_DMA()
  86:Libraries/STM32F4xx_HAL_Driver/Src/stm32f4xx_hal_dac.c ****        [..]
  87:Libraries/STM32F4xx_HAL_Driver/Src/stm32f4xx_hal_dac.c ****        DMA1 requests are mapped as following:
  88:Libraries/STM32F4xx_HAL_Driver/Src/stm32f4xx_hal_dac.c ****          (#) DAC channel1 : mapped on DMA1 Stream5 channel7 which must be 
ARM GAS  C:\Users\yzy\AppData\Local\Temp\ccS9Kmk9.s 			page 3


  89:Libraries/STM32F4xx_HAL_Driver/Src/stm32f4xx_hal_dac.c ****              already configured
  90:Libraries/STM32F4xx_HAL_Driver/Src/stm32f4xx_hal_dac.c ****          (#) DAC channel2 : mapped on DMA1 Stream6 channel7 which must be 
  91:Libraries/STM32F4xx_HAL_Driver/Src/stm32f4xx_hal_dac.c ****              already configured
  92:Libraries/STM32F4xx_HAL_Driver/Src/stm32f4xx_hal_dac.c ****        
  93:Libraries/STM32F4xx_HAL_Driver/Src/stm32f4xx_hal_dac.c ****     -@- For Dual mode and specific signal (Triangle and noise) generation please 
  94:Libraries/STM32F4xx_HAL_Driver/Src/stm32f4xx_hal_dac.c ****         refer to Extension Features Driver description        
  95:Libraries/STM32F4xx_HAL_Driver/Src/stm32f4xx_hal_dac.c ****   
  96:Libraries/STM32F4xx_HAL_Driver/Src/stm32f4xx_hal_dac.c ****       
  97:Libraries/STM32F4xx_HAL_Driver/Src/stm32f4xx_hal_dac.c ****                       ##### How to use this driver #####
  98:Libraries/STM32F4xx_HAL_Driver/Src/stm32f4xx_hal_dac.c ****   ==============================================================================
  99:Libraries/STM32F4xx_HAL_Driver/Src/stm32f4xx_hal_dac.c ****     [..]          
 100:Libraries/STM32F4xx_HAL_Driver/Src/stm32f4xx_hal_dac.c ****       (+) DAC APB clock must be enabled to get write access to DAC
 101:Libraries/STM32F4xx_HAL_Driver/Src/stm32f4xx_hal_dac.c ****           registers using HAL_DAC_Init()
 102:Libraries/STM32F4xx_HAL_Driver/Src/stm32f4xx_hal_dac.c ****       (+) Configure DAC_OUTx (DAC_OUT1: PA4, DAC_OUT2: PA5) in analog mode.
 103:Libraries/STM32F4xx_HAL_Driver/Src/stm32f4xx_hal_dac.c ****       (+) Configure the DAC channel using HAL_DAC_ConfigChannel() function.
 104:Libraries/STM32F4xx_HAL_Driver/Src/stm32f4xx_hal_dac.c ****       (+) Enable the DAC channel using HAL_DAC_Start() or HAL_DAC_Start_DMA functions
 105:Libraries/STM32F4xx_HAL_Driver/Src/stm32f4xx_hal_dac.c **** 
 106:Libraries/STM32F4xx_HAL_Driver/Src/stm32f4xx_hal_dac.c ****      *** Polling mode IO operation ***
 107:Libraries/STM32F4xx_HAL_Driver/Src/stm32f4xx_hal_dac.c ****      =================================
 108:Libraries/STM32F4xx_HAL_Driver/Src/stm32f4xx_hal_dac.c ****      [..]    
 109:Libraries/STM32F4xx_HAL_Driver/Src/stm32f4xx_hal_dac.c ****        (+) Start the DAC peripheral using HAL_DAC_Start() 
 110:Libraries/STM32F4xx_HAL_Driver/Src/stm32f4xx_hal_dac.c ****        (+) To read the DAC last data output value, use the HAL_DAC_GetValue() function.
 111:Libraries/STM32F4xx_HAL_Driver/Src/stm32f4xx_hal_dac.c ****        (+) Stop the DAC peripheral using HAL_DAC_Stop()
 112:Libraries/STM32F4xx_HAL_Driver/Src/stm32f4xx_hal_dac.c ****        
 113:Libraries/STM32F4xx_HAL_Driver/Src/stm32f4xx_hal_dac.c ****      *** DMA mode IO operation ***    
 114:Libraries/STM32F4xx_HAL_Driver/Src/stm32f4xx_hal_dac.c ****      ==============================
 115:Libraries/STM32F4xx_HAL_Driver/Src/stm32f4xx_hal_dac.c ****      [..]    
 116:Libraries/STM32F4xx_HAL_Driver/Src/stm32f4xx_hal_dac.c ****        (+) Start the DAC peripheral using HAL_DAC_Start_DMA(), at this stage the user specify the l
 117:Libraries/STM32F4xx_HAL_Driver/Src/stm32f4xx_hal_dac.c ****            of data to be transferred at each end of conversion 
 118:Libraries/STM32F4xx_HAL_Driver/Src/stm32f4xx_hal_dac.c ****        (+) At The end of data transfer HAL_DAC_ConvCpltCallbackCh1()or HAL_DAC_ConvCpltCallbackCh2(
 119:Libraries/STM32F4xx_HAL_Driver/Src/stm32f4xx_hal_dac.c ****            function is executed and user can add his own code by customization of function pointer 
 120:Libraries/STM32F4xx_HAL_Driver/Src/stm32f4xx_hal_dac.c ****            HAL_DAC_ConvCpltCallbackCh1 or HAL_DAC_ConvCpltCallbackCh2
 121:Libraries/STM32F4xx_HAL_Driver/Src/stm32f4xx_hal_dac.c ****        (+) In case of transfer Error, HAL_DAC_ErrorCallbackCh1() function is executed and user can 
 122:Libraries/STM32F4xx_HAL_Driver/Src/stm32f4xx_hal_dac.c ****             add his own code by customization of function pointer HAL_DAC_ErrorCallbackCh1
 123:Libraries/STM32F4xx_HAL_Driver/Src/stm32f4xx_hal_dac.c ****        (+) Stop the DAC peripheral using HAL_DAC_Stop_DMA()
 124:Libraries/STM32F4xx_HAL_Driver/Src/stm32f4xx_hal_dac.c ****                     
 125:Libraries/STM32F4xx_HAL_Driver/Src/stm32f4xx_hal_dac.c ****     *** Callback registration ***
 126:Libraries/STM32F4xx_HAL_Driver/Src/stm32f4xx_hal_dac.c ****     =============================================
 127:Libraries/STM32F4xx_HAL_Driver/Src/stm32f4xx_hal_dac.c ****     [..]
 128:Libraries/STM32F4xx_HAL_Driver/Src/stm32f4xx_hal_dac.c ****       The compilation define  USE_HAL_DAC_REGISTER_CALLBACKS when set to 1
 129:Libraries/STM32F4xx_HAL_Driver/Src/stm32f4xx_hal_dac.c ****       allows the user to configure dynamically the driver callbacks.
 130:Libraries/STM32F4xx_HAL_Driver/Src/stm32f4xx_hal_dac.c **** 
 131:Libraries/STM32F4xx_HAL_Driver/Src/stm32f4xx_hal_dac.c ****     Use Functions @ref HAL_DAC_RegisterCallback() to register a user callback,
 132:Libraries/STM32F4xx_HAL_Driver/Src/stm32f4xx_hal_dac.c ****       it allows to register following callbacks:
 133:Libraries/STM32F4xx_HAL_Driver/Src/stm32f4xx_hal_dac.c ****       (+) ConvCpltCallbackCh1     : callback when a half transfer is completed on Ch1.
 134:Libraries/STM32F4xx_HAL_Driver/Src/stm32f4xx_hal_dac.c ****       (+) ConvHalfCpltCallbackCh1 : callback when a transfer is completed on Ch1.
 135:Libraries/STM32F4xx_HAL_Driver/Src/stm32f4xx_hal_dac.c ****       (+) ErrorCallbackCh1        : callback when an error occurs on Ch1.
 136:Libraries/STM32F4xx_HAL_Driver/Src/stm32f4xx_hal_dac.c ****       (+) DMAUnderrunCallbackCh1  : callback when an underrun error occurs on Ch1.
 137:Libraries/STM32F4xx_HAL_Driver/Src/stm32f4xx_hal_dac.c ****       (+) ConvCpltCallbackCh2     : callback when a half transfer is completed on Ch2.
 138:Libraries/STM32F4xx_HAL_Driver/Src/stm32f4xx_hal_dac.c ****       (+) ConvHalfCpltCallbackCh2 : callback when a transfer is completed on Ch2.
 139:Libraries/STM32F4xx_HAL_Driver/Src/stm32f4xx_hal_dac.c ****       (+) ErrorCallbackCh2        : callback when an error occurs on Ch2.
 140:Libraries/STM32F4xx_HAL_Driver/Src/stm32f4xx_hal_dac.c ****       (+) DMAUnderrunCallbackCh2  : callback when an underrun error occurs on Ch2.
 141:Libraries/STM32F4xx_HAL_Driver/Src/stm32f4xx_hal_dac.c ****       (+) MspInitCallback         : DAC MspInit.
 142:Libraries/STM32F4xx_HAL_Driver/Src/stm32f4xx_hal_dac.c ****       (+) MspDeInitCallback       : DAC MspdeInit.
 143:Libraries/STM32F4xx_HAL_Driver/Src/stm32f4xx_hal_dac.c ****       This function takes as parameters the HAL peripheral handle, the Callback ID
 144:Libraries/STM32F4xx_HAL_Driver/Src/stm32f4xx_hal_dac.c ****       and a pointer to the user callback function.
 145:Libraries/STM32F4xx_HAL_Driver/Src/stm32f4xx_hal_dac.c **** 
ARM GAS  C:\Users\yzy\AppData\Local\Temp\ccS9Kmk9.s 			page 4


 146:Libraries/STM32F4xx_HAL_Driver/Src/stm32f4xx_hal_dac.c ****     Use function @ref HAL_DAC_UnRegisterCallback() to reset a callback to the default
 147:Libraries/STM32F4xx_HAL_Driver/Src/stm32f4xx_hal_dac.c ****       weak (surcharged) function. It allows to reset following callbacks:
 148:Libraries/STM32F4xx_HAL_Driver/Src/stm32f4xx_hal_dac.c ****       (+) ConvCpltCallbackCh1     : callback when a half transfer is completed on Ch1.
 149:Libraries/STM32F4xx_HAL_Driver/Src/stm32f4xx_hal_dac.c ****       (+) ConvHalfCpltCallbackCh1 : callback when a transfer is completed on Ch1.
 150:Libraries/STM32F4xx_HAL_Driver/Src/stm32f4xx_hal_dac.c ****       (+) ErrorCallbackCh1        : callback when an error occurs on Ch1.
 151:Libraries/STM32F4xx_HAL_Driver/Src/stm32f4xx_hal_dac.c ****       (+) DMAUnderrunCallbackCh1  : callback when an underrun error occurs on Ch1.
 152:Libraries/STM32F4xx_HAL_Driver/Src/stm32f4xx_hal_dac.c ****       (+) ConvCpltCallbackCh2     : callback when a half transfer is completed on Ch2.
 153:Libraries/STM32F4xx_HAL_Driver/Src/stm32f4xx_hal_dac.c ****       (+) ConvHalfCpltCallbackCh2 : callback when a transfer is completed on Ch2.
 154:Libraries/STM32F4xx_HAL_Driver/Src/stm32f4xx_hal_dac.c ****       (+) ErrorCallbackCh2        : callback when an error occurs on Ch2.
 155:Libraries/STM32F4xx_HAL_Driver/Src/stm32f4xx_hal_dac.c ****       (+) DMAUnderrunCallbackCh2  : callback when an underrun error occurs on Ch2.
 156:Libraries/STM32F4xx_HAL_Driver/Src/stm32f4xx_hal_dac.c ****       (+) MspInitCallback         : DAC MspInit.
 157:Libraries/STM32F4xx_HAL_Driver/Src/stm32f4xx_hal_dac.c ****       (+) MspDeInitCallback       : DAC MspdeInit.
 158:Libraries/STM32F4xx_HAL_Driver/Src/stm32f4xx_hal_dac.c ****       (+) All Callbacks
 159:Libraries/STM32F4xx_HAL_Driver/Src/stm32f4xx_hal_dac.c ****       This function) takes as parameters the HAL peripheral handle and the Callback ID.
 160:Libraries/STM32F4xx_HAL_Driver/Src/stm32f4xx_hal_dac.c **** 
 161:Libraries/STM32F4xx_HAL_Driver/Src/stm32f4xx_hal_dac.c ****       By default, after the @ref HAL_DAC_Init and if the state is HAL_DAC_STATE_RESET
 162:Libraries/STM32F4xx_HAL_Driver/Src/stm32f4xx_hal_dac.c ****       all callbacks are reset to the corresponding legacy weak (surcharged) functions.
 163:Libraries/STM32F4xx_HAL_Driver/Src/stm32f4xx_hal_dac.c ****       Exception done for MspInit and MspDeInit callbacks that are respectively
 164:Libraries/STM32F4xx_HAL_Driver/Src/stm32f4xx_hal_dac.c ****       reset to the legacy weak (surcharged) functions in the @ref HAL_DAC_Init
 165:Libraries/STM32F4xx_HAL_Driver/Src/stm32f4xx_hal_dac.c ****       and @ref  HAL_DAC_DeInit only when these callbacks are null (not registered beforehand).
 166:Libraries/STM32F4xx_HAL_Driver/Src/stm32f4xx_hal_dac.c ****       If not, MspInit or MspDeInit are not null, the @ref HAL_DAC_Init and @ref HAL_DAC_DeInit
 167:Libraries/STM32F4xx_HAL_Driver/Src/stm32f4xx_hal_dac.c ****       keep and use the user MspInit/MspDeInit callbacks (registered beforehand)
 168:Libraries/STM32F4xx_HAL_Driver/Src/stm32f4xx_hal_dac.c **** 
 169:Libraries/STM32F4xx_HAL_Driver/Src/stm32f4xx_hal_dac.c ****       Callbacks can be registered/unregistered in READY state only.
 170:Libraries/STM32F4xx_HAL_Driver/Src/stm32f4xx_hal_dac.c ****       Exception done for MspInit/MspDeInit callbacks that can be registered/unregistered
 171:Libraries/STM32F4xx_HAL_Driver/Src/stm32f4xx_hal_dac.c ****       in READY or RESET state, thus registered (user) MspInit/DeInit callbacks can be used
 172:Libraries/STM32F4xx_HAL_Driver/Src/stm32f4xx_hal_dac.c ****       during the Init/DeInit.
 173:Libraries/STM32F4xx_HAL_Driver/Src/stm32f4xx_hal_dac.c ****       In that case first register the MspInit/MspDeInit user callbacks
 174:Libraries/STM32F4xx_HAL_Driver/Src/stm32f4xx_hal_dac.c ****       using @ref HAL_DAC_RegisterCallback before calling @ref HAL_DAC_DeInit
 175:Libraries/STM32F4xx_HAL_Driver/Src/stm32f4xx_hal_dac.c ****       or @ref HAL_DAC_Init function.
 176:Libraries/STM32F4xx_HAL_Driver/Src/stm32f4xx_hal_dac.c **** 
 177:Libraries/STM32F4xx_HAL_Driver/Src/stm32f4xx_hal_dac.c ****       When The compilation define USE_HAL_DAC_REGISTER_CALLBACKS is set to 0 or
 178:Libraries/STM32F4xx_HAL_Driver/Src/stm32f4xx_hal_dac.c ****       not defined, the callback registering feature is not available
 179:Libraries/STM32F4xx_HAL_Driver/Src/stm32f4xx_hal_dac.c ****       and weak (surcharged) callbacks are used.
 180:Libraries/STM32F4xx_HAL_Driver/Src/stm32f4xx_hal_dac.c ****      *** DAC HAL driver macros list ***
 181:Libraries/STM32F4xx_HAL_Driver/Src/stm32f4xx_hal_dac.c ****      ============================================= 
 182:Libraries/STM32F4xx_HAL_Driver/Src/stm32f4xx_hal_dac.c ****      [..]
 183:Libraries/STM32F4xx_HAL_Driver/Src/stm32f4xx_hal_dac.c ****        Below the list of most used macros in DAC HAL driver.
 184:Libraries/STM32F4xx_HAL_Driver/Src/stm32f4xx_hal_dac.c ****        
 185:Libraries/STM32F4xx_HAL_Driver/Src/stm32f4xx_hal_dac.c ****       (+) __HAL_DAC_ENABLE : Enable the DAC peripheral
 186:Libraries/STM32F4xx_HAL_Driver/Src/stm32f4xx_hal_dac.c ****       (+) __HAL_DAC_DISABLE : Disable the DAC peripheral
 187:Libraries/STM32F4xx_HAL_Driver/Src/stm32f4xx_hal_dac.c ****       (+) __HAL_DAC_CLEAR_FLAG: Clear the DAC's pending flags
 188:Libraries/STM32F4xx_HAL_Driver/Src/stm32f4xx_hal_dac.c ****       (+) __HAL_DAC_GET_FLAG: Get the selected DAC's flag status
 189:Libraries/STM32F4xx_HAL_Driver/Src/stm32f4xx_hal_dac.c ****       
 190:Libraries/STM32F4xx_HAL_Driver/Src/stm32f4xx_hal_dac.c ****      [..]
 191:Libraries/STM32F4xx_HAL_Driver/Src/stm32f4xx_hal_dac.c ****       (@) You can refer to the DAC HAL driver header file for more useful macros  
 192:Libraries/STM32F4xx_HAL_Driver/Src/stm32f4xx_hal_dac.c ****    
 193:Libraries/STM32F4xx_HAL_Driver/Src/stm32f4xx_hal_dac.c ****  @endverbatim    
 194:Libraries/STM32F4xx_HAL_Driver/Src/stm32f4xx_hal_dac.c ****   ******************************************************************************
 195:Libraries/STM32F4xx_HAL_Driver/Src/stm32f4xx_hal_dac.c ****   * @attention
 196:Libraries/STM32F4xx_HAL_Driver/Src/stm32f4xx_hal_dac.c ****   *
 197:Libraries/STM32F4xx_HAL_Driver/Src/stm32f4xx_hal_dac.c ****   * <h2><center>&copy; Copyright (c) 2017 STMicroelectronics.
 198:Libraries/STM32F4xx_HAL_Driver/Src/stm32f4xx_hal_dac.c ****   * All rights reserved.</center></h2>
 199:Libraries/STM32F4xx_HAL_Driver/Src/stm32f4xx_hal_dac.c ****   *
 200:Libraries/STM32F4xx_HAL_Driver/Src/stm32f4xx_hal_dac.c ****   * This software component is licensed by ST under BSD 3-Clause license,
 201:Libraries/STM32F4xx_HAL_Driver/Src/stm32f4xx_hal_dac.c ****   * the "License"; You may not use this file except in compliance with the
 202:Libraries/STM32F4xx_HAL_Driver/Src/stm32f4xx_hal_dac.c ****   * License. You may obtain a copy of the License at:
ARM GAS  C:\Users\yzy\AppData\Local\Temp\ccS9Kmk9.s 			page 5


 203:Libraries/STM32F4xx_HAL_Driver/Src/stm32f4xx_hal_dac.c ****   *                        opensource.org/licenses/BSD-3-Clause
 204:Libraries/STM32F4xx_HAL_Driver/Src/stm32f4xx_hal_dac.c ****   *
 205:Libraries/STM32F4xx_HAL_Driver/Src/stm32f4xx_hal_dac.c ****   ******************************************************************************
 206:Libraries/STM32F4xx_HAL_Driver/Src/stm32f4xx_hal_dac.c ****   */ 
 207:Libraries/STM32F4xx_HAL_Driver/Src/stm32f4xx_hal_dac.c **** 
 208:Libraries/STM32F4xx_HAL_Driver/Src/stm32f4xx_hal_dac.c **** 
 209:Libraries/STM32F4xx_HAL_Driver/Src/stm32f4xx_hal_dac.c **** /* Includes ------------------------------------------------------------------*/
 210:Libraries/STM32F4xx_HAL_Driver/Src/stm32f4xx_hal_dac.c **** #include "stm32f4xx_hal.h"
 211:Libraries/STM32F4xx_HAL_Driver/Src/stm32f4xx_hal_dac.c **** 
 212:Libraries/STM32F4xx_HAL_Driver/Src/stm32f4xx_hal_dac.c **** /** @addtogroup STM32F4xx_HAL_Driver
 213:Libraries/STM32F4xx_HAL_Driver/Src/stm32f4xx_hal_dac.c ****   * @{
 214:Libraries/STM32F4xx_HAL_Driver/Src/stm32f4xx_hal_dac.c ****   */
 215:Libraries/STM32F4xx_HAL_Driver/Src/stm32f4xx_hal_dac.c **** 
 216:Libraries/STM32F4xx_HAL_Driver/Src/stm32f4xx_hal_dac.c **** /** @defgroup DAC DAC
 217:Libraries/STM32F4xx_HAL_Driver/Src/stm32f4xx_hal_dac.c ****   * @brief DAC driver modules
 218:Libraries/STM32F4xx_HAL_Driver/Src/stm32f4xx_hal_dac.c ****   * @{
 219:Libraries/STM32F4xx_HAL_Driver/Src/stm32f4xx_hal_dac.c ****   */ 
 220:Libraries/STM32F4xx_HAL_Driver/Src/stm32f4xx_hal_dac.c **** 
 221:Libraries/STM32F4xx_HAL_Driver/Src/stm32f4xx_hal_dac.c **** #ifdef HAL_DAC_MODULE_ENABLED
 222:Libraries/STM32F4xx_HAL_Driver/Src/stm32f4xx_hal_dac.c **** 
 223:Libraries/STM32F4xx_HAL_Driver/Src/stm32f4xx_hal_dac.c **** #if defined(STM32F405xx) || defined(STM32F415xx) || defined(STM32F407xx) || defined(STM32F417xx) ||
 224:Libraries/STM32F4xx_HAL_Driver/Src/stm32f4xx_hal_dac.c ****     defined(STM32F427xx) || defined(STM32F437xx) || defined(STM32F429xx) || defined(STM32F439xx) ||
 225:Libraries/STM32F4xx_HAL_Driver/Src/stm32f4xx_hal_dac.c ****     defined(STM32F410Tx) || defined(STM32F410Cx) || defined(STM32F410Rx) || defined(STM32F446xx) ||
 226:Libraries/STM32F4xx_HAL_Driver/Src/stm32f4xx_hal_dac.c ****     defined(STM32F469xx) || defined(STM32F479xx) || defined(STM32F413xx) || defined(STM32F423xx)
 227:Libraries/STM32F4xx_HAL_Driver/Src/stm32f4xx_hal_dac.c **** /* Private typedef -----------------------------------------------------------*/
 228:Libraries/STM32F4xx_HAL_Driver/Src/stm32f4xx_hal_dac.c **** /* Private define ------------------------------------------------------------*/
 229:Libraries/STM32F4xx_HAL_Driver/Src/stm32f4xx_hal_dac.c **** /* Private macro -------------------------------------------------------------*/
 230:Libraries/STM32F4xx_HAL_Driver/Src/stm32f4xx_hal_dac.c **** /* Private variables ---------------------------------------------------------*/
 231:Libraries/STM32F4xx_HAL_Driver/Src/stm32f4xx_hal_dac.c **** /** @addtogroup DAC_Private_Functions
 232:Libraries/STM32F4xx_HAL_Driver/Src/stm32f4xx_hal_dac.c ****   * @{
 233:Libraries/STM32F4xx_HAL_Driver/Src/stm32f4xx_hal_dac.c ****   */
 234:Libraries/STM32F4xx_HAL_Driver/Src/stm32f4xx_hal_dac.c **** /* Private function prototypes -----------------------------------------------*/
 235:Libraries/STM32F4xx_HAL_Driver/Src/stm32f4xx_hal_dac.c **** static void DAC_DMAConvCpltCh1(DMA_HandleTypeDef *hdma);
 236:Libraries/STM32F4xx_HAL_Driver/Src/stm32f4xx_hal_dac.c **** static void DAC_DMAErrorCh1(DMA_HandleTypeDef *hdma);
 237:Libraries/STM32F4xx_HAL_Driver/Src/stm32f4xx_hal_dac.c **** static void DAC_DMAHalfConvCpltCh1(DMA_HandleTypeDef *hdma); 
 238:Libraries/STM32F4xx_HAL_Driver/Src/stm32f4xx_hal_dac.c **** /**
 239:Libraries/STM32F4xx_HAL_Driver/Src/stm32f4xx_hal_dac.c ****   * @}
 240:Libraries/STM32F4xx_HAL_Driver/Src/stm32f4xx_hal_dac.c ****   */
 241:Libraries/STM32F4xx_HAL_Driver/Src/stm32f4xx_hal_dac.c **** 
 242:Libraries/STM32F4xx_HAL_Driver/Src/stm32f4xx_hal_dac.c **** /* Exported functions --------------------------------------------------------*/
 243:Libraries/STM32F4xx_HAL_Driver/Src/stm32f4xx_hal_dac.c **** /** @defgroup DAC_Exported_Functions DAC Exported Functions
 244:Libraries/STM32F4xx_HAL_Driver/Src/stm32f4xx_hal_dac.c ****   * @{
 245:Libraries/STM32F4xx_HAL_Driver/Src/stm32f4xx_hal_dac.c ****   */
 246:Libraries/STM32F4xx_HAL_Driver/Src/stm32f4xx_hal_dac.c **** 
 247:Libraries/STM32F4xx_HAL_Driver/Src/stm32f4xx_hal_dac.c **** /** @defgroup DAC_Exported_Functions_Group1 Initialization and de-initialization functions 
 248:Libraries/STM32F4xx_HAL_Driver/Src/stm32f4xx_hal_dac.c ****  *  @brief    Initialization and Configuration functions 
 249:Libraries/STM32F4xx_HAL_Driver/Src/stm32f4xx_hal_dac.c ****  *
 250:Libraries/STM32F4xx_HAL_Driver/Src/stm32f4xx_hal_dac.c **** @verbatim    
 251:Libraries/STM32F4xx_HAL_Driver/Src/stm32f4xx_hal_dac.c ****   ==============================================================================
 252:Libraries/STM32F4xx_HAL_Driver/Src/stm32f4xx_hal_dac.c ****               ##### Initialization and de-initialization functions #####
 253:Libraries/STM32F4xx_HAL_Driver/Src/stm32f4xx_hal_dac.c ****   ==============================================================================
 254:Libraries/STM32F4xx_HAL_Driver/Src/stm32f4xx_hal_dac.c ****     [..]  This section provides functions allowing to:
 255:Libraries/STM32F4xx_HAL_Driver/Src/stm32f4xx_hal_dac.c ****       (+) Initialize and configure the DAC. 
 256:Libraries/STM32F4xx_HAL_Driver/Src/stm32f4xx_hal_dac.c ****       (+) De-initialize the DAC. 
 257:Libraries/STM32F4xx_HAL_Driver/Src/stm32f4xx_hal_dac.c ****          
 258:Libraries/STM32F4xx_HAL_Driver/Src/stm32f4xx_hal_dac.c **** @endverbatim
 259:Libraries/STM32F4xx_HAL_Driver/Src/stm32f4xx_hal_dac.c ****   * @{
ARM GAS  C:\Users\yzy\AppData\Local\Temp\ccS9Kmk9.s 			page 6


 260:Libraries/STM32F4xx_HAL_Driver/Src/stm32f4xx_hal_dac.c ****   */
 261:Libraries/STM32F4xx_HAL_Driver/Src/stm32f4xx_hal_dac.c **** 
 262:Libraries/STM32F4xx_HAL_Driver/Src/stm32f4xx_hal_dac.c **** /**
 263:Libraries/STM32F4xx_HAL_Driver/Src/stm32f4xx_hal_dac.c ****   * @brief  Initializes the DAC peripheral according to the specified parameters
 264:Libraries/STM32F4xx_HAL_Driver/Src/stm32f4xx_hal_dac.c ****   *         in the DAC_InitStruct.
 265:Libraries/STM32F4xx_HAL_Driver/Src/stm32f4xx_hal_dac.c ****   * @param  hdac pointer to a DAC_HandleTypeDef structure that contains
 266:Libraries/STM32F4xx_HAL_Driver/Src/stm32f4xx_hal_dac.c ****   *         the configuration information for the specified DAC.
 267:Libraries/STM32F4xx_HAL_Driver/Src/stm32f4xx_hal_dac.c ****   * @retval HAL status
 268:Libraries/STM32F4xx_HAL_Driver/Src/stm32f4xx_hal_dac.c ****   */
 269:Libraries/STM32F4xx_HAL_Driver/Src/stm32f4xx_hal_dac.c **** HAL_StatusTypeDef HAL_DAC_Init(DAC_HandleTypeDef* hdac)
 270:Libraries/STM32F4xx_HAL_Driver/Src/stm32f4xx_hal_dac.c **** { 
 271:Libraries/STM32F4xx_HAL_Driver/Src/stm32f4xx_hal_dac.c ****   /* Check DAC handle */
 272:Libraries/STM32F4xx_HAL_Driver/Src/stm32f4xx_hal_dac.c ****   if(hdac == NULL)
 273:Libraries/STM32F4xx_HAL_Driver/Src/stm32f4xx_hal_dac.c ****   {
 274:Libraries/STM32F4xx_HAL_Driver/Src/stm32f4xx_hal_dac.c ****      return HAL_ERROR;
 275:Libraries/STM32F4xx_HAL_Driver/Src/stm32f4xx_hal_dac.c ****   }
 276:Libraries/STM32F4xx_HAL_Driver/Src/stm32f4xx_hal_dac.c ****   /* Check the parameters */
 277:Libraries/STM32F4xx_HAL_Driver/Src/stm32f4xx_hal_dac.c ****   assert_param(IS_DAC_ALL_INSTANCE(hdac->Instance));
 278:Libraries/STM32F4xx_HAL_Driver/Src/stm32f4xx_hal_dac.c ****   
 279:Libraries/STM32F4xx_HAL_Driver/Src/stm32f4xx_hal_dac.c ****   if(hdac->State == HAL_DAC_STATE_RESET)
 280:Libraries/STM32F4xx_HAL_Driver/Src/stm32f4xx_hal_dac.c ****   {  
 281:Libraries/STM32F4xx_HAL_Driver/Src/stm32f4xx_hal_dac.c **** #if (USE_HAL_DAC_REGISTER_CALLBACKS == 1)
 282:Libraries/STM32F4xx_HAL_Driver/Src/stm32f4xx_hal_dac.c ****     /* Init the DAC Callback settings */
 283:Libraries/STM32F4xx_HAL_Driver/Src/stm32f4xx_hal_dac.c ****     hdac->ConvCpltCallbackCh1           = HAL_DAC_ConvCpltCallbackCh1;
 284:Libraries/STM32F4xx_HAL_Driver/Src/stm32f4xx_hal_dac.c ****     hdac->ConvHalfCpltCallbackCh1       = HAL_DAC_ConvHalfCpltCallbackCh1;
 285:Libraries/STM32F4xx_HAL_Driver/Src/stm32f4xx_hal_dac.c ****     hdac->ErrorCallbackCh1              = HAL_DAC_ErrorCallbackCh1;
 286:Libraries/STM32F4xx_HAL_Driver/Src/stm32f4xx_hal_dac.c ****     hdac->DMAUnderrunCallbackCh1        = HAL_DAC_DMAUnderrunCallbackCh1;
 287:Libraries/STM32F4xx_HAL_Driver/Src/stm32f4xx_hal_dac.c **** 
 288:Libraries/STM32F4xx_HAL_Driver/Src/stm32f4xx_hal_dac.c ****     hdac->ConvCpltCallbackCh2           = HAL_DACEx_ConvCpltCallbackCh2;
 289:Libraries/STM32F4xx_HAL_Driver/Src/stm32f4xx_hal_dac.c ****     hdac->ConvHalfCpltCallbackCh2       = HAL_DACEx_ConvHalfCpltCallbackCh2;
 290:Libraries/STM32F4xx_HAL_Driver/Src/stm32f4xx_hal_dac.c ****     hdac->ErrorCallbackCh2              = HAL_DACEx_ErrorCallbackCh2;
 291:Libraries/STM32F4xx_HAL_Driver/Src/stm32f4xx_hal_dac.c ****     hdac->DMAUnderrunCallbackCh2        = HAL_DACEx_DMAUnderrunCallbackCh2;
 292:Libraries/STM32F4xx_HAL_Driver/Src/stm32f4xx_hal_dac.c **** 
 293:Libraries/STM32F4xx_HAL_Driver/Src/stm32f4xx_hal_dac.c ****     if(hdac->MspInitCallback == NULL)
 294:Libraries/STM32F4xx_HAL_Driver/Src/stm32f4xx_hal_dac.c ****     {
 295:Libraries/STM32F4xx_HAL_Driver/Src/stm32f4xx_hal_dac.c ****       hdac->MspInitCallback               = HAL_DAC_MspInit;
 296:Libraries/STM32F4xx_HAL_Driver/Src/stm32f4xx_hal_dac.c ****     }
 297:Libraries/STM32F4xx_HAL_Driver/Src/stm32f4xx_hal_dac.c **** #endif /* USE_HAL_DAC_REGISTER_CALLBACKS */
 298:Libraries/STM32F4xx_HAL_Driver/Src/stm32f4xx_hal_dac.c ****     /* Allocate lock resource and initialize it */
 299:Libraries/STM32F4xx_HAL_Driver/Src/stm32f4xx_hal_dac.c ****     hdac->Lock = HAL_UNLOCKED;
 300:Libraries/STM32F4xx_HAL_Driver/Src/stm32f4xx_hal_dac.c **** #if (USE_HAL_DAC_REGISTER_CALLBACKS == 1)
 301:Libraries/STM32F4xx_HAL_Driver/Src/stm32f4xx_hal_dac.c ****     /* Init the low level hardware */
 302:Libraries/STM32F4xx_HAL_Driver/Src/stm32f4xx_hal_dac.c ****     hdac->MspInitCallback(hdac);
 303:Libraries/STM32F4xx_HAL_Driver/Src/stm32f4xx_hal_dac.c **** #else
 304:Libraries/STM32F4xx_HAL_Driver/Src/stm32f4xx_hal_dac.c ****     /* Init the low level hardware */
 305:Libraries/STM32F4xx_HAL_Driver/Src/stm32f4xx_hal_dac.c ****     HAL_DAC_MspInit(hdac);
 306:Libraries/STM32F4xx_HAL_Driver/Src/stm32f4xx_hal_dac.c **** #endif /* USE_HAL_DAC_REGISTER_CALLBACKS */
 307:Libraries/STM32F4xx_HAL_Driver/Src/stm32f4xx_hal_dac.c ****   }
 308:Libraries/STM32F4xx_HAL_Driver/Src/stm32f4xx_hal_dac.c ****   
 309:Libraries/STM32F4xx_HAL_Driver/Src/stm32f4xx_hal_dac.c ****   /* Initialize the DAC state*/
 310:Libraries/STM32F4xx_HAL_Driver/Src/stm32f4xx_hal_dac.c ****   hdac->State = HAL_DAC_STATE_BUSY;
 311:Libraries/STM32F4xx_HAL_Driver/Src/stm32f4xx_hal_dac.c ****   
 312:Libraries/STM32F4xx_HAL_Driver/Src/stm32f4xx_hal_dac.c ****   /* Set DAC error code to none */
 313:Libraries/STM32F4xx_HAL_Driver/Src/stm32f4xx_hal_dac.c ****   hdac->ErrorCode = HAL_DAC_ERROR_NONE;
 314:Libraries/STM32F4xx_HAL_Driver/Src/stm32f4xx_hal_dac.c ****   
 315:Libraries/STM32F4xx_HAL_Driver/Src/stm32f4xx_hal_dac.c ****   /* Initialize the DAC state*/
 316:Libraries/STM32F4xx_HAL_Driver/Src/stm32f4xx_hal_dac.c ****   hdac->State = HAL_DAC_STATE_READY;
ARM GAS  C:\Users\yzy\AppData\Local\Temp\ccS9Kmk9.s 			page 7


 317:Libraries/STM32F4xx_HAL_Driver/Src/stm32f4xx_hal_dac.c ****   
 318:Libraries/STM32F4xx_HAL_Driver/Src/stm32f4xx_hal_dac.c ****   /* Return function status */
 319:Libraries/STM32F4xx_HAL_Driver/Src/stm32f4xx_hal_dac.c ****   return HAL_OK;
 320:Libraries/STM32F4xx_HAL_Driver/Src/stm32f4xx_hal_dac.c **** }
 321:Libraries/STM32F4xx_HAL_Driver/Src/stm32f4xx_hal_dac.c **** 
 322:Libraries/STM32F4xx_HAL_Driver/Src/stm32f4xx_hal_dac.c **** /**
 323:Libraries/STM32F4xx_HAL_Driver/Src/stm32f4xx_hal_dac.c ****   * @brief  Deinitializes the DAC peripheral registers to their default reset values.
 324:Libraries/STM32F4xx_HAL_Driver/Src/stm32f4xx_hal_dac.c ****   * @param  hdac pointer to a DAC_HandleTypeDef structure that contains
 325:Libraries/STM32F4xx_HAL_Driver/Src/stm32f4xx_hal_dac.c ****   *         the configuration information for the specified DAC.
 326:Libraries/STM32F4xx_HAL_Driver/Src/stm32f4xx_hal_dac.c ****   * @retval HAL status
 327:Libraries/STM32F4xx_HAL_Driver/Src/stm32f4xx_hal_dac.c ****   */
 328:Libraries/STM32F4xx_HAL_Driver/Src/stm32f4xx_hal_dac.c **** HAL_StatusTypeDef HAL_DAC_DeInit(DAC_HandleTypeDef* hdac)
 329:Libraries/STM32F4xx_HAL_Driver/Src/stm32f4xx_hal_dac.c **** {
 330:Libraries/STM32F4xx_HAL_Driver/Src/stm32f4xx_hal_dac.c ****   /* Check DAC handle */
 331:Libraries/STM32F4xx_HAL_Driver/Src/stm32f4xx_hal_dac.c ****   if(hdac == NULL)
 332:Libraries/STM32F4xx_HAL_Driver/Src/stm32f4xx_hal_dac.c ****   {
 333:Libraries/STM32F4xx_HAL_Driver/Src/stm32f4xx_hal_dac.c ****      return HAL_ERROR;
 334:Libraries/STM32F4xx_HAL_Driver/Src/stm32f4xx_hal_dac.c ****   }
 335:Libraries/STM32F4xx_HAL_Driver/Src/stm32f4xx_hal_dac.c **** 
 336:Libraries/STM32F4xx_HAL_Driver/Src/stm32f4xx_hal_dac.c ****   /* Check the parameters */
 337:Libraries/STM32F4xx_HAL_Driver/Src/stm32f4xx_hal_dac.c ****   assert_param(IS_DAC_ALL_INSTANCE(hdac->Instance));
 338:Libraries/STM32F4xx_HAL_Driver/Src/stm32f4xx_hal_dac.c **** 
 339:Libraries/STM32F4xx_HAL_Driver/Src/stm32f4xx_hal_dac.c ****   /* Change DAC state */
 340:Libraries/STM32F4xx_HAL_Driver/Src/stm32f4xx_hal_dac.c ****   hdac->State = HAL_DAC_STATE_BUSY;
 341:Libraries/STM32F4xx_HAL_Driver/Src/stm32f4xx_hal_dac.c **** 
 342:Libraries/STM32F4xx_HAL_Driver/Src/stm32f4xx_hal_dac.c **** #if (USE_HAL_DAC_REGISTER_CALLBACKS == 1)
 343:Libraries/STM32F4xx_HAL_Driver/Src/stm32f4xx_hal_dac.c ****   if(hdac->MspDeInitCallback == NULL)
 344:Libraries/STM32F4xx_HAL_Driver/Src/stm32f4xx_hal_dac.c ****   {
 345:Libraries/STM32F4xx_HAL_Driver/Src/stm32f4xx_hal_dac.c ****     hdac->MspDeInitCallback = HAL_DAC_MspDeInit;
 346:Libraries/STM32F4xx_HAL_Driver/Src/stm32f4xx_hal_dac.c ****   }
 347:Libraries/STM32F4xx_HAL_Driver/Src/stm32f4xx_hal_dac.c ****   /* DeInit the low level hardware */
 348:Libraries/STM32F4xx_HAL_Driver/Src/stm32f4xx_hal_dac.c ****   hdac->MspDeInitCallback(hdac);
 349:Libraries/STM32F4xx_HAL_Driver/Src/stm32f4xx_hal_dac.c **** #else
 350:Libraries/STM32F4xx_HAL_Driver/Src/stm32f4xx_hal_dac.c ****   /* DeInit the low level hardware */
 351:Libraries/STM32F4xx_HAL_Driver/Src/stm32f4xx_hal_dac.c ****   HAL_DAC_MspDeInit(hdac);
 352:Libraries/STM32F4xx_HAL_Driver/Src/stm32f4xx_hal_dac.c **** #endif /* USE_HAL_DAC_REGISTER_CALLBACKS */
 353:Libraries/STM32F4xx_HAL_Driver/Src/stm32f4xx_hal_dac.c **** 
 354:Libraries/STM32F4xx_HAL_Driver/Src/stm32f4xx_hal_dac.c ****   /* Set DAC error code to none */
 355:Libraries/STM32F4xx_HAL_Driver/Src/stm32f4xx_hal_dac.c ****   hdac->ErrorCode = HAL_DAC_ERROR_NONE;
 356:Libraries/STM32F4xx_HAL_Driver/Src/stm32f4xx_hal_dac.c **** 
 357:Libraries/STM32F4xx_HAL_Driver/Src/stm32f4xx_hal_dac.c ****   /* Change DAC state */
 358:Libraries/STM32F4xx_HAL_Driver/Src/stm32f4xx_hal_dac.c ****   hdac->State = HAL_DAC_STATE_RESET;
 359:Libraries/STM32F4xx_HAL_Driver/Src/stm32f4xx_hal_dac.c **** 
 360:Libraries/STM32F4xx_HAL_Driver/Src/stm32f4xx_hal_dac.c ****   /* Release Lock */
 361:Libraries/STM32F4xx_HAL_Driver/Src/stm32f4xx_hal_dac.c ****   __HAL_UNLOCK(hdac);
 362:Libraries/STM32F4xx_HAL_Driver/Src/stm32f4xx_hal_dac.c **** 
 363:Libraries/STM32F4xx_HAL_Driver/Src/stm32f4xx_hal_dac.c ****   /* Return function status */
 364:Libraries/STM32F4xx_HAL_Driver/Src/stm32f4xx_hal_dac.c ****   return HAL_OK;
 365:Libraries/STM32F4xx_HAL_Driver/Src/stm32f4xx_hal_dac.c **** }
 366:Libraries/STM32F4xx_HAL_Driver/Src/stm32f4xx_hal_dac.c **** 
 367:Libraries/STM32F4xx_HAL_Driver/Src/stm32f4xx_hal_dac.c **** /**
 368:Libraries/STM32F4xx_HAL_Driver/Src/stm32f4xx_hal_dac.c ****   * @brief  Initializes the DAC MSP.
 369:Libraries/STM32F4xx_HAL_Driver/Src/stm32f4xx_hal_dac.c ****   * @param  hdac pointer to a DAC_HandleTypeDef structure that contains
 370:Libraries/STM32F4xx_HAL_Driver/Src/stm32f4xx_hal_dac.c ****   *         the configuration information for the specified DAC.
 371:Libraries/STM32F4xx_HAL_Driver/Src/stm32f4xx_hal_dac.c ****   * @retval None
 372:Libraries/STM32F4xx_HAL_Driver/Src/stm32f4xx_hal_dac.c ****   */
 373:Libraries/STM32F4xx_HAL_Driver/Src/stm32f4xx_hal_dac.c **** __weak void HAL_DAC_MspInit(DAC_HandleTypeDef* hdac)
ARM GAS  C:\Users\yzy\AppData\Local\Temp\ccS9Kmk9.s 			page 8


 374:Libraries/STM32F4xx_HAL_Driver/Src/stm32f4xx_hal_dac.c **** {
  28              		.loc 1 374 1 view -0
  29              		.cfi_startproc
  30              		@ args = 0, pretend = 0, frame = 0
  31              		@ frame_needed = 0, uses_anonymous_args = 0
  32              		@ link register save eliminated.
 375:Libraries/STM32F4xx_HAL_Driver/Src/stm32f4xx_hal_dac.c ****   /* Prevent unused argument(s) compilation warning */
 376:Libraries/STM32F4xx_HAL_Driver/Src/stm32f4xx_hal_dac.c ****   UNUSED(hdac);
  33              		.loc 1 376 3 view .LVU1
 377:Libraries/STM32F4xx_HAL_Driver/Src/stm32f4xx_hal_dac.c ****   /* NOTE : This function Should not be modified, when the callback is needed,
 378:Libraries/STM32F4xx_HAL_Driver/Src/stm32f4xx_hal_dac.c ****             the HAL_DAC_MspInit could be implemented in the user file
 379:Libraries/STM32F4xx_HAL_Driver/Src/stm32f4xx_hal_dac.c ****    */ 
 380:Libraries/STM32F4xx_HAL_Driver/Src/stm32f4xx_hal_dac.c **** }
  34              		.loc 1 380 1 is_stmt 0 view .LVU2
  35 0000 7047     		bx	lr
  36              		.cfi_endproc
  37              	.LFE132:
  39              		.section	.text.HAL_DAC_Init,"ax",%progbits
  40              		.align	1
  41              		.global	HAL_DAC_Init
  42              		.syntax unified
  43              		.thumb
  44              		.thumb_func
  45              		.fpu softvfp
  47              	HAL_DAC_Init:
  48              	.LVL1:
  49              	.LFB130:
 270:Libraries/STM32F4xx_HAL_Driver/Src/stm32f4xx_hal_dac.c ****   /* Check DAC handle */
  50              		.loc 1 270 1 is_stmt 1 view -0
  51              		.cfi_startproc
  52              		@ args = 0, pretend = 0, frame = 0
  53              		@ frame_needed = 0, uses_anonymous_args = 0
 272:Libraries/STM32F4xx_HAL_Driver/Src/stm32f4xx_hal_dac.c ****   {
  54              		.loc 1 272 3 view .LVU4
 272:Libraries/STM32F4xx_HAL_Driver/Src/stm32f4xx_hal_dac.c ****   {
  55              		.loc 1 272 5 is_stmt 0 view .LVU5
  56 0000 70B1     		cbz	r0, .L5
 270:Libraries/STM32F4xx_HAL_Driver/Src/stm32f4xx_hal_dac.c ****   /* Check DAC handle */
  57              		.loc 1 270 1 view .LVU6
  58 0002 10B5     		push	{r4, lr}
  59              	.LCFI0:
  60              		.cfi_def_cfa_offset 8
  61              		.cfi_offset 4, -8
  62              		.cfi_offset 14, -4
  63 0004 0446     		mov	r4, r0
 277:Libraries/STM32F4xx_HAL_Driver/Src/stm32f4xx_hal_dac.c ****   
  64              		.loc 1 277 3 is_stmt 1 view .LVU7
 279:Libraries/STM32F4xx_HAL_Driver/Src/stm32f4xx_hal_dac.c ****   {  
  65              		.loc 1 279 3 view .LVU8
 279:Libraries/STM32F4xx_HAL_Driver/Src/stm32f4xx_hal_dac.c ****   {  
  66              		.loc 1 279 10 is_stmt 0 view .LVU9
  67 0006 0379     		ldrb	r3, [r0, #4]	@ zero_extendqisi2
 279:Libraries/STM32F4xx_HAL_Driver/Src/stm32f4xx_hal_dac.c ****   {  
  68              		.loc 1 279 5 view .LVU10
  69 0008 33B1     		cbz	r3, .L10
  70              	.LVL2:
  71              	.L4:
ARM GAS  C:\Users\yzy\AppData\Local\Temp\ccS9Kmk9.s 			page 9


 310:Libraries/STM32F4xx_HAL_Driver/Src/stm32f4xx_hal_dac.c ****   
  72              		.loc 1 310 3 is_stmt 1 view .LVU11
 310:Libraries/STM32F4xx_HAL_Driver/Src/stm32f4xx_hal_dac.c ****   
  73              		.loc 1 310 15 is_stmt 0 view .LVU12
  74 000a 0223     		movs	r3, #2
  75 000c 2371     		strb	r3, [r4, #4]
 313:Libraries/STM32F4xx_HAL_Driver/Src/stm32f4xx_hal_dac.c ****   
  76              		.loc 1 313 3 is_stmt 1 view .LVU13
 313:Libraries/STM32F4xx_HAL_Driver/Src/stm32f4xx_hal_dac.c ****   
  77              		.loc 1 313 19 is_stmt 0 view .LVU14
  78 000e 0020     		movs	r0, #0
  79 0010 2061     		str	r0, [r4, #16]
 316:Libraries/STM32F4xx_HAL_Driver/Src/stm32f4xx_hal_dac.c ****   
  80              		.loc 1 316 3 is_stmt 1 view .LVU15
 316:Libraries/STM32F4xx_HAL_Driver/Src/stm32f4xx_hal_dac.c ****   
  81              		.loc 1 316 15 is_stmt 0 view .LVU16
  82 0012 0123     		movs	r3, #1
  83 0014 2371     		strb	r3, [r4, #4]
 319:Libraries/STM32F4xx_HAL_Driver/Src/stm32f4xx_hal_dac.c **** }
  84              		.loc 1 319 3 is_stmt 1 view .LVU17
 320:Libraries/STM32F4xx_HAL_Driver/Src/stm32f4xx_hal_dac.c **** 
  85              		.loc 1 320 1 is_stmt 0 view .LVU18
  86 0016 10BD     		pop	{r4, pc}
  87              	.LVL3:
  88              	.L10:
 299:Libraries/STM32F4xx_HAL_Driver/Src/stm32f4xx_hal_dac.c **** #if (USE_HAL_DAC_REGISTER_CALLBACKS == 1)
  89              		.loc 1 299 5 is_stmt 1 view .LVU19
 299:Libraries/STM32F4xx_HAL_Driver/Src/stm32f4xx_hal_dac.c **** #if (USE_HAL_DAC_REGISTER_CALLBACKS == 1)
  90              		.loc 1 299 16 is_stmt 0 view .LVU20
  91 0018 4371     		strb	r3, [r0, #5]
 305:Libraries/STM32F4xx_HAL_Driver/Src/stm32f4xx_hal_dac.c **** #endif /* USE_HAL_DAC_REGISTER_CALLBACKS */
  92              		.loc 1 305 5 is_stmt 1 view .LVU21
  93 001a FFF7FEFF 		bl	HAL_DAC_MspInit
  94              	.LVL4:
 305:Libraries/STM32F4xx_HAL_Driver/Src/stm32f4xx_hal_dac.c **** #endif /* USE_HAL_DAC_REGISTER_CALLBACKS */
  95              		.loc 1 305 5 is_stmt 0 view .LVU22
  96 001e F4E7     		b	.L4
  97              	.LVL5:
  98              	.L5:
  99              	.LCFI1:
 100              		.cfi_def_cfa_offset 0
 101              		.cfi_restore 4
 102              		.cfi_restore 14
 274:Libraries/STM32F4xx_HAL_Driver/Src/stm32f4xx_hal_dac.c ****   }
 103              		.loc 1 274 13 view .LVU23
 104 0020 0120     		movs	r0, #1
 105              	.LVL6:
 320:Libraries/STM32F4xx_HAL_Driver/Src/stm32f4xx_hal_dac.c **** 
 106              		.loc 1 320 1 view .LVU24
 107 0022 7047     		bx	lr
 108              		.cfi_endproc
 109              	.LFE130:
 111              		.section	.text.HAL_DAC_MspDeInit,"ax",%progbits
 112              		.align	1
 113              		.weak	HAL_DAC_MspDeInit
 114              		.syntax unified
 115              		.thumb
ARM GAS  C:\Users\yzy\AppData\Local\Temp\ccS9Kmk9.s 			page 10


 116              		.thumb_func
 117              		.fpu softvfp
 119              	HAL_DAC_MspDeInit:
 120              	.LVL7:
 121              	.LFB133:
 381:Libraries/STM32F4xx_HAL_Driver/Src/stm32f4xx_hal_dac.c **** 
 382:Libraries/STM32F4xx_HAL_Driver/Src/stm32f4xx_hal_dac.c **** /**
 383:Libraries/STM32F4xx_HAL_Driver/Src/stm32f4xx_hal_dac.c ****   * @brief  DeInitializes the DAC MSP.
 384:Libraries/STM32F4xx_HAL_Driver/Src/stm32f4xx_hal_dac.c ****   * @param  hdac pointer to a DAC_HandleTypeDef structure that contains
 385:Libraries/STM32F4xx_HAL_Driver/Src/stm32f4xx_hal_dac.c ****   *         the configuration information for the specified DAC.  
 386:Libraries/STM32F4xx_HAL_Driver/Src/stm32f4xx_hal_dac.c ****   * @retval None
 387:Libraries/STM32F4xx_HAL_Driver/Src/stm32f4xx_hal_dac.c ****   */
 388:Libraries/STM32F4xx_HAL_Driver/Src/stm32f4xx_hal_dac.c **** __weak void HAL_DAC_MspDeInit(DAC_HandleTypeDef* hdac)
 389:Libraries/STM32F4xx_HAL_Driver/Src/stm32f4xx_hal_dac.c **** {
 122              		.loc 1 389 1 is_stmt 1 view -0
 123              		.cfi_startproc
 124              		@ args = 0, pretend = 0, frame = 0
 125              		@ frame_needed = 0, uses_anonymous_args = 0
 126              		@ link register save eliminated.
 390:Libraries/STM32F4xx_HAL_Driver/Src/stm32f4xx_hal_dac.c ****   /* Prevent unused argument(s) compilation warning */
 391:Libraries/STM32F4xx_HAL_Driver/Src/stm32f4xx_hal_dac.c ****   UNUSED(hdac);
 127              		.loc 1 391 3 view .LVU26
 392:Libraries/STM32F4xx_HAL_Driver/Src/stm32f4xx_hal_dac.c ****   /* NOTE : This function Should not be modified, when the callback is needed,
 393:Libraries/STM32F4xx_HAL_Driver/Src/stm32f4xx_hal_dac.c ****             the HAL_DAC_MspDeInit could be implemented in the user file
 394:Libraries/STM32F4xx_HAL_Driver/Src/stm32f4xx_hal_dac.c ****    */ 
 395:Libraries/STM32F4xx_HAL_Driver/Src/stm32f4xx_hal_dac.c **** }
 128              		.loc 1 395 1 is_stmt 0 view .LVU27
 129 0000 7047     		bx	lr
 130              		.cfi_endproc
 131              	.LFE133:
 133              		.section	.text.HAL_DAC_DeInit,"ax",%progbits
 134              		.align	1
 135              		.global	HAL_DAC_DeInit
 136              		.syntax unified
 137              		.thumb
 138              		.thumb_func
 139              		.fpu softvfp
 141              	HAL_DAC_DeInit:
 142              	.LVL8:
 143              	.LFB131:
 329:Libraries/STM32F4xx_HAL_Driver/Src/stm32f4xx_hal_dac.c ****   /* Check DAC handle */
 144              		.loc 1 329 1 is_stmt 1 view -0
 145              		.cfi_startproc
 146              		@ args = 0, pretend = 0, frame = 0
 147              		@ frame_needed = 0, uses_anonymous_args = 0
 331:Libraries/STM32F4xx_HAL_Driver/Src/stm32f4xx_hal_dac.c ****   {
 148              		.loc 1 331 3 view .LVU29
 331:Libraries/STM32F4xx_HAL_Driver/Src/stm32f4xx_hal_dac.c ****   {
 149              		.loc 1 331 5 is_stmt 0 view .LVU30
 150 0000 50B1     		cbz	r0, .L14
 329:Libraries/STM32F4xx_HAL_Driver/Src/stm32f4xx_hal_dac.c ****   /* Check DAC handle */
 151              		.loc 1 329 1 view .LVU31
 152 0002 10B5     		push	{r4, lr}
 153              	.LCFI2:
 154              		.cfi_def_cfa_offset 8
 155              		.cfi_offset 4, -8
 156              		.cfi_offset 14, -4
ARM GAS  C:\Users\yzy\AppData\Local\Temp\ccS9Kmk9.s 			page 11


 157 0004 0446     		mov	r4, r0
 337:Libraries/STM32F4xx_HAL_Driver/Src/stm32f4xx_hal_dac.c **** 
 158              		.loc 1 337 3 is_stmt 1 view .LVU32
 340:Libraries/STM32F4xx_HAL_Driver/Src/stm32f4xx_hal_dac.c **** 
 159              		.loc 1 340 3 view .LVU33
 340:Libraries/STM32F4xx_HAL_Driver/Src/stm32f4xx_hal_dac.c **** 
 160              		.loc 1 340 15 is_stmt 0 view .LVU34
 161 0006 0223     		movs	r3, #2
 162 0008 0371     		strb	r3, [r0, #4]
 351:Libraries/STM32F4xx_HAL_Driver/Src/stm32f4xx_hal_dac.c **** #endif /* USE_HAL_DAC_REGISTER_CALLBACKS */
 163              		.loc 1 351 3 is_stmt 1 view .LVU35
 164 000a FFF7FEFF 		bl	HAL_DAC_MspDeInit
 165              	.LVL9:
 355:Libraries/STM32F4xx_HAL_Driver/Src/stm32f4xx_hal_dac.c **** 
 166              		.loc 1 355 3 view .LVU36
 355:Libraries/STM32F4xx_HAL_Driver/Src/stm32f4xx_hal_dac.c **** 
 167              		.loc 1 355 19 is_stmt 0 view .LVU37
 168 000e 0020     		movs	r0, #0
 169 0010 2061     		str	r0, [r4, #16]
 358:Libraries/STM32F4xx_HAL_Driver/Src/stm32f4xx_hal_dac.c **** 
 170              		.loc 1 358 3 is_stmt 1 view .LVU38
 358:Libraries/STM32F4xx_HAL_Driver/Src/stm32f4xx_hal_dac.c **** 
 171              		.loc 1 358 15 is_stmt 0 view .LVU39
 172 0012 2071     		strb	r0, [r4, #4]
 361:Libraries/STM32F4xx_HAL_Driver/Src/stm32f4xx_hal_dac.c **** 
 173              		.loc 1 361 3 is_stmt 1 view .LVU40
 361:Libraries/STM32F4xx_HAL_Driver/Src/stm32f4xx_hal_dac.c **** 
 174              		.loc 1 361 3 view .LVU41
 175 0014 6071     		strb	r0, [r4, #5]
 361:Libraries/STM32F4xx_HAL_Driver/Src/stm32f4xx_hal_dac.c **** 
 176              		.loc 1 361 3 view .LVU42
 364:Libraries/STM32F4xx_HAL_Driver/Src/stm32f4xx_hal_dac.c **** }
 177              		.loc 1 364 3 view .LVU43
 365:Libraries/STM32F4xx_HAL_Driver/Src/stm32f4xx_hal_dac.c **** 
 178              		.loc 1 365 1 is_stmt 0 view .LVU44
 179 0016 10BD     		pop	{r4, pc}
 180              	.LVL10:
 181              	.L14:
 182              	.LCFI3:
 183              		.cfi_def_cfa_offset 0
 184              		.cfi_restore 4
 185              		.cfi_restore 14
 333:Libraries/STM32F4xx_HAL_Driver/Src/stm32f4xx_hal_dac.c ****   }
 186              		.loc 1 333 13 view .LVU45
 187 0018 0120     		movs	r0, #1
 188              	.LVL11:
 365:Libraries/STM32F4xx_HAL_Driver/Src/stm32f4xx_hal_dac.c **** 
 189              		.loc 1 365 1 view .LVU46
 190 001a 7047     		bx	lr
 191              		.cfi_endproc
 192              	.LFE131:
 194              		.section	.text.HAL_DAC_Start,"ax",%progbits
 195              		.align	1
 196              		.global	HAL_DAC_Start
 197              		.syntax unified
 198              		.thumb
 199              		.thumb_func
ARM GAS  C:\Users\yzy\AppData\Local\Temp\ccS9Kmk9.s 			page 12


 200              		.fpu softvfp
 202              	HAL_DAC_Start:
 203              	.LVL12:
 204              	.LFB134:
 396:Libraries/STM32F4xx_HAL_Driver/Src/stm32f4xx_hal_dac.c **** 
 397:Libraries/STM32F4xx_HAL_Driver/Src/stm32f4xx_hal_dac.c **** /**
 398:Libraries/STM32F4xx_HAL_Driver/Src/stm32f4xx_hal_dac.c ****   * @}
 399:Libraries/STM32F4xx_HAL_Driver/Src/stm32f4xx_hal_dac.c ****   */
 400:Libraries/STM32F4xx_HAL_Driver/Src/stm32f4xx_hal_dac.c **** 
 401:Libraries/STM32F4xx_HAL_Driver/Src/stm32f4xx_hal_dac.c **** /** @defgroup DAC_Exported_Functions_Group2 IO operation functions
 402:Libraries/STM32F4xx_HAL_Driver/Src/stm32f4xx_hal_dac.c ****  *  @brief    IO operation functions 
 403:Libraries/STM32F4xx_HAL_Driver/Src/stm32f4xx_hal_dac.c ****  *
 404:Libraries/STM32F4xx_HAL_Driver/Src/stm32f4xx_hal_dac.c **** @verbatim   
 405:Libraries/STM32F4xx_HAL_Driver/Src/stm32f4xx_hal_dac.c ****   ==============================================================================
 406:Libraries/STM32F4xx_HAL_Driver/Src/stm32f4xx_hal_dac.c ****              ##### IO operation functions #####
 407:Libraries/STM32F4xx_HAL_Driver/Src/stm32f4xx_hal_dac.c ****   ==============================================================================  
 408:Libraries/STM32F4xx_HAL_Driver/Src/stm32f4xx_hal_dac.c ****     [..]  This section provides functions allowing to:
 409:Libraries/STM32F4xx_HAL_Driver/Src/stm32f4xx_hal_dac.c ****       (+) Start conversion.
 410:Libraries/STM32F4xx_HAL_Driver/Src/stm32f4xx_hal_dac.c ****       (+) Stop conversion.
 411:Libraries/STM32F4xx_HAL_Driver/Src/stm32f4xx_hal_dac.c ****       (+) Start conversion and enable DMA transfer.
 412:Libraries/STM32F4xx_HAL_Driver/Src/stm32f4xx_hal_dac.c ****       (+) Stop conversion and disable DMA transfer.
 413:Libraries/STM32F4xx_HAL_Driver/Src/stm32f4xx_hal_dac.c ****       (+) Get result of conversion.
 414:Libraries/STM32F4xx_HAL_Driver/Src/stm32f4xx_hal_dac.c ****                      
 415:Libraries/STM32F4xx_HAL_Driver/Src/stm32f4xx_hal_dac.c **** @endverbatim
 416:Libraries/STM32F4xx_HAL_Driver/Src/stm32f4xx_hal_dac.c ****   * @{
 417:Libraries/STM32F4xx_HAL_Driver/Src/stm32f4xx_hal_dac.c ****   */
 418:Libraries/STM32F4xx_HAL_Driver/Src/stm32f4xx_hal_dac.c **** 
 419:Libraries/STM32F4xx_HAL_Driver/Src/stm32f4xx_hal_dac.c **** /**
 420:Libraries/STM32F4xx_HAL_Driver/Src/stm32f4xx_hal_dac.c ****   * @brief  Enables DAC and starts conversion of channel.
 421:Libraries/STM32F4xx_HAL_Driver/Src/stm32f4xx_hal_dac.c ****   * @param  hdac pointer to a DAC_HandleTypeDef structure that contains
 422:Libraries/STM32F4xx_HAL_Driver/Src/stm32f4xx_hal_dac.c ****   *         the configuration information for the specified DAC.
 423:Libraries/STM32F4xx_HAL_Driver/Src/stm32f4xx_hal_dac.c ****   * @param  Channel The selected DAC channel. 
 424:Libraries/STM32F4xx_HAL_Driver/Src/stm32f4xx_hal_dac.c ****   *          This parameter can be one of the following values:
 425:Libraries/STM32F4xx_HAL_Driver/Src/stm32f4xx_hal_dac.c ****   *            @arg DAC_CHANNEL_1: DAC Channel1 selected
 426:Libraries/STM32F4xx_HAL_Driver/Src/stm32f4xx_hal_dac.c ****   *            @arg DAC_CHANNEL_2: DAC Channel2 selected
 427:Libraries/STM32F4xx_HAL_Driver/Src/stm32f4xx_hal_dac.c ****   * @retval HAL status
 428:Libraries/STM32F4xx_HAL_Driver/Src/stm32f4xx_hal_dac.c ****   */
 429:Libraries/STM32F4xx_HAL_Driver/Src/stm32f4xx_hal_dac.c **** HAL_StatusTypeDef HAL_DAC_Start(DAC_HandleTypeDef* hdac, uint32_t Channel)
 430:Libraries/STM32F4xx_HAL_Driver/Src/stm32f4xx_hal_dac.c **** {
 205              		.loc 1 430 1 is_stmt 1 view -0
 206              		.cfi_startproc
 207              		@ args = 0, pretend = 0, frame = 0
 208              		@ frame_needed = 0, uses_anonymous_args = 0
 209              		@ link register save eliminated.
 431:Libraries/STM32F4xx_HAL_Driver/Src/stm32f4xx_hal_dac.c ****   uint32_t tmp1 = 0U, tmp2 = 0U;
 210              		.loc 1 431 3 view .LVU48
 432:Libraries/STM32F4xx_HAL_Driver/Src/stm32f4xx_hal_dac.c ****   
 433:Libraries/STM32F4xx_HAL_Driver/Src/stm32f4xx_hal_dac.c ****   /* Check the parameters */
 434:Libraries/STM32F4xx_HAL_Driver/Src/stm32f4xx_hal_dac.c ****   assert_param(IS_DAC_CHANNEL(Channel));
 211              		.loc 1 434 3 view .LVU49
 435:Libraries/STM32F4xx_HAL_Driver/Src/stm32f4xx_hal_dac.c ****   
 436:Libraries/STM32F4xx_HAL_Driver/Src/stm32f4xx_hal_dac.c ****   /* Process locked */
 437:Libraries/STM32F4xx_HAL_Driver/Src/stm32f4xx_hal_dac.c ****   __HAL_LOCK(hdac);
 212              		.loc 1 437 3 view .LVU50
 213              		.loc 1 437 3 view .LVU51
 214 0000 4379     		ldrb	r3, [r0, #5]	@ zero_extendqisi2
 215 0002 012B     		cmp	r3, #1
ARM GAS  C:\Users\yzy\AppData\Local\Temp\ccS9Kmk9.s 			page 13


 216 0004 30D0     		beq	.L23
 430:Libraries/STM32F4xx_HAL_Driver/Src/stm32f4xx_hal_dac.c ****   uint32_t tmp1 = 0U, tmp2 = 0U;
 217              		.loc 1 430 1 is_stmt 0 discriminator 2 view .LVU52
 218 0006 10B4     		push	{r4}
 219              	.LCFI4:
 220              		.cfi_def_cfa_offset 4
 221              		.cfi_offset 4, -4
 222              		.loc 1 437 3 is_stmt 1 discriminator 2 view .LVU53
 223 0008 0123     		movs	r3, #1
 224 000a 4371     		strb	r3, [r0, #5]
 225              		.loc 1 437 3 discriminator 2 view .LVU54
 438:Libraries/STM32F4xx_HAL_Driver/Src/stm32f4xx_hal_dac.c ****   
 439:Libraries/STM32F4xx_HAL_Driver/Src/stm32f4xx_hal_dac.c ****   /* Change DAC state */
 440:Libraries/STM32F4xx_HAL_Driver/Src/stm32f4xx_hal_dac.c ****   hdac->State = HAL_DAC_STATE_BUSY;
 226              		.loc 1 440 3 discriminator 2 view .LVU55
 227              		.loc 1 440 15 is_stmt 0 discriminator 2 view .LVU56
 228 000c 0222     		movs	r2, #2
 229 000e 0271     		strb	r2, [r0, #4]
 441:Libraries/STM32F4xx_HAL_Driver/Src/stm32f4xx_hal_dac.c ****   
 442:Libraries/STM32F4xx_HAL_Driver/Src/stm32f4xx_hal_dac.c ****   /* Enable the Peripheral */
 443:Libraries/STM32F4xx_HAL_Driver/Src/stm32f4xx_hal_dac.c ****   __HAL_DAC_ENABLE(hdac, Channel);
 230              		.loc 1 443 3 is_stmt 1 discriminator 2 view .LVU57
 231 0010 0468     		ldr	r4, [r0]
 232 0012 2268     		ldr	r2, [r4]
 233 0014 8B40     		lsls	r3, r3, r1
 234 0016 1343     		orrs	r3, r3, r2
 235 0018 2360     		str	r3, [r4]
 444:Libraries/STM32F4xx_HAL_Driver/Src/stm32f4xx_hal_dac.c ****   
 445:Libraries/STM32F4xx_HAL_Driver/Src/stm32f4xx_hal_dac.c ****   if(Channel == DAC_CHANNEL_1)
 236              		.loc 1 445 3 discriminator 2 view .LVU58
 237              		.loc 1 445 5 is_stmt 0 discriminator 2 view .LVU59
 238 001a A9B9     		cbnz	r1, .L21
 446:Libraries/STM32F4xx_HAL_Driver/Src/stm32f4xx_hal_dac.c ****   {
 447:Libraries/STM32F4xx_HAL_Driver/Src/stm32f4xx_hal_dac.c ****     tmp1 = hdac->Instance->CR & DAC_CR_TEN1;
 239              		.loc 1 447 5 is_stmt 1 view .LVU60
 240              		.loc 1 447 16 is_stmt 0 view .LVU61
 241 001c 0268     		ldr	r2, [r0]
 242              		.loc 1 447 26 view .LVU62
 243 001e 1168     		ldr	r1, [r2]
 244              	.LVL13:
 448:Libraries/STM32F4xx_HAL_Driver/Src/stm32f4xx_hal_dac.c ****     tmp2 = hdac->Instance->CR & DAC_CR_TSEL1;
 245              		.loc 1 448 5 is_stmt 1 view .LVU63
 246              		.loc 1 448 26 is_stmt 0 view .LVU64
 247 0020 1368     		ldr	r3, [r2]
 248              		.loc 1 448 10 view .LVU65
 249 0022 03F03803 		and	r3, r3, #56
 250              	.LVL14:
 449:Libraries/STM32F4xx_HAL_Driver/Src/stm32f4xx_hal_dac.c ****     /* Check if software trigger enabled */
 450:Libraries/STM32F4xx_HAL_Driver/Src/stm32f4xx_hal_dac.c ****     if((tmp1 ==  DAC_CR_TEN1) && (tmp2 ==  DAC_CR_TSEL1))
 251              		.loc 1 450 5 is_stmt 1 view .LVU66
 252              		.loc 1 450 7 is_stmt 0 view .LVU67
 253 0026 11F0040F 		tst	r1, #4
 254 002a 01D0     		beq	.L22
 255              		.loc 1 450 31 discriminator 1 view .LVU68
 256 002c 382B     		cmp	r3, #56
 257 002e 06D0     		beq	.L28
 258              	.LVL15:
ARM GAS  C:\Users\yzy\AppData\Local\Temp\ccS9Kmk9.s 			page 14


 259              	.L22:
 451:Libraries/STM32F4xx_HAL_Driver/Src/stm32f4xx_hal_dac.c ****     {
 452:Libraries/STM32F4xx_HAL_Driver/Src/stm32f4xx_hal_dac.c ****       /* Enable the selected DAC software conversion */
 453:Libraries/STM32F4xx_HAL_Driver/Src/stm32f4xx_hal_dac.c ****       hdac->Instance->SWTRIGR |= (uint32_t)DAC_SWTRIGR_SWTRIG1;
 454:Libraries/STM32F4xx_HAL_Driver/Src/stm32f4xx_hal_dac.c ****     }
 455:Libraries/STM32F4xx_HAL_Driver/Src/stm32f4xx_hal_dac.c ****   }
 456:Libraries/STM32F4xx_HAL_Driver/Src/stm32f4xx_hal_dac.c ****   else
 457:Libraries/STM32F4xx_HAL_Driver/Src/stm32f4xx_hal_dac.c ****   {
 458:Libraries/STM32F4xx_HAL_Driver/Src/stm32f4xx_hal_dac.c ****     tmp1 = hdac->Instance->CR & DAC_CR_TEN2;
 459:Libraries/STM32F4xx_HAL_Driver/Src/stm32f4xx_hal_dac.c ****     tmp2 = hdac->Instance->CR & DAC_CR_TSEL2;    
 460:Libraries/STM32F4xx_HAL_Driver/Src/stm32f4xx_hal_dac.c ****     /* Check if software trigger enabled */
 461:Libraries/STM32F4xx_HAL_Driver/Src/stm32f4xx_hal_dac.c ****     if((tmp1 == DAC_CR_TEN2) && (tmp2 == DAC_CR_TSEL2))
 462:Libraries/STM32F4xx_HAL_Driver/Src/stm32f4xx_hal_dac.c ****     {
 463:Libraries/STM32F4xx_HAL_Driver/Src/stm32f4xx_hal_dac.c ****       /* Enable the selected DAC software conversion*/
 464:Libraries/STM32F4xx_HAL_Driver/Src/stm32f4xx_hal_dac.c ****       hdac->Instance->SWTRIGR |= (uint32_t)DAC_SWTRIGR_SWTRIG2;
 465:Libraries/STM32F4xx_HAL_Driver/Src/stm32f4xx_hal_dac.c ****     }
 466:Libraries/STM32F4xx_HAL_Driver/Src/stm32f4xx_hal_dac.c ****   }
 467:Libraries/STM32F4xx_HAL_Driver/Src/stm32f4xx_hal_dac.c ****   
 468:Libraries/STM32F4xx_HAL_Driver/Src/stm32f4xx_hal_dac.c ****   /* Change DAC state */
 469:Libraries/STM32F4xx_HAL_Driver/Src/stm32f4xx_hal_dac.c ****   hdac->State = HAL_DAC_STATE_READY;
 260              		.loc 1 469 3 is_stmt 1 view .LVU69
 261              		.loc 1 469 15 is_stmt 0 view .LVU70
 262 0030 0123     		movs	r3, #1
 263 0032 0371     		strb	r3, [r0, #4]
 470:Libraries/STM32F4xx_HAL_Driver/Src/stm32f4xx_hal_dac.c ****   
 471:Libraries/STM32F4xx_HAL_Driver/Src/stm32f4xx_hal_dac.c ****   /* Process unlocked */
 472:Libraries/STM32F4xx_HAL_Driver/Src/stm32f4xx_hal_dac.c ****   __HAL_UNLOCK(hdac);
 264              		.loc 1 472 3 is_stmt 1 view .LVU71
 265              		.loc 1 472 3 view .LVU72
 266 0034 0023     		movs	r3, #0
 267 0036 4371     		strb	r3, [r0, #5]
 268              		.loc 1 472 3 view .LVU73
 473:Libraries/STM32F4xx_HAL_Driver/Src/stm32f4xx_hal_dac.c ****     
 474:Libraries/STM32F4xx_HAL_Driver/Src/stm32f4xx_hal_dac.c ****   /* Return function status */
 475:Libraries/STM32F4xx_HAL_Driver/Src/stm32f4xx_hal_dac.c ****   return HAL_OK;
 269              		.loc 1 475 3 view .LVU74
 270              		.loc 1 475 10 is_stmt 0 view .LVU75
 271 0038 1846     		mov	r0, r3
 272              	.LVL16:
 476:Libraries/STM32F4xx_HAL_Driver/Src/stm32f4xx_hal_dac.c **** }
 273              		.loc 1 476 1 view .LVU76
 274 003a 10BC     		pop	{r4}
 275              	.LCFI5:
 276              		.cfi_remember_state
 277              		.cfi_restore 4
 278              		.cfi_def_cfa_offset 0
 279 003c 7047     		bx	lr
 280              	.LVL17:
 281              	.L28:
 282              	.LCFI6:
 283              		.cfi_restore_state
 453:Libraries/STM32F4xx_HAL_Driver/Src/stm32f4xx_hal_dac.c ****     }
 284              		.loc 1 453 7 is_stmt 1 view .LVU77
 453:Libraries/STM32F4xx_HAL_Driver/Src/stm32f4xx_hal_dac.c ****     }
 285              		.loc 1 453 31 is_stmt 0 view .LVU78
 286 003e 5368     		ldr	r3, [r2, #4]
 287              	.LVL18:
ARM GAS  C:\Users\yzy\AppData\Local\Temp\ccS9Kmk9.s 			page 15


 453:Libraries/STM32F4xx_HAL_Driver/Src/stm32f4xx_hal_dac.c ****     }
 288              		.loc 1 453 31 view .LVU79
 289 0040 43F00103 		orr	r3, r3, #1
 290 0044 5360     		str	r3, [r2, #4]
 291 0046 F3E7     		b	.L22
 292              	.LVL19:
 293              	.L21:
 458:Libraries/STM32F4xx_HAL_Driver/Src/stm32f4xx_hal_dac.c ****     tmp2 = hdac->Instance->CR & DAC_CR_TSEL2;    
 294              		.loc 1 458 5 is_stmt 1 view .LVU80
 458:Libraries/STM32F4xx_HAL_Driver/Src/stm32f4xx_hal_dac.c ****     tmp2 = hdac->Instance->CR & DAC_CR_TSEL2;    
 295              		.loc 1 458 16 is_stmt 0 view .LVU81
 296 0048 0268     		ldr	r2, [r0]
 458:Libraries/STM32F4xx_HAL_Driver/Src/stm32f4xx_hal_dac.c ****     tmp2 = hdac->Instance->CR & DAC_CR_TSEL2;    
 297              		.loc 1 458 26 view .LVU82
 298 004a 1168     		ldr	r1, [r2]
 299              	.LVL20:
 459:Libraries/STM32F4xx_HAL_Driver/Src/stm32f4xx_hal_dac.c ****     /* Check if software trigger enabled */
 300              		.loc 1 459 5 is_stmt 1 view .LVU83
 459:Libraries/STM32F4xx_HAL_Driver/Src/stm32f4xx_hal_dac.c ****     /* Check if software trigger enabled */
 301              		.loc 1 459 26 is_stmt 0 view .LVU84
 302 004c 1368     		ldr	r3, [r2]
 459:Libraries/STM32F4xx_HAL_Driver/Src/stm32f4xx_hal_dac.c ****     /* Check if software trigger enabled */
 303              		.loc 1 459 10 view .LVU85
 304 004e 03F46013 		and	r3, r3, #3670016
 305              	.LVL21:
 461:Libraries/STM32F4xx_HAL_Driver/Src/stm32f4xx_hal_dac.c ****     {
 306              		.loc 1 461 5 is_stmt 1 view .LVU86
 461:Libraries/STM32F4xx_HAL_Driver/Src/stm32f4xx_hal_dac.c ****     {
 307              		.loc 1 461 7 is_stmt 0 view .LVU87
 308 0052 11F4802F 		tst	r1, #262144
 309 0056 EBD0     		beq	.L22
 461:Libraries/STM32F4xx_HAL_Driver/Src/stm32f4xx_hal_dac.c ****     {
 310              		.loc 1 461 30 discriminator 1 view .LVU88
 311 0058 B3F5601F 		cmp	r3, #3670016
 312 005c E8D1     		bne	.L22
 464:Libraries/STM32F4xx_HAL_Driver/Src/stm32f4xx_hal_dac.c ****     }
 313              		.loc 1 464 7 is_stmt 1 view .LVU89
 464:Libraries/STM32F4xx_HAL_Driver/Src/stm32f4xx_hal_dac.c ****     }
 314              		.loc 1 464 31 is_stmt 0 view .LVU90
 315 005e 5368     		ldr	r3, [r2, #4]
 316              	.LVL22:
 464:Libraries/STM32F4xx_HAL_Driver/Src/stm32f4xx_hal_dac.c ****     }
 317              		.loc 1 464 31 view .LVU91
 318 0060 43F00203 		orr	r3, r3, #2
 319 0064 5360     		str	r3, [r2, #4]
 320 0066 E3E7     		b	.L22
 321              	.LVL23:
 322              	.L23:
 323              	.LCFI7:
 324              		.cfi_def_cfa_offset 0
 325              		.cfi_restore 4
 437:Libraries/STM32F4xx_HAL_Driver/Src/stm32f4xx_hal_dac.c ****   
 326              		.loc 1 437 3 view .LVU92
 327 0068 0220     		movs	r0, #2
 328              	.LVL24:
 329              		.loc 1 476 1 view .LVU93
 330 006a 7047     		bx	lr
ARM GAS  C:\Users\yzy\AppData\Local\Temp\ccS9Kmk9.s 			page 16


 331              		.cfi_endproc
 332              	.LFE134:
 334              		.section	.text.HAL_DAC_Stop,"ax",%progbits
 335              		.align	1
 336              		.global	HAL_DAC_Stop
 337              		.syntax unified
 338              		.thumb
 339              		.thumb_func
 340              		.fpu softvfp
 342              	HAL_DAC_Stop:
 343              	.LVL25:
 344              	.LFB135:
 477:Libraries/STM32F4xx_HAL_Driver/Src/stm32f4xx_hal_dac.c **** 
 478:Libraries/STM32F4xx_HAL_Driver/Src/stm32f4xx_hal_dac.c **** /**
 479:Libraries/STM32F4xx_HAL_Driver/Src/stm32f4xx_hal_dac.c ****   * @brief  Disables DAC and stop conversion of channel.
 480:Libraries/STM32F4xx_HAL_Driver/Src/stm32f4xx_hal_dac.c ****   * @param  hdac pointer to a DAC_HandleTypeDef structure that contains
 481:Libraries/STM32F4xx_HAL_Driver/Src/stm32f4xx_hal_dac.c ****   *         the configuration information for the specified DAC.
 482:Libraries/STM32F4xx_HAL_Driver/Src/stm32f4xx_hal_dac.c ****   * @param  Channel The selected DAC channel. 
 483:Libraries/STM32F4xx_HAL_Driver/Src/stm32f4xx_hal_dac.c ****   *          This parameter can be one of the following values:
 484:Libraries/STM32F4xx_HAL_Driver/Src/stm32f4xx_hal_dac.c ****   *            @arg DAC_CHANNEL_1: DAC Channel1 selected
 485:Libraries/STM32F4xx_HAL_Driver/Src/stm32f4xx_hal_dac.c ****   *            @arg DAC_CHANNEL_2: DAC Channel2 selected  
 486:Libraries/STM32F4xx_HAL_Driver/Src/stm32f4xx_hal_dac.c ****   * @retval HAL status
 487:Libraries/STM32F4xx_HAL_Driver/Src/stm32f4xx_hal_dac.c ****   */
 488:Libraries/STM32F4xx_HAL_Driver/Src/stm32f4xx_hal_dac.c **** HAL_StatusTypeDef HAL_DAC_Stop(DAC_HandleTypeDef* hdac, uint32_t Channel)
 489:Libraries/STM32F4xx_HAL_Driver/Src/stm32f4xx_hal_dac.c **** {
 345              		.loc 1 489 1 is_stmt 1 view -0
 346              		.cfi_startproc
 347              		@ args = 0, pretend = 0, frame = 0
 348              		@ frame_needed = 0, uses_anonymous_args = 0
 349              		@ link register save eliminated.
 350              		.loc 1 489 1 is_stmt 0 view .LVU95
 351 0000 10B4     		push	{r4}
 352              	.LCFI8:
 353              		.cfi_def_cfa_offset 4
 354              		.cfi_offset 4, -4
 490:Libraries/STM32F4xx_HAL_Driver/Src/stm32f4xx_hal_dac.c ****   /* Check the parameters */
 491:Libraries/STM32F4xx_HAL_Driver/Src/stm32f4xx_hal_dac.c ****   assert_param(IS_DAC_CHANNEL(Channel));
 355              		.loc 1 491 3 is_stmt 1 view .LVU96
 492:Libraries/STM32F4xx_HAL_Driver/Src/stm32f4xx_hal_dac.c ****   
 493:Libraries/STM32F4xx_HAL_Driver/Src/stm32f4xx_hal_dac.c ****   /* Disable the Peripheral */
 494:Libraries/STM32F4xx_HAL_Driver/Src/stm32f4xx_hal_dac.c ****   __HAL_DAC_DISABLE(hdac, Channel);
 356              		.loc 1 494 3 view .LVU97
 357 0002 0468     		ldr	r4, [r0]
 358 0004 2368     		ldr	r3, [r4]
 359 0006 0122     		movs	r2, #1
 360 0008 02FA01F1 		lsl	r1, r2, r1
 361              	.LVL26:
 362              		.loc 1 494 3 is_stmt 0 view .LVU98
 363 000c 23EA0103 		bic	r3, r3, r1
 364 0010 2360     		str	r3, [r4]
 495:Libraries/STM32F4xx_HAL_Driver/Src/stm32f4xx_hal_dac.c ****  
 496:Libraries/STM32F4xx_HAL_Driver/Src/stm32f4xx_hal_dac.c ****   /* Change DAC state */
 497:Libraries/STM32F4xx_HAL_Driver/Src/stm32f4xx_hal_dac.c ****   hdac->State = HAL_DAC_STATE_READY;
 365              		.loc 1 497 3 is_stmt 1 view .LVU99
 366              		.loc 1 497 15 is_stmt 0 view .LVU100
 367 0012 0271     		strb	r2, [r0, #4]
 498:Libraries/STM32F4xx_HAL_Driver/Src/stm32f4xx_hal_dac.c ****   
ARM GAS  C:\Users\yzy\AppData\Local\Temp\ccS9Kmk9.s 			page 17


 499:Libraries/STM32F4xx_HAL_Driver/Src/stm32f4xx_hal_dac.c ****   /* Return function status */
 500:Libraries/STM32F4xx_HAL_Driver/Src/stm32f4xx_hal_dac.c ****   return HAL_OK;
 368              		.loc 1 500 3 is_stmt 1 view .LVU101
 501:Libraries/STM32F4xx_HAL_Driver/Src/stm32f4xx_hal_dac.c **** }
 369              		.loc 1 501 1 is_stmt 0 view .LVU102
 370 0014 0020     		movs	r0, #0
 371              	.LVL27:
 372              		.loc 1 501 1 view .LVU103
 373 0016 10BC     		pop	{r4}
 374              	.LCFI9:
 375              		.cfi_restore 4
 376              		.cfi_def_cfa_offset 0
 377 0018 7047     		bx	lr
 378              		.cfi_endproc
 379              	.LFE135:
 381              		.section	.text.HAL_DAC_Start_DMA,"ax",%progbits
 382              		.align	1
 383              		.global	HAL_DAC_Start_DMA
 384              		.syntax unified
 385              		.thumb
 386              		.thumb_func
 387              		.fpu softvfp
 389              	HAL_DAC_Start_DMA:
 390              	.LVL28:
 391              	.LFB136:
 502:Libraries/STM32F4xx_HAL_Driver/Src/stm32f4xx_hal_dac.c **** 
 503:Libraries/STM32F4xx_HAL_Driver/Src/stm32f4xx_hal_dac.c **** /**
 504:Libraries/STM32F4xx_HAL_Driver/Src/stm32f4xx_hal_dac.c ****   * @brief  Enables DAC and starts conversion of channel.
 505:Libraries/STM32F4xx_HAL_Driver/Src/stm32f4xx_hal_dac.c ****   * @param  hdac pointer to a DAC_HandleTypeDef structure that contains
 506:Libraries/STM32F4xx_HAL_Driver/Src/stm32f4xx_hal_dac.c ****   *         the configuration information for the specified DAC.
 507:Libraries/STM32F4xx_HAL_Driver/Src/stm32f4xx_hal_dac.c ****   * @param  Channel The selected DAC channel. 
 508:Libraries/STM32F4xx_HAL_Driver/Src/stm32f4xx_hal_dac.c ****   *          This parameter can be one of the following values:
 509:Libraries/STM32F4xx_HAL_Driver/Src/stm32f4xx_hal_dac.c ****   *            @arg DAC_CHANNEL_1: DAC Channel1 selected
 510:Libraries/STM32F4xx_HAL_Driver/Src/stm32f4xx_hal_dac.c ****   *            @arg DAC_CHANNEL_2: DAC Channel2 selected
 511:Libraries/STM32F4xx_HAL_Driver/Src/stm32f4xx_hal_dac.c ****   * @param  pData The destination peripheral Buffer address.
 512:Libraries/STM32F4xx_HAL_Driver/Src/stm32f4xx_hal_dac.c ****   * @param  Length The length of data to be transferred from memory to DAC peripheral
 513:Libraries/STM32F4xx_HAL_Driver/Src/stm32f4xx_hal_dac.c ****   * @param  Alignment Specifies the data alignment for DAC channel.
 514:Libraries/STM32F4xx_HAL_Driver/Src/stm32f4xx_hal_dac.c ****   *          This parameter can be one of the following values:
 515:Libraries/STM32F4xx_HAL_Driver/Src/stm32f4xx_hal_dac.c ****   *            @arg DAC_ALIGN_8B_R: 8bit right data alignment selected
 516:Libraries/STM32F4xx_HAL_Driver/Src/stm32f4xx_hal_dac.c ****   *            @arg DAC_ALIGN_12B_L: 12bit left data alignment selected
 517:Libraries/STM32F4xx_HAL_Driver/Src/stm32f4xx_hal_dac.c ****   *            @arg DAC_ALIGN_12B_R: 12bit right data alignment selected
 518:Libraries/STM32F4xx_HAL_Driver/Src/stm32f4xx_hal_dac.c ****   * @retval HAL status
 519:Libraries/STM32F4xx_HAL_Driver/Src/stm32f4xx_hal_dac.c ****   */
 520:Libraries/STM32F4xx_HAL_Driver/Src/stm32f4xx_hal_dac.c **** HAL_StatusTypeDef HAL_DAC_Start_DMA(DAC_HandleTypeDef* hdac, uint32_t Channel, uint32_t* pData, uin
 521:Libraries/STM32F4xx_HAL_Driver/Src/stm32f4xx_hal_dac.c **** {
 392              		.loc 1 521 1 is_stmt 1 view -0
 393              		.cfi_startproc
 394              		@ args = 4, pretend = 0, frame = 0
 395              		@ frame_needed = 0, uses_anonymous_args = 0
 396              		.loc 1 521 1 is_stmt 0 view .LVU105
 397 0000 70B5     		push	{r4, r5, r6, lr}
 398              	.LCFI10:
 399              		.cfi_def_cfa_offset 16
 400              		.cfi_offset 4, -16
 401              		.cfi_offset 5, -12
 402              		.cfi_offset 6, -8
 403              		.cfi_offset 14, -4
ARM GAS  C:\Users\yzy\AppData\Local\Temp\ccS9Kmk9.s 			page 18


 404 0002 0446     		mov	r4, r0
 405 0004 0D46     		mov	r5, r1
 406 0006 1146     		mov	r1, r2
 407              	.LVL29:
 408              		.loc 1 521 1 view .LVU106
 409 0008 049A     		ldr	r2, [sp, #16]
 410              	.LVL30:
 522:Libraries/STM32F4xx_HAL_Driver/Src/stm32f4xx_hal_dac.c ****   uint32_t tmpreg = 0U;
 411              		.loc 1 522 3 is_stmt 1 view .LVU107
 523:Libraries/STM32F4xx_HAL_Driver/Src/stm32f4xx_hal_dac.c ****     
 524:Libraries/STM32F4xx_HAL_Driver/Src/stm32f4xx_hal_dac.c ****   /* Check the parameters */
 525:Libraries/STM32F4xx_HAL_Driver/Src/stm32f4xx_hal_dac.c ****   assert_param(IS_DAC_CHANNEL(Channel));
 412              		.loc 1 525 3 view .LVU108
 526:Libraries/STM32F4xx_HAL_Driver/Src/stm32f4xx_hal_dac.c ****   assert_param(IS_DAC_ALIGN(Alignment));
 413              		.loc 1 526 3 view .LVU109
 527:Libraries/STM32F4xx_HAL_Driver/Src/stm32f4xx_hal_dac.c ****   
 528:Libraries/STM32F4xx_HAL_Driver/Src/stm32f4xx_hal_dac.c ****   /* Process locked */
 529:Libraries/STM32F4xx_HAL_Driver/Src/stm32f4xx_hal_dac.c ****   __HAL_LOCK(hdac);
 414              		.loc 1 529 3 view .LVU110
 415              		.loc 1 529 3 view .LVU111
 416 000a 4079     		ldrb	r0, [r0, #5]	@ zero_extendqisi2
 417              	.LVL31:
 418              		.loc 1 529 3 is_stmt 0 view .LVU112
 419 000c 0128     		cmp	r0, #1
 420 000e 5DD0     		beq	.L41
 421              		.loc 1 529 3 is_stmt 1 discriminator 2 view .LVU113
 422 0010 0120     		movs	r0, #1
 423 0012 6071     		strb	r0, [r4, #5]
 424              		.loc 1 529 3 discriminator 2 view .LVU114
 530:Libraries/STM32F4xx_HAL_Driver/Src/stm32f4xx_hal_dac.c ****   
 531:Libraries/STM32F4xx_HAL_Driver/Src/stm32f4xx_hal_dac.c ****   /* Change DAC state */
 532:Libraries/STM32F4xx_HAL_Driver/Src/stm32f4xx_hal_dac.c ****   hdac->State = HAL_DAC_STATE_BUSY;
 425              		.loc 1 532 3 discriminator 2 view .LVU115
 426              		.loc 1 532 15 is_stmt 0 discriminator 2 view .LVU116
 427 0014 0220     		movs	r0, #2
 428 0016 2071     		strb	r0, [r4, #4]
 533:Libraries/STM32F4xx_HAL_Driver/Src/stm32f4xx_hal_dac.c **** 
 534:Libraries/STM32F4xx_HAL_Driver/Src/stm32f4xx_hal_dac.c ****   if(Channel == DAC_CHANNEL_1)
 429              		.loc 1 534 3 is_stmt 1 discriminator 2 view .LVU117
 430              		.loc 1 534 5 is_stmt 0 discriminator 2 view .LVU118
 431 0018 002D     		cmp	r5, #0
 432 001a 30D1     		bne	.L33
 535:Libraries/STM32F4xx_HAL_Driver/Src/stm32f4xx_hal_dac.c ****   {
 536:Libraries/STM32F4xx_HAL_Driver/Src/stm32f4xx_hal_dac.c ****     /* Set the DMA transfer complete callback for channel1 */
 537:Libraries/STM32F4xx_HAL_Driver/Src/stm32f4xx_hal_dac.c ****     hdac->DMA_Handle1->XferCpltCallback = DAC_DMAConvCpltCh1;
 433              		.loc 1 537 5 is_stmt 1 view .LVU119
 434              		.loc 1 537 9 is_stmt 0 view .LVU120
 435 001c A068     		ldr	r0, [r4, #8]
 436              		.loc 1 537 41 view .LVU121
 437 001e 2C4E     		ldr	r6, .L47
 438 0020 C663     		str	r6, [r0, #60]
 538:Libraries/STM32F4xx_HAL_Driver/Src/stm32f4xx_hal_dac.c **** 
 539:Libraries/STM32F4xx_HAL_Driver/Src/stm32f4xx_hal_dac.c ****     /* Set the DMA half transfer complete callback for channel1 */
 540:Libraries/STM32F4xx_HAL_Driver/Src/stm32f4xx_hal_dac.c ****     hdac->DMA_Handle1->XferHalfCpltCallback = DAC_DMAHalfConvCpltCh1;
 439              		.loc 1 540 5 is_stmt 1 view .LVU122
 440              		.loc 1 540 9 is_stmt 0 view .LVU123
 441 0022 A068     		ldr	r0, [r4, #8]
ARM GAS  C:\Users\yzy\AppData\Local\Temp\ccS9Kmk9.s 			page 19


 442              		.loc 1 540 45 view .LVU124
 443 0024 2B4E     		ldr	r6, .L47+4
 444 0026 0664     		str	r6, [r0, #64]
 541:Libraries/STM32F4xx_HAL_Driver/Src/stm32f4xx_hal_dac.c **** 
 542:Libraries/STM32F4xx_HAL_Driver/Src/stm32f4xx_hal_dac.c ****     /* Set the DMA error callback for channel1 */
 543:Libraries/STM32F4xx_HAL_Driver/Src/stm32f4xx_hal_dac.c ****     hdac->DMA_Handle1->XferErrorCallback = DAC_DMAErrorCh1;
 445              		.loc 1 543 5 is_stmt 1 view .LVU125
 446              		.loc 1 543 9 is_stmt 0 view .LVU126
 447 0028 A068     		ldr	r0, [r4, #8]
 448              		.loc 1 543 42 view .LVU127
 449 002a 2B4E     		ldr	r6, .L47+8
 450 002c C664     		str	r6, [r0, #76]
 544:Libraries/STM32F4xx_HAL_Driver/Src/stm32f4xx_hal_dac.c **** 
 545:Libraries/STM32F4xx_HAL_Driver/Src/stm32f4xx_hal_dac.c ****     /* Enable the selected DAC channel1 DMA request */
 546:Libraries/STM32F4xx_HAL_Driver/Src/stm32f4xx_hal_dac.c ****     hdac->Instance->CR |= DAC_CR_DMAEN1;
 451              		.loc 1 546 5 is_stmt 1 view .LVU128
 452              		.loc 1 546 9 is_stmt 0 view .LVU129
 453 002e 2668     		ldr	r6, [r4]
 454              		.loc 1 546 24 view .LVU130
 455 0030 3068     		ldr	r0, [r6]
 456 0032 40F48050 		orr	r0, r0, #4096
 457 0036 3060     		str	r0, [r6]
 547:Libraries/STM32F4xx_HAL_Driver/Src/stm32f4xx_hal_dac.c ****     
 548:Libraries/STM32F4xx_HAL_Driver/Src/stm32f4xx_hal_dac.c ****     /* Case of use of channel 1 */
 549:Libraries/STM32F4xx_HAL_Driver/Src/stm32f4xx_hal_dac.c ****     switch(Alignment)
 458              		.loc 1 549 5 is_stmt 1 view .LVU131
 459 0038 042A     		cmp	r2, #4
 460 003a 1AD0     		beq	.L34
 461 003c 082A     		cmp	r2, #8
 462 003e 1BD0     		beq	.L35
 463 0040 A2B1     		cbz	r2, .L45
 464 0042 2A46     		mov	r2, r5
 465              	.LVL32:
 466              	.L36:
 550:Libraries/STM32F4xx_HAL_Driver/Src/stm32f4xx_hal_dac.c ****     {
 551:Libraries/STM32F4xx_HAL_Driver/Src/stm32f4xx_hal_dac.c ****       case DAC_ALIGN_12B_R:
 552:Libraries/STM32F4xx_HAL_Driver/Src/stm32f4xx_hal_dac.c ****         /* Get DHR12R1 address */
 553:Libraries/STM32F4xx_HAL_Driver/Src/stm32f4xx_hal_dac.c ****         tmpreg = (uint32_t)&hdac->Instance->DHR12R1;
 554:Libraries/STM32F4xx_HAL_Driver/Src/stm32f4xx_hal_dac.c ****         break;
 555:Libraries/STM32F4xx_HAL_Driver/Src/stm32f4xx_hal_dac.c ****       case DAC_ALIGN_12B_L:
 556:Libraries/STM32F4xx_HAL_Driver/Src/stm32f4xx_hal_dac.c ****         /* Get DHR12L1 address */
 557:Libraries/STM32F4xx_HAL_Driver/Src/stm32f4xx_hal_dac.c ****         tmpreg = (uint32_t)&hdac->Instance->DHR12L1;
 558:Libraries/STM32F4xx_HAL_Driver/Src/stm32f4xx_hal_dac.c ****         break;
 559:Libraries/STM32F4xx_HAL_Driver/Src/stm32f4xx_hal_dac.c ****       case DAC_ALIGN_8B_R:
 560:Libraries/STM32F4xx_HAL_Driver/Src/stm32f4xx_hal_dac.c ****         /* Get DHR8R1 address */
 561:Libraries/STM32F4xx_HAL_Driver/Src/stm32f4xx_hal_dac.c ****         tmpreg = (uint32_t)&hdac->Instance->DHR8R1;
 562:Libraries/STM32F4xx_HAL_Driver/Src/stm32f4xx_hal_dac.c ****         break;
 563:Libraries/STM32F4xx_HAL_Driver/Src/stm32f4xx_hal_dac.c ****       default:
 564:Libraries/STM32F4xx_HAL_Driver/Src/stm32f4xx_hal_dac.c ****         break;
 565:Libraries/STM32F4xx_HAL_Driver/Src/stm32f4xx_hal_dac.c ****     }
 566:Libraries/STM32F4xx_HAL_Driver/Src/stm32f4xx_hal_dac.c ****   }
 567:Libraries/STM32F4xx_HAL_Driver/Src/stm32f4xx_hal_dac.c ****   else
 568:Libraries/STM32F4xx_HAL_Driver/Src/stm32f4xx_hal_dac.c ****   {
 569:Libraries/STM32F4xx_HAL_Driver/Src/stm32f4xx_hal_dac.c ****     /* Set the DMA transfer complete callback for channel2 */
 570:Libraries/STM32F4xx_HAL_Driver/Src/stm32f4xx_hal_dac.c ****     hdac->DMA_Handle2->XferCpltCallback = DAC_DMAConvCpltCh2;
 571:Libraries/STM32F4xx_HAL_Driver/Src/stm32f4xx_hal_dac.c **** 
 572:Libraries/STM32F4xx_HAL_Driver/Src/stm32f4xx_hal_dac.c ****     /* Set the DMA half transfer complete callback for channel2 */
ARM GAS  C:\Users\yzy\AppData\Local\Temp\ccS9Kmk9.s 			page 20


 573:Libraries/STM32F4xx_HAL_Driver/Src/stm32f4xx_hal_dac.c ****     hdac->DMA_Handle2->XferHalfCpltCallback = DAC_DMAHalfConvCpltCh2;
 574:Libraries/STM32F4xx_HAL_Driver/Src/stm32f4xx_hal_dac.c **** 
 575:Libraries/STM32F4xx_HAL_Driver/Src/stm32f4xx_hal_dac.c ****     /* Set the DMA error callback for channel2 */
 576:Libraries/STM32F4xx_HAL_Driver/Src/stm32f4xx_hal_dac.c ****     hdac->DMA_Handle2->XferErrorCallback = DAC_DMAErrorCh2;
 577:Libraries/STM32F4xx_HAL_Driver/Src/stm32f4xx_hal_dac.c **** 
 578:Libraries/STM32F4xx_HAL_Driver/Src/stm32f4xx_hal_dac.c ****     /* Enable the selected DAC channel2 DMA request */
 579:Libraries/STM32F4xx_HAL_Driver/Src/stm32f4xx_hal_dac.c ****     hdac->Instance->CR |= DAC_CR_DMAEN2;
 580:Libraries/STM32F4xx_HAL_Driver/Src/stm32f4xx_hal_dac.c **** 
 581:Libraries/STM32F4xx_HAL_Driver/Src/stm32f4xx_hal_dac.c ****     /* Case of use of channel 2 */
 582:Libraries/STM32F4xx_HAL_Driver/Src/stm32f4xx_hal_dac.c ****     switch(Alignment)
 583:Libraries/STM32F4xx_HAL_Driver/Src/stm32f4xx_hal_dac.c ****     {
 584:Libraries/STM32F4xx_HAL_Driver/Src/stm32f4xx_hal_dac.c ****       case DAC_ALIGN_12B_R:
 585:Libraries/STM32F4xx_HAL_Driver/Src/stm32f4xx_hal_dac.c ****         /* Get DHR12R2 address */
 586:Libraries/STM32F4xx_HAL_Driver/Src/stm32f4xx_hal_dac.c ****         tmpreg = (uint32_t)&hdac->Instance->DHR12R2;
 587:Libraries/STM32F4xx_HAL_Driver/Src/stm32f4xx_hal_dac.c ****         break;
 588:Libraries/STM32F4xx_HAL_Driver/Src/stm32f4xx_hal_dac.c ****       case DAC_ALIGN_12B_L:
 589:Libraries/STM32F4xx_HAL_Driver/Src/stm32f4xx_hal_dac.c ****         /* Get DHR12L2 address */
 590:Libraries/STM32F4xx_HAL_Driver/Src/stm32f4xx_hal_dac.c ****         tmpreg = (uint32_t)&hdac->Instance->DHR12L2;
 591:Libraries/STM32F4xx_HAL_Driver/Src/stm32f4xx_hal_dac.c ****         break;
 592:Libraries/STM32F4xx_HAL_Driver/Src/stm32f4xx_hal_dac.c ****       case DAC_ALIGN_8B_R:
 593:Libraries/STM32F4xx_HAL_Driver/Src/stm32f4xx_hal_dac.c ****         /* Get DHR8R2 address */
 594:Libraries/STM32F4xx_HAL_Driver/Src/stm32f4xx_hal_dac.c ****         tmpreg = (uint32_t)&hdac->Instance->DHR8R2;
 595:Libraries/STM32F4xx_HAL_Driver/Src/stm32f4xx_hal_dac.c ****         break;
 596:Libraries/STM32F4xx_HAL_Driver/Src/stm32f4xx_hal_dac.c ****       default:
 597:Libraries/STM32F4xx_HAL_Driver/Src/stm32f4xx_hal_dac.c ****         break;
 598:Libraries/STM32F4xx_HAL_Driver/Src/stm32f4xx_hal_dac.c ****     }
 599:Libraries/STM32F4xx_HAL_Driver/Src/stm32f4xx_hal_dac.c ****   }
 600:Libraries/STM32F4xx_HAL_Driver/Src/stm32f4xx_hal_dac.c ****   
 601:Libraries/STM32F4xx_HAL_Driver/Src/stm32f4xx_hal_dac.c ****   /* Enable the DMA Stream */
 602:Libraries/STM32F4xx_HAL_Driver/Src/stm32f4xx_hal_dac.c ****   if(Channel == DAC_CHANNEL_1)
 467              		.loc 1 602 3 view .LVU132
 468              		.loc 1 602 5 is_stmt 0 view .LVU133
 469 0044 002D     		cmp	r5, #0
 470 0046 38D1     		bne	.L39
 603:Libraries/STM32F4xx_HAL_Driver/Src/stm32f4xx_hal_dac.c ****   {
 604:Libraries/STM32F4xx_HAL_Driver/Src/stm32f4xx_hal_dac.c ****     /* Enable the DAC DMA underrun interrupt */
 605:Libraries/STM32F4xx_HAL_Driver/Src/stm32f4xx_hal_dac.c ****     __HAL_DAC_ENABLE_IT(hdac, DAC_IT_DMAUDR1);
 471              		.loc 1 605 5 is_stmt 1 view .LVU134
 472 0048 2668     		ldr	r6, [r4]
 473 004a 3068     		ldr	r0, [r6]
 474 004c 40F40050 		orr	r0, r0, #8192
 475 0050 3060     		str	r0, [r6]
 606:Libraries/STM32F4xx_HAL_Driver/Src/stm32f4xx_hal_dac.c ****     
 607:Libraries/STM32F4xx_HAL_Driver/Src/stm32f4xx_hal_dac.c ****     /* Enable the DMA Stream */
 608:Libraries/STM32F4xx_HAL_Driver/Src/stm32f4xx_hal_dac.c ****     HAL_DMA_Start_IT(hdac->DMA_Handle1, (uint32_t)pData, tmpreg, Length);
 476              		.loc 1 608 5 view .LVU135
 477 0052 A068     		ldr	r0, [r4, #8]
 478 0054 FFF7FEFF 		bl	HAL_DMA_Start_IT
 479              	.LVL33:
 480              	.L40:
 609:Libraries/STM32F4xx_HAL_Driver/Src/stm32f4xx_hal_dac.c ****   } 
 610:Libraries/STM32F4xx_HAL_Driver/Src/stm32f4xx_hal_dac.c ****   else
 611:Libraries/STM32F4xx_HAL_Driver/Src/stm32f4xx_hal_dac.c ****   {
 612:Libraries/STM32F4xx_HAL_Driver/Src/stm32f4xx_hal_dac.c ****     /* Enable the DAC DMA underrun interrupt */
 613:Libraries/STM32F4xx_HAL_Driver/Src/stm32f4xx_hal_dac.c ****     __HAL_DAC_ENABLE_IT(hdac, DAC_IT_DMAUDR2);
 614:Libraries/STM32F4xx_HAL_Driver/Src/stm32f4xx_hal_dac.c ****     
 615:Libraries/STM32F4xx_HAL_Driver/Src/stm32f4xx_hal_dac.c ****     /* Enable the DMA Stream */
ARM GAS  C:\Users\yzy\AppData\Local\Temp\ccS9Kmk9.s 			page 21


 616:Libraries/STM32F4xx_HAL_Driver/Src/stm32f4xx_hal_dac.c ****     HAL_DMA_Start_IT(hdac->DMA_Handle2, (uint32_t)pData, tmpreg, Length);
 617:Libraries/STM32F4xx_HAL_Driver/Src/stm32f4xx_hal_dac.c ****   }
 618:Libraries/STM32F4xx_HAL_Driver/Src/stm32f4xx_hal_dac.c ****   
 619:Libraries/STM32F4xx_HAL_Driver/Src/stm32f4xx_hal_dac.c ****   /* Enable the Peripheral */
 620:Libraries/STM32F4xx_HAL_Driver/Src/stm32f4xx_hal_dac.c ****   __HAL_DAC_ENABLE(hdac, Channel);
 481              		.loc 1 620 3 view .LVU136
 482 0058 2268     		ldr	r2, [r4]
 483 005a 1368     		ldr	r3, [r2]
 484 005c 0121     		movs	r1, #1
 485 005e 01FA05F5 		lsl	r5, r1, r5
 486              	.LVL34:
 487              		.loc 1 620 3 is_stmt 0 view .LVU137
 488 0062 1D43     		orrs	r5, r5, r3
 489 0064 1560     		str	r5, [r2]
 621:Libraries/STM32F4xx_HAL_Driver/Src/stm32f4xx_hal_dac.c ****   
 622:Libraries/STM32F4xx_HAL_Driver/Src/stm32f4xx_hal_dac.c ****   /* Process Unlocked */
 623:Libraries/STM32F4xx_HAL_Driver/Src/stm32f4xx_hal_dac.c ****   __HAL_UNLOCK(hdac);
 490              		.loc 1 623 3 is_stmt 1 view .LVU138
 491              		.loc 1 623 3 view .LVU139
 492 0066 0020     		movs	r0, #0
 493 0068 6071     		strb	r0, [r4, #5]
 494              		.loc 1 623 3 view .LVU140
 624:Libraries/STM32F4xx_HAL_Driver/Src/stm32f4xx_hal_dac.c ****   
 625:Libraries/STM32F4xx_HAL_Driver/Src/stm32f4xx_hal_dac.c ****   /* Return function status */
 626:Libraries/STM32F4xx_HAL_Driver/Src/stm32f4xx_hal_dac.c ****   return HAL_OK;
 495              		.loc 1 626 3 view .LVU141
 496              	.L32:
 627:Libraries/STM32F4xx_HAL_Driver/Src/stm32f4xx_hal_dac.c **** }
 497              		.loc 1 627 1 is_stmt 0 view .LVU142
 498 006a 70BD     		pop	{r4, r5, r6, pc}
 499              	.LVL35:
 500              	.L45:
 553:Libraries/STM32F4xx_HAL_Driver/Src/stm32f4xx_hal_dac.c ****         break;
 501              		.loc 1 553 9 is_stmt 1 view .LVU143
 553:Libraries/STM32F4xx_HAL_Driver/Src/stm32f4xx_hal_dac.c ****         break;
 502              		.loc 1 553 33 is_stmt 0 view .LVU144
 503 006c 2268     		ldr	r2, [r4]
 553:Libraries/STM32F4xx_HAL_Driver/Src/stm32f4xx_hal_dac.c ****         break;
 504              		.loc 1 553 28 view .LVU145
 505 006e 0832     		adds	r2, r2, #8
 506              	.LVL36:
 554:Libraries/STM32F4xx_HAL_Driver/Src/stm32f4xx_hal_dac.c ****       case DAC_ALIGN_12B_L:
 507              		.loc 1 554 9 is_stmt 1 view .LVU146
 508 0070 E8E7     		b	.L36
 509              	.LVL37:
 510              	.L34:
 557:Libraries/STM32F4xx_HAL_Driver/Src/stm32f4xx_hal_dac.c ****         break;
 511              		.loc 1 557 9 view .LVU147
 557:Libraries/STM32F4xx_HAL_Driver/Src/stm32f4xx_hal_dac.c ****         break;
 512              		.loc 1 557 33 is_stmt 0 view .LVU148
 513 0072 2268     		ldr	r2, [r4]
 557:Libraries/STM32F4xx_HAL_Driver/Src/stm32f4xx_hal_dac.c ****         break;
 514              		.loc 1 557 28 view .LVU149
 515 0074 0C32     		adds	r2, r2, #12
 516              	.LVL38:
 558:Libraries/STM32F4xx_HAL_Driver/Src/stm32f4xx_hal_dac.c ****       case DAC_ALIGN_8B_R:
 517              		.loc 1 558 9 is_stmt 1 view .LVU150
ARM GAS  C:\Users\yzy\AppData\Local\Temp\ccS9Kmk9.s 			page 22


 518 0076 E5E7     		b	.L36
 519              	.LVL39:
 520              	.L35:
 561:Libraries/STM32F4xx_HAL_Driver/Src/stm32f4xx_hal_dac.c ****         break;
 521              		.loc 1 561 9 view .LVU151
 561:Libraries/STM32F4xx_HAL_Driver/Src/stm32f4xx_hal_dac.c ****         break;
 522              		.loc 1 561 33 is_stmt 0 view .LVU152
 523 0078 2268     		ldr	r2, [r4]
 561:Libraries/STM32F4xx_HAL_Driver/Src/stm32f4xx_hal_dac.c ****         break;
 524              		.loc 1 561 28 view .LVU153
 525 007a 1032     		adds	r2, r2, #16
 526              	.LVL40:
 562:Libraries/STM32F4xx_HAL_Driver/Src/stm32f4xx_hal_dac.c ****       default:
 527              		.loc 1 562 9 is_stmt 1 view .LVU154
 528 007c E2E7     		b	.L36
 529              	.LVL41:
 530              	.L33:
 570:Libraries/STM32F4xx_HAL_Driver/Src/stm32f4xx_hal_dac.c **** 
 531              		.loc 1 570 5 view .LVU155
 570:Libraries/STM32F4xx_HAL_Driver/Src/stm32f4xx_hal_dac.c **** 
 532              		.loc 1 570 9 is_stmt 0 view .LVU156
 533 007e E068     		ldr	r0, [r4, #12]
 570:Libraries/STM32F4xx_HAL_Driver/Src/stm32f4xx_hal_dac.c **** 
 534              		.loc 1 570 41 view .LVU157
 535 0080 164E     		ldr	r6, .L47+12
 536 0082 C663     		str	r6, [r0, #60]
 573:Libraries/STM32F4xx_HAL_Driver/Src/stm32f4xx_hal_dac.c **** 
 537              		.loc 1 573 5 is_stmt 1 view .LVU158
 573:Libraries/STM32F4xx_HAL_Driver/Src/stm32f4xx_hal_dac.c **** 
 538              		.loc 1 573 9 is_stmt 0 view .LVU159
 539 0084 E068     		ldr	r0, [r4, #12]
 573:Libraries/STM32F4xx_HAL_Driver/Src/stm32f4xx_hal_dac.c **** 
 540              		.loc 1 573 45 view .LVU160
 541 0086 164E     		ldr	r6, .L47+16
 542 0088 0664     		str	r6, [r0, #64]
 576:Libraries/STM32F4xx_HAL_Driver/Src/stm32f4xx_hal_dac.c **** 
 543              		.loc 1 576 5 is_stmt 1 view .LVU161
 576:Libraries/STM32F4xx_HAL_Driver/Src/stm32f4xx_hal_dac.c **** 
 544              		.loc 1 576 9 is_stmt 0 view .LVU162
 545 008a E068     		ldr	r0, [r4, #12]
 576:Libraries/STM32F4xx_HAL_Driver/Src/stm32f4xx_hal_dac.c **** 
 546              		.loc 1 576 42 view .LVU163
 547 008c 154E     		ldr	r6, .L47+20
 548 008e C664     		str	r6, [r0, #76]
 579:Libraries/STM32F4xx_HAL_Driver/Src/stm32f4xx_hal_dac.c **** 
 549              		.loc 1 579 5 is_stmt 1 view .LVU164
 579:Libraries/STM32F4xx_HAL_Driver/Src/stm32f4xx_hal_dac.c **** 
 550              		.loc 1 579 9 is_stmt 0 view .LVU165
 551 0090 2668     		ldr	r6, [r4]
 579:Libraries/STM32F4xx_HAL_Driver/Src/stm32f4xx_hal_dac.c **** 
 552              		.loc 1 579 24 view .LVU166
 553 0092 3068     		ldr	r0, [r6]
 554 0094 40F08050 		orr	r0, r0, #268435456
 555 0098 3060     		str	r0, [r6]
 582:Libraries/STM32F4xx_HAL_Driver/Src/stm32f4xx_hal_dac.c ****     {
 556              		.loc 1 582 5 is_stmt 1 view .LVU167
 557 009a 042A     		cmp	r2, #4
ARM GAS  C:\Users\yzy\AppData\Local\Temp\ccS9Kmk9.s 			page 23


 558 009c 07D0     		beq	.L37
 559 009e 082A     		cmp	r2, #8
 560 00a0 08D0     		beq	.L38
 561 00a2 0AB1     		cbz	r2, .L46
 562 00a4 0022     		movs	r2, #0
 563 00a6 CDE7     		b	.L36
 564              	.L46:
 586:Libraries/STM32F4xx_HAL_Driver/Src/stm32f4xx_hal_dac.c ****         break;
 565              		.loc 1 586 9 view .LVU168
 586:Libraries/STM32F4xx_HAL_Driver/Src/stm32f4xx_hal_dac.c ****         break;
 566              		.loc 1 586 33 is_stmt 0 view .LVU169
 567 00a8 2268     		ldr	r2, [r4]
 586:Libraries/STM32F4xx_HAL_Driver/Src/stm32f4xx_hal_dac.c ****         break;
 568              		.loc 1 586 28 view .LVU170
 569 00aa 1432     		adds	r2, r2, #20
 570              	.LVL42:
 587:Libraries/STM32F4xx_HAL_Driver/Src/stm32f4xx_hal_dac.c ****       case DAC_ALIGN_12B_L:
 571              		.loc 1 587 9 is_stmt 1 view .LVU171
 572 00ac CAE7     		b	.L36
 573              	.LVL43:
 574              	.L37:
 590:Libraries/STM32F4xx_HAL_Driver/Src/stm32f4xx_hal_dac.c ****         break;
 575              		.loc 1 590 9 view .LVU172
 590:Libraries/STM32F4xx_HAL_Driver/Src/stm32f4xx_hal_dac.c ****         break;
 576              		.loc 1 590 33 is_stmt 0 view .LVU173
 577 00ae 2268     		ldr	r2, [r4]
 590:Libraries/STM32F4xx_HAL_Driver/Src/stm32f4xx_hal_dac.c ****         break;
 578              		.loc 1 590 28 view .LVU174
 579 00b0 1832     		adds	r2, r2, #24
 580              	.LVL44:
 591:Libraries/STM32F4xx_HAL_Driver/Src/stm32f4xx_hal_dac.c ****       case DAC_ALIGN_8B_R:
 581              		.loc 1 591 9 is_stmt 1 view .LVU175
 582 00b2 C7E7     		b	.L36
 583              	.LVL45:
 584              	.L38:
 594:Libraries/STM32F4xx_HAL_Driver/Src/stm32f4xx_hal_dac.c ****         break;
 585              		.loc 1 594 9 view .LVU176
 594:Libraries/STM32F4xx_HAL_Driver/Src/stm32f4xx_hal_dac.c ****         break;
 586              		.loc 1 594 33 is_stmt 0 view .LVU177
 587 00b4 2268     		ldr	r2, [r4]
 594:Libraries/STM32F4xx_HAL_Driver/Src/stm32f4xx_hal_dac.c ****         break;
 588              		.loc 1 594 28 view .LVU178
 589 00b6 1C32     		adds	r2, r2, #28
 590              	.LVL46:
 595:Libraries/STM32F4xx_HAL_Driver/Src/stm32f4xx_hal_dac.c ****       default:
 591              		.loc 1 595 9 is_stmt 1 view .LVU179
 592 00b8 C4E7     		b	.L36
 593              	.L39:
 613:Libraries/STM32F4xx_HAL_Driver/Src/stm32f4xx_hal_dac.c ****     
 594              		.loc 1 613 5 view .LVU180
 595 00ba 2668     		ldr	r6, [r4]
 596 00bc 3068     		ldr	r0, [r6]
 597 00be 40F00050 		orr	r0, r0, #536870912
 598 00c2 3060     		str	r0, [r6]
 616:Libraries/STM32F4xx_HAL_Driver/Src/stm32f4xx_hal_dac.c ****   }
 599              		.loc 1 616 5 view .LVU181
 600 00c4 E068     		ldr	r0, [r4, #12]
ARM GAS  C:\Users\yzy\AppData\Local\Temp\ccS9Kmk9.s 			page 24


 601 00c6 FFF7FEFF 		bl	HAL_DMA_Start_IT
 602              	.LVL47:
 616:Libraries/STM32F4xx_HAL_Driver/Src/stm32f4xx_hal_dac.c ****   }
 603              		.loc 1 616 5 is_stmt 0 view .LVU182
 604 00ca C5E7     		b	.L40
 605              	.LVL48:
 606              	.L41:
 529:Libraries/STM32F4xx_HAL_Driver/Src/stm32f4xx_hal_dac.c ****   
 607              		.loc 1 529 3 view .LVU183
 608 00cc 0220     		movs	r0, #2
 609 00ce CCE7     		b	.L32
 610              	.L48:
 611              		.align	2
 612              	.L47:
 613 00d0 00000000 		.word	DAC_DMAConvCpltCh1
 614 00d4 00000000 		.word	DAC_DMAHalfConvCpltCh1
 615 00d8 00000000 		.word	DAC_DMAErrorCh1
 616 00dc 00000000 		.word	DAC_DMAConvCpltCh2
 617 00e0 00000000 		.word	DAC_DMAHalfConvCpltCh2
 618 00e4 00000000 		.word	DAC_DMAErrorCh2
 619              		.cfi_endproc
 620              	.LFE136:
 622              		.section	.text.HAL_DAC_Stop_DMA,"ax",%progbits
 623              		.align	1
 624              		.global	HAL_DAC_Stop_DMA
 625              		.syntax unified
 626              		.thumb
 627              		.thumb_func
 628              		.fpu softvfp
 630              	HAL_DAC_Stop_DMA:
 631              	.LVL49:
 632              	.LFB137:
 628:Libraries/STM32F4xx_HAL_Driver/Src/stm32f4xx_hal_dac.c **** 
 629:Libraries/STM32F4xx_HAL_Driver/Src/stm32f4xx_hal_dac.c **** /**
 630:Libraries/STM32F4xx_HAL_Driver/Src/stm32f4xx_hal_dac.c ****   * @brief  Disables DAC and stop conversion of channel.
 631:Libraries/STM32F4xx_HAL_Driver/Src/stm32f4xx_hal_dac.c ****   * @param  hdac pointer to a DAC_HandleTypeDef structure that contains
 632:Libraries/STM32F4xx_HAL_Driver/Src/stm32f4xx_hal_dac.c ****   *         the configuration information for the specified DAC.
 633:Libraries/STM32F4xx_HAL_Driver/Src/stm32f4xx_hal_dac.c ****   * @param  Channel The selected DAC channel. 
 634:Libraries/STM32F4xx_HAL_Driver/Src/stm32f4xx_hal_dac.c ****   *          This parameter can be one of the following values:
 635:Libraries/STM32F4xx_HAL_Driver/Src/stm32f4xx_hal_dac.c ****   *            @arg DAC_CHANNEL_1: DAC Channel1 selected
 636:Libraries/STM32F4xx_HAL_Driver/Src/stm32f4xx_hal_dac.c ****   *            @arg DAC_CHANNEL_2: DAC Channel2 selected   
 637:Libraries/STM32F4xx_HAL_Driver/Src/stm32f4xx_hal_dac.c ****   * @retval HAL status
 638:Libraries/STM32F4xx_HAL_Driver/Src/stm32f4xx_hal_dac.c ****   */
 639:Libraries/STM32F4xx_HAL_Driver/Src/stm32f4xx_hal_dac.c **** HAL_StatusTypeDef HAL_DAC_Stop_DMA(DAC_HandleTypeDef* hdac, uint32_t Channel)
 640:Libraries/STM32F4xx_HAL_Driver/Src/stm32f4xx_hal_dac.c **** {
 633              		.loc 1 640 1 is_stmt 1 view -0
 634              		.cfi_startproc
 635              		@ args = 0, pretend = 0, frame = 0
 636              		@ frame_needed = 0, uses_anonymous_args = 0
 637              		.loc 1 640 1 is_stmt 0 view .LVU185
 638 0000 10B5     		push	{r4, lr}
 639              	.LCFI11:
 640              		.cfi_def_cfa_offset 8
 641              		.cfi_offset 4, -8
 642              		.cfi_offset 14, -4
 643 0002 0446     		mov	r4, r0
 641:Libraries/STM32F4xx_HAL_Driver/Src/stm32f4xx_hal_dac.c ****   HAL_StatusTypeDef status = HAL_OK;
ARM GAS  C:\Users\yzy\AppData\Local\Temp\ccS9Kmk9.s 			page 25


 644              		.loc 1 641 3 is_stmt 1 view .LVU186
 645              	.LVL50:
 642:Libraries/STM32F4xx_HAL_Driver/Src/stm32f4xx_hal_dac.c **** 
 643:Libraries/STM32F4xx_HAL_Driver/Src/stm32f4xx_hal_dac.c ****   /* Check the parameters */
 644:Libraries/STM32F4xx_HAL_Driver/Src/stm32f4xx_hal_dac.c ****   assert_param(IS_DAC_CHANNEL(Channel));
 646              		.loc 1 644 3 view .LVU187
 645:Libraries/STM32F4xx_HAL_Driver/Src/stm32f4xx_hal_dac.c ****   
 646:Libraries/STM32F4xx_HAL_Driver/Src/stm32f4xx_hal_dac.c ****   /* Disable the selected DAC channel DMA request */
 647:Libraries/STM32F4xx_HAL_Driver/Src/stm32f4xx_hal_dac.c ****    hdac->Instance->CR &= ~(DAC_CR_DMAEN1 << Channel);
 647              		.loc 1 647 4 view .LVU188
 648              		.loc 1 647 8 is_stmt 0 view .LVU189
 649 0004 0068     		ldr	r0, [r0]
 650              	.LVL51:
 651              		.loc 1 647 23 view .LVU190
 652 0006 0368     		ldr	r3, [r0]
 653              		.loc 1 647 42 view .LVU191
 654 0008 4FF48052 		mov	r2, #4096
 655 000c 8A40     		lsls	r2, r2, r1
 656              		.loc 1 647 23 view .LVU192
 657 000e 23EA0203 		bic	r3, r3, r2
 658 0012 0360     		str	r3, [r0]
 648:Libraries/STM32F4xx_HAL_Driver/Src/stm32f4xx_hal_dac.c ****     
 649:Libraries/STM32F4xx_HAL_Driver/Src/stm32f4xx_hal_dac.c ****   /* Disable the Peripheral */
 650:Libraries/STM32F4xx_HAL_Driver/Src/stm32f4xx_hal_dac.c ****   __HAL_DAC_DISABLE(hdac, Channel);
 659              		.loc 1 650 3 is_stmt 1 view .LVU193
 660 0014 2068     		ldr	r0, [r4]
 661 0016 0368     		ldr	r3, [r0]
 662 0018 0122     		movs	r2, #1
 663 001a 8A40     		lsls	r2, r2, r1
 664 001c 23EA0203 		bic	r3, r3, r2
 665 0020 0360     		str	r3, [r0]
 651:Libraries/STM32F4xx_HAL_Driver/Src/stm32f4xx_hal_dac.c ****   
 652:Libraries/STM32F4xx_HAL_Driver/Src/stm32f4xx_hal_dac.c ****   /* Disable the DMA Channel */
 653:Libraries/STM32F4xx_HAL_Driver/Src/stm32f4xx_hal_dac.c ****   /* Channel1 is used */
 654:Libraries/STM32F4xx_HAL_Driver/Src/stm32f4xx_hal_dac.c ****   if(Channel == DAC_CHANNEL_1)
 666              		.loc 1 654 3 view .LVU194
 667              		.loc 1 654 5 is_stmt 0 view .LVU195
 668 0022 31B9     		cbnz	r1, .L50
 655:Libraries/STM32F4xx_HAL_Driver/Src/stm32f4xx_hal_dac.c ****   { 
 656:Libraries/STM32F4xx_HAL_Driver/Src/stm32f4xx_hal_dac.c ****     status = HAL_DMA_Abort(hdac->DMA_Handle1);
 669              		.loc 1 656 5 is_stmt 1 view .LVU196
 670              		.loc 1 656 14 is_stmt 0 view .LVU197
 671 0024 A068     		ldr	r0, [r4, #8]
 672 0026 FFF7FEFF 		bl	HAL_DMA_Abort
 673              	.LVL52:
 674              	.L51:
 657:Libraries/STM32F4xx_HAL_Driver/Src/stm32f4xx_hal_dac.c ****   }
 658:Libraries/STM32F4xx_HAL_Driver/Src/stm32f4xx_hal_dac.c ****   else /* Channel2 is used for */
 659:Libraries/STM32F4xx_HAL_Driver/Src/stm32f4xx_hal_dac.c ****   { 
 660:Libraries/STM32F4xx_HAL_Driver/Src/stm32f4xx_hal_dac.c ****     status = HAL_DMA_Abort(hdac->DMA_Handle2); 
 661:Libraries/STM32F4xx_HAL_Driver/Src/stm32f4xx_hal_dac.c ****   }
 662:Libraries/STM32F4xx_HAL_Driver/Src/stm32f4xx_hal_dac.c **** 
 663:Libraries/STM32F4xx_HAL_Driver/Src/stm32f4xx_hal_dac.c ****   /* Check if DMA Channel effectively disabled */
 664:Libraries/STM32F4xx_HAL_Driver/Src/stm32f4xx_hal_dac.c ****   if(status != HAL_OK)
 675              		.loc 1 664 3 is_stmt 1 view .LVU198
 676              		.loc 1 664 5 is_stmt 0 view .LVU199
 677 002a 30B1     		cbz	r0, .L52
ARM GAS  C:\Users\yzy\AppData\Local\Temp\ccS9Kmk9.s 			page 26


 665:Libraries/STM32F4xx_HAL_Driver/Src/stm32f4xx_hal_dac.c ****   {
 666:Libraries/STM32F4xx_HAL_Driver/Src/stm32f4xx_hal_dac.c ****     /* Update DAC state machine to error */
 667:Libraries/STM32F4xx_HAL_Driver/Src/stm32f4xx_hal_dac.c ****     hdac->State = HAL_DAC_STATE_ERROR;      
 678              		.loc 1 667 5 is_stmt 1 view .LVU200
 679              		.loc 1 667 17 is_stmt 0 view .LVU201
 680 002c 0423     		movs	r3, #4
 681 002e 2371     		strb	r3, [r4, #4]
 682              	.L53:
 668:Libraries/STM32F4xx_HAL_Driver/Src/stm32f4xx_hal_dac.c ****   }
 669:Libraries/STM32F4xx_HAL_Driver/Src/stm32f4xx_hal_dac.c ****   else
 670:Libraries/STM32F4xx_HAL_Driver/Src/stm32f4xx_hal_dac.c ****   {
 671:Libraries/STM32F4xx_HAL_Driver/Src/stm32f4xx_hal_dac.c ****     /* Change DAC state */
 672:Libraries/STM32F4xx_HAL_Driver/Src/stm32f4xx_hal_dac.c ****     hdac->State = HAL_DAC_STATE_READY;
 673:Libraries/STM32F4xx_HAL_Driver/Src/stm32f4xx_hal_dac.c ****   }
 674:Libraries/STM32F4xx_HAL_Driver/Src/stm32f4xx_hal_dac.c **** 
 675:Libraries/STM32F4xx_HAL_Driver/Src/stm32f4xx_hal_dac.c ****   /* Return function status */
 676:Libraries/STM32F4xx_HAL_Driver/Src/stm32f4xx_hal_dac.c ****   return status;
 683              		.loc 1 676 3 is_stmt 1 view .LVU202
 677:Libraries/STM32F4xx_HAL_Driver/Src/stm32f4xx_hal_dac.c **** }
 684              		.loc 1 677 1 is_stmt 0 view .LVU203
 685 0030 10BD     		pop	{r4, pc}
 686              	.LVL53:
 687              	.L50:
 660:Libraries/STM32F4xx_HAL_Driver/Src/stm32f4xx_hal_dac.c ****   }
 688              		.loc 1 660 5 is_stmt 1 view .LVU204
 660:Libraries/STM32F4xx_HAL_Driver/Src/stm32f4xx_hal_dac.c ****   }
 689              		.loc 1 660 14 is_stmt 0 view .LVU205
 690 0032 E068     		ldr	r0, [r4, #12]
 691 0034 FFF7FEFF 		bl	HAL_DMA_Abort
 692              	.LVL54:
 660:Libraries/STM32F4xx_HAL_Driver/Src/stm32f4xx_hal_dac.c ****   }
 693              		.loc 1 660 14 view .LVU206
 694 0038 F7E7     		b	.L51
 695              	.L52:
 672:Libraries/STM32F4xx_HAL_Driver/Src/stm32f4xx_hal_dac.c ****   }
 696              		.loc 1 672 5 is_stmt 1 view .LVU207
 672:Libraries/STM32F4xx_HAL_Driver/Src/stm32f4xx_hal_dac.c ****   }
 697              		.loc 1 672 17 is_stmt 0 view .LVU208
 698 003a 0123     		movs	r3, #1
 699 003c 2371     		strb	r3, [r4, #4]
 700 003e F7E7     		b	.L53
 701              		.cfi_endproc
 702              	.LFE137:
 704              		.section	.text.HAL_DAC_GetValue,"ax",%progbits
 705              		.align	1
 706              		.global	HAL_DAC_GetValue
 707              		.syntax unified
 708              		.thumb
 709              		.thumb_func
 710              		.fpu softvfp
 712              	HAL_DAC_GetValue:
 713              	.LVL55:
 714              	.LFB138:
 678:Libraries/STM32F4xx_HAL_Driver/Src/stm32f4xx_hal_dac.c **** 
 679:Libraries/STM32F4xx_HAL_Driver/Src/stm32f4xx_hal_dac.c **** /**
 680:Libraries/STM32F4xx_HAL_Driver/Src/stm32f4xx_hal_dac.c ****   * @brief  Returns the last data output value of the selected DAC channel.
 681:Libraries/STM32F4xx_HAL_Driver/Src/stm32f4xx_hal_dac.c ****   * @param  hdac pointer to a DAC_HandleTypeDef structure that contains
ARM GAS  C:\Users\yzy\AppData\Local\Temp\ccS9Kmk9.s 			page 27


 682:Libraries/STM32F4xx_HAL_Driver/Src/stm32f4xx_hal_dac.c ****   *         the configuration information for the specified DAC.
 683:Libraries/STM32F4xx_HAL_Driver/Src/stm32f4xx_hal_dac.c ****   * @param  Channel The selected DAC channel. 
 684:Libraries/STM32F4xx_HAL_Driver/Src/stm32f4xx_hal_dac.c ****   *          This parameter can be one of the following values:
 685:Libraries/STM32F4xx_HAL_Driver/Src/stm32f4xx_hal_dac.c ****   *            @arg DAC_CHANNEL_1: DAC Channel1 selected
 686:Libraries/STM32F4xx_HAL_Driver/Src/stm32f4xx_hal_dac.c ****   *            @arg DAC_CHANNEL_2: DAC Channel2 selected
 687:Libraries/STM32F4xx_HAL_Driver/Src/stm32f4xx_hal_dac.c ****   * @retval The selected DAC channel data output value.
 688:Libraries/STM32F4xx_HAL_Driver/Src/stm32f4xx_hal_dac.c ****   */
 689:Libraries/STM32F4xx_HAL_Driver/Src/stm32f4xx_hal_dac.c **** uint32_t HAL_DAC_GetValue(DAC_HandleTypeDef* hdac, uint32_t Channel)
 690:Libraries/STM32F4xx_HAL_Driver/Src/stm32f4xx_hal_dac.c **** {
 715              		.loc 1 690 1 is_stmt 1 view -0
 716              		.cfi_startproc
 717              		@ args = 0, pretend = 0, frame = 0
 718              		@ frame_needed = 0, uses_anonymous_args = 0
 719              		@ link register save eliminated.
 691:Libraries/STM32F4xx_HAL_Driver/Src/stm32f4xx_hal_dac.c ****   /* Check the parameters */
 692:Libraries/STM32F4xx_HAL_Driver/Src/stm32f4xx_hal_dac.c ****   assert_param(IS_DAC_CHANNEL(Channel));
 720              		.loc 1 692 3 view .LVU210
 693:Libraries/STM32F4xx_HAL_Driver/Src/stm32f4xx_hal_dac.c ****   
 694:Libraries/STM32F4xx_HAL_Driver/Src/stm32f4xx_hal_dac.c ****   /* Returns the DAC channel data output register value */
 695:Libraries/STM32F4xx_HAL_Driver/Src/stm32f4xx_hal_dac.c ****   if(Channel == DAC_CHANNEL_1)
 721              		.loc 1 695 3 view .LVU211
 722              		.loc 1 695 5 is_stmt 0 view .LVU212
 723 0000 11B9     		cbnz	r1, .L56
 696:Libraries/STM32F4xx_HAL_Driver/Src/stm32f4xx_hal_dac.c ****   {
 697:Libraries/STM32F4xx_HAL_Driver/Src/stm32f4xx_hal_dac.c ****     return hdac->Instance->DOR1;
 724              		.loc 1 697 5 is_stmt 1 view .LVU213
 725              		.loc 1 697 16 is_stmt 0 view .LVU214
 726 0002 0368     		ldr	r3, [r0]
 727              		.loc 1 697 26 view .LVU215
 728 0004 D86A     		ldr	r0, [r3, #44]
 729              	.LVL56:
 730              		.loc 1 697 26 view .LVU216
 731 0006 7047     		bx	lr
 732              	.LVL57:
 733              	.L56:
 698:Libraries/STM32F4xx_HAL_Driver/Src/stm32f4xx_hal_dac.c ****   }
 699:Libraries/STM32F4xx_HAL_Driver/Src/stm32f4xx_hal_dac.c ****   else
 700:Libraries/STM32F4xx_HAL_Driver/Src/stm32f4xx_hal_dac.c ****   {
 701:Libraries/STM32F4xx_HAL_Driver/Src/stm32f4xx_hal_dac.c ****     return hdac->Instance->DOR2;
 734              		.loc 1 701 5 is_stmt 1 view .LVU217
 735              		.loc 1 701 16 is_stmt 0 view .LVU218
 736 0008 0368     		ldr	r3, [r0]
 737              		.loc 1 701 26 view .LVU219
 738 000a 186B     		ldr	r0, [r3, #48]
 739              	.LVL58:
 702:Libraries/STM32F4xx_HAL_Driver/Src/stm32f4xx_hal_dac.c ****   }
 703:Libraries/STM32F4xx_HAL_Driver/Src/stm32f4xx_hal_dac.c **** }
 740              		.loc 1 703 1 view .LVU220
 741 000c 7047     		bx	lr
 742              		.cfi_endproc
 743              	.LFE138:
 745              		.section	.text.HAL_DAC_ConvCpltCallbackCh1,"ax",%progbits
 746              		.align	1
 747              		.weak	HAL_DAC_ConvCpltCallbackCh1
 748              		.syntax unified
 749              		.thumb
 750              		.thumb_func
ARM GAS  C:\Users\yzy\AppData\Local\Temp\ccS9Kmk9.s 			page 28


 751              		.fpu softvfp
 753              	HAL_DAC_ConvCpltCallbackCh1:
 754              	.LVL59:
 755              	.LFB140:
 704:Libraries/STM32F4xx_HAL_Driver/Src/stm32f4xx_hal_dac.c **** 
 705:Libraries/STM32F4xx_HAL_Driver/Src/stm32f4xx_hal_dac.c **** /**
 706:Libraries/STM32F4xx_HAL_Driver/Src/stm32f4xx_hal_dac.c ****   * @brief  Handles DAC interrupt request  
 707:Libraries/STM32F4xx_HAL_Driver/Src/stm32f4xx_hal_dac.c ****   * @param  hdac pointer to a DAC_HandleTypeDef structure that contains
 708:Libraries/STM32F4xx_HAL_Driver/Src/stm32f4xx_hal_dac.c ****   *         the configuration information for the specified DAC.
 709:Libraries/STM32F4xx_HAL_Driver/Src/stm32f4xx_hal_dac.c ****   * @retval None
 710:Libraries/STM32F4xx_HAL_Driver/Src/stm32f4xx_hal_dac.c ****   */
 711:Libraries/STM32F4xx_HAL_Driver/Src/stm32f4xx_hal_dac.c **** void HAL_DAC_IRQHandler(DAC_HandleTypeDef* hdac)
 712:Libraries/STM32F4xx_HAL_Driver/Src/stm32f4xx_hal_dac.c **** {
 713:Libraries/STM32F4xx_HAL_Driver/Src/stm32f4xx_hal_dac.c ****   /* Check underrun channel 1 flag */
 714:Libraries/STM32F4xx_HAL_Driver/Src/stm32f4xx_hal_dac.c ****   if(__HAL_DAC_GET_FLAG(hdac, DAC_FLAG_DMAUDR1))
 715:Libraries/STM32F4xx_HAL_Driver/Src/stm32f4xx_hal_dac.c ****   {
 716:Libraries/STM32F4xx_HAL_Driver/Src/stm32f4xx_hal_dac.c ****     /* Change DAC state to error state */
 717:Libraries/STM32F4xx_HAL_Driver/Src/stm32f4xx_hal_dac.c ****     hdac->State = HAL_DAC_STATE_ERROR;
 718:Libraries/STM32F4xx_HAL_Driver/Src/stm32f4xx_hal_dac.c ****     
 719:Libraries/STM32F4xx_HAL_Driver/Src/stm32f4xx_hal_dac.c ****     /* Set DAC error code to channel1 DMA underrun error */
 720:Libraries/STM32F4xx_HAL_Driver/Src/stm32f4xx_hal_dac.c ****     hdac->ErrorCode |= HAL_DAC_ERROR_DMAUNDERRUNCH1;
 721:Libraries/STM32F4xx_HAL_Driver/Src/stm32f4xx_hal_dac.c ****     
 722:Libraries/STM32F4xx_HAL_Driver/Src/stm32f4xx_hal_dac.c ****     /* Clear the underrun flag */
 723:Libraries/STM32F4xx_HAL_Driver/Src/stm32f4xx_hal_dac.c ****     __HAL_DAC_CLEAR_FLAG(hdac,DAC_FLAG_DMAUDR1);
 724:Libraries/STM32F4xx_HAL_Driver/Src/stm32f4xx_hal_dac.c ****     
 725:Libraries/STM32F4xx_HAL_Driver/Src/stm32f4xx_hal_dac.c ****     /* Disable the selected DAC channel1 DMA request */
 726:Libraries/STM32F4xx_HAL_Driver/Src/stm32f4xx_hal_dac.c ****     hdac->Instance->CR &= ~DAC_CR_DMAEN1;
 727:Libraries/STM32F4xx_HAL_Driver/Src/stm32f4xx_hal_dac.c ****     
 728:Libraries/STM32F4xx_HAL_Driver/Src/stm32f4xx_hal_dac.c ****     /* Error callback */ 
 729:Libraries/STM32F4xx_HAL_Driver/Src/stm32f4xx_hal_dac.c **** #if (USE_HAL_DAC_REGISTER_CALLBACKS == 1)
 730:Libraries/STM32F4xx_HAL_Driver/Src/stm32f4xx_hal_dac.c ****       hdac->DMAUnderrunCallbackCh1(hdac);
 731:Libraries/STM32F4xx_HAL_Driver/Src/stm32f4xx_hal_dac.c **** #else
 732:Libraries/STM32F4xx_HAL_Driver/Src/stm32f4xx_hal_dac.c ****     HAL_DAC_DMAUnderrunCallbackCh1(hdac);
 733:Libraries/STM32F4xx_HAL_Driver/Src/stm32f4xx_hal_dac.c **** #endif /* USE_HAL_DAC_REGISTER_CALLBACKS */
 734:Libraries/STM32F4xx_HAL_Driver/Src/stm32f4xx_hal_dac.c ****   }
 735:Libraries/STM32F4xx_HAL_Driver/Src/stm32f4xx_hal_dac.c ****   /* Check underrun channel 2 flag */
 736:Libraries/STM32F4xx_HAL_Driver/Src/stm32f4xx_hal_dac.c ****   if(__HAL_DAC_GET_FLAG(hdac, DAC_FLAG_DMAUDR2))
 737:Libraries/STM32F4xx_HAL_Driver/Src/stm32f4xx_hal_dac.c ****   {
 738:Libraries/STM32F4xx_HAL_Driver/Src/stm32f4xx_hal_dac.c ****     /* Change DAC state to error state */
 739:Libraries/STM32F4xx_HAL_Driver/Src/stm32f4xx_hal_dac.c ****     hdac->State = HAL_DAC_STATE_ERROR;
 740:Libraries/STM32F4xx_HAL_Driver/Src/stm32f4xx_hal_dac.c ****     
 741:Libraries/STM32F4xx_HAL_Driver/Src/stm32f4xx_hal_dac.c ****     /* Set DAC error code to channel2 DMA underrun error */
 742:Libraries/STM32F4xx_HAL_Driver/Src/stm32f4xx_hal_dac.c ****     hdac->ErrorCode |= HAL_DAC_ERROR_DMAUNDERRUNCH2;
 743:Libraries/STM32F4xx_HAL_Driver/Src/stm32f4xx_hal_dac.c ****     
 744:Libraries/STM32F4xx_HAL_Driver/Src/stm32f4xx_hal_dac.c ****     /* Clear the underrun flag */
 745:Libraries/STM32F4xx_HAL_Driver/Src/stm32f4xx_hal_dac.c ****     __HAL_DAC_CLEAR_FLAG(hdac,DAC_FLAG_DMAUDR2);
 746:Libraries/STM32F4xx_HAL_Driver/Src/stm32f4xx_hal_dac.c ****     
 747:Libraries/STM32F4xx_HAL_Driver/Src/stm32f4xx_hal_dac.c ****     /* Disable the selected DAC channel1 DMA request */
 748:Libraries/STM32F4xx_HAL_Driver/Src/stm32f4xx_hal_dac.c ****     hdac->Instance->CR &= ~DAC_CR_DMAEN2;
 749:Libraries/STM32F4xx_HAL_Driver/Src/stm32f4xx_hal_dac.c ****     
 750:Libraries/STM32F4xx_HAL_Driver/Src/stm32f4xx_hal_dac.c ****     /* Error callback */ 
 751:Libraries/STM32F4xx_HAL_Driver/Src/stm32f4xx_hal_dac.c **** #if (USE_HAL_DAC_REGISTER_CALLBACKS == 1)
 752:Libraries/STM32F4xx_HAL_Driver/Src/stm32f4xx_hal_dac.c ****       hdac->DMAUnderrunCallbackCh2(hdac);
 753:Libraries/STM32F4xx_HAL_Driver/Src/stm32f4xx_hal_dac.c **** #else
 754:Libraries/STM32F4xx_HAL_Driver/Src/stm32f4xx_hal_dac.c ****     HAL_DACEx_DMAUnderrunCallbackCh2(hdac);
 755:Libraries/STM32F4xx_HAL_Driver/Src/stm32f4xx_hal_dac.c **** #endif /* USE_HAL_DAC_REGISTER_CALLBACKS */
 756:Libraries/STM32F4xx_HAL_Driver/Src/stm32f4xx_hal_dac.c ****   }
ARM GAS  C:\Users\yzy\AppData\Local\Temp\ccS9Kmk9.s 			page 29


 757:Libraries/STM32F4xx_HAL_Driver/Src/stm32f4xx_hal_dac.c **** }
 758:Libraries/STM32F4xx_HAL_Driver/Src/stm32f4xx_hal_dac.c **** 
 759:Libraries/STM32F4xx_HAL_Driver/Src/stm32f4xx_hal_dac.c **** /**
 760:Libraries/STM32F4xx_HAL_Driver/Src/stm32f4xx_hal_dac.c ****   * @brief  Conversion complete callback in non blocking mode for Channel1 
 761:Libraries/STM32F4xx_HAL_Driver/Src/stm32f4xx_hal_dac.c ****   * @param  hdac pointer to a DAC_HandleTypeDef structure that contains
 762:Libraries/STM32F4xx_HAL_Driver/Src/stm32f4xx_hal_dac.c ****   *         the configuration information for the specified DAC.
 763:Libraries/STM32F4xx_HAL_Driver/Src/stm32f4xx_hal_dac.c ****   * @retval None
 764:Libraries/STM32F4xx_HAL_Driver/Src/stm32f4xx_hal_dac.c ****   */
 765:Libraries/STM32F4xx_HAL_Driver/Src/stm32f4xx_hal_dac.c **** __weak void HAL_DAC_ConvCpltCallbackCh1(DAC_HandleTypeDef* hdac)
 766:Libraries/STM32F4xx_HAL_Driver/Src/stm32f4xx_hal_dac.c **** {
 756              		.loc 1 766 1 is_stmt 1 view -0
 757              		.cfi_startproc
 758              		@ args = 0, pretend = 0, frame = 0
 759              		@ frame_needed = 0, uses_anonymous_args = 0
 760              		@ link register save eliminated.
 767:Libraries/STM32F4xx_HAL_Driver/Src/stm32f4xx_hal_dac.c ****   /* Prevent unused argument(s) compilation warning */
 768:Libraries/STM32F4xx_HAL_Driver/Src/stm32f4xx_hal_dac.c ****   UNUSED(hdac);
 761              		.loc 1 768 3 view .LVU222
 769:Libraries/STM32F4xx_HAL_Driver/Src/stm32f4xx_hal_dac.c ****   /* NOTE : This function Should not be modified, when the callback is needed,
 770:Libraries/STM32F4xx_HAL_Driver/Src/stm32f4xx_hal_dac.c ****             the HAL_DAC_ConvCpltCallback could be implemented in the user file
 771:Libraries/STM32F4xx_HAL_Driver/Src/stm32f4xx_hal_dac.c ****    */
 772:Libraries/STM32F4xx_HAL_Driver/Src/stm32f4xx_hal_dac.c **** }
 762              		.loc 1 772 1 is_stmt 0 view .LVU223
 763 0000 7047     		bx	lr
 764              		.cfi_endproc
 765              	.LFE140:
 767              		.section	.text.DAC_DMAConvCpltCh1,"ax",%progbits
 768              		.align	1
 769              		.syntax unified
 770              		.thumb
 771              		.thumb_func
 772              		.fpu softvfp
 774              	DAC_DMAConvCpltCh1:
 775              	.LVL60:
 776              	.LFB148:
 773:Libraries/STM32F4xx_HAL_Driver/Src/stm32f4xx_hal_dac.c **** 
 774:Libraries/STM32F4xx_HAL_Driver/Src/stm32f4xx_hal_dac.c **** /**
 775:Libraries/STM32F4xx_HAL_Driver/Src/stm32f4xx_hal_dac.c ****   * @brief  Conversion half DMA transfer callback in non blocking mode for Channel1 
 776:Libraries/STM32F4xx_HAL_Driver/Src/stm32f4xx_hal_dac.c ****   * @param  hdac pointer to a DAC_HandleTypeDef structure that contains
 777:Libraries/STM32F4xx_HAL_Driver/Src/stm32f4xx_hal_dac.c ****   *         the configuration information for the specified DAC.
 778:Libraries/STM32F4xx_HAL_Driver/Src/stm32f4xx_hal_dac.c ****   * @retval None
 779:Libraries/STM32F4xx_HAL_Driver/Src/stm32f4xx_hal_dac.c ****   */
 780:Libraries/STM32F4xx_HAL_Driver/Src/stm32f4xx_hal_dac.c **** __weak void HAL_DAC_ConvHalfCpltCallbackCh1(DAC_HandleTypeDef* hdac)
 781:Libraries/STM32F4xx_HAL_Driver/Src/stm32f4xx_hal_dac.c **** {
 782:Libraries/STM32F4xx_HAL_Driver/Src/stm32f4xx_hal_dac.c ****   /* Prevent unused argument(s) compilation warning */
 783:Libraries/STM32F4xx_HAL_Driver/Src/stm32f4xx_hal_dac.c ****   UNUSED(hdac);
 784:Libraries/STM32F4xx_HAL_Driver/Src/stm32f4xx_hal_dac.c ****   /* NOTE : This function Should not be modified, when the callback is needed,
 785:Libraries/STM32F4xx_HAL_Driver/Src/stm32f4xx_hal_dac.c ****             the HAL_DAC_ConvHalfCpltCallbackCh1 could be implemented in the user file
 786:Libraries/STM32F4xx_HAL_Driver/Src/stm32f4xx_hal_dac.c ****    */
 787:Libraries/STM32F4xx_HAL_Driver/Src/stm32f4xx_hal_dac.c **** }
 788:Libraries/STM32F4xx_HAL_Driver/Src/stm32f4xx_hal_dac.c **** 
 789:Libraries/STM32F4xx_HAL_Driver/Src/stm32f4xx_hal_dac.c **** /**
 790:Libraries/STM32F4xx_HAL_Driver/Src/stm32f4xx_hal_dac.c ****   * @brief  Error DAC callback for Channel1.
 791:Libraries/STM32F4xx_HAL_Driver/Src/stm32f4xx_hal_dac.c ****   * @param  hdac pointer to a DAC_HandleTypeDef structure that contains
 792:Libraries/STM32F4xx_HAL_Driver/Src/stm32f4xx_hal_dac.c ****   *         the configuration information for the specified DAC.
 793:Libraries/STM32F4xx_HAL_Driver/Src/stm32f4xx_hal_dac.c ****   * @retval None
 794:Libraries/STM32F4xx_HAL_Driver/Src/stm32f4xx_hal_dac.c ****   */
ARM GAS  C:\Users\yzy\AppData\Local\Temp\ccS9Kmk9.s 			page 30


 795:Libraries/STM32F4xx_HAL_Driver/Src/stm32f4xx_hal_dac.c **** __weak void HAL_DAC_ErrorCallbackCh1(DAC_HandleTypeDef *hdac)
 796:Libraries/STM32F4xx_HAL_Driver/Src/stm32f4xx_hal_dac.c **** {
 797:Libraries/STM32F4xx_HAL_Driver/Src/stm32f4xx_hal_dac.c ****   /* Prevent unused argument(s) compilation warning */
 798:Libraries/STM32F4xx_HAL_Driver/Src/stm32f4xx_hal_dac.c ****   UNUSED(hdac);
 799:Libraries/STM32F4xx_HAL_Driver/Src/stm32f4xx_hal_dac.c ****   /* NOTE : This function Should not be modified, when the callback is needed,
 800:Libraries/STM32F4xx_HAL_Driver/Src/stm32f4xx_hal_dac.c ****             the HAL_DAC_ErrorCallbackCh1 could be implemented in the user file
 801:Libraries/STM32F4xx_HAL_Driver/Src/stm32f4xx_hal_dac.c ****    */
 802:Libraries/STM32F4xx_HAL_Driver/Src/stm32f4xx_hal_dac.c **** }
 803:Libraries/STM32F4xx_HAL_Driver/Src/stm32f4xx_hal_dac.c **** 
 804:Libraries/STM32F4xx_HAL_Driver/Src/stm32f4xx_hal_dac.c **** /**
 805:Libraries/STM32F4xx_HAL_Driver/Src/stm32f4xx_hal_dac.c ****   * @brief  DMA underrun DAC callback for channel1.
 806:Libraries/STM32F4xx_HAL_Driver/Src/stm32f4xx_hal_dac.c ****   * @param  hdac pointer to a DAC_HandleTypeDef structure that contains
 807:Libraries/STM32F4xx_HAL_Driver/Src/stm32f4xx_hal_dac.c ****   *         the configuration information for the specified DAC.
 808:Libraries/STM32F4xx_HAL_Driver/Src/stm32f4xx_hal_dac.c ****   * @retval None
 809:Libraries/STM32F4xx_HAL_Driver/Src/stm32f4xx_hal_dac.c ****   */
 810:Libraries/STM32F4xx_HAL_Driver/Src/stm32f4xx_hal_dac.c **** __weak void HAL_DAC_DMAUnderrunCallbackCh1(DAC_HandleTypeDef *hdac)
 811:Libraries/STM32F4xx_HAL_Driver/Src/stm32f4xx_hal_dac.c **** {
 812:Libraries/STM32F4xx_HAL_Driver/Src/stm32f4xx_hal_dac.c ****   /* Prevent unused argument(s) compilation warning */
 813:Libraries/STM32F4xx_HAL_Driver/Src/stm32f4xx_hal_dac.c ****   UNUSED(hdac);
 814:Libraries/STM32F4xx_HAL_Driver/Src/stm32f4xx_hal_dac.c ****   /* NOTE : This function Should not be modified, when the callback is needed,
 815:Libraries/STM32F4xx_HAL_Driver/Src/stm32f4xx_hal_dac.c ****             the HAL_DAC_DMAUnderrunCallbackCh1 could be implemented in the user file
 816:Libraries/STM32F4xx_HAL_Driver/Src/stm32f4xx_hal_dac.c ****    */
 817:Libraries/STM32F4xx_HAL_Driver/Src/stm32f4xx_hal_dac.c **** }
 818:Libraries/STM32F4xx_HAL_Driver/Src/stm32f4xx_hal_dac.c **** 
 819:Libraries/STM32F4xx_HAL_Driver/Src/stm32f4xx_hal_dac.c **** /**
 820:Libraries/STM32F4xx_HAL_Driver/Src/stm32f4xx_hal_dac.c ****   * @}
 821:Libraries/STM32F4xx_HAL_Driver/Src/stm32f4xx_hal_dac.c ****   */
 822:Libraries/STM32F4xx_HAL_Driver/Src/stm32f4xx_hal_dac.c ****   
 823:Libraries/STM32F4xx_HAL_Driver/Src/stm32f4xx_hal_dac.c **** /** @defgroup DAC_Exported_Functions_Group3 Peripheral Control functions
 824:Libraries/STM32F4xx_HAL_Driver/Src/stm32f4xx_hal_dac.c ****  *  @brief   	Peripheral Control functions 
 825:Libraries/STM32F4xx_HAL_Driver/Src/stm32f4xx_hal_dac.c ****  *
 826:Libraries/STM32F4xx_HAL_Driver/Src/stm32f4xx_hal_dac.c **** @verbatim   
 827:Libraries/STM32F4xx_HAL_Driver/Src/stm32f4xx_hal_dac.c ****   ==============================================================================
 828:Libraries/STM32F4xx_HAL_Driver/Src/stm32f4xx_hal_dac.c ****              ##### Peripheral Control functions #####
 829:Libraries/STM32F4xx_HAL_Driver/Src/stm32f4xx_hal_dac.c ****   ==============================================================================  
 830:Libraries/STM32F4xx_HAL_Driver/Src/stm32f4xx_hal_dac.c ****     [..]  This section provides functions allowing to:
 831:Libraries/STM32F4xx_HAL_Driver/Src/stm32f4xx_hal_dac.c ****       (+) Configure channels. 
 832:Libraries/STM32F4xx_HAL_Driver/Src/stm32f4xx_hal_dac.c ****       (+) Set the specified data holding register value for DAC channel.
 833:Libraries/STM32F4xx_HAL_Driver/Src/stm32f4xx_hal_dac.c ****       
 834:Libraries/STM32F4xx_HAL_Driver/Src/stm32f4xx_hal_dac.c **** @endverbatim
 835:Libraries/STM32F4xx_HAL_Driver/Src/stm32f4xx_hal_dac.c ****   * @{
 836:Libraries/STM32F4xx_HAL_Driver/Src/stm32f4xx_hal_dac.c ****   */
 837:Libraries/STM32F4xx_HAL_Driver/Src/stm32f4xx_hal_dac.c **** 
 838:Libraries/STM32F4xx_HAL_Driver/Src/stm32f4xx_hal_dac.c **** /**
 839:Libraries/STM32F4xx_HAL_Driver/Src/stm32f4xx_hal_dac.c ****   * @brief  Configures the selected DAC channel.
 840:Libraries/STM32F4xx_HAL_Driver/Src/stm32f4xx_hal_dac.c ****   * @param  hdac pointer to a DAC_HandleTypeDef structure that contains
 841:Libraries/STM32F4xx_HAL_Driver/Src/stm32f4xx_hal_dac.c ****   *         the configuration information for the specified DAC.
 842:Libraries/STM32F4xx_HAL_Driver/Src/stm32f4xx_hal_dac.c ****   * @param  sConfig DAC configuration structure.
 843:Libraries/STM32F4xx_HAL_Driver/Src/stm32f4xx_hal_dac.c ****   * @param  Channel The selected DAC channel. 
 844:Libraries/STM32F4xx_HAL_Driver/Src/stm32f4xx_hal_dac.c ****   *          This parameter can be one of the following values:
 845:Libraries/STM32F4xx_HAL_Driver/Src/stm32f4xx_hal_dac.c ****   *            @arg DAC_CHANNEL_1: DAC Channel1 selected
 846:Libraries/STM32F4xx_HAL_Driver/Src/stm32f4xx_hal_dac.c ****   *            @arg DAC_CHANNEL_2: DAC Channel2 selected
 847:Libraries/STM32F4xx_HAL_Driver/Src/stm32f4xx_hal_dac.c ****   * @retval HAL status
 848:Libraries/STM32F4xx_HAL_Driver/Src/stm32f4xx_hal_dac.c ****   */
 849:Libraries/STM32F4xx_HAL_Driver/Src/stm32f4xx_hal_dac.c **** HAL_StatusTypeDef HAL_DAC_ConfigChannel(DAC_HandleTypeDef* hdac, DAC_ChannelConfTypeDef* sConfig, u
 850:Libraries/STM32F4xx_HAL_Driver/Src/stm32f4xx_hal_dac.c **** {
 851:Libraries/STM32F4xx_HAL_Driver/Src/stm32f4xx_hal_dac.c ****   uint32_t tmpreg1 = 0U, tmpreg2 = 0U;
ARM GAS  C:\Users\yzy\AppData\Local\Temp\ccS9Kmk9.s 			page 31


 852:Libraries/STM32F4xx_HAL_Driver/Src/stm32f4xx_hal_dac.c **** 
 853:Libraries/STM32F4xx_HAL_Driver/Src/stm32f4xx_hal_dac.c ****   /* Check the DAC parameters */
 854:Libraries/STM32F4xx_HAL_Driver/Src/stm32f4xx_hal_dac.c ****   assert_param(IS_DAC_TRIGGER(sConfig->DAC_Trigger));
 855:Libraries/STM32F4xx_HAL_Driver/Src/stm32f4xx_hal_dac.c ****   assert_param(IS_DAC_OUTPUT_BUFFER_STATE(sConfig->DAC_OutputBuffer));
 856:Libraries/STM32F4xx_HAL_Driver/Src/stm32f4xx_hal_dac.c ****   assert_param(IS_DAC_CHANNEL(Channel));
 857:Libraries/STM32F4xx_HAL_Driver/Src/stm32f4xx_hal_dac.c ****   
 858:Libraries/STM32F4xx_HAL_Driver/Src/stm32f4xx_hal_dac.c ****   /* Process locked */
 859:Libraries/STM32F4xx_HAL_Driver/Src/stm32f4xx_hal_dac.c ****   __HAL_LOCK(hdac);
 860:Libraries/STM32F4xx_HAL_Driver/Src/stm32f4xx_hal_dac.c ****   
 861:Libraries/STM32F4xx_HAL_Driver/Src/stm32f4xx_hal_dac.c ****   /* Change DAC state */
 862:Libraries/STM32F4xx_HAL_Driver/Src/stm32f4xx_hal_dac.c ****   hdac->State = HAL_DAC_STATE_BUSY;
 863:Libraries/STM32F4xx_HAL_Driver/Src/stm32f4xx_hal_dac.c ****   
 864:Libraries/STM32F4xx_HAL_Driver/Src/stm32f4xx_hal_dac.c ****   /* Get the DAC CR value */
 865:Libraries/STM32F4xx_HAL_Driver/Src/stm32f4xx_hal_dac.c ****   tmpreg1 = hdac->Instance->CR;
 866:Libraries/STM32F4xx_HAL_Driver/Src/stm32f4xx_hal_dac.c ****   /* Clear BOFFx, TENx, TSELx, WAVEx and MAMPx bits */
 867:Libraries/STM32F4xx_HAL_Driver/Src/stm32f4xx_hal_dac.c ****   tmpreg1 &= ~(((uint32_t)(DAC_CR_MAMP1 | DAC_CR_WAVE1 | DAC_CR_TSEL1 | DAC_CR_TEN1 | DAC_CR_BOFF1)
 868:Libraries/STM32F4xx_HAL_Driver/Src/stm32f4xx_hal_dac.c ****   /* Configure for the selected DAC channel: buffer output, trigger */
 869:Libraries/STM32F4xx_HAL_Driver/Src/stm32f4xx_hal_dac.c ****   /* Set TSELx and TENx bits according to DAC_Trigger value */
 870:Libraries/STM32F4xx_HAL_Driver/Src/stm32f4xx_hal_dac.c ****   /* Set BOFFx bit according to DAC_OutputBuffer value */   
 871:Libraries/STM32F4xx_HAL_Driver/Src/stm32f4xx_hal_dac.c ****   tmpreg2 = (sConfig->DAC_Trigger | sConfig->DAC_OutputBuffer);
 872:Libraries/STM32F4xx_HAL_Driver/Src/stm32f4xx_hal_dac.c ****   /* Calculate CR register value depending on DAC_Channel */
 873:Libraries/STM32F4xx_HAL_Driver/Src/stm32f4xx_hal_dac.c ****   tmpreg1 |= tmpreg2 << Channel;
 874:Libraries/STM32F4xx_HAL_Driver/Src/stm32f4xx_hal_dac.c ****   /* Write to DAC CR */
 875:Libraries/STM32F4xx_HAL_Driver/Src/stm32f4xx_hal_dac.c ****   hdac->Instance->CR = tmpreg1;
 876:Libraries/STM32F4xx_HAL_Driver/Src/stm32f4xx_hal_dac.c ****   /* Disable wave generation */
 877:Libraries/STM32F4xx_HAL_Driver/Src/stm32f4xx_hal_dac.c ****   hdac->Instance->CR &= ~(DAC_CR_WAVE1 << Channel);
 878:Libraries/STM32F4xx_HAL_Driver/Src/stm32f4xx_hal_dac.c ****   
 879:Libraries/STM32F4xx_HAL_Driver/Src/stm32f4xx_hal_dac.c ****   /* Change DAC state */
 880:Libraries/STM32F4xx_HAL_Driver/Src/stm32f4xx_hal_dac.c ****   hdac->State = HAL_DAC_STATE_READY;
 881:Libraries/STM32F4xx_HAL_Driver/Src/stm32f4xx_hal_dac.c ****   
 882:Libraries/STM32F4xx_HAL_Driver/Src/stm32f4xx_hal_dac.c ****   /* Process unlocked */
 883:Libraries/STM32F4xx_HAL_Driver/Src/stm32f4xx_hal_dac.c ****   __HAL_UNLOCK(hdac);
 884:Libraries/STM32F4xx_HAL_Driver/Src/stm32f4xx_hal_dac.c ****   
 885:Libraries/STM32F4xx_HAL_Driver/Src/stm32f4xx_hal_dac.c ****   /* Return function status */
 886:Libraries/STM32F4xx_HAL_Driver/Src/stm32f4xx_hal_dac.c ****   return HAL_OK;
 887:Libraries/STM32F4xx_HAL_Driver/Src/stm32f4xx_hal_dac.c **** }
 888:Libraries/STM32F4xx_HAL_Driver/Src/stm32f4xx_hal_dac.c **** 
 889:Libraries/STM32F4xx_HAL_Driver/Src/stm32f4xx_hal_dac.c **** /**
 890:Libraries/STM32F4xx_HAL_Driver/Src/stm32f4xx_hal_dac.c ****   * @brief  Set the specified data holding register value for DAC channel.
 891:Libraries/STM32F4xx_HAL_Driver/Src/stm32f4xx_hal_dac.c ****   * @param  hdac pointer to a DAC_HandleTypeDef structure that contains
 892:Libraries/STM32F4xx_HAL_Driver/Src/stm32f4xx_hal_dac.c ****   *         the configuration information for the specified DAC.
 893:Libraries/STM32F4xx_HAL_Driver/Src/stm32f4xx_hal_dac.c ****   * @param  Channel The selected DAC channel. 
 894:Libraries/STM32F4xx_HAL_Driver/Src/stm32f4xx_hal_dac.c ****   *          This parameter can be one of the following values:
 895:Libraries/STM32F4xx_HAL_Driver/Src/stm32f4xx_hal_dac.c ****   *            @arg DAC_CHANNEL_1: DAC Channel1 selected
 896:Libraries/STM32F4xx_HAL_Driver/Src/stm32f4xx_hal_dac.c ****   *            @arg DAC_CHANNEL_2: DAC Channel2 selected  
 897:Libraries/STM32F4xx_HAL_Driver/Src/stm32f4xx_hal_dac.c ****   * @param  Alignment Specifies the data alignment.
 898:Libraries/STM32F4xx_HAL_Driver/Src/stm32f4xx_hal_dac.c ****   *          This parameter can be one of the following values:
 899:Libraries/STM32F4xx_HAL_Driver/Src/stm32f4xx_hal_dac.c ****   *            @arg DAC_ALIGN_8B_R: 8bit right data alignment selected
 900:Libraries/STM32F4xx_HAL_Driver/Src/stm32f4xx_hal_dac.c ****   *            @arg DAC_ALIGN_12B_L: 12bit left data alignment selected
 901:Libraries/STM32F4xx_HAL_Driver/Src/stm32f4xx_hal_dac.c ****   *            @arg DAC_ALIGN_12B_R: 12bit right data alignment selected
 902:Libraries/STM32F4xx_HAL_Driver/Src/stm32f4xx_hal_dac.c ****   * @param  Data Data to be loaded in the selected data holding register.
 903:Libraries/STM32F4xx_HAL_Driver/Src/stm32f4xx_hal_dac.c ****   * @retval HAL status
 904:Libraries/STM32F4xx_HAL_Driver/Src/stm32f4xx_hal_dac.c ****   */
 905:Libraries/STM32F4xx_HAL_Driver/Src/stm32f4xx_hal_dac.c **** HAL_StatusTypeDef HAL_DAC_SetValue(DAC_HandleTypeDef* hdac, uint32_t Channel, uint32_t Alignment, u
 906:Libraries/STM32F4xx_HAL_Driver/Src/stm32f4xx_hal_dac.c **** {  
 907:Libraries/STM32F4xx_HAL_Driver/Src/stm32f4xx_hal_dac.c ****   __IO uint32_t tmp = 0U;
 908:Libraries/STM32F4xx_HAL_Driver/Src/stm32f4xx_hal_dac.c ****   
ARM GAS  C:\Users\yzy\AppData\Local\Temp\ccS9Kmk9.s 			page 32


 909:Libraries/STM32F4xx_HAL_Driver/Src/stm32f4xx_hal_dac.c ****   /* Check the parameters */
 910:Libraries/STM32F4xx_HAL_Driver/Src/stm32f4xx_hal_dac.c ****   assert_param(IS_DAC_CHANNEL(Channel));
 911:Libraries/STM32F4xx_HAL_Driver/Src/stm32f4xx_hal_dac.c ****   assert_param(IS_DAC_ALIGN(Alignment));
 912:Libraries/STM32F4xx_HAL_Driver/Src/stm32f4xx_hal_dac.c ****   assert_param(IS_DAC_DATA(Data));
 913:Libraries/STM32F4xx_HAL_Driver/Src/stm32f4xx_hal_dac.c ****   
 914:Libraries/STM32F4xx_HAL_Driver/Src/stm32f4xx_hal_dac.c ****   tmp = (uint32_t)hdac->Instance; 
 915:Libraries/STM32F4xx_HAL_Driver/Src/stm32f4xx_hal_dac.c ****   if(Channel == DAC_CHANNEL_1)
 916:Libraries/STM32F4xx_HAL_Driver/Src/stm32f4xx_hal_dac.c ****   {
 917:Libraries/STM32F4xx_HAL_Driver/Src/stm32f4xx_hal_dac.c ****     tmp += DAC_DHR12R1_ALIGNMENT(Alignment);
 918:Libraries/STM32F4xx_HAL_Driver/Src/stm32f4xx_hal_dac.c ****   }
 919:Libraries/STM32F4xx_HAL_Driver/Src/stm32f4xx_hal_dac.c ****   else
 920:Libraries/STM32F4xx_HAL_Driver/Src/stm32f4xx_hal_dac.c ****   {
 921:Libraries/STM32F4xx_HAL_Driver/Src/stm32f4xx_hal_dac.c ****     tmp += DAC_DHR12R2_ALIGNMENT(Alignment);
 922:Libraries/STM32F4xx_HAL_Driver/Src/stm32f4xx_hal_dac.c ****   }
 923:Libraries/STM32F4xx_HAL_Driver/Src/stm32f4xx_hal_dac.c **** 
 924:Libraries/STM32F4xx_HAL_Driver/Src/stm32f4xx_hal_dac.c ****   /* Set the DAC channel1 selected data holding register */
 925:Libraries/STM32F4xx_HAL_Driver/Src/stm32f4xx_hal_dac.c ****   *(__IO uint32_t *) tmp = Data;
 926:Libraries/STM32F4xx_HAL_Driver/Src/stm32f4xx_hal_dac.c ****   
 927:Libraries/STM32F4xx_HAL_Driver/Src/stm32f4xx_hal_dac.c ****   /* Return function status */
 928:Libraries/STM32F4xx_HAL_Driver/Src/stm32f4xx_hal_dac.c ****   return HAL_OK;
 929:Libraries/STM32F4xx_HAL_Driver/Src/stm32f4xx_hal_dac.c **** }
 930:Libraries/STM32F4xx_HAL_Driver/Src/stm32f4xx_hal_dac.c **** 
 931:Libraries/STM32F4xx_HAL_Driver/Src/stm32f4xx_hal_dac.c **** /**
 932:Libraries/STM32F4xx_HAL_Driver/Src/stm32f4xx_hal_dac.c ****   * @}
 933:Libraries/STM32F4xx_HAL_Driver/Src/stm32f4xx_hal_dac.c ****   */
 934:Libraries/STM32F4xx_HAL_Driver/Src/stm32f4xx_hal_dac.c **** 
 935:Libraries/STM32F4xx_HAL_Driver/Src/stm32f4xx_hal_dac.c **** /** @defgroup DAC_Exported_Functions_Group4 Peripheral State and Errors functions
 936:Libraries/STM32F4xx_HAL_Driver/Src/stm32f4xx_hal_dac.c ****  *  @brief   Peripheral State and Errors functions 
 937:Libraries/STM32F4xx_HAL_Driver/Src/stm32f4xx_hal_dac.c ****  *
 938:Libraries/STM32F4xx_HAL_Driver/Src/stm32f4xx_hal_dac.c **** @verbatim   
 939:Libraries/STM32F4xx_HAL_Driver/Src/stm32f4xx_hal_dac.c ****   ==============================================================================
 940:Libraries/STM32F4xx_HAL_Driver/Src/stm32f4xx_hal_dac.c ****             ##### Peripheral State and Errors functions #####
 941:Libraries/STM32F4xx_HAL_Driver/Src/stm32f4xx_hal_dac.c ****   ==============================================================================  
 942:Libraries/STM32F4xx_HAL_Driver/Src/stm32f4xx_hal_dac.c ****     [..]
 943:Libraries/STM32F4xx_HAL_Driver/Src/stm32f4xx_hal_dac.c ****     This subsection provides functions allowing to
 944:Libraries/STM32F4xx_HAL_Driver/Src/stm32f4xx_hal_dac.c ****       (+) Check the DAC state.
 945:Libraries/STM32F4xx_HAL_Driver/Src/stm32f4xx_hal_dac.c ****       (+) Check the DAC Errors.
 946:Libraries/STM32F4xx_HAL_Driver/Src/stm32f4xx_hal_dac.c ****         
 947:Libraries/STM32F4xx_HAL_Driver/Src/stm32f4xx_hal_dac.c **** @endverbatim
 948:Libraries/STM32F4xx_HAL_Driver/Src/stm32f4xx_hal_dac.c ****   * @{
 949:Libraries/STM32F4xx_HAL_Driver/Src/stm32f4xx_hal_dac.c ****   */
 950:Libraries/STM32F4xx_HAL_Driver/Src/stm32f4xx_hal_dac.c **** 
 951:Libraries/STM32F4xx_HAL_Driver/Src/stm32f4xx_hal_dac.c **** /**
 952:Libraries/STM32F4xx_HAL_Driver/Src/stm32f4xx_hal_dac.c ****   * @brief  return the DAC state
 953:Libraries/STM32F4xx_HAL_Driver/Src/stm32f4xx_hal_dac.c ****   * @param  hdac pointer to a DAC_HandleTypeDef structure that contains
 954:Libraries/STM32F4xx_HAL_Driver/Src/stm32f4xx_hal_dac.c ****   *         the configuration information for the specified DAC.
 955:Libraries/STM32F4xx_HAL_Driver/Src/stm32f4xx_hal_dac.c ****   * @retval HAL state
 956:Libraries/STM32F4xx_HAL_Driver/Src/stm32f4xx_hal_dac.c ****   */
 957:Libraries/STM32F4xx_HAL_Driver/Src/stm32f4xx_hal_dac.c **** HAL_DAC_StateTypeDef HAL_DAC_GetState(DAC_HandleTypeDef* hdac)
 958:Libraries/STM32F4xx_HAL_Driver/Src/stm32f4xx_hal_dac.c **** {
 959:Libraries/STM32F4xx_HAL_Driver/Src/stm32f4xx_hal_dac.c ****   /* Return DAC state */
 960:Libraries/STM32F4xx_HAL_Driver/Src/stm32f4xx_hal_dac.c ****   return hdac->State;
 961:Libraries/STM32F4xx_HAL_Driver/Src/stm32f4xx_hal_dac.c **** }
 962:Libraries/STM32F4xx_HAL_Driver/Src/stm32f4xx_hal_dac.c **** 
 963:Libraries/STM32F4xx_HAL_Driver/Src/stm32f4xx_hal_dac.c **** 
 964:Libraries/STM32F4xx_HAL_Driver/Src/stm32f4xx_hal_dac.c **** /**
 965:Libraries/STM32F4xx_HAL_Driver/Src/stm32f4xx_hal_dac.c ****   * @brief  Return the DAC error code
ARM GAS  C:\Users\yzy\AppData\Local\Temp\ccS9Kmk9.s 			page 33


 966:Libraries/STM32F4xx_HAL_Driver/Src/stm32f4xx_hal_dac.c ****   * @param  hdac pointer to a DAC_HandleTypeDef structure that contains
 967:Libraries/STM32F4xx_HAL_Driver/Src/stm32f4xx_hal_dac.c ****   *         the configuration information for the specified DAC.
 968:Libraries/STM32F4xx_HAL_Driver/Src/stm32f4xx_hal_dac.c ****   * @retval DAC Error Code
 969:Libraries/STM32F4xx_HAL_Driver/Src/stm32f4xx_hal_dac.c ****   */
 970:Libraries/STM32F4xx_HAL_Driver/Src/stm32f4xx_hal_dac.c **** uint32_t HAL_DAC_GetError(DAC_HandleTypeDef *hdac)
 971:Libraries/STM32F4xx_HAL_Driver/Src/stm32f4xx_hal_dac.c **** {
 972:Libraries/STM32F4xx_HAL_Driver/Src/stm32f4xx_hal_dac.c ****   return hdac->ErrorCode;
 973:Libraries/STM32F4xx_HAL_Driver/Src/stm32f4xx_hal_dac.c **** }
 974:Libraries/STM32F4xx_HAL_Driver/Src/stm32f4xx_hal_dac.c **** 
 975:Libraries/STM32F4xx_HAL_Driver/Src/stm32f4xx_hal_dac.c **** /**
 976:Libraries/STM32F4xx_HAL_Driver/Src/stm32f4xx_hal_dac.c ****   * @}
 977:Libraries/STM32F4xx_HAL_Driver/Src/stm32f4xx_hal_dac.c ****   */
 978:Libraries/STM32F4xx_HAL_Driver/Src/stm32f4xx_hal_dac.c **** 
 979:Libraries/STM32F4xx_HAL_Driver/Src/stm32f4xx_hal_dac.c **** /**
 980:Libraries/STM32F4xx_HAL_Driver/Src/stm32f4xx_hal_dac.c ****   * @}
 981:Libraries/STM32F4xx_HAL_Driver/Src/stm32f4xx_hal_dac.c ****   */
 982:Libraries/STM32F4xx_HAL_Driver/Src/stm32f4xx_hal_dac.c **** 
 983:Libraries/STM32F4xx_HAL_Driver/Src/stm32f4xx_hal_dac.c **** /** @addtogroup DAC_Exported_Functions
 984:Libraries/STM32F4xx_HAL_Driver/Src/stm32f4xx_hal_dac.c ****   * @{
 985:Libraries/STM32F4xx_HAL_Driver/Src/stm32f4xx_hal_dac.c ****   */
 986:Libraries/STM32F4xx_HAL_Driver/Src/stm32f4xx_hal_dac.c **** 
 987:Libraries/STM32F4xx_HAL_Driver/Src/stm32f4xx_hal_dac.c **** /** @addtogroup DAC_Exported_Functions_Group1
 988:Libraries/STM32F4xx_HAL_Driver/Src/stm32f4xx_hal_dac.c ****   * @{
 989:Libraries/STM32F4xx_HAL_Driver/Src/stm32f4xx_hal_dac.c ****   */
 990:Libraries/STM32F4xx_HAL_Driver/Src/stm32f4xx_hal_dac.c **** #if (USE_HAL_DAC_REGISTER_CALLBACKS == 1)
 991:Libraries/STM32F4xx_HAL_Driver/Src/stm32f4xx_hal_dac.c **** /**
 992:Libraries/STM32F4xx_HAL_Driver/Src/stm32f4xx_hal_dac.c ****   * @brief  Register a User DAC Callback
 993:Libraries/STM32F4xx_HAL_Driver/Src/stm32f4xx_hal_dac.c ****   *         To be used instead of the weak (surcharged) predefined callback
 994:Libraries/STM32F4xx_HAL_Driver/Src/stm32f4xx_hal_dac.c ****   * @param hdac DAC handle
 995:Libraries/STM32F4xx_HAL_Driver/Src/stm32f4xx_hal_dac.c ****   * @param  CallbackID ID of the callback to be registered
 996:Libraries/STM32F4xx_HAL_Driver/Src/stm32f4xx_hal_dac.c ****   *        This parameter can be one of the following values:
 997:Libraries/STM32F4xx_HAL_Driver/Src/stm32f4xx_hal_dac.c ****   *          @arg @ref HAL_DAC_ERROR_INVALID_CALLBACK   DAC Error Callback ID
 998:Libraries/STM32F4xx_HAL_Driver/Src/stm32f4xx_hal_dac.c ****   *          @arg @ref HAL_DAC_CH1_COMPLETE_CB_ID       DAC CH1 Complete Callback ID
 999:Libraries/STM32F4xx_HAL_Driver/Src/stm32f4xx_hal_dac.c ****   *          @arg @ref HAL_DAC_CH1_HALF_COMPLETE_CB_ID  DAC CH1 Half Complete Callback ID
1000:Libraries/STM32F4xx_HAL_Driver/Src/stm32f4xx_hal_dac.c ****   *          @arg @ref HAL_DAC_CH1_ERROR_ID             DAC CH1 Error Callback ID
1001:Libraries/STM32F4xx_HAL_Driver/Src/stm32f4xx_hal_dac.c ****   *          @arg @ref HAL_DAC_CH1_UNDERRUN_CB_ID       DAC CH1 UnderRun Callback ID
1002:Libraries/STM32F4xx_HAL_Driver/Src/stm32f4xx_hal_dac.c ****   *          @arg @ref HAL_DAC_CH2_COMPLETE_CB_ID       DAC CH2 Complete Callback ID
1003:Libraries/STM32F4xx_HAL_Driver/Src/stm32f4xx_hal_dac.c ****   *          @arg @ref HAL_DAC_CH2_HALF_COMPLETE_CB_ID  DAC CH2 Half Complete Callback ID
1004:Libraries/STM32F4xx_HAL_Driver/Src/stm32f4xx_hal_dac.c ****   *          @arg @ref HAL_DAC_CH2_ERROR_ID             DAC CH2 Error Callback ID
1005:Libraries/STM32F4xx_HAL_Driver/Src/stm32f4xx_hal_dac.c ****   *          @arg @ref HAL_DAC_CH2_UNDERRUN_CB_ID       DAC CH2 UnderRun Callback ID
1006:Libraries/STM32F4xx_HAL_Driver/Src/stm32f4xx_hal_dac.c ****   *          @arg @ref HAL_DAC_MSP_INIT_CB_ID           DAC MSP Init Callback ID
1007:Libraries/STM32F4xx_HAL_Driver/Src/stm32f4xx_hal_dac.c ****   *          @arg @ref HAL_DAC_MSP_DEINIT_CB_ID         DAC MSP DeInit Callback ID
1008:Libraries/STM32F4xx_HAL_Driver/Src/stm32f4xx_hal_dac.c ****   *
1009:Libraries/STM32F4xx_HAL_Driver/Src/stm32f4xx_hal_dac.c ****     * @param pCallback pointer to the Callback function
1010:Libraries/STM32F4xx_HAL_Driver/Src/stm32f4xx_hal_dac.c ****   * @retval status
1011:Libraries/STM32F4xx_HAL_Driver/Src/stm32f4xx_hal_dac.c ****   */
1012:Libraries/STM32F4xx_HAL_Driver/Src/stm32f4xx_hal_dac.c **** HAL_StatusTypeDef HAL_DAC_RegisterCallback (DAC_HandleTypeDef *hdac, HAL_DAC_CallbackIDTypeDef Call
1013:Libraries/STM32F4xx_HAL_Driver/Src/stm32f4xx_hal_dac.c **** {
1014:Libraries/STM32F4xx_HAL_Driver/Src/stm32f4xx_hal_dac.c ****   HAL_StatusTypeDef status = HAL_OK;
1015:Libraries/STM32F4xx_HAL_Driver/Src/stm32f4xx_hal_dac.c **** 
1016:Libraries/STM32F4xx_HAL_Driver/Src/stm32f4xx_hal_dac.c ****   if(pCallback == NULL)
1017:Libraries/STM32F4xx_HAL_Driver/Src/stm32f4xx_hal_dac.c ****   {
1018:Libraries/STM32F4xx_HAL_Driver/Src/stm32f4xx_hal_dac.c ****     /* Update the error code */
1019:Libraries/STM32F4xx_HAL_Driver/Src/stm32f4xx_hal_dac.c ****     hdac->ErrorCode |= HAL_DAC_ERROR_INVALID_CALLBACK;
1020:Libraries/STM32F4xx_HAL_Driver/Src/stm32f4xx_hal_dac.c ****     return HAL_ERROR;
1021:Libraries/STM32F4xx_HAL_Driver/Src/stm32f4xx_hal_dac.c ****   }
1022:Libraries/STM32F4xx_HAL_Driver/Src/stm32f4xx_hal_dac.c **** 
ARM GAS  C:\Users\yzy\AppData\Local\Temp\ccS9Kmk9.s 			page 34


1023:Libraries/STM32F4xx_HAL_Driver/Src/stm32f4xx_hal_dac.c ****   /* Process locked */
1024:Libraries/STM32F4xx_HAL_Driver/Src/stm32f4xx_hal_dac.c ****   __HAL_LOCK(hdac);
1025:Libraries/STM32F4xx_HAL_Driver/Src/stm32f4xx_hal_dac.c **** 
1026:Libraries/STM32F4xx_HAL_Driver/Src/stm32f4xx_hal_dac.c ****   if(hdac->State == HAL_DAC_STATE_READY)
1027:Libraries/STM32F4xx_HAL_Driver/Src/stm32f4xx_hal_dac.c ****   {
1028:Libraries/STM32F4xx_HAL_Driver/Src/stm32f4xx_hal_dac.c ****     switch (CallbackID)
1029:Libraries/STM32F4xx_HAL_Driver/Src/stm32f4xx_hal_dac.c ****     {
1030:Libraries/STM32F4xx_HAL_Driver/Src/stm32f4xx_hal_dac.c ****     case HAL_DAC_CH1_COMPLETE_CB_ID :
1031:Libraries/STM32F4xx_HAL_Driver/Src/stm32f4xx_hal_dac.c ****       hdac->ConvCpltCallbackCh1 = pCallback;
1032:Libraries/STM32F4xx_HAL_Driver/Src/stm32f4xx_hal_dac.c ****       break;
1033:Libraries/STM32F4xx_HAL_Driver/Src/stm32f4xx_hal_dac.c ****     case HAL_DAC_CH1_HALF_COMPLETE_CB_ID :
1034:Libraries/STM32F4xx_HAL_Driver/Src/stm32f4xx_hal_dac.c ****       hdac->ConvHalfCpltCallbackCh1 = pCallback;
1035:Libraries/STM32F4xx_HAL_Driver/Src/stm32f4xx_hal_dac.c ****       break;
1036:Libraries/STM32F4xx_HAL_Driver/Src/stm32f4xx_hal_dac.c ****     case HAL_DAC_CH1_ERROR_ID :
1037:Libraries/STM32F4xx_HAL_Driver/Src/stm32f4xx_hal_dac.c ****       hdac->ErrorCallbackCh1 = pCallback;
1038:Libraries/STM32F4xx_HAL_Driver/Src/stm32f4xx_hal_dac.c ****       break;
1039:Libraries/STM32F4xx_HAL_Driver/Src/stm32f4xx_hal_dac.c ****     case HAL_DAC_CH1_UNDERRUN_CB_ID :
1040:Libraries/STM32F4xx_HAL_Driver/Src/stm32f4xx_hal_dac.c ****       hdac->DMAUnderrunCallbackCh1 = pCallback;
1041:Libraries/STM32F4xx_HAL_Driver/Src/stm32f4xx_hal_dac.c ****       break;
1042:Libraries/STM32F4xx_HAL_Driver/Src/stm32f4xx_hal_dac.c ****     case HAL_DAC_CH2_COMPLETE_CB_ID :
1043:Libraries/STM32F4xx_HAL_Driver/Src/stm32f4xx_hal_dac.c ****       hdac->ConvCpltCallbackCh2 = pCallback;
1044:Libraries/STM32F4xx_HAL_Driver/Src/stm32f4xx_hal_dac.c ****       break;
1045:Libraries/STM32F4xx_HAL_Driver/Src/stm32f4xx_hal_dac.c ****     case HAL_DAC_CH2_HALF_COMPLETE_CB_ID :
1046:Libraries/STM32F4xx_HAL_Driver/Src/stm32f4xx_hal_dac.c ****       hdac->ConvHalfCpltCallbackCh2 = pCallback;
1047:Libraries/STM32F4xx_HAL_Driver/Src/stm32f4xx_hal_dac.c ****       break;
1048:Libraries/STM32F4xx_HAL_Driver/Src/stm32f4xx_hal_dac.c ****     case HAL_DAC_CH2_ERROR_ID :
1049:Libraries/STM32F4xx_HAL_Driver/Src/stm32f4xx_hal_dac.c ****       hdac->ErrorCallbackCh2 = pCallback;
1050:Libraries/STM32F4xx_HAL_Driver/Src/stm32f4xx_hal_dac.c ****       break;
1051:Libraries/STM32F4xx_HAL_Driver/Src/stm32f4xx_hal_dac.c ****     case HAL_DAC_CH2_UNDERRUN_CB_ID :
1052:Libraries/STM32F4xx_HAL_Driver/Src/stm32f4xx_hal_dac.c ****       hdac->DMAUnderrunCallbackCh2 = pCallback;
1053:Libraries/STM32F4xx_HAL_Driver/Src/stm32f4xx_hal_dac.c ****       break;
1054:Libraries/STM32F4xx_HAL_Driver/Src/stm32f4xx_hal_dac.c ****     case HAL_DAC_MSP_INIT_CB_ID :
1055:Libraries/STM32F4xx_HAL_Driver/Src/stm32f4xx_hal_dac.c ****       hdac->MspInitCallback = pCallback;
1056:Libraries/STM32F4xx_HAL_Driver/Src/stm32f4xx_hal_dac.c ****       break;
1057:Libraries/STM32F4xx_HAL_Driver/Src/stm32f4xx_hal_dac.c ****     case HAL_DAC_MSP_DEINIT_CB_ID :
1058:Libraries/STM32F4xx_HAL_Driver/Src/stm32f4xx_hal_dac.c ****       hdac->MspDeInitCallback = pCallback;
1059:Libraries/STM32F4xx_HAL_Driver/Src/stm32f4xx_hal_dac.c ****       break;
1060:Libraries/STM32F4xx_HAL_Driver/Src/stm32f4xx_hal_dac.c ****     default :
1061:Libraries/STM32F4xx_HAL_Driver/Src/stm32f4xx_hal_dac.c ****       /* Update the error code */
1062:Libraries/STM32F4xx_HAL_Driver/Src/stm32f4xx_hal_dac.c ****       hdac->ErrorCode |= HAL_DAC_ERROR_INVALID_CALLBACK;
1063:Libraries/STM32F4xx_HAL_Driver/Src/stm32f4xx_hal_dac.c ****       /* update return status */
1064:Libraries/STM32F4xx_HAL_Driver/Src/stm32f4xx_hal_dac.c ****       status =  HAL_ERROR;
1065:Libraries/STM32F4xx_HAL_Driver/Src/stm32f4xx_hal_dac.c ****       break;
1066:Libraries/STM32F4xx_HAL_Driver/Src/stm32f4xx_hal_dac.c ****     }
1067:Libraries/STM32F4xx_HAL_Driver/Src/stm32f4xx_hal_dac.c ****   }
1068:Libraries/STM32F4xx_HAL_Driver/Src/stm32f4xx_hal_dac.c ****   else if (hdac->State == HAL_DAC_STATE_RESET)
1069:Libraries/STM32F4xx_HAL_Driver/Src/stm32f4xx_hal_dac.c ****   {
1070:Libraries/STM32F4xx_HAL_Driver/Src/stm32f4xx_hal_dac.c ****     switch (CallbackID)
1071:Libraries/STM32F4xx_HAL_Driver/Src/stm32f4xx_hal_dac.c ****     {
1072:Libraries/STM32F4xx_HAL_Driver/Src/stm32f4xx_hal_dac.c ****     case HAL_DAC_MSP_INIT_CB_ID :
1073:Libraries/STM32F4xx_HAL_Driver/Src/stm32f4xx_hal_dac.c ****       hdac->MspInitCallback = pCallback;
1074:Libraries/STM32F4xx_HAL_Driver/Src/stm32f4xx_hal_dac.c ****       break;
1075:Libraries/STM32F4xx_HAL_Driver/Src/stm32f4xx_hal_dac.c ****     case HAL_DAC_MSP_DEINIT_CB_ID :
1076:Libraries/STM32F4xx_HAL_Driver/Src/stm32f4xx_hal_dac.c ****       hdac->MspDeInitCallback = pCallback;
1077:Libraries/STM32F4xx_HAL_Driver/Src/stm32f4xx_hal_dac.c ****       break;
1078:Libraries/STM32F4xx_HAL_Driver/Src/stm32f4xx_hal_dac.c ****     default :
1079:Libraries/STM32F4xx_HAL_Driver/Src/stm32f4xx_hal_dac.c ****       /* Update the error code */
ARM GAS  C:\Users\yzy\AppData\Local\Temp\ccS9Kmk9.s 			page 35


1080:Libraries/STM32F4xx_HAL_Driver/Src/stm32f4xx_hal_dac.c ****       hdac->ErrorCode |= HAL_DAC_ERROR_INVALID_CALLBACK;
1081:Libraries/STM32F4xx_HAL_Driver/Src/stm32f4xx_hal_dac.c ****       /* update return status */
1082:Libraries/STM32F4xx_HAL_Driver/Src/stm32f4xx_hal_dac.c ****       status =  HAL_ERROR;
1083:Libraries/STM32F4xx_HAL_Driver/Src/stm32f4xx_hal_dac.c ****       break;
1084:Libraries/STM32F4xx_HAL_Driver/Src/stm32f4xx_hal_dac.c ****     }
1085:Libraries/STM32F4xx_HAL_Driver/Src/stm32f4xx_hal_dac.c ****   }
1086:Libraries/STM32F4xx_HAL_Driver/Src/stm32f4xx_hal_dac.c ****   else
1087:Libraries/STM32F4xx_HAL_Driver/Src/stm32f4xx_hal_dac.c ****   {
1088:Libraries/STM32F4xx_HAL_Driver/Src/stm32f4xx_hal_dac.c ****     /* Update the error code */
1089:Libraries/STM32F4xx_HAL_Driver/Src/stm32f4xx_hal_dac.c ****     hdac->ErrorCode |= HAL_DAC_ERROR_INVALID_CALLBACK;
1090:Libraries/STM32F4xx_HAL_Driver/Src/stm32f4xx_hal_dac.c ****     /* update return status */
1091:Libraries/STM32F4xx_HAL_Driver/Src/stm32f4xx_hal_dac.c ****     status =  HAL_ERROR;
1092:Libraries/STM32F4xx_HAL_Driver/Src/stm32f4xx_hal_dac.c ****   }
1093:Libraries/STM32F4xx_HAL_Driver/Src/stm32f4xx_hal_dac.c **** 
1094:Libraries/STM32F4xx_HAL_Driver/Src/stm32f4xx_hal_dac.c ****   /* Release Lock */
1095:Libraries/STM32F4xx_HAL_Driver/Src/stm32f4xx_hal_dac.c ****   __HAL_UNLOCK(hdac);
1096:Libraries/STM32F4xx_HAL_Driver/Src/stm32f4xx_hal_dac.c ****   return status;
1097:Libraries/STM32F4xx_HAL_Driver/Src/stm32f4xx_hal_dac.c **** }
1098:Libraries/STM32F4xx_HAL_Driver/Src/stm32f4xx_hal_dac.c **** 
1099:Libraries/STM32F4xx_HAL_Driver/Src/stm32f4xx_hal_dac.c **** /**
1100:Libraries/STM32F4xx_HAL_Driver/Src/stm32f4xx_hal_dac.c ****   * @brief  Unregister a User DAC Callback
1101:Libraries/STM32F4xx_HAL_Driver/Src/stm32f4xx_hal_dac.c ****   *         DAC Callback is redirected to the weak (surcharged) predefined callback
1102:Libraries/STM32F4xx_HAL_Driver/Src/stm32f4xx_hal_dac.c ****   * @param hdac DAC handle
1103:Libraries/STM32F4xx_HAL_Driver/Src/stm32f4xx_hal_dac.c ****   * @param  CallbackID ID of the callback to be unregistered
1104:Libraries/STM32F4xx_HAL_Driver/Src/stm32f4xx_hal_dac.c ****   *        This parameter can be one of the following values:
1105:Libraries/STM32F4xx_HAL_Driver/Src/stm32f4xx_hal_dac.c ****   *          @arg @ref HAL_DAC_CH1_COMPLETE_CB_ID          DAC CH1 tranfer Complete Callback ID
1106:Libraries/STM32F4xx_HAL_Driver/Src/stm32f4xx_hal_dac.c ****   *          @arg @ref HAL_DAC_CH1_HALF_COMPLETE_CB_ID     DAC CH1 Half Complete Callback ID
1107:Libraries/STM32F4xx_HAL_Driver/Src/stm32f4xx_hal_dac.c ****   *          @arg @ref HAL_DAC_CH1_ERROR_ID                DAC CH1 Error Callback ID
1108:Libraries/STM32F4xx_HAL_Driver/Src/stm32f4xx_hal_dac.c ****   *          @arg @ref HAL_DAC_CH1_UNDERRUN_CB_ID          DAC CH1 UnderRun Callback ID
1109:Libraries/STM32F4xx_HAL_Driver/Src/stm32f4xx_hal_dac.c ****   *          @arg @ref HAL_DAC_CH2_COMPLETE_CB_ID          DAC CH2 Complete Callback ID
1110:Libraries/STM32F4xx_HAL_Driver/Src/stm32f4xx_hal_dac.c ****   *          @arg @ref HAL_DAC_CH2_HALF_COMPLETE_CB_ID     DAC CH2 Half Complete Callback ID
1111:Libraries/STM32F4xx_HAL_Driver/Src/stm32f4xx_hal_dac.c ****   *          @arg @ref HAL_DAC_CH2_ERROR_ID                DAC CH2 Error Callback ID
1112:Libraries/STM32F4xx_HAL_Driver/Src/stm32f4xx_hal_dac.c ****   *          @arg @ref HAL_DAC_CH2_UNDERRUN_CB_ID          DAC CH2 UnderRun Callback ID
1113:Libraries/STM32F4xx_HAL_Driver/Src/stm32f4xx_hal_dac.c ****   *          @arg @ref HAL_DAC_MSP_INIT_CB_ID              DAC MSP Init Callback ID
1114:Libraries/STM32F4xx_HAL_Driver/Src/stm32f4xx_hal_dac.c ****   *          @arg @ref HAL_DAC_MSP_DEINIT_CB_ID            DAC MSP DeInit Callback ID
1115:Libraries/STM32F4xx_HAL_Driver/Src/stm32f4xx_hal_dac.c ****   *          @arg @ref HAL_DAC_ALL_CB_ID                   DAC All callbacks
1116:Libraries/STM32F4xx_HAL_Driver/Src/stm32f4xx_hal_dac.c ****   * @retval status
1117:Libraries/STM32F4xx_HAL_Driver/Src/stm32f4xx_hal_dac.c ****   */
1118:Libraries/STM32F4xx_HAL_Driver/Src/stm32f4xx_hal_dac.c **** HAL_StatusTypeDef HAL_DAC_UnRegisterCallback (DAC_HandleTypeDef *hdac, HAL_DAC_CallbackIDTypeDef Ca
1119:Libraries/STM32F4xx_HAL_Driver/Src/stm32f4xx_hal_dac.c **** {
1120:Libraries/STM32F4xx_HAL_Driver/Src/stm32f4xx_hal_dac.c ****   HAL_StatusTypeDef status = HAL_OK;
1121:Libraries/STM32F4xx_HAL_Driver/Src/stm32f4xx_hal_dac.c **** 
1122:Libraries/STM32F4xx_HAL_Driver/Src/stm32f4xx_hal_dac.c ****   /* Process locked */
1123:Libraries/STM32F4xx_HAL_Driver/Src/stm32f4xx_hal_dac.c ****   __HAL_LOCK(hdac);
1124:Libraries/STM32F4xx_HAL_Driver/Src/stm32f4xx_hal_dac.c **** 
1125:Libraries/STM32F4xx_HAL_Driver/Src/stm32f4xx_hal_dac.c ****   if(hdac->State == HAL_DAC_STATE_READY)
1126:Libraries/STM32F4xx_HAL_Driver/Src/stm32f4xx_hal_dac.c ****   {
1127:Libraries/STM32F4xx_HAL_Driver/Src/stm32f4xx_hal_dac.c ****     switch (CallbackID)
1128:Libraries/STM32F4xx_HAL_Driver/Src/stm32f4xx_hal_dac.c ****     {
1129:Libraries/STM32F4xx_HAL_Driver/Src/stm32f4xx_hal_dac.c ****     case HAL_DAC_CH1_COMPLETE_CB_ID :
1130:Libraries/STM32F4xx_HAL_Driver/Src/stm32f4xx_hal_dac.c ****       hdac->ConvCpltCallbackCh1 = HAL_DAC_ConvCpltCallbackCh1;
1131:Libraries/STM32F4xx_HAL_Driver/Src/stm32f4xx_hal_dac.c ****       break;
1132:Libraries/STM32F4xx_HAL_Driver/Src/stm32f4xx_hal_dac.c ****     case HAL_DAC_CH1_HALF_COMPLETE_CB_ID :
1133:Libraries/STM32F4xx_HAL_Driver/Src/stm32f4xx_hal_dac.c ****       hdac->ConvHalfCpltCallbackCh1 = HAL_DAC_ConvHalfCpltCallbackCh1;
1134:Libraries/STM32F4xx_HAL_Driver/Src/stm32f4xx_hal_dac.c ****       break;
1135:Libraries/STM32F4xx_HAL_Driver/Src/stm32f4xx_hal_dac.c ****     case HAL_DAC_CH1_ERROR_ID :
1136:Libraries/STM32F4xx_HAL_Driver/Src/stm32f4xx_hal_dac.c ****       hdac->ErrorCallbackCh1 = HAL_DAC_ErrorCallbackCh1;
ARM GAS  C:\Users\yzy\AppData\Local\Temp\ccS9Kmk9.s 			page 36


1137:Libraries/STM32F4xx_HAL_Driver/Src/stm32f4xx_hal_dac.c ****       break;
1138:Libraries/STM32F4xx_HAL_Driver/Src/stm32f4xx_hal_dac.c ****     case HAL_DAC_CH1_UNDERRUN_CB_ID :
1139:Libraries/STM32F4xx_HAL_Driver/Src/stm32f4xx_hal_dac.c ****       hdac->DMAUnderrunCallbackCh1 = HAL_DAC_DMAUnderrunCallbackCh1;
1140:Libraries/STM32F4xx_HAL_Driver/Src/stm32f4xx_hal_dac.c ****       break;
1141:Libraries/STM32F4xx_HAL_Driver/Src/stm32f4xx_hal_dac.c ****     case HAL_DAC_CH2_COMPLETE_CB_ID :
1142:Libraries/STM32F4xx_HAL_Driver/Src/stm32f4xx_hal_dac.c ****       hdac->ConvCpltCallbackCh2 = HAL_DACEx_ConvCpltCallbackCh2;
1143:Libraries/STM32F4xx_HAL_Driver/Src/stm32f4xx_hal_dac.c ****       break;
1144:Libraries/STM32F4xx_HAL_Driver/Src/stm32f4xx_hal_dac.c ****     case HAL_DAC_CH2_HALF_COMPLETE_CB_ID :
1145:Libraries/STM32F4xx_HAL_Driver/Src/stm32f4xx_hal_dac.c ****       hdac->ConvHalfCpltCallbackCh2 = HAL_DACEx_ConvHalfCpltCallbackCh2;
1146:Libraries/STM32F4xx_HAL_Driver/Src/stm32f4xx_hal_dac.c ****       break;
1147:Libraries/STM32F4xx_HAL_Driver/Src/stm32f4xx_hal_dac.c ****     case HAL_DAC_CH2_ERROR_ID :
1148:Libraries/STM32F4xx_HAL_Driver/Src/stm32f4xx_hal_dac.c ****       hdac->ErrorCallbackCh2 = HAL_DACEx_ErrorCallbackCh2;
1149:Libraries/STM32F4xx_HAL_Driver/Src/stm32f4xx_hal_dac.c ****       break;
1150:Libraries/STM32F4xx_HAL_Driver/Src/stm32f4xx_hal_dac.c ****     case HAL_DAC_CH2_UNDERRUN_CB_ID :
1151:Libraries/STM32F4xx_HAL_Driver/Src/stm32f4xx_hal_dac.c ****       hdac->DMAUnderrunCallbackCh2 = HAL_DACEx_DMAUnderrunCallbackCh2;
1152:Libraries/STM32F4xx_HAL_Driver/Src/stm32f4xx_hal_dac.c ****       break;
1153:Libraries/STM32F4xx_HAL_Driver/Src/stm32f4xx_hal_dac.c ****     case HAL_DAC_MSP_INIT_CB_ID :
1154:Libraries/STM32F4xx_HAL_Driver/Src/stm32f4xx_hal_dac.c ****       hdac->MspInitCallback = HAL_DAC_MspInit;
1155:Libraries/STM32F4xx_HAL_Driver/Src/stm32f4xx_hal_dac.c ****       break;
1156:Libraries/STM32F4xx_HAL_Driver/Src/stm32f4xx_hal_dac.c ****     case HAL_DAC_MSP_DEINIT_CB_ID :
1157:Libraries/STM32F4xx_HAL_Driver/Src/stm32f4xx_hal_dac.c ****       hdac->MspDeInitCallback = HAL_DAC_MspDeInit;
1158:Libraries/STM32F4xx_HAL_Driver/Src/stm32f4xx_hal_dac.c ****       break;
1159:Libraries/STM32F4xx_HAL_Driver/Src/stm32f4xx_hal_dac.c ****     case HAL_DAC_ALL_CB_ID :
1160:Libraries/STM32F4xx_HAL_Driver/Src/stm32f4xx_hal_dac.c ****       hdac->ConvCpltCallbackCh1 = HAL_DAC_ConvCpltCallbackCh1;
1161:Libraries/STM32F4xx_HAL_Driver/Src/stm32f4xx_hal_dac.c ****       hdac->ConvHalfCpltCallbackCh1 = HAL_DAC_ConvHalfCpltCallbackCh1;
1162:Libraries/STM32F4xx_HAL_Driver/Src/stm32f4xx_hal_dac.c ****       hdac->ErrorCallbackCh1 = HAL_DAC_ErrorCallbackCh1;
1163:Libraries/STM32F4xx_HAL_Driver/Src/stm32f4xx_hal_dac.c ****       hdac->DMAUnderrunCallbackCh1 = HAL_DAC_DMAUnderrunCallbackCh1;
1164:Libraries/STM32F4xx_HAL_Driver/Src/stm32f4xx_hal_dac.c ****       hdac->ConvCpltCallbackCh2 = HAL_DACEx_ConvCpltCallbackCh2;
1165:Libraries/STM32F4xx_HAL_Driver/Src/stm32f4xx_hal_dac.c ****       hdac->ConvHalfCpltCallbackCh2 = HAL_DACEx_ConvHalfCpltCallbackCh2;
1166:Libraries/STM32F4xx_HAL_Driver/Src/stm32f4xx_hal_dac.c ****       hdac->ErrorCallbackCh2 = HAL_DACEx_ErrorCallbackCh2;
1167:Libraries/STM32F4xx_HAL_Driver/Src/stm32f4xx_hal_dac.c ****       hdac->DMAUnderrunCallbackCh2 = HAL_DACEx_DMAUnderrunCallbackCh2;
1168:Libraries/STM32F4xx_HAL_Driver/Src/stm32f4xx_hal_dac.c ****       hdac->MspInitCallback = HAL_DAC_MspInit;
1169:Libraries/STM32F4xx_HAL_Driver/Src/stm32f4xx_hal_dac.c ****       hdac->MspDeInitCallback = HAL_DAC_MspDeInit;
1170:Libraries/STM32F4xx_HAL_Driver/Src/stm32f4xx_hal_dac.c ****       break;
1171:Libraries/STM32F4xx_HAL_Driver/Src/stm32f4xx_hal_dac.c ****     default :
1172:Libraries/STM32F4xx_HAL_Driver/Src/stm32f4xx_hal_dac.c ****       /* Update the error code */
1173:Libraries/STM32F4xx_HAL_Driver/Src/stm32f4xx_hal_dac.c ****       hdac->ErrorCode |= HAL_DAC_ERROR_INVALID_CALLBACK;
1174:Libraries/STM32F4xx_HAL_Driver/Src/stm32f4xx_hal_dac.c ****       /* update return status */
1175:Libraries/STM32F4xx_HAL_Driver/Src/stm32f4xx_hal_dac.c ****       status =  HAL_ERROR;
1176:Libraries/STM32F4xx_HAL_Driver/Src/stm32f4xx_hal_dac.c ****       break;
1177:Libraries/STM32F4xx_HAL_Driver/Src/stm32f4xx_hal_dac.c ****     }
1178:Libraries/STM32F4xx_HAL_Driver/Src/stm32f4xx_hal_dac.c ****   }
1179:Libraries/STM32F4xx_HAL_Driver/Src/stm32f4xx_hal_dac.c ****   else if (hdac->State == HAL_DAC_STATE_RESET)
1180:Libraries/STM32F4xx_HAL_Driver/Src/stm32f4xx_hal_dac.c ****   {
1181:Libraries/STM32F4xx_HAL_Driver/Src/stm32f4xx_hal_dac.c ****     switch (CallbackID)
1182:Libraries/STM32F4xx_HAL_Driver/Src/stm32f4xx_hal_dac.c ****     {
1183:Libraries/STM32F4xx_HAL_Driver/Src/stm32f4xx_hal_dac.c ****     case HAL_DAC_MSP_INIT_CB_ID :
1184:Libraries/STM32F4xx_HAL_Driver/Src/stm32f4xx_hal_dac.c ****       hdac->MspInitCallback = HAL_DAC_MspInit;
1185:Libraries/STM32F4xx_HAL_Driver/Src/stm32f4xx_hal_dac.c ****       break;
1186:Libraries/STM32F4xx_HAL_Driver/Src/stm32f4xx_hal_dac.c ****     case HAL_DAC_MSP_DEINIT_CB_ID :
1187:Libraries/STM32F4xx_HAL_Driver/Src/stm32f4xx_hal_dac.c ****       hdac->MspDeInitCallback = HAL_DAC_MspDeInit;
1188:Libraries/STM32F4xx_HAL_Driver/Src/stm32f4xx_hal_dac.c ****       break;
1189:Libraries/STM32F4xx_HAL_Driver/Src/stm32f4xx_hal_dac.c ****     default :
1190:Libraries/STM32F4xx_HAL_Driver/Src/stm32f4xx_hal_dac.c ****       /* Update the error code */
1191:Libraries/STM32F4xx_HAL_Driver/Src/stm32f4xx_hal_dac.c ****       hdac->ErrorCode |= HAL_DAC_ERROR_INVALID_CALLBACK;
1192:Libraries/STM32F4xx_HAL_Driver/Src/stm32f4xx_hal_dac.c ****       /* update return status */
1193:Libraries/STM32F4xx_HAL_Driver/Src/stm32f4xx_hal_dac.c ****       status =  HAL_ERROR;
ARM GAS  C:\Users\yzy\AppData\Local\Temp\ccS9Kmk9.s 			page 37


1194:Libraries/STM32F4xx_HAL_Driver/Src/stm32f4xx_hal_dac.c ****       break;
1195:Libraries/STM32F4xx_HAL_Driver/Src/stm32f4xx_hal_dac.c ****     }
1196:Libraries/STM32F4xx_HAL_Driver/Src/stm32f4xx_hal_dac.c ****   }
1197:Libraries/STM32F4xx_HAL_Driver/Src/stm32f4xx_hal_dac.c ****   else
1198:Libraries/STM32F4xx_HAL_Driver/Src/stm32f4xx_hal_dac.c ****   {
1199:Libraries/STM32F4xx_HAL_Driver/Src/stm32f4xx_hal_dac.c ****     /* Update the error code */
1200:Libraries/STM32F4xx_HAL_Driver/Src/stm32f4xx_hal_dac.c ****     hdac->ErrorCode |= HAL_DAC_ERROR_INVALID_CALLBACK;
1201:Libraries/STM32F4xx_HAL_Driver/Src/stm32f4xx_hal_dac.c ****     /* update return status */
1202:Libraries/STM32F4xx_HAL_Driver/Src/stm32f4xx_hal_dac.c ****     status =  HAL_ERROR;
1203:Libraries/STM32F4xx_HAL_Driver/Src/stm32f4xx_hal_dac.c ****   }
1204:Libraries/STM32F4xx_HAL_Driver/Src/stm32f4xx_hal_dac.c **** 
1205:Libraries/STM32F4xx_HAL_Driver/Src/stm32f4xx_hal_dac.c ****   /* Release Lock */
1206:Libraries/STM32F4xx_HAL_Driver/Src/stm32f4xx_hal_dac.c ****   __HAL_UNLOCK(hdac);
1207:Libraries/STM32F4xx_HAL_Driver/Src/stm32f4xx_hal_dac.c ****   return status;
1208:Libraries/STM32F4xx_HAL_Driver/Src/stm32f4xx_hal_dac.c **** }
1209:Libraries/STM32F4xx_HAL_Driver/Src/stm32f4xx_hal_dac.c **** #endif /* USE_HAL_DAC_REGISTER_CALLBACKS */
1210:Libraries/STM32F4xx_HAL_Driver/Src/stm32f4xx_hal_dac.c **** 
1211:Libraries/STM32F4xx_HAL_Driver/Src/stm32f4xx_hal_dac.c **** /**
1212:Libraries/STM32F4xx_HAL_Driver/Src/stm32f4xx_hal_dac.c ****   * @}
1213:Libraries/STM32F4xx_HAL_Driver/Src/stm32f4xx_hal_dac.c ****   */
1214:Libraries/STM32F4xx_HAL_Driver/Src/stm32f4xx_hal_dac.c **** 
1215:Libraries/STM32F4xx_HAL_Driver/Src/stm32f4xx_hal_dac.c **** /**
1216:Libraries/STM32F4xx_HAL_Driver/Src/stm32f4xx_hal_dac.c ****   * @}
1217:Libraries/STM32F4xx_HAL_Driver/Src/stm32f4xx_hal_dac.c ****   */
1218:Libraries/STM32F4xx_HAL_Driver/Src/stm32f4xx_hal_dac.c **** 
1219:Libraries/STM32F4xx_HAL_Driver/Src/stm32f4xx_hal_dac.c **** /** @addtogroup DAC_Private_Functions
1220:Libraries/STM32F4xx_HAL_Driver/Src/stm32f4xx_hal_dac.c ****   * @{
1221:Libraries/STM32F4xx_HAL_Driver/Src/stm32f4xx_hal_dac.c ****   */
1222:Libraries/STM32F4xx_HAL_Driver/Src/stm32f4xx_hal_dac.c **** 
1223:Libraries/STM32F4xx_HAL_Driver/Src/stm32f4xx_hal_dac.c **** /**
1224:Libraries/STM32F4xx_HAL_Driver/Src/stm32f4xx_hal_dac.c ****   * @brief  DMA conversion complete callback. 
1225:Libraries/STM32F4xx_HAL_Driver/Src/stm32f4xx_hal_dac.c ****   * @param  hdma pointer to a DMA_HandleTypeDef structure that contains
1226:Libraries/STM32F4xx_HAL_Driver/Src/stm32f4xx_hal_dac.c ****   *                the configuration information for the specified DMA module.
1227:Libraries/STM32F4xx_HAL_Driver/Src/stm32f4xx_hal_dac.c ****   * @retval None
1228:Libraries/STM32F4xx_HAL_Driver/Src/stm32f4xx_hal_dac.c ****   */
1229:Libraries/STM32F4xx_HAL_Driver/Src/stm32f4xx_hal_dac.c **** static void DAC_DMAConvCpltCh1(DMA_HandleTypeDef *hdma)   
1230:Libraries/STM32F4xx_HAL_Driver/Src/stm32f4xx_hal_dac.c **** {
 777              		.loc 1 1230 1 is_stmt 1 view -0
 778              		.cfi_startproc
 779              		@ args = 0, pretend = 0, frame = 0
 780              		@ frame_needed = 0, uses_anonymous_args = 0
 781              		.loc 1 1230 1 is_stmt 0 view .LVU225
 782 0000 10B5     		push	{r4, lr}
 783              	.LCFI12:
 784              		.cfi_def_cfa_offset 8
 785              		.cfi_offset 4, -8
 786              		.cfi_offset 14, -4
1231:Libraries/STM32F4xx_HAL_Driver/Src/stm32f4xx_hal_dac.c ****   DAC_HandleTypeDef* hdac = ( DAC_HandleTypeDef* )((DMA_HandleTypeDef* )hdma)->Parent;
 787              		.loc 1 1231 3 is_stmt 1 view .LVU226
 788              		.loc 1 1231 22 is_stmt 0 view .LVU227
 789 0002 846B     		ldr	r4, [r0, #56]
 790              	.LVL61:
1232:Libraries/STM32F4xx_HAL_Driver/Src/stm32f4xx_hal_dac.c ****   
1233:Libraries/STM32F4xx_HAL_Driver/Src/stm32f4xx_hal_dac.c **** #if (USE_HAL_DAC_REGISTER_CALLBACKS == 1)
1234:Libraries/STM32F4xx_HAL_Driver/Src/stm32f4xx_hal_dac.c ****   hdac->ConvCpltCallbackCh1(hdac);
1235:Libraries/STM32F4xx_HAL_Driver/Src/stm32f4xx_hal_dac.c **** #else
1236:Libraries/STM32F4xx_HAL_Driver/Src/stm32f4xx_hal_dac.c ****   HAL_DAC_ConvCpltCallbackCh1(hdac); 
ARM GAS  C:\Users\yzy\AppData\Local\Temp\ccS9Kmk9.s 			page 38


 791              		.loc 1 1236 3 is_stmt 1 view .LVU228
 792 0004 2046     		mov	r0, r4
 793              	.LVL62:
 794              		.loc 1 1236 3 is_stmt 0 view .LVU229
 795 0006 FFF7FEFF 		bl	HAL_DAC_ConvCpltCallbackCh1
 796              	.LVL63:
1237:Libraries/STM32F4xx_HAL_Driver/Src/stm32f4xx_hal_dac.c **** #endif /* USE_HAL_DAC_REGISTER_CALLBACKS */
1238:Libraries/STM32F4xx_HAL_Driver/Src/stm32f4xx_hal_dac.c ****   
1239:Libraries/STM32F4xx_HAL_Driver/Src/stm32f4xx_hal_dac.c ****   hdac->State= HAL_DAC_STATE_READY;
 797              		.loc 1 1239 3 is_stmt 1 view .LVU230
 798              		.loc 1 1239 14 is_stmt 0 view .LVU231
 799 000a 0123     		movs	r3, #1
 800 000c 2371     		strb	r3, [r4, #4]
1240:Libraries/STM32F4xx_HAL_Driver/Src/stm32f4xx_hal_dac.c **** }
 801              		.loc 1 1240 1 view .LVU232
 802 000e 10BD     		pop	{r4, pc}
 803              		.loc 1 1240 1 view .LVU233
 804              		.cfi_endproc
 805              	.LFE148:
 807              		.section	.text.HAL_DAC_ConvHalfCpltCallbackCh1,"ax",%progbits
 808              		.align	1
 809              		.weak	HAL_DAC_ConvHalfCpltCallbackCh1
 810              		.syntax unified
 811              		.thumb
 812              		.thumb_func
 813              		.fpu softvfp
 815              	HAL_DAC_ConvHalfCpltCallbackCh1:
 816              	.LVL64:
 817              	.LFB141:
 781:Libraries/STM32F4xx_HAL_Driver/Src/stm32f4xx_hal_dac.c ****   /* Prevent unused argument(s) compilation warning */
 818              		.loc 1 781 1 is_stmt 1 view -0
 819              		.cfi_startproc
 820              		@ args = 0, pretend = 0, frame = 0
 821              		@ frame_needed = 0, uses_anonymous_args = 0
 822              		@ link register save eliminated.
 783:Libraries/STM32F4xx_HAL_Driver/Src/stm32f4xx_hal_dac.c ****   /* NOTE : This function Should not be modified, when the callback is needed,
 823              		.loc 1 783 3 view .LVU235
 787:Libraries/STM32F4xx_HAL_Driver/Src/stm32f4xx_hal_dac.c **** 
 824              		.loc 1 787 1 is_stmt 0 view .LVU236
 825 0000 7047     		bx	lr
 826              		.cfi_endproc
 827              	.LFE141:
 829              		.section	.text.DAC_DMAHalfConvCpltCh1,"ax",%progbits
 830              		.align	1
 831              		.syntax unified
 832              		.thumb
 833              		.thumb_func
 834              		.fpu softvfp
 836              	DAC_DMAHalfConvCpltCh1:
 837              	.LVL65:
 838              	.LFB149:
1241:Libraries/STM32F4xx_HAL_Driver/Src/stm32f4xx_hal_dac.c **** 
1242:Libraries/STM32F4xx_HAL_Driver/Src/stm32f4xx_hal_dac.c **** /**
1243:Libraries/STM32F4xx_HAL_Driver/Src/stm32f4xx_hal_dac.c ****   * @brief  DMA half transfer complete callback. 
1244:Libraries/STM32F4xx_HAL_Driver/Src/stm32f4xx_hal_dac.c ****   * @param  hdma pointer to a DMA_HandleTypeDef structure that contains
1245:Libraries/STM32F4xx_HAL_Driver/Src/stm32f4xx_hal_dac.c ****   *                the configuration information for the specified DMA module.
1246:Libraries/STM32F4xx_HAL_Driver/Src/stm32f4xx_hal_dac.c ****   * @retval None
ARM GAS  C:\Users\yzy\AppData\Local\Temp\ccS9Kmk9.s 			page 39


1247:Libraries/STM32F4xx_HAL_Driver/Src/stm32f4xx_hal_dac.c ****   */
1248:Libraries/STM32F4xx_HAL_Driver/Src/stm32f4xx_hal_dac.c **** static void DAC_DMAHalfConvCpltCh1(DMA_HandleTypeDef *hdma)   
1249:Libraries/STM32F4xx_HAL_Driver/Src/stm32f4xx_hal_dac.c **** {
 839              		.loc 1 1249 1 is_stmt 1 view -0
 840              		.cfi_startproc
 841              		@ args = 0, pretend = 0, frame = 0
 842              		@ frame_needed = 0, uses_anonymous_args = 0
 843              		.loc 1 1249 1 is_stmt 0 view .LVU238
 844 0000 08B5     		push	{r3, lr}
 845              	.LCFI13:
 846              		.cfi_def_cfa_offset 8
 847              		.cfi_offset 3, -8
 848              		.cfi_offset 14, -4
1250:Libraries/STM32F4xx_HAL_Driver/Src/stm32f4xx_hal_dac.c ****     DAC_HandleTypeDef* hdac = ( DAC_HandleTypeDef* )((DMA_HandleTypeDef* )hdma)->Parent;
 849              		.loc 1 1250 5 is_stmt 1 view .LVU239
 850              	.LVL66:
1251:Libraries/STM32F4xx_HAL_Driver/Src/stm32f4xx_hal_dac.c ****     /* Conversion complete callback */
1252:Libraries/STM32F4xx_HAL_Driver/Src/stm32f4xx_hal_dac.c **** #if (USE_HAL_DAC_REGISTER_CALLBACKS == 1)
1253:Libraries/STM32F4xx_HAL_Driver/Src/stm32f4xx_hal_dac.c ****   hdac->ConvHalfCpltCallbackCh1(hdac);
1254:Libraries/STM32F4xx_HAL_Driver/Src/stm32f4xx_hal_dac.c **** #else
1255:Libraries/STM32F4xx_HAL_Driver/Src/stm32f4xx_hal_dac.c ****     HAL_DAC_ConvHalfCpltCallbackCh1(hdac); 
 851              		.loc 1 1255 5 view .LVU240
 852 0002 806B     		ldr	r0, [r0, #56]
 853              	.LVL67:
 854              		.loc 1 1255 5 is_stmt 0 view .LVU241
 855 0004 FFF7FEFF 		bl	HAL_DAC_ConvHalfCpltCallbackCh1
 856              	.LVL68:
1256:Libraries/STM32F4xx_HAL_Driver/Src/stm32f4xx_hal_dac.c **** #endif  /* USE_HAL_DAC_REGISTER_CALLBACKS */
1257:Libraries/STM32F4xx_HAL_Driver/Src/stm32f4xx_hal_dac.c **** }
 857              		.loc 1 1257 1 view .LVU242
 858 0008 08BD     		pop	{r3, pc}
 859              		.cfi_endproc
 860              	.LFE149:
 862              		.section	.text.HAL_DAC_ErrorCallbackCh1,"ax",%progbits
 863              		.align	1
 864              		.weak	HAL_DAC_ErrorCallbackCh1
 865              		.syntax unified
 866              		.thumb
 867              		.thumb_func
 868              		.fpu softvfp
 870              	HAL_DAC_ErrorCallbackCh1:
 871              	.LVL69:
 872              	.LFB142:
 796:Libraries/STM32F4xx_HAL_Driver/Src/stm32f4xx_hal_dac.c ****   /* Prevent unused argument(s) compilation warning */
 873              		.loc 1 796 1 is_stmt 1 view -0
 874              		.cfi_startproc
 875              		@ args = 0, pretend = 0, frame = 0
 876              		@ frame_needed = 0, uses_anonymous_args = 0
 877              		@ link register save eliminated.
 798:Libraries/STM32F4xx_HAL_Driver/Src/stm32f4xx_hal_dac.c ****   /* NOTE : This function Should not be modified, when the callback is needed,
 878              		.loc 1 798 3 view .LVU244
 802:Libraries/STM32F4xx_HAL_Driver/Src/stm32f4xx_hal_dac.c **** 
 879              		.loc 1 802 1 is_stmt 0 view .LVU245
 880 0000 7047     		bx	lr
 881              		.cfi_endproc
 882              	.LFE142:
 884              		.section	.text.DAC_DMAErrorCh1,"ax",%progbits
ARM GAS  C:\Users\yzy\AppData\Local\Temp\ccS9Kmk9.s 			page 40


 885              		.align	1
 886              		.syntax unified
 887              		.thumb
 888              		.thumb_func
 889              		.fpu softvfp
 891              	DAC_DMAErrorCh1:
 892              	.LVL70:
 893              	.LFB150:
1258:Libraries/STM32F4xx_HAL_Driver/Src/stm32f4xx_hal_dac.c **** 
1259:Libraries/STM32F4xx_HAL_Driver/Src/stm32f4xx_hal_dac.c **** /**
1260:Libraries/STM32F4xx_HAL_Driver/Src/stm32f4xx_hal_dac.c ****   * @brief  DMA error callback 
1261:Libraries/STM32F4xx_HAL_Driver/Src/stm32f4xx_hal_dac.c ****   * @param  hdma pointer to a DMA_HandleTypeDef structure that contains
1262:Libraries/STM32F4xx_HAL_Driver/Src/stm32f4xx_hal_dac.c ****   *                the configuration information for the specified DMA module.
1263:Libraries/STM32F4xx_HAL_Driver/Src/stm32f4xx_hal_dac.c ****   * @retval None
1264:Libraries/STM32F4xx_HAL_Driver/Src/stm32f4xx_hal_dac.c ****   */
1265:Libraries/STM32F4xx_HAL_Driver/Src/stm32f4xx_hal_dac.c **** static void DAC_DMAErrorCh1(DMA_HandleTypeDef *hdma)   
1266:Libraries/STM32F4xx_HAL_Driver/Src/stm32f4xx_hal_dac.c **** {
 894              		.loc 1 1266 1 is_stmt 1 view -0
 895              		.cfi_startproc
 896              		@ args = 0, pretend = 0, frame = 0
 897              		@ frame_needed = 0, uses_anonymous_args = 0
 898              		.loc 1 1266 1 is_stmt 0 view .LVU247
 899 0000 10B5     		push	{r4, lr}
 900              	.LCFI14:
 901              		.cfi_def_cfa_offset 8
 902              		.cfi_offset 4, -8
 903              		.cfi_offset 14, -4
1267:Libraries/STM32F4xx_HAL_Driver/Src/stm32f4xx_hal_dac.c ****   DAC_HandleTypeDef* hdac = ( DAC_HandleTypeDef* )((DMA_HandleTypeDef* )hdma)->Parent;
 904              		.loc 1 1267 3 is_stmt 1 view .LVU248
 905              		.loc 1 1267 22 is_stmt 0 view .LVU249
 906 0002 846B     		ldr	r4, [r0, #56]
 907              	.LVL71:
1268:Libraries/STM32F4xx_HAL_Driver/Src/stm32f4xx_hal_dac.c ****     
1269:Libraries/STM32F4xx_HAL_Driver/Src/stm32f4xx_hal_dac.c ****   /* Set DAC error code to DMA error */
1270:Libraries/STM32F4xx_HAL_Driver/Src/stm32f4xx_hal_dac.c ****   hdac->ErrorCode |= HAL_DAC_ERROR_DMA;
 908              		.loc 1 1270 3 is_stmt 1 view .LVU250
 909              		.loc 1 1270 19 is_stmt 0 view .LVU251
 910 0004 2369     		ldr	r3, [r4, #16]
 911 0006 43F00403 		orr	r3, r3, #4
 912 000a 2361     		str	r3, [r4, #16]
1271:Libraries/STM32F4xx_HAL_Driver/Src/stm32f4xx_hal_dac.c ****     
1272:Libraries/STM32F4xx_HAL_Driver/Src/stm32f4xx_hal_dac.c **** #if (USE_HAL_DAC_REGISTER_CALLBACKS == 1)
1273:Libraries/STM32F4xx_HAL_Driver/Src/stm32f4xx_hal_dac.c ****   hdac->ErrorCallbackCh1(hdac);
1274:Libraries/STM32F4xx_HAL_Driver/Src/stm32f4xx_hal_dac.c **** #else
1275:Libraries/STM32F4xx_HAL_Driver/Src/stm32f4xx_hal_dac.c ****   HAL_DAC_ErrorCallbackCh1(hdac); 
 913              		.loc 1 1275 3 is_stmt 1 view .LVU252
 914 000c 2046     		mov	r0, r4
 915              	.LVL72:
 916              		.loc 1 1275 3 is_stmt 0 view .LVU253
 917 000e FFF7FEFF 		bl	HAL_DAC_ErrorCallbackCh1
 918              	.LVL73:
1276:Libraries/STM32F4xx_HAL_Driver/Src/stm32f4xx_hal_dac.c **** #endif /* USE_HAL_DAC_REGISTER_CALLBACKS */
1277:Libraries/STM32F4xx_HAL_Driver/Src/stm32f4xx_hal_dac.c ****     
1278:Libraries/STM32F4xx_HAL_Driver/Src/stm32f4xx_hal_dac.c ****   hdac->State= HAL_DAC_STATE_READY;
 919              		.loc 1 1278 3 is_stmt 1 view .LVU254
 920              		.loc 1 1278 14 is_stmt 0 view .LVU255
 921 0012 0123     		movs	r3, #1
ARM GAS  C:\Users\yzy\AppData\Local\Temp\ccS9Kmk9.s 			page 41


 922 0014 2371     		strb	r3, [r4, #4]
1279:Libraries/STM32F4xx_HAL_Driver/Src/stm32f4xx_hal_dac.c **** }
 923              		.loc 1 1279 1 view .LVU256
 924 0016 10BD     		pop	{r4, pc}
 925              		.loc 1 1279 1 view .LVU257
 926              		.cfi_endproc
 927              	.LFE150:
 929              		.section	.text.HAL_DAC_DMAUnderrunCallbackCh1,"ax",%progbits
 930              		.align	1
 931              		.weak	HAL_DAC_DMAUnderrunCallbackCh1
 932              		.syntax unified
 933              		.thumb
 934              		.thumb_func
 935              		.fpu softvfp
 937              	HAL_DAC_DMAUnderrunCallbackCh1:
 938              	.LVL74:
 939              	.LFB143:
 811:Libraries/STM32F4xx_HAL_Driver/Src/stm32f4xx_hal_dac.c ****   /* Prevent unused argument(s) compilation warning */
 940              		.loc 1 811 1 is_stmt 1 view -0
 941              		.cfi_startproc
 942              		@ args = 0, pretend = 0, frame = 0
 943              		@ frame_needed = 0, uses_anonymous_args = 0
 944              		@ link register save eliminated.
 813:Libraries/STM32F4xx_HAL_Driver/Src/stm32f4xx_hal_dac.c ****   /* NOTE : This function Should not be modified, when the callback is needed,
 945              		.loc 1 813 3 view .LVU259
 817:Libraries/STM32F4xx_HAL_Driver/Src/stm32f4xx_hal_dac.c **** 
 946              		.loc 1 817 1 is_stmt 0 view .LVU260
 947 0000 7047     		bx	lr
 948              		.cfi_endproc
 949              	.LFE143:
 951              		.section	.text.HAL_DAC_IRQHandler,"ax",%progbits
 952              		.align	1
 953              		.global	HAL_DAC_IRQHandler
 954              		.syntax unified
 955              		.thumb
 956              		.thumb_func
 957              		.fpu softvfp
 959              	HAL_DAC_IRQHandler:
 960              	.LVL75:
 961              	.LFB139:
 712:Libraries/STM32F4xx_HAL_Driver/Src/stm32f4xx_hal_dac.c ****   /* Check underrun channel 1 flag */
 962              		.loc 1 712 1 is_stmt 1 view -0
 963              		.cfi_startproc
 964              		@ args = 0, pretend = 0, frame = 0
 965              		@ frame_needed = 0, uses_anonymous_args = 0
 712:Libraries/STM32F4xx_HAL_Driver/Src/stm32f4xx_hal_dac.c ****   /* Check underrun channel 1 flag */
 966              		.loc 1 712 1 is_stmt 0 view .LVU262
 967 0000 10B5     		push	{r4, lr}
 968              	.LCFI15:
 969              		.cfi_def_cfa_offset 8
 970              		.cfi_offset 4, -8
 971              		.cfi_offset 14, -4
 972 0002 0446     		mov	r4, r0
 714:Libraries/STM32F4xx_HAL_Driver/Src/stm32f4xx_hal_dac.c ****   {
 973              		.loc 1 714 3 is_stmt 1 view .LVU263
 714:Libraries/STM32F4xx_HAL_Driver/Src/stm32f4xx_hal_dac.c ****   {
 974              		.loc 1 714 6 is_stmt 0 view .LVU264
ARM GAS  C:\Users\yzy\AppData\Local\Temp\ccS9Kmk9.s 			page 42


 975 0004 0368     		ldr	r3, [r0]
 976 0006 5A6B     		ldr	r2, [r3, #52]
 714:Libraries/STM32F4xx_HAL_Driver/Src/stm32f4xx_hal_dac.c ****   {
 977              		.loc 1 714 5 view .LVU265
 978 0008 12F4005F 		tst	r2, #8192
 979 000c 05D1     		bne	.L72
 980              	.LVL76:
 981              	.L69:
 736:Libraries/STM32F4xx_HAL_Driver/Src/stm32f4xx_hal_dac.c ****   {
 982              		.loc 1 736 3 is_stmt 1 view .LVU266
 736:Libraries/STM32F4xx_HAL_Driver/Src/stm32f4xx_hal_dac.c ****   {
 983              		.loc 1 736 6 is_stmt 0 view .LVU267
 984 000e 2368     		ldr	r3, [r4]
 985 0010 5A6B     		ldr	r2, [r3, #52]
 736:Libraries/STM32F4xx_HAL_Driver/Src/stm32f4xx_hal_dac.c ****   {
 986              		.loc 1 736 5 view .LVU268
 987 0012 12F0005F 		tst	r2, #536870912
 988 0016 11D1     		bne	.L73
 989              	.L68:
 757:Libraries/STM32F4xx_HAL_Driver/Src/stm32f4xx_hal_dac.c **** 
 990              		.loc 1 757 1 view .LVU269
 991 0018 10BD     		pop	{r4, pc}
 992              	.LVL77:
 993              	.L72:
 717:Libraries/STM32F4xx_HAL_Driver/Src/stm32f4xx_hal_dac.c ****     
 994              		.loc 1 717 5 is_stmt 1 view .LVU270
 717:Libraries/STM32F4xx_HAL_Driver/Src/stm32f4xx_hal_dac.c ****     
 995              		.loc 1 717 17 is_stmt 0 view .LVU271
 996 001a 0422     		movs	r2, #4
 997 001c 0271     		strb	r2, [r0, #4]
 720:Libraries/STM32F4xx_HAL_Driver/Src/stm32f4xx_hal_dac.c ****     
 998              		.loc 1 720 5 is_stmt 1 view .LVU272
 720:Libraries/STM32F4xx_HAL_Driver/Src/stm32f4xx_hal_dac.c ****     
 999              		.loc 1 720 21 is_stmt 0 view .LVU273
 1000 001e 0269     		ldr	r2, [r0, #16]
 1001 0020 42F00102 		orr	r2, r2, #1
 1002 0024 0261     		str	r2, [r0, #16]
 723:Libraries/STM32F4xx_HAL_Driver/Src/stm32f4xx_hal_dac.c ****     
 1003              		.loc 1 723 5 is_stmt 1 view .LVU274
 1004 0026 4FF40052 		mov	r2, #8192
 1005 002a 5A63     		str	r2, [r3, #52]
 726:Libraries/STM32F4xx_HAL_Driver/Src/stm32f4xx_hal_dac.c ****     
 1006              		.loc 1 726 5 view .LVU275
 726:Libraries/STM32F4xx_HAL_Driver/Src/stm32f4xx_hal_dac.c ****     
 1007              		.loc 1 726 9 is_stmt 0 view .LVU276
 1008 002c 0268     		ldr	r2, [r0]
 726:Libraries/STM32F4xx_HAL_Driver/Src/stm32f4xx_hal_dac.c ****     
 1009              		.loc 1 726 24 view .LVU277
 1010 002e 1368     		ldr	r3, [r2]
 1011 0030 23F48053 		bic	r3, r3, #4096
 1012 0034 1360     		str	r3, [r2]
 732:Libraries/STM32F4xx_HAL_Driver/Src/stm32f4xx_hal_dac.c **** #endif /* USE_HAL_DAC_REGISTER_CALLBACKS */
 1013              		.loc 1 732 5 is_stmt 1 view .LVU278
 1014 0036 FFF7FEFF 		bl	HAL_DAC_DMAUnderrunCallbackCh1
 1015              	.LVL78:
 732:Libraries/STM32F4xx_HAL_Driver/Src/stm32f4xx_hal_dac.c **** #endif /* USE_HAL_DAC_REGISTER_CALLBACKS */
 1016              		.loc 1 732 5 is_stmt 0 view .LVU279
ARM GAS  C:\Users\yzy\AppData\Local\Temp\ccS9Kmk9.s 			page 43


 1017 003a E8E7     		b	.L69
 1018              	.L73:
 739:Libraries/STM32F4xx_HAL_Driver/Src/stm32f4xx_hal_dac.c ****     
 1019              		.loc 1 739 5 is_stmt 1 view .LVU280
 739:Libraries/STM32F4xx_HAL_Driver/Src/stm32f4xx_hal_dac.c ****     
 1020              		.loc 1 739 17 is_stmt 0 view .LVU281
 1021 003c 0422     		movs	r2, #4
 1022 003e 2271     		strb	r2, [r4, #4]
 742:Libraries/STM32F4xx_HAL_Driver/Src/stm32f4xx_hal_dac.c ****     
 1023              		.loc 1 742 5 is_stmt 1 view .LVU282
 742:Libraries/STM32F4xx_HAL_Driver/Src/stm32f4xx_hal_dac.c ****     
 1024              		.loc 1 742 21 is_stmt 0 view .LVU283
 1025 0040 2269     		ldr	r2, [r4, #16]
 1026 0042 42F00202 		orr	r2, r2, #2
 1027 0046 2261     		str	r2, [r4, #16]
 745:Libraries/STM32F4xx_HAL_Driver/Src/stm32f4xx_hal_dac.c ****     
 1028              		.loc 1 745 5 is_stmt 1 view .LVU284
 1029 0048 4FF00052 		mov	r2, #536870912
 1030 004c 5A63     		str	r2, [r3, #52]
 748:Libraries/STM32F4xx_HAL_Driver/Src/stm32f4xx_hal_dac.c ****     
 1031              		.loc 1 748 5 view .LVU285
 748:Libraries/STM32F4xx_HAL_Driver/Src/stm32f4xx_hal_dac.c ****     
 1032              		.loc 1 748 9 is_stmt 0 view .LVU286
 1033 004e 2268     		ldr	r2, [r4]
 748:Libraries/STM32F4xx_HAL_Driver/Src/stm32f4xx_hal_dac.c ****     
 1034              		.loc 1 748 24 view .LVU287
 1035 0050 1368     		ldr	r3, [r2]
 1036 0052 23F08053 		bic	r3, r3, #268435456
 1037 0056 1360     		str	r3, [r2]
 754:Libraries/STM32F4xx_HAL_Driver/Src/stm32f4xx_hal_dac.c **** #endif /* USE_HAL_DAC_REGISTER_CALLBACKS */
 1038              		.loc 1 754 5 is_stmt 1 view .LVU288
 1039 0058 2046     		mov	r0, r4
 1040 005a FFF7FEFF 		bl	HAL_DACEx_DMAUnderrunCallbackCh2
 1041              	.LVL79:
 757:Libraries/STM32F4xx_HAL_Driver/Src/stm32f4xx_hal_dac.c **** 
 1042              		.loc 1 757 1 is_stmt 0 view .LVU289
 1043 005e DBE7     		b	.L68
 1044              		.cfi_endproc
 1045              	.LFE139:
 1047              		.section	.text.HAL_DAC_ConfigChannel,"ax",%progbits
 1048              		.align	1
 1049              		.global	HAL_DAC_ConfigChannel
 1050              		.syntax unified
 1051              		.thumb
 1052              		.thumb_func
 1053              		.fpu softvfp
 1055              	HAL_DAC_ConfigChannel:
 1056              	.LVL80:
 1057              	.LFB144:
 850:Libraries/STM32F4xx_HAL_Driver/Src/stm32f4xx_hal_dac.c ****   uint32_t tmpreg1 = 0U, tmpreg2 = 0U;
 1058              		.loc 1 850 1 is_stmt 1 view -0
 1059              		.cfi_startproc
 1060              		@ args = 0, pretend = 0, frame = 0
 1061              		@ frame_needed = 0, uses_anonymous_args = 0
 1062              		@ link register save eliminated.
 851:Libraries/STM32F4xx_HAL_Driver/Src/stm32f4xx_hal_dac.c **** 
 1063              		.loc 1 851 3 view .LVU291
ARM GAS  C:\Users\yzy\AppData\Local\Temp\ccS9Kmk9.s 			page 44


 854:Libraries/STM32F4xx_HAL_Driver/Src/stm32f4xx_hal_dac.c ****   assert_param(IS_DAC_OUTPUT_BUFFER_STATE(sConfig->DAC_OutputBuffer));
 1064              		.loc 1 854 3 view .LVU292
 855:Libraries/STM32F4xx_HAL_Driver/Src/stm32f4xx_hal_dac.c ****   assert_param(IS_DAC_CHANNEL(Channel));
 1065              		.loc 1 855 3 view .LVU293
 856:Libraries/STM32F4xx_HAL_Driver/Src/stm32f4xx_hal_dac.c ****   
 1066              		.loc 1 856 3 view .LVU294
 859:Libraries/STM32F4xx_HAL_Driver/Src/stm32f4xx_hal_dac.c ****   
 1067              		.loc 1 859 3 view .LVU295
 859:Libraries/STM32F4xx_HAL_Driver/Src/stm32f4xx_hal_dac.c ****   
 1068              		.loc 1 859 3 view .LVU296
 1069 0000 4379     		ldrb	r3, [r0, #5]	@ zero_extendqisi2
 1070 0002 012B     		cmp	r3, #1
 1071 0004 1FD0     		beq	.L76
 850:Libraries/STM32F4xx_HAL_Driver/Src/stm32f4xx_hal_dac.c ****   uint32_t tmpreg1 = 0U, tmpreg2 = 0U;
 1072              		.loc 1 850 1 is_stmt 0 discriminator 2 view .LVU297
 1073 0006 70B4     		push	{r4, r5, r6}
 1074              	.LCFI16:
 1075              		.cfi_def_cfa_offset 12
 1076              		.cfi_offset 4, -12
 1077              		.cfi_offset 5, -8
 1078              		.cfi_offset 6, -4
 859:Libraries/STM32F4xx_HAL_Driver/Src/stm32f4xx_hal_dac.c ****   
 1079              		.loc 1 859 3 is_stmt 1 discriminator 2 view .LVU298
 1080 0008 0125     		movs	r5, #1
 1081 000a 4571     		strb	r5, [r0, #5]
 859:Libraries/STM32F4xx_HAL_Driver/Src/stm32f4xx_hal_dac.c ****   
 1082              		.loc 1 859 3 discriminator 2 view .LVU299
 862:Libraries/STM32F4xx_HAL_Driver/Src/stm32f4xx_hal_dac.c ****   
 1083              		.loc 1 862 3 discriminator 2 view .LVU300
 862:Libraries/STM32F4xx_HAL_Driver/Src/stm32f4xx_hal_dac.c ****   
 1084              		.loc 1 862 15 is_stmt 0 discriminator 2 view .LVU301
 1085 000c 0223     		movs	r3, #2
 1086 000e 0371     		strb	r3, [r0, #4]
 865:Libraries/STM32F4xx_HAL_Driver/Src/stm32f4xx_hal_dac.c ****   /* Clear BOFFx, TENx, TSELx, WAVEx and MAMPx bits */
 1087              		.loc 1 865 3 is_stmt 1 discriminator 2 view .LVU302
 865:Libraries/STM32F4xx_HAL_Driver/Src/stm32f4xx_hal_dac.c ****   /* Clear BOFFx, TENx, TSELx, WAVEx and MAMPx bits */
 1088              		.loc 1 865 17 is_stmt 0 discriminator 2 view .LVU303
 1089 0010 0668     		ldr	r6, [r0]
 865:Libraries/STM32F4xx_HAL_Driver/Src/stm32f4xx_hal_dac.c ****   /* Clear BOFFx, TENx, TSELx, WAVEx and MAMPx bits */
 1090              		.loc 1 865 11 discriminator 2 view .LVU304
 1091 0012 3368     		ldr	r3, [r6]
 1092              	.LVL81:
 867:Libraries/STM32F4xx_HAL_Driver/Src/stm32f4xx_hal_dac.c ****   /* Configure for the selected DAC channel: buffer output, trigger */
 1093              		.loc 1 867 3 is_stmt 1 discriminator 2 view .LVU305
 867:Libraries/STM32F4xx_HAL_Driver/Src/stm32f4xx_hal_dac.c ****   /* Configure for the selected DAC channel: buffer output, trigger */
 1094              		.loc 1 867 102 is_stmt 0 discriminator 2 view .LVU306
 1095 0014 40F6FE74 		movw	r4, #4094
 1096 0018 9440     		lsls	r4, r4, r2
 867:Libraries/STM32F4xx_HAL_Driver/Src/stm32f4xx_hal_dac.c ****   /* Configure for the selected DAC channel: buffer output, trigger */
 1097              		.loc 1 867 11 discriminator 2 view .LVU307
 1098 001a 23EA0404 		bic	r4, r3, r4
 1099              	.LVL82:
 871:Libraries/STM32F4xx_HAL_Driver/Src/stm32f4xx_hal_dac.c ****   /* Calculate CR register value depending on DAC_Channel */
 1100              		.loc 1 871 3 is_stmt 1 discriminator 2 view .LVU308
 871:Libraries/STM32F4xx_HAL_Driver/Src/stm32f4xx_hal_dac.c ****   /* Calculate CR register value depending on DAC_Channel */
 1101              		.loc 1 871 21 is_stmt 0 discriminator 2 view .LVU309
 1102 001e 0B68     		ldr	r3, [r1]
ARM GAS  C:\Users\yzy\AppData\Local\Temp\ccS9Kmk9.s 			page 45


 871:Libraries/STM32F4xx_HAL_Driver/Src/stm32f4xx_hal_dac.c ****   /* Calculate CR register value depending on DAC_Channel */
 1103              		.loc 1 871 44 discriminator 2 view .LVU310
 1104 0020 4968     		ldr	r1, [r1, #4]
 1105              	.LVL83:
 871:Libraries/STM32F4xx_HAL_Driver/Src/stm32f4xx_hal_dac.c ****   /* Calculate CR register value depending on DAC_Channel */
 1106              		.loc 1 871 11 discriminator 2 view .LVU311
 1107 0022 0B43     		orrs	r3, r3, r1
 1108              	.LVL84:
 873:Libraries/STM32F4xx_HAL_Driver/Src/stm32f4xx_hal_dac.c ****   /* Write to DAC CR */
 1109              		.loc 1 873 3 is_stmt 1 discriminator 2 view .LVU312
 873:Libraries/STM32F4xx_HAL_Driver/Src/stm32f4xx_hal_dac.c ****   /* Write to DAC CR */
 1110              		.loc 1 873 22 is_stmt 0 discriminator 2 view .LVU313
 1111 0024 9340     		lsls	r3, r3, r2
 1112              	.LVL85:
 873:Libraries/STM32F4xx_HAL_Driver/Src/stm32f4xx_hal_dac.c ****   /* Write to DAC CR */
 1113              		.loc 1 873 11 discriminator 2 view .LVU314
 1114 0026 2343     		orrs	r3, r3, r4
 1115              	.LVL86:
 875:Libraries/STM32F4xx_HAL_Driver/Src/stm32f4xx_hal_dac.c ****   /* Disable wave generation */
 1116              		.loc 1 875 3 is_stmt 1 discriminator 2 view .LVU315
 875:Libraries/STM32F4xx_HAL_Driver/Src/stm32f4xx_hal_dac.c ****   /* Disable wave generation */
 1117              		.loc 1 875 22 is_stmt 0 discriminator 2 view .LVU316
 1118 0028 3360     		str	r3, [r6]
 1119              	.LVL87:
 877:Libraries/STM32F4xx_HAL_Driver/Src/stm32f4xx_hal_dac.c ****   
 1120              		.loc 1 877 3 is_stmt 1 discriminator 2 view .LVU317
 877:Libraries/STM32F4xx_HAL_Driver/Src/stm32f4xx_hal_dac.c ****   
 1121              		.loc 1 877 7 is_stmt 0 discriminator 2 view .LVU318
 1122 002a 0468     		ldr	r4, [r0]
 877:Libraries/STM32F4xx_HAL_Driver/Src/stm32f4xx_hal_dac.c ****   
 1123              		.loc 1 877 22 discriminator 2 view .LVU319
 1124 002c 2368     		ldr	r3, [r4]
 1125              	.LVL88:
 877:Libraries/STM32F4xx_HAL_Driver/Src/stm32f4xx_hal_dac.c ****   
 1126              		.loc 1 877 40 discriminator 2 view .LVU320
 1127 002e C021     		movs	r1, #192
 1128 0030 01FA02F2 		lsl	r2, r1, r2
 1129              	.LVL89:
 877:Libraries/STM32F4xx_HAL_Driver/Src/stm32f4xx_hal_dac.c ****   
 1130              		.loc 1 877 22 discriminator 2 view .LVU321
 1131 0034 23EA0202 		bic	r2, r3, r2
 1132 0038 2260     		str	r2, [r4]
 1133              	.LVL90:
 880:Libraries/STM32F4xx_HAL_Driver/Src/stm32f4xx_hal_dac.c ****   
 1134              		.loc 1 880 3 is_stmt 1 discriminator 2 view .LVU322
 880:Libraries/STM32F4xx_HAL_Driver/Src/stm32f4xx_hal_dac.c ****   
 1135              		.loc 1 880 15 is_stmt 0 discriminator 2 view .LVU323
 1136 003a 0571     		strb	r5, [r0, #4]
 883:Libraries/STM32F4xx_HAL_Driver/Src/stm32f4xx_hal_dac.c ****   
 1137              		.loc 1 883 3 is_stmt 1 discriminator 2 view .LVU324
 883:Libraries/STM32F4xx_HAL_Driver/Src/stm32f4xx_hal_dac.c ****   
 1138              		.loc 1 883 3 discriminator 2 view .LVU325
 1139 003c 0023     		movs	r3, #0
 1140 003e 4371     		strb	r3, [r0, #5]
 883:Libraries/STM32F4xx_HAL_Driver/Src/stm32f4xx_hal_dac.c ****   
 1141              		.loc 1 883 3 discriminator 2 view .LVU326
 886:Libraries/STM32F4xx_HAL_Driver/Src/stm32f4xx_hal_dac.c **** }
ARM GAS  C:\Users\yzy\AppData\Local\Temp\ccS9Kmk9.s 			page 46


 1142              		.loc 1 886 3 discriminator 2 view .LVU327
 886:Libraries/STM32F4xx_HAL_Driver/Src/stm32f4xx_hal_dac.c **** }
 1143              		.loc 1 886 10 is_stmt 0 discriminator 2 view .LVU328
 1144 0040 1846     		mov	r0, r3
 1145              	.LVL91:
 887:Libraries/STM32F4xx_HAL_Driver/Src/stm32f4xx_hal_dac.c **** 
 1146              		.loc 1 887 1 discriminator 2 view .LVU329
 1147 0042 70BC     		pop	{r4, r5, r6}
 1148              	.LCFI17:
 1149              		.cfi_restore 6
 1150              		.cfi_restore 5
 1151              		.cfi_restore 4
 1152              		.cfi_def_cfa_offset 0
 1153 0044 7047     		bx	lr
 1154              	.LVL92:
 1155              	.L76:
 859:Libraries/STM32F4xx_HAL_Driver/Src/stm32f4xx_hal_dac.c ****   
 1156              		.loc 1 859 3 view .LVU330
 1157 0046 0220     		movs	r0, #2
 1158              	.LVL93:
 887:Libraries/STM32F4xx_HAL_Driver/Src/stm32f4xx_hal_dac.c **** 
 1159              		.loc 1 887 1 view .LVU331
 1160 0048 7047     		bx	lr
 1161              		.cfi_endproc
 1162              	.LFE144:
 1164              		.section	.text.HAL_DAC_SetValue,"ax",%progbits
 1165              		.align	1
 1166              		.global	HAL_DAC_SetValue
 1167              		.syntax unified
 1168              		.thumb
 1169              		.thumb_func
 1170              		.fpu softvfp
 1172              	HAL_DAC_SetValue:
 1173              	.LVL94:
 1174              	.LFB145:
 906:Libraries/STM32F4xx_HAL_Driver/Src/stm32f4xx_hal_dac.c ****   __IO uint32_t tmp = 0U;
 1175              		.loc 1 906 1 is_stmt 1 view -0
 1176              		.cfi_startproc
 1177              		@ args = 0, pretend = 0, frame = 8
 1178              		@ frame_needed = 0, uses_anonymous_args = 0
 1179              		@ link register save eliminated.
 906:Libraries/STM32F4xx_HAL_Driver/Src/stm32f4xx_hal_dac.c ****   __IO uint32_t tmp = 0U;
 1180              		.loc 1 906 1 is_stmt 0 view .LVU333
 1181 0000 10B4     		push	{r4}
 1182              	.LCFI18:
 1183              		.cfi_def_cfa_offset 4
 1184              		.cfi_offset 4, -4
 1185 0002 83B0     		sub	sp, sp, #12
 1186              	.LCFI19:
 1187              		.cfi_def_cfa_offset 16
 907:Libraries/STM32F4xx_HAL_Driver/Src/stm32f4xx_hal_dac.c ****   
 1188              		.loc 1 907 3 is_stmt 1 view .LVU334
 907:Libraries/STM32F4xx_HAL_Driver/Src/stm32f4xx_hal_dac.c ****   
 1189              		.loc 1 907 17 is_stmt 0 view .LVU335
 1190 0004 0024     		movs	r4, #0
 1191 0006 0194     		str	r4, [sp, #4]
 910:Libraries/STM32F4xx_HAL_Driver/Src/stm32f4xx_hal_dac.c ****   assert_param(IS_DAC_ALIGN(Alignment));
ARM GAS  C:\Users\yzy\AppData\Local\Temp\ccS9Kmk9.s 			page 47


 1192              		.loc 1 910 3 is_stmt 1 view .LVU336
 911:Libraries/STM32F4xx_HAL_Driver/Src/stm32f4xx_hal_dac.c ****   assert_param(IS_DAC_DATA(Data));
 1193              		.loc 1 911 3 view .LVU337
 912:Libraries/STM32F4xx_HAL_Driver/Src/stm32f4xx_hal_dac.c ****   
 1194              		.loc 1 912 3 view .LVU338
 914:Libraries/STM32F4xx_HAL_Driver/Src/stm32f4xx_hal_dac.c ****   if(Channel == DAC_CHANNEL_1)
 1195              		.loc 1 914 3 view .LVU339
 914:Libraries/STM32F4xx_HAL_Driver/Src/stm32f4xx_hal_dac.c ****   if(Channel == DAC_CHANNEL_1)
 1196              		.loc 1 914 23 is_stmt 0 view .LVU340
 1197 0008 0068     		ldr	r0, [r0]
 1198              	.LVL95:
 914:Libraries/STM32F4xx_HAL_Driver/Src/stm32f4xx_hal_dac.c ****   if(Channel == DAC_CHANNEL_1)
 1199              		.loc 1 914 7 view .LVU341
 1200 000a 0190     		str	r0, [sp, #4]
 915:Libraries/STM32F4xx_HAL_Driver/Src/stm32f4xx_hal_dac.c ****   {
 1201              		.loc 1 915 3 is_stmt 1 view .LVU342
 915:Libraries/STM32F4xx_HAL_Driver/Src/stm32f4xx_hal_dac.c ****   {
 1202              		.loc 1 915 5 is_stmt 0 view .LVU343
 1203 000c 49B9     		cbnz	r1, .L82
 917:Libraries/STM32F4xx_HAL_Driver/Src/stm32f4xx_hal_dac.c ****   }
 1204              		.loc 1 917 5 is_stmt 1 view .LVU344
 917:Libraries/STM32F4xx_HAL_Driver/Src/stm32f4xx_hal_dac.c ****   }
 1205              		.loc 1 917 9 is_stmt 0 view .LVU345
 1206 000e 0199     		ldr	r1, [sp, #4]
 1207              	.LVL96:
 917:Libraries/STM32F4xx_HAL_Driver/Src/stm32f4xx_hal_dac.c ****   }
 1208              		.loc 1 917 9 view .LVU346
 1209 0010 0A44     		add	r2, r2, r1
 1210              	.LVL97:
 917:Libraries/STM32F4xx_HAL_Driver/Src/stm32f4xx_hal_dac.c ****   }
 1211              		.loc 1 917 9 view .LVU347
 1212 0012 0832     		adds	r2, r2, #8
 1213 0014 0192     		str	r2, [sp, #4]
 1214              	.L83:
 925:Libraries/STM32F4xx_HAL_Driver/Src/stm32f4xx_hal_dac.c ****   
 1215              		.loc 1 925 3 is_stmt 1 view .LVU348
 925:Libraries/STM32F4xx_HAL_Driver/Src/stm32f4xx_hal_dac.c ****   
 1216              		.loc 1 925 4 is_stmt 0 view .LVU349
 1217 0016 019A     		ldr	r2, [sp, #4]
 925:Libraries/STM32F4xx_HAL_Driver/Src/stm32f4xx_hal_dac.c ****   
 1218              		.loc 1 925 26 view .LVU350
 1219 0018 1360     		str	r3, [r2]
 928:Libraries/STM32F4xx_HAL_Driver/Src/stm32f4xx_hal_dac.c **** }
 1220              		.loc 1 928 3 is_stmt 1 view .LVU351
 929:Libraries/STM32F4xx_HAL_Driver/Src/stm32f4xx_hal_dac.c **** 
 1221              		.loc 1 929 1 is_stmt 0 view .LVU352
 1222 001a 0020     		movs	r0, #0
 1223 001c 03B0     		add	sp, sp, #12
 1224              	.LCFI20:
 1225              		.cfi_remember_state
 1226              		.cfi_def_cfa_offset 4
 1227              		@ sp needed
 1228 001e 10BC     		pop	{r4}
 1229              	.LCFI21:
 1230              		.cfi_restore 4
 1231              		.cfi_def_cfa_offset 0
 1232 0020 7047     		bx	lr
ARM GAS  C:\Users\yzy\AppData\Local\Temp\ccS9Kmk9.s 			page 48


 1233              	.LVL98:
 1234              	.L82:
 1235              	.LCFI22:
 1236              		.cfi_restore_state
 921:Libraries/STM32F4xx_HAL_Driver/Src/stm32f4xx_hal_dac.c ****   }
 1237              		.loc 1 921 5 is_stmt 1 view .LVU353
 921:Libraries/STM32F4xx_HAL_Driver/Src/stm32f4xx_hal_dac.c ****   }
 1238              		.loc 1 921 9 is_stmt 0 view .LVU354
 1239 0022 0199     		ldr	r1, [sp, #4]
 1240              	.LVL99:
 921:Libraries/STM32F4xx_HAL_Driver/Src/stm32f4xx_hal_dac.c ****   }
 1241              		.loc 1 921 9 view .LVU355
 1242 0024 0A44     		add	r2, r2, r1
 1243              	.LVL100:
 921:Libraries/STM32F4xx_HAL_Driver/Src/stm32f4xx_hal_dac.c ****   }
 1244              		.loc 1 921 9 view .LVU356
 1245 0026 1432     		adds	r2, r2, #20
 1246 0028 0192     		str	r2, [sp, #4]
 1247 002a F4E7     		b	.L83
 1248              		.cfi_endproc
 1249              	.LFE145:
 1251              		.section	.text.HAL_DAC_GetState,"ax",%progbits
 1252              		.align	1
 1253              		.global	HAL_DAC_GetState
 1254              		.syntax unified
 1255              		.thumb
 1256              		.thumb_func
 1257              		.fpu softvfp
 1259              	HAL_DAC_GetState:
 1260              	.LVL101:
 1261              	.LFB146:
 958:Libraries/STM32F4xx_HAL_Driver/Src/stm32f4xx_hal_dac.c ****   /* Return DAC state */
 1262              		.loc 1 958 1 is_stmt 1 view -0
 1263              		.cfi_startproc
 1264              		@ args = 0, pretend = 0, frame = 0
 1265              		@ frame_needed = 0, uses_anonymous_args = 0
 1266              		@ link register save eliminated.
 960:Libraries/STM32F4xx_HAL_Driver/Src/stm32f4xx_hal_dac.c **** }
 1267              		.loc 1 960 3 view .LVU358
 960:Libraries/STM32F4xx_HAL_Driver/Src/stm32f4xx_hal_dac.c **** }
 1268              		.loc 1 960 14 is_stmt 0 view .LVU359
 1269 0000 0079     		ldrb	r0, [r0, #4]	@ zero_extendqisi2
 1270              	.LVL102:
 961:Libraries/STM32F4xx_HAL_Driver/Src/stm32f4xx_hal_dac.c **** 
 1271              		.loc 1 961 1 view .LVU360
 1272 0002 7047     		bx	lr
 1273              		.cfi_endproc
 1274              	.LFE146:
 1276              		.section	.text.HAL_DAC_GetError,"ax",%progbits
 1277              		.align	1
 1278              		.global	HAL_DAC_GetError
 1279              		.syntax unified
 1280              		.thumb
 1281              		.thumb_func
 1282              		.fpu softvfp
 1284              	HAL_DAC_GetError:
 1285              	.LVL103:
ARM GAS  C:\Users\yzy\AppData\Local\Temp\ccS9Kmk9.s 			page 49


 1286              	.LFB147:
 971:Libraries/STM32F4xx_HAL_Driver/Src/stm32f4xx_hal_dac.c ****   return hdac->ErrorCode;
 1287              		.loc 1 971 1 is_stmt 1 view -0
 1288              		.cfi_startproc
 1289              		@ args = 0, pretend = 0, frame = 0
 1290              		@ frame_needed = 0, uses_anonymous_args = 0
 1291              		@ link register save eliminated.
 972:Libraries/STM32F4xx_HAL_Driver/Src/stm32f4xx_hal_dac.c **** }
 1292              		.loc 1 972 3 view .LVU362
 972:Libraries/STM32F4xx_HAL_Driver/Src/stm32f4xx_hal_dac.c **** }
 1293              		.loc 1 972 14 is_stmt 0 view .LVU363
 1294 0000 0069     		ldr	r0, [r0, #16]
 1295              	.LVL104:
 973:Libraries/STM32F4xx_HAL_Driver/Src/stm32f4xx_hal_dac.c **** 
 1296              		.loc 1 973 1 view .LVU364
 1297 0002 7047     		bx	lr
 1298              		.cfi_endproc
 1299              	.LFE147:
 1301              		.text
 1302              	.Letext0:
 1303              		.file 2 "c:\\program files (x86)\\gnu arm embedded toolchain\\2020-q2-update\\arm-none-eabi\\inclu
 1304              		.file 3 "c:\\program files (x86)\\gnu arm embedded toolchain\\2020-q2-update\\arm-none-eabi\\inclu
 1305              		.file 4 "Libraries/CMSIS/Include/core_cm4.h"
 1306              		.file 5 "Libraries/CMSIS/Device/ST/STM32F4xx/Include/system_stm32f4xx.h"
 1307              		.file 6 "Libraries/CMSIS/Device/ST/STM32F4xx/Include/stm32f407xx.h"
 1308              		.file 7 "Libraries/STM32F4xx_HAL_Driver/Inc/stm32f4xx_hal_def.h"
 1309              		.file 8 "Libraries/STM32F4xx_HAL_Driver/Inc/stm32f4xx_hal_dma.h"
 1310              		.file 9 "Libraries/STM32F4xx_HAL_Driver/Inc/stm32f4xx_hal_dac.h"
 1311              		.file 10 "Libraries/STM32F4xx_HAL_Driver/Inc/stm32f4xx_hal.h"
 1312              		.file 11 "Libraries/STM32F4xx_HAL_Driver/Inc/stm32f4xx_hal_dac_ex.h"
ARM GAS  C:\Users\yzy\AppData\Local\Temp\ccS9Kmk9.s 			page 50

