ARM GAS  C:\Users\yzy\AppData\Local\Temp\ccvAdv2d.s 			page 1


   1              		.cpu cortex-m4
   2              		.eabi_attribute 20, 1
   3              		.eabi_attribute 21, 1
   4              		.eabi_attribute 23, 3
   5              		.eabi_attribute 24, 1
   6              		.eabi_attribute 25, 1
   7              		.eabi_attribute 26, 1
   8              		.eabi_attribute 30, 1
   9              		.eabi_attribute 34, 1
  10              		.eabi_attribute 18, 4
  11              		.file	"stm32f4xx_hal_nor.c"
  12              		.text
  13              	.Ltext0:
  14              		.cfi_sections	.debug_frame
  15              		.section	.text.HAL_NOR_MspInit,"ax",%progbits
  16              		.align	1
  17              		.weak	HAL_NOR_MspInit
  18              		.arch armv7e-m
  19              		.syntax unified
  20              		.thumb
  21              		.thumb_func
  22              		.fpu softvfp
  24              	HAL_NOR_MspInit:
  25              	.LVL0:
  26              	.LFB132:
  27              		.file 1 "Libraries/STM32F4xx_HAL_Driver/Src/stm32f4xx_hal_nor.c"
   1:Libraries/STM32F4xx_HAL_Driver/Src/stm32f4xx_hal_nor.c **** /**
   2:Libraries/STM32F4xx_HAL_Driver/Src/stm32f4xx_hal_nor.c ****   ******************************************************************************
   3:Libraries/STM32F4xx_HAL_Driver/Src/stm32f4xx_hal_nor.c ****   * @file    stm32f4xx_hal_nor.c
   4:Libraries/STM32F4xx_HAL_Driver/Src/stm32f4xx_hal_nor.c ****   * @author  MCD Application Team
   5:Libraries/STM32F4xx_HAL_Driver/Src/stm32f4xx_hal_nor.c ****   * @brief   NOR HAL module driver.
   6:Libraries/STM32F4xx_HAL_Driver/Src/stm32f4xx_hal_nor.c ****   *          This file provides a generic firmware to drive NOR memories mounted 
   7:Libraries/STM32F4xx_HAL_Driver/Src/stm32f4xx_hal_nor.c ****   *          as external device.
   8:Libraries/STM32F4xx_HAL_Driver/Src/stm32f4xx_hal_nor.c ****   *         
   9:Libraries/STM32F4xx_HAL_Driver/Src/stm32f4xx_hal_nor.c ****   @verbatim
  10:Libraries/STM32F4xx_HAL_Driver/Src/stm32f4xx_hal_nor.c ****   ==============================================================================
  11:Libraries/STM32F4xx_HAL_Driver/Src/stm32f4xx_hal_nor.c ****                      ##### How to use this driver #####
  12:Libraries/STM32F4xx_HAL_Driver/Src/stm32f4xx_hal_nor.c ****   ==============================================================================       
  13:Libraries/STM32F4xx_HAL_Driver/Src/stm32f4xx_hal_nor.c ****     [..]
  14:Libraries/STM32F4xx_HAL_Driver/Src/stm32f4xx_hal_nor.c ****       This driver is a generic layered driver which contains a set of APIs used to 
  15:Libraries/STM32F4xx_HAL_Driver/Src/stm32f4xx_hal_nor.c ****       control NOR flash memories. It uses the FMC/FSMC layer functions to interface 
  16:Libraries/STM32F4xx_HAL_Driver/Src/stm32f4xx_hal_nor.c ****       with NOR devices. This driver is used as follows:
  17:Libraries/STM32F4xx_HAL_Driver/Src/stm32f4xx_hal_nor.c ****     
  18:Libraries/STM32F4xx_HAL_Driver/Src/stm32f4xx_hal_nor.c ****       (+) NOR flash memory configuration sequence using the function HAL_NOR_Init() 
  19:Libraries/STM32F4xx_HAL_Driver/Src/stm32f4xx_hal_nor.c ****           with control and timing parameters for both normal and extended mode.
  20:Libraries/STM32F4xx_HAL_Driver/Src/stm32f4xx_hal_nor.c ****             
  21:Libraries/STM32F4xx_HAL_Driver/Src/stm32f4xx_hal_nor.c ****       (+) Read NOR flash memory manufacturer code and device IDs using the function
  22:Libraries/STM32F4xx_HAL_Driver/Src/stm32f4xx_hal_nor.c ****           HAL_NOR_Read_ID(). The read information is stored in the NOR_ID_TypeDef 
  23:Libraries/STM32F4xx_HAL_Driver/Src/stm32f4xx_hal_nor.c ****           structure declared by the function caller. 
  24:Libraries/STM32F4xx_HAL_Driver/Src/stm32f4xx_hal_nor.c ****         
  25:Libraries/STM32F4xx_HAL_Driver/Src/stm32f4xx_hal_nor.c ****       (+) Access NOR flash memory by read/write data unit operations using the functions
  26:Libraries/STM32F4xx_HAL_Driver/Src/stm32f4xx_hal_nor.c ****           HAL_NOR_Read(), HAL_NOR_Program().
  27:Libraries/STM32F4xx_HAL_Driver/Src/stm32f4xx_hal_nor.c ****         
  28:Libraries/STM32F4xx_HAL_Driver/Src/stm32f4xx_hal_nor.c ****       (+) Perform NOR flash erase block/chip operations using the functions 
  29:Libraries/STM32F4xx_HAL_Driver/Src/stm32f4xx_hal_nor.c ****           HAL_NOR_Erase_Block() and HAL_NOR_Erase_Chip().
  30:Libraries/STM32F4xx_HAL_Driver/Src/stm32f4xx_hal_nor.c ****         
  31:Libraries/STM32F4xx_HAL_Driver/Src/stm32f4xx_hal_nor.c ****       (+) Read the NOR flash CFI (common flash interface) IDs using the function
ARM GAS  C:\Users\yzy\AppData\Local\Temp\ccvAdv2d.s 			page 2


  32:Libraries/STM32F4xx_HAL_Driver/Src/stm32f4xx_hal_nor.c ****           HAL_NOR_Read_CFI(). The read information is stored in the NOR_CFI_TypeDef
  33:Libraries/STM32F4xx_HAL_Driver/Src/stm32f4xx_hal_nor.c ****           structure declared by the function caller.
  34:Libraries/STM32F4xx_HAL_Driver/Src/stm32f4xx_hal_nor.c ****         
  35:Libraries/STM32F4xx_HAL_Driver/Src/stm32f4xx_hal_nor.c ****       (+) You can also control the NOR device by calling the control APIs HAL_NOR_WriteOperation_En
  36:Libraries/STM32F4xx_HAL_Driver/Src/stm32f4xx_hal_nor.c ****           HAL_NOR_WriteOperation_Disable() to respectively enable/disable the NOR write operation  
  37:Libraries/STM32F4xx_HAL_Driver/Src/stm32f4xx_hal_nor.c ****        
  38:Libraries/STM32F4xx_HAL_Driver/Src/stm32f4xx_hal_nor.c ****       (+) You can monitor the NOR device HAL state by calling the function
  39:Libraries/STM32F4xx_HAL_Driver/Src/stm32f4xx_hal_nor.c ****           HAL_NOR_GetState() 
  40:Libraries/STM32F4xx_HAL_Driver/Src/stm32f4xx_hal_nor.c ****     [..]
  41:Libraries/STM32F4xx_HAL_Driver/Src/stm32f4xx_hal_nor.c ****      (@) This driver is a set of generic APIs which handle standard NOR flash operations.
  42:Libraries/STM32F4xx_HAL_Driver/Src/stm32f4xx_hal_nor.c ****          If a NOR flash device contains different operations and/or implementations, 
  43:Libraries/STM32F4xx_HAL_Driver/Src/stm32f4xx_hal_nor.c ****          it should be implemented separately.
  44:Libraries/STM32F4xx_HAL_Driver/Src/stm32f4xx_hal_nor.c **** 
  45:Libraries/STM32F4xx_HAL_Driver/Src/stm32f4xx_hal_nor.c ****      *** NOR HAL driver macros list ***
  46:Libraries/STM32F4xx_HAL_Driver/Src/stm32f4xx_hal_nor.c ****      ============================================= 
  47:Libraries/STM32F4xx_HAL_Driver/Src/stm32f4xx_hal_nor.c ****      [..]
  48:Libraries/STM32F4xx_HAL_Driver/Src/stm32f4xx_hal_nor.c ****        Below the list of most used macros in NOR HAL driver.
  49:Libraries/STM32F4xx_HAL_Driver/Src/stm32f4xx_hal_nor.c ****        
  50:Libraries/STM32F4xx_HAL_Driver/Src/stm32f4xx_hal_nor.c ****       (+) NOR_WRITE : NOR memory write data to specified address
  51:Libraries/STM32F4xx_HAL_Driver/Src/stm32f4xx_hal_nor.c **** 
  52:Libraries/STM32F4xx_HAL_Driver/Src/stm32f4xx_hal_nor.c ****     *** Callback registration ***
  53:Libraries/STM32F4xx_HAL_Driver/Src/stm32f4xx_hal_nor.c ****     =============================================
  54:Libraries/STM32F4xx_HAL_Driver/Src/stm32f4xx_hal_nor.c ****     [..]
  55:Libraries/STM32F4xx_HAL_Driver/Src/stm32f4xx_hal_nor.c ****       The compilation define  USE_HAL_NOR_REGISTER_CALLBACKS when set to 1
  56:Libraries/STM32F4xx_HAL_Driver/Src/stm32f4xx_hal_nor.c ****       allows the user to configure dynamically the driver callbacks.
  57:Libraries/STM32F4xx_HAL_Driver/Src/stm32f4xx_hal_nor.c **** 
  58:Libraries/STM32F4xx_HAL_Driver/Src/stm32f4xx_hal_nor.c ****       Use Functions @ref HAL_NOR_RegisterCallback() to register a user callback,
  59:Libraries/STM32F4xx_HAL_Driver/Src/stm32f4xx_hal_nor.c ****       it allows to register following callbacks:
  60:Libraries/STM32F4xx_HAL_Driver/Src/stm32f4xx_hal_nor.c ****         (+) MspInitCallback    : NOR MspInit.
  61:Libraries/STM32F4xx_HAL_Driver/Src/stm32f4xx_hal_nor.c ****         (+) MspDeInitCallback  : NOR MspDeInit.
  62:Libraries/STM32F4xx_HAL_Driver/Src/stm32f4xx_hal_nor.c ****       This function takes as parameters the HAL peripheral handle, the Callback ID
  63:Libraries/STM32F4xx_HAL_Driver/Src/stm32f4xx_hal_nor.c ****       and a pointer to the user callback function.
  64:Libraries/STM32F4xx_HAL_Driver/Src/stm32f4xx_hal_nor.c **** 
  65:Libraries/STM32F4xx_HAL_Driver/Src/stm32f4xx_hal_nor.c ****       Use function @ref HAL_NOR_UnRegisterCallback() to reset a callback to the default
  66:Libraries/STM32F4xx_HAL_Driver/Src/stm32f4xx_hal_nor.c ****       weak (surcharged) function. It allows to reset following callbacks:
  67:Libraries/STM32F4xx_HAL_Driver/Src/stm32f4xx_hal_nor.c ****         (+) MspInitCallback    : NOR MspInit.
  68:Libraries/STM32F4xx_HAL_Driver/Src/stm32f4xx_hal_nor.c ****         (+) MspDeInitCallback  : NOR MspDeInit.
  69:Libraries/STM32F4xx_HAL_Driver/Src/stm32f4xx_hal_nor.c ****       This function) takes as parameters the HAL peripheral handle and the Callback ID.
  70:Libraries/STM32F4xx_HAL_Driver/Src/stm32f4xx_hal_nor.c **** 
  71:Libraries/STM32F4xx_HAL_Driver/Src/stm32f4xx_hal_nor.c ****       By default, after the @ref HAL_NOR_Init and if the state is HAL_NOR_STATE_RESET
  72:Libraries/STM32F4xx_HAL_Driver/Src/stm32f4xx_hal_nor.c ****       all callbacks are reset to the corresponding legacy weak (surcharged) functions.
  73:Libraries/STM32F4xx_HAL_Driver/Src/stm32f4xx_hal_nor.c ****       Exception done for MspInit and MspDeInit callbacks that are respectively
  74:Libraries/STM32F4xx_HAL_Driver/Src/stm32f4xx_hal_nor.c ****       reset to the legacy weak (surcharged) functions in the @ref HAL_NOR_Init
  75:Libraries/STM32F4xx_HAL_Driver/Src/stm32f4xx_hal_nor.c ****       and @ref  HAL_NOR_DeInit only when these callbacks are null (not registered beforehand).
  76:Libraries/STM32F4xx_HAL_Driver/Src/stm32f4xx_hal_nor.c ****       If not, MspInit or MspDeInit are not null, the @ref HAL_NOR_Init and @ref HAL_NOR_DeInit
  77:Libraries/STM32F4xx_HAL_Driver/Src/stm32f4xx_hal_nor.c ****       keep and use the user MspInit/MspDeInit callbacks (registered beforehand)
  78:Libraries/STM32F4xx_HAL_Driver/Src/stm32f4xx_hal_nor.c **** 
  79:Libraries/STM32F4xx_HAL_Driver/Src/stm32f4xx_hal_nor.c ****       Callbacks can be registered/unregistered in READY state only.
  80:Libraries/STM32F4xx_HAL_Driver/Src/stm32f4xx_hal_nor.c ****       Exception done for MspInit/MspDeInit callbacks that can be registered/unregistered
  81:Libraries/STM32F4xx_HAL_Driver/Src/stm32f4xx_hal_nor.c ****       in READY or RESET state, thus registered (user) MspInit/DeInit callbacks can be used
  82:Libraries/STM32F4xx_HAL_Driver/Src/stm32f4xx_hal_nor.c ****       during the Init/DeInit.
  83:Libraries/STM32F4xx_HAL_Driver/Src/stm32f4xx_hal_nor.c ****       In that case first register the MspInit/MspDeInit user callbacks
  84:Libraries/STM32F4xx_HAL_Driver/Src/stm32f4xx_hal_nor.c ****       using @ref HAL_NOR_RegisterCallback before calling @ref HAL_NOR_DeInit
  85:Libraries/STM32F4xx_HAL_Driver/Src/stm32f4xx_hal_nor.c ****       or @ref HAL_NOR_Init function.
  86:Libraries/STM32F4xx_HAL_Driver/Src/stm32f4xx_hal_nor.c **** 
  87:Libraries/STM32F4xx_HAL_Driver/Src/stm32f4xx_hal_nor.c ****       When The compilation define USE_HAL_NOR_REGISTER_CALLBACKS is set to 0 or
  88:Libraries/STM32F4xx_HAL_Driver/Src/stm32f4xx_hal_nor.c ****       not defined, the callback registering feature is not available
ARM GAS  C:\Users\yzy\AppData\Local\Temp\ccvAdv2d.s 			page 3


  89:Libraries/STM32F4xx_HAL_Driver/Src/stm32f4xx_hal_nor.c ****       and weak (surcharged) callbacks are used.
  90:Libraries/STM32F4xx_HAL_Driver/Src/stm32f4xx_hal_nor.c **** 
  91:Libraries/STM32F4xx_HAL_Driver/Src/stm32f4xx_hal_nor.c ****   @endverbatim
  92:Libraries/STM32F4xx_HAL_Driver/Src/stm32f4xx_hal_nor.c ****   ******************************************************************************
  93:Libraries/STM32F4xx_HAL_Driver/Src/stm32f4xx_hal_nor.c ****   * @attention
  94:Libraries/STM32F4xx_HAL_Driver/Src/stm32f4xx_hal_nor.c ****   *
  95:Libraries/STM32F4xx_HAL_Driver/Src/stm32f4xx_hal_nor.c ****   * <h2><center>&copy; Copyright (c) 2017 STMicroelectronics.
  96:Libraries/STM32F4xx_HAL_Driver/Src/stm32f4xx_hal_nor.c ****   * All rights reserved.</center></h2>
  97:Libraries/STM32F4xx_HAL_Driver/Src/stm32f4xx_hal_nor.c ****   *
  98:Libraries/STM32F4xx_HAL_Driver/Src/stm32f4xx_hal_nor.c ****   * This software component is licensed by ST under BSD 3-Clause license,
  99:Libraries/STM32F4xx_HAL_Driver/Src/stm32f4xx_hal_nor.c ****   * the "License"; You may not use this file except in compliance with the
 100:Libraries/STM32F4xx_HAL_Driver/Src/stm32f4xx_hal_nor.c ****   * License. You may obtain a copy of the License at:
 101:Libraries/STM32F4xx_HAL_Driver/Src/stm32f4xx_hal_nor.c ****   *                        opensource.org/licenses/BSD-3-Clause
 102:Libraries/STM32F4xx_HAL_Driver/Src/stm32f4xx_hal_nor.c ****   *
 103:Libraries/STM32F4xx_HAL_Driver/Src/stm32f4xx_hal_nor.c ****   ******************************************************************************
 104:Libraries/STM32F4xx_HAL_Driver/Src/stm32f4xx_hal_nor.c ****   */ 
 105:Libraries/STM32F4xx_HAL_Driver/Src/stm32f4xx_hal_nor.c **** 
 106:Libraries/STM32F4xx_HAL_Driver/Src/stm32f4xx_hal_nor.c **** /* Includes ------------------------------------------------------------------*/
 107:Libraries/STM32F4xx_HAL_Driver/Src/stm32f4xx_hal_nor.c **** #include "stm32f4xx_hal.h"
 108:Libraries/STM32F4xx_HAL_Driver/Src/stm32f4xx_hal_nor.c **** 
 109:Libraries/STM32F4xx_HAL_Driver/Src/stm32f4xx_hal_nor.c **** /** @addtogroup STM32F4xx_HAL_Driver
 110:Libraries/STM32F4xx_HAL_Driver/Src/stm32f4xx_hal_nor.c ****   * @{
 111:Libraries/STM32F4xx_HAL_Driver/Src/stm32f4xx_hal_nor.c ****   */
 112:Libraries/STM32F4xx_HAL_Driver/Src/stm32f4xx_hal_nor.c **** 
 113:Libraries/STM32F4xx_HAL_Driver/Src/stm32f4xx_hal_nor.c **** /** @defgroup NOR NOR
 114:Libraries/STM32F4xx_HAL_Driver/Src/stm32f4xx_hal_nor.c ****   * @brief NOR driver modules
 115:Libraries/STM32F4xx_HAL_Driver/Src/stm32f4xx_hal_nor.c ****   * @{
 116:Libraries/STM32F4xx_HAL_Driver/Src/stm32f4xx_hal_nor.c ****   */
 117:Libraries/STM32F4xx_HAL_Driver/Src/stm32f4xx_hal_nor.c **** #ifdef HAL_NOR_MODULE_ENABLED
 118:Libraries/STM32F4xx_HAL_Driver/Src/stm32f4xx_hal_nor.c **** #if defined(STM32F405xx) || defined(STM32F415xx) || defined(STM32F407xx) || defined(STM32F417xx) ||
 119:Libraries/STM32F4xx_HAL_Driver/Src/stm32f4xx_hal_nor.c ****     defined(STM32F427xx) || defined(STM32F437xx) || defined(STM32F429xx) || defined(STM32F439xx) ||
 120:Libraries/STM32F4xx_HAL_Driver/Src/stm32f4xx_hal_nor.c ****     defined(STM32F446xx) || defined(STM32F469xx) || defined(STM32F479xx) || defined(STM32F412Zx) ||
 121:Libraries/STM32F4xx_HAL_Driver/Src/stm32f4xx_hal_nor.c ****     defined(STM32F412Vx) || defined(STM32F412Rx) || defined(STM32F413xx) || defined(STM32F423xx)
 122:Libraries/STM32F4xx_HAL_Driver/Src/stm32f4xx_hal_nor.c **** /* Private typedef -----------------------------------------------------------*/
 123:Libraries/STM32F4xx_HAL_Driver/Src/stm32f4xx_hal_nor.c **** /* Private define ------------------------------------------------------------*/
 124:Libraries/STM32F4xx_HAL_Driver/Src/stm32f4xx_hal_nor.c ****       
 125:Libraries/STM32F4xx_HAL_Driver/Src/stm32f4xx_hal_nor.c **** /** @defgroup NOR_Private_Defines NOR Private Defines
 126:Libraries/STM32F4xx_HAL_Driver/Src/stm32f4xx_hal_nor.c ****   * @{
 127:Libraries/STM32F4xx_HAL_Driver/Src/stm32f4xx_hal_nor.c ****   */
 128:Libraries/STM32F4xx_HAL_Driver/Src/stm32f4xx_hal_nor.c **** 
 129:Libraries/STM32F4xx_HAL_Driver/Src/stm32f4xx_hal_nor.c **** /* Constants to define address to set to write a command */
 130:Libraries/STM32F4xx_HAL_Driver/Src/stm32f4xx_hal_nor.c **** #define NOR_CMD_ADDRESS_FIRST                 (uint16_t)0x0555
 131:Libraries/STM32F4xx_HAL_Driver/Src/stm32f4xx_hal_nor.c **** #define NOR_CMD_ADDRESS_FIRST_CFI             (uint16_t)0x0055
 132:Libraries/STM32F4xx_HAL_Driver/Src/stm32f4xx_hal_nor.c **** #define NOR_CMD_ADDRESS_SECOND                (uint16_t)0x02AA
 133:Libraries/STM32F4xx_HAL_Driver/Src/stm32f4xx_hal_nor.c **** #define NOR_CMD_ADDRESS_THIRD                 (uint16_t)0x0555
 134:Libraries/STM32F4xx_HAL_Driver/Src/stm32f4xx_hal_nor.c **** #define NOR_CMD_ADDRESS_FOURTH                (uint16_t)0x0555
 135:Libraries/STM32F4xx_HAL_Driver/Src/stm32f4xx_hal_nor.c **** #define NOR_CMD_ADDRESS_FIFTH                 (uint16_t)0x02AA
 136:Libraries/STM32F4xx_HAL_Driver/Src/stm32f4xx_hal_nor.c **** #define NOR_CMD_ADDRESS_SIXTH                 (uint16_t)0x0555
 137:Libraries/STM32F4xx_HAL_Driver/Src/stm32f4xx_hal_nor.c **** 
 138:Libraries/STM32F4xx_HAL_Driver/Src/stm32f4xx_hal_nor.c **** /* Constants to define data to program a command */
 139:Libraries/STM32F4xx_HAL_Driver/Src/stm32f4xx_hal_nor.c **** #define NOR_CMD_DATA_READ_RESET               (uint16_t)0x00F0
 140:Libraries/STM32F4xx_HAL_Driver/Src/stm32f4xx_hal_nor.c **** #define NOR_CMD_DATA_FIRST                    (uint16_t)0x00AA
 141:Libraries/STM32F4xx_HAL_Driver/Src/stm32f4xx_hal_nor.c **** #define NOR_CMD_DATA_SECOND                   (uint16_t)0x0055
 142:Libraries/STM32F4xx_HAL_Driver/Src/stm32f4xx_hal_nor.c **** #define NOR_CMD_DATA_AUTO_SELECT              (uint16_t)0x0090
 143:Libraries/STM32F4xx_HAL_Driver/Src/stm32f4xx_hal_nor.c **** #define NOR_CMD_DATA_PROGRAM                  (uint16_t)0x00A0
 144:Libraries/STM32F4xx_HAL_Driver/Src/stm32f4xx_hal_nor.c **** #define NOR_CMD_DATA_CHIP_BLOCK_ERASE_THIRD   (uint16_t)0x0080
 145:Libraries/STM32F4xx_HAL_Driver/Src/stm32f4xx_hal_nor.c **** #define NOR_CMD_DATA_CHIP_BLOCK_ERASE_FOURTH  (uint16_t)0x00AA
ARM GAS  C:\Users\yzy\AppData\Local\Temp\ccvAdv2d.s 			page 4


 146:Libraries/STM32F4xx_HAL_Driver/Src/stm32f4xx_hal_nor.c **** #define NOR_CMD_DATA_CHIP_BLOCK_ERASE_FIFTH   (uint16_t)0x0055
 147:Libraries/STM32F4xx_HAL_Driver/Src/stm32f4xx_hal_nor.c **** #define NOR_CMD_DATA_CHIP_ERASE               (uint16_t)0x0010
 148:Libraries/STM32F4xx_HAL_Driver/Src/stm32f4xx_hal_nor.c **** #define NOR_CMD_DATA_CFI                      (uint16_t)0x0098
 149:Libraries/STM32F4xx_HAL_Driver/Src/stm32f4xx_hal_nor.c **** 
 150:Libraries/STM32F4xx_HAL_Driver/Src/stm32f4xx_hal_nor.c **** #define NOR_CMD_DATA_BUFFER_AND_PROG          (uint8_t)0x25
 151:Libraries/STM32F4xx_HAL_Driver/Src/stm32f4xx_hal_nor.c **** #define NOR_CMD_DATA_BUFFER_AND_PROG_CONFIRM  (uint8_t)0x29
 152:Libraries/STM32F4xx_HAL_Driver/Src/stm32f4xx_hal_nor.c **** #define NOR_CMD_DATA_BLOCK_ERASE              (uint8_t)0x30
 153:Libraries/STM32F4xx_HAL_Driver/Src/stm32f4xx_hal_nor.c **** 
 154:Libraries/STM32F4xx_HAL_Driver/Src/stm32f4xx_hal_nor.c **** /* Mask on NOR STATUS REGISTER */
 155:Libraries/STM32F4xx_HAL_Driver/Src/stm32f4xx_hal_nor.c **** #define NOR_MASK_STATUS_DQ5                   (uint16_t)0x0020
 156:Libraries/STM32F4xx_HAL_Driver/Src/stm32f4xx_hal_nor.c **** #define NOR_MASK_STATUS_DQ6                   (uint16_t)0x0040
 157:Libraries/STM32F4xx_HAL_Driver/Src/stm32f4xx_hal_nor.c **** 
 158:Libraries/STM32F4xx_HAL_Driver/Src/stm32f4xx_hal_nor.c **** /**
 159:Libraries/STM32F4xx_HAL_Driver/Src/stm32f4xx_hal_nor.c ****   * @}
 160:Libraries/STM32F4xx_HAL_Driver/Src/stm32f4xx_hal_nor.c ****   */
 161:Libraries/STM32F4xx_HAL_Driver/Src/stm32f4xx_hal_nor.c ****       
 162:Libraries/STM32F4xx_HAL_Driver/Src/stm32f4xx_hal_nor.c **** /* Private macro -------------------------------------------------------------*/
 163:Libraries/STM32F4xx_HAL_Driver/Src/stm32f4xx_hal_nor.c **** /* Private variables ---------------------------------------------------------*/
 164:Libraries/STM32F4xx_HAL_Driver/Src/stm32f4xx_hal_nor.c **** /** @defgroup NOR_Private_Variables NOR Private Variables
 165:Libraries/STM32F4xx_HAL_Driver/Src/stm32f4xx_hal_nor.c ****   * @{
 166:Libraries/STM32F4xx_HAL_Driver/Src/stm32f4xx_hal_nor.c ****   */
 167:Libraries/STM32F4xx_HAL_Driver/Src/stm32f4xx_hal_nor.c **** 
 168:Libraries/STM32F4xx_HAL_Driver/Src/stm32f4xx_hal_nor.c **** static uint32_t uwNORMemoryDataWidth  = NOR_MEMORY_8B;
 169:Libraries/STM32F4xx_HAL_Driver/Src/stm32f4xx_hal_nor.c **** 
 170:Libraries/STM32F4xx_HAL_Driver/Src/stm32f4xx_hal_nor.c **** /**
 171:Libraries/STM32F4xx_HAL_Driver/Src/stm32f4xx_hal_nor.c ****   * @}
 172:Libraries/STM32F4xx_HAL_Driver/Src/stm32f4xx_hal_nor.c ****   */
 173:Libraries/STM32F4xx_HAL_Driver/Src/stm32f4xx_hal_nor.c **** 
 174:Libraries/STM32F4xx_HAL_Driver/Src/stm32f4xx_hal_nor.c **** /* Private functions ---------------------------------------------------------*/
 175:Libraries/STM32F4xx_HAL_Driver/Src/stm32f4xx_hal_nor.c **** /* Exported functions --------------------------------------------------------*/
 176:Libraries/STM32F4xx_HAL_Driver/Src/stm32f4xx_hal_nor.c **** /** @defgroup NOR_Exported_Functions NOR Exported Functions
 177:Libraries/STM32F4xx_HAL_Driver/Src/stm32f4xx_hal_nor.c ****   * @{
 178:Libraries/STM32F4xx_HAL_Driver/Src/stm32f4xx_hal_nor.c ****   */
 179:Libraries/STM32F4xx_HAL_Driver/Src/stm32f4xx_hal_nor.c **** 
 180:Libraries/STM32F4xx_HAL_Driver/Src/stm32f4xx_hal_nor.c **** /** @defgroup NOR_Exported_Functions_Group1 Initialization and de-initialization functions 
 181:Libraries/STM32F4xx_HAL_Driver/Src/stm32f4xx_hal_nor.c ****   * @brief    Initialization and Configuration functions 
 182:Libraries/STM32F4xx_HAL_Driver/Src/stm32f4xx_hal_nor.c ****   *
 183:Libraries/STM32F4xx_HAL_Driver/Src/stm32f4xx_hal_nor.c ****   @verbatim    
 184:Libraries/STM32F4xx_HAL_Driver/Src/stm32f4xx_hal_nor.c ****   ==============================================================================
 185:Libraries/STM32F4xx_HAL_Driver/Src/stm32f4xx_hal_nor.c ****            ##### NOR Initialization and de_initialization functions #####
 186:Libraries/STM32F4xx_HAL_Driver/Src/stm32f4xx_hal_nor.c ****   ==============================================================================
 187:Libraries/STM32F4xx_HAL_Driver/Src/stm32f4xx_hal_nor.c ****   [..]  
 188:Libraries/STM32F4xx_HAL_Driver/Src/stm32f4xx_hal_nor.c ****     This section provides functions allowing to initialize/de-initialize
 189:Libraries/STM32F4xx_HAL_Driver/Src/stm32f4xx_hal_nor.c ****     the NOR memory
 190:Libraries/STM32F4xx_HAL_Driver/Src/stm32f4xx_hal_nor.c ****   
 191:Libraries/STM32F4xx_HAL_Driver/Src/stm32f4xx_hal_nor.c **** @endverbatim
 192:Libraries/STM32F4xx_HAL_Driver/Src/stm32f4xx_hal_nor.c ****   * @{
 193:Libraries/STM32F4xx_HAL_Driver/Src/stm32f4xx_hal_nor.c ****   */
 194:Libraries/STM32F4xx_HAL_Driver/Src/stm32f4xx_hal_nor.c ****     
 195:Libraries/STM32F4xx_HAL_Driver/Src/stm32f4xx_hal_nor.c **** /**
 196:Libraries/STM32F4xx_HAL_Driver/Src/stm32f4xx_hal_nor.c ****   * @brief  Perform the NOR memory Initialization sequence
 197:Libraries/STM32F4xx_HAL_Driver/Src/stm32f4xx_hal_nor.c ****   * @param  hnor pointer to a NOR_HandleTypeDef structure that contains
 198:Libraries/STM32F4xx_HAL_Driver/Src/stm32f4xx_hal_nor.c ****   *                the configuration information for NOR module.
 199:Libraries/STM32F4xx_HAL_Driver/Src/stm32f4xx_hal_nor.c ****   * @param  Timing pointer to NOR control timing structure 
 200:Libraries/STM32F4xx_HAL_Driver/Src/stm32f4xx_hal_nor.c ****   * @param  ExtTiming pointer to NOR extended mode timing structure    
 201:Libraries/STM32F4xx_HAL_Driver/Src/stm32f4xx_hal_nor.c ****   * @retval HAL status
 202:Libraries/STM32F4xx_HAL_Driver/Src/stm32f4xx_hal_nor.c ****   */
ARM GAS  C:\Users\yzy\AppData\Local\Temp\ccvAdv2d.s 			page 5


 203:Libraries/STM32F4xx_HAL_Driver/Src/stm32f4xx_hal_nor.c **** HAL_StatusTypeDef HAL_NOR_Init(NOR_HandleTypeDef *hnor, FMC_NORSRAM_TimingTypeDef *Timing, FMC_NORS
 204:Libraries/STM32F4xx_HAL_Driver/Src/stm32f4xx_hal_nor.c **** {
 205:Libraries/STM32F4xx_HAL_Driver/Src/stm32f4xx_hal_nor.c ****   /* Check the NOR handle parameter */
 206:Libraries/STM32F4xx_HAL_Driver/Src/stm32f4xx_hal_nor.c ****   if(hnor == NULL)
 207:Libraries/STM32F4xx_HAL_Driver/Src/stm32f4xx_hal_nor.c ****   {
 208:Libraries/STM32F4xx_HAL_Driver/Src/stm32f4xx_hal_nor.c ****      return HAL_ERROR;
 209:Libraries/STM32F4xx_HAL_Driver/Src/stm32f4xx_hal_nor.c ****   }
 210:Libraries/STM32F4xx_HAL_Driver/Src/stm32f4xx_hal_nor.c ****   
 211:Libraries/STM32F4xx_HAL_Driver/Src/stm32f4xx_hal_nor.c ****   if(hnor->State == HAL_NOR_STATE_RESET)
 212:Libraries/STM32F4xx_HAL_Driver/Src/stm32f4xx_hal_nor.c ****   {
 213:Libraries/STM32F4xx_HAL_Driver/Src/stm32f4xx_hal_nor.c ****     /* Allocate lock resource and initialize it */
 214:Libraries/STM32F4xx_HAL_Driver/Src/stm32f4xx_hal_nor.c ****     hnor->Lock = HAL_UNLOCKED;
 215:Libraries/STM32F4xx_HAL_Driver/Src/stm32f4xx_hal_nor.c **** 
 216:Libraries/STM32F4xx_HAL_Driver/Src/stm32f4xx_hal_nor.c **** #if (USE_HAL_NOR_REGISTER_CALLBACKS == 1)
 217:Libraries/STM32F4xx_HAL_Driver/Src/stm32f4xx_hal_nor.c ****     if(hnor->MspInitCallback == NULL)
 218:Libraries/STM32F4xx_HAL_Driver/Src/stm32f4xx_hal_nor.c ****     {
 219:Libraries/STM32F4xx_HAL_Driver/Src/stm32f4xx_hal_nor.c ****       hnor->MspInitCallback = HAL_NOR_MspInit;
 220:Libraries/STM32F4xx_HAL_Driver/Src/stm32f4xx_hal_nor.c ****     }
 221:Libraries/STM32F4xx_HAL_Driver/Src/stm32f4xx_hal_nor.c **** 
 222:Libraries/STM32F4xx_HAL_Driver/Src/stm32f4xx_hal_nor.c ****     /* Init the low level hardware */
 223:Libraries/STM32F4xx_HAL_Driver/Src/stm32f4xx_hal_nor.c ****     hnor->MspInitCallback(hnor);
 224:Libraries/STM32F4xx_HAL_Driver/Src/stm32f4xx_hal_nor.c **** #else
 225:Libraries/STM32F4xx_HAL_Driver/Src/stm32f4xx_hal_nor.c ****     /* Initialize the low level hardware (MSP) */
 226:Libraries/STM32F4xx_HAL_Driver/Src/stm32f4xx_hal_nor.c ****     HAL_NOR_MspInit(hnor);
 227:Libraries/STM32F4xx_HAL_Driver/Src/stm32f4xx_hal_nor.c **** #endif /* (USE_HAL_NOR_REGISTER_CALLBACKS) */
 228:Libraries/STM32F4xx_HAL_Driver/Src/stm32f4xx_hal_nor.c ****   }
 229:Libraries/STM32F4xx_HAL_Driver/Src/stm32f4xx_hal_nor.c ****   
 230:Libraries/STM32F4xx_HAL_Driver/Src/stm32f4xx_hal_nor.c ****   /* Initialize NOR control Interface */
 231:Libraries/STM32F4xx_HAL_Driver/Src/stm32f4xx_hal_nor.c ****   FMC_NORSRAM_Init(hnor->Instance, &(hnor->Init));
 232:Libraries/STM32F4xx_HAL_Driver/Src/stm32f4xx_hal_nor.c **** 
 233:Libraries/STM32F4xx_HAL_Driver/Src/stm32f4xx_hal_nor.c ****   /* Initialize NOR timing Interface */
 234:Libraries/STM32F4xx_HAL_Driver/Src/stm32f4xx_hal_nor.c ****   FMC_NORSRAM_Timing_Init(hnor->Instance, Timing, hnor->Init.NSBank); 
 235:Libraries/STM32F4xx_HAL_Driver/Src/stm32f4xx_hal_nor.c **** 
 236:Libraries/STM32F4xx_HAL_Driver/Src/stm32f4xx_hal_nor.c ****   /* Initialize NOR extended mode timing Interface */
 237:Libraries/STM32F4xx_HAL_Driver/Src/stm32f4xx_hal_nor.c ****   FMC_NORSRAM_Extended_Timing_Init(hnor->Extended, ExtTiming, hnor->Init.NSBank, hnor->Init.Extende
 238:Libraries/STM32F4xx_HAL_Driver/Src/stm32f4xx_hal_nor.c **** 
 239:Libraries/STM32F4xx_HAL_Driver/Src/stm32f4xx_hal_nor.c ****   /* Enable the NORSRAM device */
 240:Libraries/STM32F4xx_HAL_Driver/Src/stm32f4xx_hal_nor.c ****   __FMC_NORSRAM_ENABLE(hnor->Instance, hnor->Init.NSBank);
 241:Libraries/STM32F4xx_HAL_Driver/Src/stm32f4xx_hal_nor.c **** 
 242:Libraries/STM32F4xx_HAL_Driver/Src/stm32f4xx_hal_nor.c ****   /* Initialize NOR Memory Data Width*/
 243:Libraries/STM32F4xx_HAL_Driver/Src/stm32f4xx_hal_nor.c ****   if (hnor->Init.MemoryDataWidth == FMC_NORSRAM_MEM_BUS_WIDTH_8)
 244:Libraries/STM32F4xx_HAL_Driver/Src/stm32f4xx_hal_nor.c ****   {
 245:Libraries/STM32F4xx_HAL_Driver/Src/stm32f4xx_hal_nor.c ****     uwNORMemoryDataWidth = NOR_MEMORY_8B;
 246:Libraries/STM32F4xx_HAL_Driver/Src/stm32f4xx_hal_nor.c ****   }
 247:Libraries/STM32F4xx_HAL_Driver/Src/stm32f4xx_hal_nor.c ****   else
 248:Libraries/STM32F4xx_HAL_Driver/Src/stm32f4xx_hal_nor.c ****   {
 249:Libraries/STM32F4xx_HAL_Driver/Src/stm32f4xx_hal_nor.c ****     uwNORMemoryDataWidth = NOR_MEMORY_16B;
 250:Libraries/STM32F4xx_HAL_Driver/Src/stm32f4xx_hal_nor.c ****   }
 251:Libraries/STM32F4xx_HAL_Driver/Src/stm32f4xx_hal_nor.c **** 
 252:Libraries/STM32F4xx_HAL_Driver/Src/stm32f4xx_hal_nor.c ****   /* Check the NOR controller state */
 253:Libraries/STM32F4xx_HAL_Driver/Src/stm32f4xx_hal_nor.c ****   hnor->State = HAL_NOR_STATE_READY; 
 254:Libraries/STM32F4xx_HAL_Driver/Src/stm32f4xx_hal_nor.c ****   
 255:Libraries/STM32F4xx_HAL_Driver/Src/stm32f4xx_hal_nor.c ****   return HAL_OK;
 256:Libraries/STM32F4xx_HAL_Driver/Src/stm32f4xx_hal_nor.c **** }
 257:Libraries/STM32F4xx_HAL_Driver/Src/stm32f4xx_hal_nor.c **** 
 258:Libraries/STM32F4xx_HAL_Driver/Src/stm32f4xx_hal_nor.c **** /**
 259:Libraries/STM32F4xx_HAL_Driver/Src/stm32f4xx_hal_nor.c ****   * @brief  Perform NOR memory De-Initialization sequence
ARM GAS  C:\Users\yzy\AppData\Local\Temp\ccvAdv2d.s 			page 6


 260:Libraries/STM32F4xx_HAL_Driver/Src/stm32f4xx_hal_nor.c ****   * @param  hnor pointer to a NOR_HandleTypeDef structure that contains
 261:Libraries/STM32F4xx_HAL_Driver/Src/stm32f4xx_hal_nor.c ****   *                the configuration information for NOR module.
 262:Libraries/STM32F4xx_HAL_Driver/Src/stm32f4xx_hal_nor.c ****   * @retval HAL status
 263:Libraries/STM32F4xx_HAL_Driver/Src/stm32f4xx_hal_nor.c ****   */
 264:Libraries/STM32F4xx_HAL_Driver/Src/stm32f4xx_hal_nor.c **** HAL_StatusTypeDef HAL_NOR_DeInit(NOR_HandleTypeDef *hnor)  
 265:Libraries/STM32F4xx_HAL_Driver/Src/stm32f4xx_hal_nor.c **** {
 266:Libraries/STM32F4xx_HAL_Driver/Src/stm32f4xx_hal_nor.c **** #if (USE_HAL_NOR_REGISTER_CALLBACKS == 1)
 267:Libraries/STM32F4xx_HAL_Driver/Src/stm32f4xx_hal_nor.c ****   if(hnor->MspDeInitCallback == NULL)
 268:Libraries/STM32F4xx_HAL_Driver/Src/stm32f4xx_hal_nor.c ****   {
 269:Libraries/STM32F4xx_HAL_Driver/Src/stm32f4xx_hal_nor.c ****     hnor->MspDeInitCallback = HAL_NOR_MspDeInit;
 270:Libraries/STM32F4xx_HAL_Driver/Src/stm32f4xx_hal_nor.c ****   }
 271:Libraries/STM32F4xx_HAL_Driver/Src/stm32f4xx_hal_nor.c **** 
 272:Libraries/STM32F4xx_HAL_Driver/Src/stm32f4xx_hal_nor.c ****   /* DeInit the low level hardware */
 273:Libraries/STM32F4xx_HAL_Driver/Src/stm32f4xx_hal_nor.c ****   hnor->MspDeInitCallback(hnor);
 274:Libraries/STM32F4xx_HAL_Driver/Src/stm32f4xx_hal_nor.c **** #else
 275:Libraries/STM32F4xx_HAL_Driver/Src/stm32f4xx_hal_nor.c ****   /* De-Initialize the low level hardware (MSP) */
 276:Libraries/STM32F4xx_HAL_Driver/Src/stm32f4xx_hal_nor.c ****   HAL_NOR_MspDeInit(hnor);
 277:Libraries/STM32F4xx_HAL_Driver/Src/stm32f4xx_hal_nor.c **** #endif /* (USE_HAL_NOR_REGISTER_CALLBACKS) */
 278:Libraries/STM32F4xx_HAL_Driver/Src/stm32f4xx_hal_nor.c **** 
 279:Libraries/STM32F4xx_HAL_Driver/Src/stm32f4xx_hal_nor.c ****   /* Configure the NOR registers with their reset values */
 280:Libraries/STM32F4xx_HAL_Driver/Src/stm32f4xx_hal_nor.c ****   FMC_NORSRAM_DeInit(hnor->Instance, hnor->Extended, hnor->Init.NSBank);
 281:Libraries/STM32F4xx_HAL_Driver/Src/stm32f4xx_hal_nor.c ****   
 282:Libraries/STM32F4xx_HAL_Driver/Src/stm32f4xx_hal_nor.c ****   /* Update the NOR controller state */
 283:Libraries/STM32F4xx_HAL_Driver/Src/stm32f4xx_hal_nor.c ****   hnor->State = HAL_NOR_STATE_RESET;
 284:Libraries/STM32F4xx_HAL_Driver/Src/stm32f4xx_hal_nor.c **** 
 285:Libraries/STM32F4xx_HAL_Driver/Src/stm32f4xx_hal_nor.c ****   /* Release Lock */
 286:Libraries/STM32F4xx_HAL_Driver/Src/stm32f4xx_hal_nor.c ****   __HAL_UNLOCK(hnor);
 287:Libraries/STM32F4xx_HAL_Driver/Src/stm32f4xx_hal_nor.c **** 
 288:Libraries/STM32F4xx_HAL_Driver/Src/stm32f4xx_hal_nor.c ****   return HAL_OK;
 289:Libraries/STM32F4xx_HAL_Driver/Src/stm32f4xx_hal_nor.c **** }
 290:Libraries/STM32F4xx_HAL_Driver/Src/stm32f4xx_hal_nor.c **** 
 291:Libraries/STM32F4xx_HAL_Driver/Src/stm32f4xx_hal_nor.c **** /**
 292:Libraries/STM32F4xx_HAL_Driver/Src/stm32f4xx_hal_nor.c ****   * @brief  NOR MSP Init
 293:Libraries/STM32F4xx_HAL_Driver/Src/stm32f4xx_hal_nor.c ****   * @param  hnor pointer to a NOR_HandleTypeDef structure that contains
 294:Libraries/STM32F4xx_HAL_Driver/Src/stm32f4xx_hal_nor.c ****   *                the configuration information for NOR module.
 295:Libraries/STM32F4xx_HAL_Driver/Src/stm32f4xx_hal_nor.c ****   * @retval None
 296:Libraries/STM32F4xx_HAL_Driver/Src/stm32f4xx_hal_nor.c ****   */
 297:Libraries/STM32F4xx_HAL_Driver/Src/stm32f4xx_hal_nor.c **** __weak void HAL_NOR_MspInit(NOR_HandleTypeDef *hnor)
 298:Libraries/STM32F4xx_HAL_Driver/Src/stm32f4xx_hal_nor.c **** {
  28              		.loc 1 298 1 view -0
  29              		.cfi_startproc
  30              		@ args = 0, pretend = 0, frame = 0
  31              		@ frame_needed = 0, uses_anonymous_args = 0
  32              		@ link register save eliminated.
 299:Libraries/STM32F4xx_HAL_Driver/Src/stm32f4xx_hal_nor.c ****   /* Prevent unused argument(s) compilation warning */
 300:Libraries/STM32F4xx_HAL_Driver/Src/stm32f4xx_hal_nor.c ****   UNUSED(hnor);
  33              		.loc 1 300 3 view .LVU1
 301:Libraries/STM32F4xx_HAL_Driver/Src/stm32f4xx_hal_nor.c ****   /* NOTE : This function Should not be modified, when the callback is needed,
 302:Libraries/STM32F4xx_HAL_Driver/Src/stm32f4xx_hal_nor.c ****             the HAL_NOR_MspInit could be implemented in the user file
 303:Libraries/STM32F4xx_HAL_Driver/Src/stm32f4xx_hal_nor.c ****    */ 
 304:Libraries/STM32F4xx_HAL_Driver/Src/stm32f4xx_hal_nor.c **** }
  34              		.loc 1 304 1 is_stmt 0 view .LVU2
  35 0000 7047     		bx	lr
  36              		.cfi_endproc
  37              	.LFE132:
  39              		.section	.text.HAL_NOR_Init,"ax",%progbits
  40              		.align	1
ARM GAS  C:\Users\yzy\AppData\Local\Temp\ccvAdv2d.s 			page 7


  41              		.global	HAL_NOR_Init
  42              		.syntax unified
  43              		.thumb
  44              		.thumb_func
  45              		.fpu softvfp
  47              	HAL_NOR_Init:
  48              	.LVL1:
  49              	.LFB130:
 204:Libraries/STM32F4xx_HAL_Driver/Src/stm32f4xx_hal_nor.c ****   /* Check the NOR handle parameter */
  50              		.loc 1 204 1 is_stmt 1 view -0
  51              		.cfi_startproc
  52              		@ args = 0, pretend = 0, frame = 0
  53              		@ frame_needed = 0, uses_anonymous_args = 0
 206:Libraries/STM32F4xx_HAL_Driver/Src/stm32f4xx_hal_nor.c ****   {
  54              		.loc 1 206 3 view .LVU4
 206:Libraries/STM32F4xx_HAL_Driver/Src/stm32f4xx_hal_nor.c ****   {
  55              		.loc 1 206 5 is_stmt 0 view .LVU5
  56 0000 88B3     		cbz	r0, .L7
 204:Libraries/STM32F4xx_HAL_Driver/Src/stm32f4xx_hal_nor.c ****   /* Check the NOR handle parameter */
  57              		.loc 1 204 1 view .LVU6
  58 0002 70B5     		push	{r4, r5, r6, lr}
  59              	.LCFI0:
  60              		.cfi_def_cfa_offset 16
  61              		.cfi_offset 4, -16
  62              		.cfi_offset 5, -12
  63              		.cfi_offset 6, -8
  64              		.cfi_offset 14, -4
  65 0004 0E46     		mov	r6, r1
  66 0006 1546     		mov	r5, r2
  67 0008 0446     		mov	r4, r0
 211:Libraries/STM32F4xx_HAL_Driver/Src/stm32f4xx_hal_nor.c ****   {
  68              		.loc 1 211 3 is_stmt 1 view .LVU7
 211:Libraries/STM32F4xx_HAL_Driver/Src/stm32f4xx_hal_nor.c ****   {
  69              		.loc 1 211 10 is_stmt 0 view .LVU8
  70 000a 90F84930 		ldrb	r3, [r0, #73]	@ zero_extendqisi2
 211:Libraries/STM32F4xx_HAL_Driver/Src/stm32f4xx_hal_nor.c ****   {
  71              		.loc 1 211 5 view .LVU9
  72 000e 0BB3     		cbz	r3, .L12
  73              	.LVL2:
  74              	.L4:
 231:Libraries/STM32F4xx_HAL_Driver/Src/stm32f4xx_hal_nor.c **** 
  75              		.loc 1 231 3 is_stmt 1 view .LVU10
  76 0010 2146     		mov	r1, r4
  77 0012 51F8080B 		ldr	r0, [r1], #8
  78 0016 FFF7FEFF 		bl	FSMC_NORSRAM_Init
  79              	.LVL3:
 234:Libraries/STM32F4xx_HAL_Driver/Src/stm32f4xx_hal_nor.c **** 
  80              		.loc 1 234 3 view .LVU11
  81 001a A268     		ldr	r2, [r4, #8]
  82 001c 3146     		mov	r1, r6
  83 001e 2068     		ldr	r0, [r4]
  84 0020 FFF7FEFF 		bl	FSMC_NORSRAM_Timing_Init
  85              	.LVL4:
 237:Libraries/STM32F4xx_HAL_Driver/Src/stm32f4xx_hal_nor.c **** 
  86              		.loc 1 237 3 view .LVU12
  87 0024 236B     		ldr	r3, [r4, #48]
  88 0026 A268     		ldr	r2, [r4, #8]
ARM GAS  C:\Users\yzy\AppData\Local\Temp\ccvAdv2d.s 			page 8


  89 0028 2946     		mov	r1, r5
  90 002a 6068     		ldr	r0, [r4, #4]
  91 002c FFF7FEFF 		bl	FSMC_NORSRAM_Extended_Timing_Init
  92              	.LVL5:
 240:Libraries/STM32F4xx_HAL_Driver/Src/stm32f4xx_hal_nor.c **** 
  93              		.loc 1 240 3 view .LVU13
  94 0030 2268     		ldr	r2, [r4]
  95 0032 A168     		ldr	r1, [r4, #8]
  96 0034 52F82130 		ldr	r3, [r2, r1, lsl #2]
  97 0038 43F00103 		orr	r3, r3, #1
  98 003c 42F82130 		str	r3, [r2, r1, lsl #2]
 243:Libraries/STM32F4xx_HAL_Driver/Src/stm32f4xx_hal_nor.c ****   {
  99              		.loc 1 243 3 view .LVU14
 243:Libraries/STM32F4xx_HAL_Driver/Src/stm32f4xx_hal_nor.c ****   {
 100              		.loc 1 243 17 is_stmt 0 view .LVU15
 101 0040 6369     		ldr	r3, [r4, #20]
 243:Libraries/STM32F4xx_HAL_Driver/Src/stm32f4xx_hal_nor.c ****   {
 102              		.loc 1 243 6 view .LVU16
 103 0042 63B9     		cbnz	r3, .L5
 245:Libraries/STM32F4xx_HAL_Driver/Src/stm32f4xx_hal_nor.c ****   }
 104              		.loc 1 245 5 is_stmt 1 view .LVU17
 245:Libraries/STM32F4xx_HAL_Driver/Src/stm32f4xx_hal_nor.c ****   }
 105              		.loc 1 245 26 is_stmt 0 view .LVU18
 106 0044 094B     		ldr	r3, .L13
 107 0046 0022     		movs	r2, #0
 108 0048 1A60     		str	r2, [r3]
 109              	.L6:
 253:Libraries/STM32F4xx_HAL_Driver/Src/stm32f4xx_hal_nor.c ****   
 110              		.loc 1 253 3 is_stmt 1 view .LVU19
 253:Libraries/STM32F4xx_HAL_Driver/Src/stm32f4xx_hal_nor.c ****   
 111              		.loc 1 253 15 is_stmt 0 view .LVU20
 112 004a 0123     		movs	r3, #1
 113 004c 84F84930 		strb	r3, [r4, #73]
 255:Libraries/STM32F4xx_HAL_Driver/Src/stm32f4xx_hal_nor.c **** }
 114              		.loc 1 255 3 is_stmt 1 view .LVU21
 255:Libraries/STM32F4xx_HAL_Driver/Src/stm32f4xx_hal_nor.c **** }
 115              		.loc 1 255 10 is_stmt 0 view .LVU22
 116 0050 0020     		movs	r0, #0
 256:Libraries/STM32F4xx_HAL_Driver/Src/stm32f4xx_hal_nor.c **** 
 117              		.loc 1 256 1 view .LVU23
 118 0052 70BD     		pop	{r4, r5, r6, pc}
 119              	.LVL6:
 120              	.L12:
 214:Libraries/STM32F4xx_HAL_Driver/Src/stm32f4xx_hal_nor.c **** 
 121              		.loc 1 214 5 is_stmt 1 view .LVU24
 214:Libraries/STM32F4xx_HAL_Driver/Src/stm32f4xx_hal_nor.c **** 
 122              		.loc 1 214 16 is_stmt 0 view .LVU25
 123 0054 80F84830 		strb	r3, [r0, #72]
 226:Libraries/STM32F4xx_HAL_Driver/Src/stm32f4xx_hal_nor.c **** #endif /* (USE_HAL_NOR_REGISTER_CALLBACKS) */
 124              		.loc 1 226 5 is_stmt 1 view .LVU26
 125 0058 FFF7FEFF 		bl	HAL_NOR_MspInit
 126              	.LVL7:
 226:Libraries/STM32F4xx_HAL_Driver/Src/stm32f4xx_hal_nor.c **** #endif /* (USE_HAL_NOR_REGISTER_CALLBACKS) */
 127              		.loc 1 226 5 is_stmt 0 view .LVU27
 128 005c D8E7     		b	.L4
 129              	.L5:
 249:Libraries/STM32F4xx_HAL_Driver/Src/stm32f4xx_hal_nor.c ****   }
ARM GAS  C:\Users\yzy\AppData\Local\Temp\ccvAdv2d.s 			page 9


 130              		.loc 1 249 5 is_stmt 1 view .LVU28
 249:Libraries/STM32F4xx_HAL_Driver/Src/stm32f4xx_hal_nor.c ****   }
 131              		.loc 1 249 26 is_stmt 0 view .LVU29
 132 005e 034B     		ldr	r3, .L13
 133 0060 0122     		movs	r2, #1
 134 0062 1A60     		str	r2, [r3]
 135 0064 F1E7     		b	.L6
 136              	.LVL8:
 137              	.L7:
 138              	.LCFI1:
 139              		.cfi_def_cfa_offset 0
 140              		.cfi_restore 4
 141              		.cfi_restore 5
 142              		.cfi_restore 6
 143              		.cfi_restore 14
 208:Libraries/STM32F4xx_HAL_Driver/Src/stm32f4xx_hal_nor.c ****   }
 144              		.loc 1 208 13 view .LVU30
 145 0066 0120     		movs	r0, #1
 146              	.LVL9:
 256:Libraries/STM32F4xx_HAL_Driver/Src/stm32f4xx_hal_nor.c **** 
 147              		.loc 1 256 1 view .LVU31
 148 0068 7047     		bx	lr
 149              	.L14:
 150 006a 00BF     		.align	2
 151              	.L13:
 152 006c 00000000 		.word	.LANCHOR0
 153              		.cfi_endproc
 154              	.LFE130:
 156              		.section	.text.HAL_NOR_MspDeInit,"ax",%progbits
 157              		.align	1
 158              		.weak	HAL_NOR_MspDeInit
 159              		.syntax unified
 160              		.thumb
 161              		.thumb_func
 162              		.fpu softvfp
 164              	HAL_NOR_MspDeInit:
 165              	.LVL10:
 166              	.LFB133:
 305:Libraries/STM32F4xx_HAL_Driver/Src/stm32f4xx_hal_nor.c **** 
 306:Libraries/STM32F4xx_HAL_Driver/Src/stm32f4xx_hal_nor.c **** /**
 307:Libraries/STM32F4xx_HAL_Driver/Src/stm32f4xx_hal_nor.c ****   * @brief  NOR MSP DeInit
 308:Libraries/STM32F4xx_HAL_Driver/Src/stm32f4xx_hal_nor.c ****   * @param  hnor pointer to a NOR_HandleTypeDef structure that contains
 309:Libraries/STM32F4xx_HAL_Driver/Src/stm32f4xx_hal_nor.c ****   *                the configuration information for NOR module.
 310:Libraries/STM32F4xx_HAL_Driver/Src/stm32f4xx_hal_nor.c ****   * @retval None
 311:Libraries/STM32F4xx_HAL_Driver/Src/stm32f4xx_hal_nor.c ****   */
 312:Libraries/STM32F4xx_HAL_Driver/Src/stm32f4xx_hal_nor.c **** __weak void HAL_NOR_MspDeInit(NOR_HandleTypeDef *hnor)
 313:Libraries/STM32F4xx_HAL_Driver/Src/stm32f4xx_hal_nor.c **** {
 167              		.loc 1 313 1 is_stmt 1 view -0
 168              		.cfi_startproc
 169              		@ args = 0, pretend = 0, frame = 0
 170              		@ frame_needed = 0, uses_anonymous_args = 0
 171              		@ link register save eliminated.
 314:Libraries/STM32F4xx_HAL_Driver/Src/stm32f4xx_hal_nor.c ****   /* Prevent unused argument(s) compilation warning */
 315:Libraries/STM32F4xx_HAL_Driver/Src/stm32f4xx_hal_nor.c ****   UNUSED(hnor);
 172              		.loc 1 315 3 view .LVU33
 316:Libraries/STM32F4xx_HAL_Driver/Src/stm32f4xx_hal_nor.c ****   /* NOTE : This function Should not be modified, when the callback is needed,
 317:Libraries/STM32F4xx_HAL_Driver/Src/stm32f4xx_hal_nor.c ****             the HAL_NOR_MspDeInit could be implemented in the user file
ARM GAS  C:\Users\yzy\AppData\Local\Temp\ccvAdv2d.s 			page 10


 318:Libraries/STM32F4xx_HAL_Driver/Src/stm32f4xx_hal_nor.c ****    */ 
 319:Libraries/STM32F4xx_HAL_Driver/Src/stm32f4xx_hal_nor.c **** }
 173              		.loc 1 319 1 is_stmt 0 view .LVU34
 174 0000 7047     		bx	lr
 175              		.cfi_endproc
 176              	.LFE133:
 178              		.section	.text.HAL_NOR_DeInit,"ax",%progbits
 179              		.align	1
 180              		.global	HAL_NOR_DeInit
 181              		.syntax unified
 182              		.thumb
 183              		.thumb_func
 184              		.fpu softvfp
 186              	HAL_NOR_DeInit:
 187              	.LVL11:
 188              	.LFB131:
 265:Libraries/STM32F4xx_HAL_Driver/Src/stm32f4xx_hal_nor.c **** #if (USE_HAL_NOR_REGISTER_CALLBACKS == 1)
 189              		.loc 1 265 1 is_stmt 1 view -0
 190              		.cfi_startproc
 191              		@ args = 0, pretend = 0, frame = 0
 192              		@ frame_needed = 0, uses_anonymous_args = 0
 265:Libraries/STM32F4xx_HAL_Driver/Src/stm32f4xx_hal_nor.c **** #if (USE_HAL_NOR_REGISTER_CALLBACKS == 1)
 193              		.loc 1 265 1 is_stmt 0 view .LVU36
 194 0000 10B5     		push	{r4, lr}
 195              	.LCFI2:
 196              		.cfi_def_cfa_offset 8
 197              		.cfi_offset 4, -8
 198              		.cfi_offset 14, -4
 199 0002 0446     		mov	r4, r0
 276:Libraries/STM32F4xx_HAL_Driver/Src/stm32f4xx_hal_nor.c **** #endif /* (USE_HAL_NOR_REGISTER_CALLBACKS) */
 200              		.loc 1 276 3 is_stmt 1 view .LVU37
 201 0004 FFF7FEFF 		bl	HAL_NOR_MspDeInit
 202              	.LVL12:
 280:Libraries/STM32F4xx_HAL_Driver/Src/stm32f4xx_hal_nor.c ****   
 203              		.loc 1 280 3 view .LVU38
 204 0008 A268     		ldr	r2, [r4, #8]
 205 000a 6168     		ldr	r1, [r4, #4]
 206 000c 2068     		ldr	r0, [r4]
 207 000e FFF7FEFF 		bl	FSMC_NORSRAM_DeInit
 208              	.LVL13:
 283:Libraries/STM32F4xx_HAL_Driver/Src/stm32f4xx_hal_nor.c **** 
 209              		.loc 1 283 3 view .LVU39
 283:Libraries/STM32F4xx_HAL_Driver/Src/stm32f4xx_hal_nor.c **** 
 210              		.loc 1 283 15 is_stmt 0 view .LVU40
 211 0012 0020     		movs	r0, #0
 212 0014 84F84900 		strb	r0, [r4, #73]
 286:Libraries/STM32F4xx_HAL_Driver/Src/stm32f4xx_hal_nor.c **** 
 213              		.loc 1 286 3 is_stmt 1 view .LVU41
 286:Libraries/STM32F4xx_HAL_Driver/Src/stm32f4xx_hal_nor.c **** 
 214              		.loc 1 286 3 view .LVU42
 215 0018 84F84800 		strb	r0, [r4, #72]
 286:Libraries/STM32F4xx_HAL_Driver/Src/stm32f4xx_hal_nor.c **** 
 216              		.loc 1 286 3 view .LVU43
 288:Libraries/STM32F4xx_HAL_Driver/Src/stm32f4xx_hal_nor.c **** }
 217              		.loc 1 288 3 view .LVU44
 289:Libraries/STM32F4xx_HAL_Driver/Src/stm32f4xx_hal_nor.c **** 
 218              		.loc 1 289 1 is_stmt 0 view .LVU45
ARM GAS  C:\Users\yzy\AppData\Local\Temp\ccvAdv2d.s 			page 11


 219 001c 10BD     		pop	{r4, pc}
 289:Libraries/STM32F4xx_HAL_Driver/Src/stm32f4xx_hal_nor.c **** 
 220              		.loc 1 289 1 view .LVU46
 221              		.cfi_endproc
 222              	.LFE131:
 224              		.section	.text.HAL_NOR_MspWait,"ax",%progbits
 225              		.align	1
 226              		.weak	HAL_NOR_MspWait
 227              		.syntax unified
 228              		.thumb
 229              		.thumb_func
 230              		.fpu softvfp
 232              	HAL_NOR_MspWait:
 233              	.LVL14:
 234              	.LFB134:
 320:Libraries/STM32F4xx_HAL_Driver/Src/stm32f4xx_hal_nor.c **** 
 321:Libraries/STM32F4xx_HAL_Driver/Src/stm32f4xx_hal_nor.c **** /**
 322:Libraries/STM32F4xx_HAL_Driver/Src/stm32f4xx_hal_nor.c ****   * @brief  NOR MSP Wait for Ready/Busy signal
 323:Libraries/STM32F4xx_HAL_Driver/Src/stm32f4xx_hal_nor.c ****   * @param  hnor pointer to a NOR_HandleTypeDef structure that contains
 324:Libraries/STM32F4xx_HAL_Driver/Src/stm32f4xx_hal_nor.c ****   *                the configuration information for NOR module.
 325:Libraries/STM32F4xx_HAL_Driver/Src/stm32f4xx_hal_nor.c ****   * @param  Timeout Maximum timeout value
 326:Libraries/STM32F4xx_HAL_Driver/Src/stm32f4xx_hal_nor.c ****   * @retval None
 327:Libraries/STM32F4xx_HAL_Driver/Src/stm32f4xx_hal_nor.c ****   */
 328:Libraries/STM32F4xx_HAL_Driver/Src/stm32f4xx_hal_nor.c **** __weak void HAL_NOR_MspWait(NOR_HandleTypeDef *hnor, uint32_t Timeout)
 329:Libraries/STM32F4xx_HAL_Driver/Src/stm32f4xx_hal_nor.c **** {
 235              		.loc 1 329 1 is_stmt 1 view -0
 236              		.cfi_startproc
 237              		@ args = 0, pretend = 0, frame = 0
 238              		@ frame_needed = 0, uses_anonymous_args = 0
 239              		@ link register save eliminated.
 330:Libraries/STM32F4xx_HAL_Driver/Src/stm32f4xx_hal_nor.c ****   /* Prevent unused argument(s) compilation warning */
 331:Libraries/STM32F4xx_HAL_Driver/Src/stm32f4xx_hal_nor.c ****   UNUSED(hnor);
 240              		.loc 1 331 3 view .LVU48
 332:Libraries/STM32F4xx_HAL_Driver/Src/stm32f4xx_hal_nor.c ****   UNUSED(Timeout);
 241              		.loc 1 332 3 view .LVU49
 333:Libraries/STM32F4xx_HAL_Driver/Src/stm32f4xx_hal_nor.c ****   
 334:Libraries/STM32F4xx_HAL_Driver/Src/stm32f4xx_hal_nor.c ****   /* NOTE : This function Should not be modified, when the callback is needed,
 335:Libraries/STM32F4xx_HAL_Driver/Src/stm32f4xx_hal_nor.c ****             the HAL_NOR_MspWait could be implemented in the user file
 336:Libraries/STM32F4xx_HAL_Driver/Src/stm32f4xx_hal_nor.c ****    */ 
 337:Libraries/STM32F4xx_HAL_Driver/Src/stm32f4xx_hal_nor.c **** }
 242              		.loc 1 337 1 is_stmt 0 view .LVU50
 243 0000 7047     		bx	lr
 244              		.cfi_endproc
 245              	.LFE134:
 247              		.section	.text.HAL_NOR_Read_ID,"ax",%progbits
 248              		.align	1
 249              		.global	HAL_NOR_Read_ID
 250              		.syntax unified
 251              		.thumb
 252              		.thumb_func
 253              		.fpu softvfp
 255              	HAL_NOR_Read_ID:
 256              	.LVL15:
 257              	.LFB135:
 338:Libraries/STM32F4xx_HAL_Driver/Src/stm32f4xx_hal_nor.c ****   
 339:Libraries/STM32F4xx_HAL_Driver/Src/stm32f4xx_hal_nor.c **** /**
 340:Libraries/STM32F4xx_HAL_Driver/Src/stm32f4xx_hal_nor.c ****   * @}
ARM GAS  C:\Users\yzy\AppData\Local\Temp\ccvAdv2d.s 			page 12


 341:Libraries/STM32F4xx_HAL_Driver/Src/stm32f4xx_hal_nor.c ****   */
 342:Libraries/STM32F4xx_HAL_Driver/Src/stm32f4xx_hal_nor.c **** 
 343:Libraries/STM32F4xx_HAL_Driver/Src/stm32f4xx_hal_nor.c **** /** @defgroup NOR_Exported_Functions_Group2 Input and Output functions 
 344:Libraries/STM32F4xx_HAL_Driver/Src/stm32f4xx_hal_nor.c ****   * @brief    Input Output and memory control functions 
 345:Libraries/STM32F4xx_HAL_Driver/Src/stm32f4xx_hal_nor.c ****   *
 346:Libraries/STM32F4xx_HAL_Driver/Src/stm32f4xx_hal_nor.c ****   @verbatim    
 347:Libraries/STM32F4xx_HAL_Driver/Src/stm32f4xx_hal_nor.c ****   ==============================================================================
 348:Libraries/STM32F4xx_HAL_Driver/Src/stm32f4xx_hal_nor.c ****                 ##### NOR Input and Output functions #####
 349:Libraries/STM32F4xx_HAL_Driver/Src/stm32f4xx_hal_nor.c ****   ==============================================================================
 350:Libraries/STM32F4xx_HAL_Driver/Src/stm32f4xx_hal_nor.c ****   [..]  
 351:Libraries/STM32F4xx_HAL_Driver/Src/stm32f4xx_hal_nor.c ****     This section provides functions allowing to use and control the NOR memory
 352:Libraries/STM32F4xx_HAL_Driver/Src/stm32f4xx_hal_nor.c ****   
 353:Libraries/STM32F4xx_HAL_Driver/Src/stm32f4xx_hal_nor.c **** @endverbatim
 354:Libraries/STM32F4xx_HAL_Driver/Src/stm32f4xx_hal_nor.c ****   * @{
 355:Libraries/STM32F4xx_HAL_Driver/Src/stm32f4xx_hal_nor.c ****   */
 356:Libraries/STM32F4xx_HAL_Driver/Src/stm32f4xx_hal_nor.c ****   
 357:Libraries/STM32F4xx_HAL_Driver/Src/stm32f4xx_hal_nor.c **** /**
 358:Libraries/STM32F4xx_HAL_Driver/Src/stm32f4xx_hal_nor.c ****   * @brief  Read NOR flash IDs
 359:Libraries/STM32F4xx_HAL_Driver/Src/stm32f4xx_hal_nor.c ****   * @param  hnor pointer to a NOR_HandleTypeDef structure that contains
 360:Libraries/STM32F4xx_HAL_Driver/Src/stm32f4xx_hal_nor.c ****   *                the configuration information for NOR module.
 361:Libraries/STM32F4xx_HAL_Driver/Src/stm32f4xx_hal_nor.c ****   * @param  pNOR_ID  pointer to NOR ID structure
 362:Libraries/STM32F4xx_HAL_Driver/Src/stm32f4xx_hal_nor.c ****   * @retval HAL status
 363:Libraries/STM32F4xx_HAL_Driver/Src/stm32f4xx_hal_nor.c ****   */
 364:Libraries/STM32F4xx_HAL_Driver/Src/stm32f4xx_hal_nor.c **** HAL_StatusTypeDef HAL_NOR_Read_ID(NOR_HandleTypeDef *hnor, NOR_IDTypeDef *pNOR_ID)
 365:Libraries/STM32F4xx_HAL_Driver/Src/stm32f4xx_hal_nor.c **** {
 258              		.loc 1 365 1 is_stmt 1 view -0
 259              		.cfi_startproc
 260              		@ args = 0, pretend = 0, frame = 0
 261              		@ frame_needed = 0, uses_anonymous_args = 0
 262              		@ link register save eliminated.
 366:Libraries/STM32F4xx_HAL_Driver/Src/stm32f4xx_hal_nor.c ****   uint32_t deviceaddress = 0U;
 263              		.loc 1 366 3 view .LVU52
 367:Libraries/STM32F4xx_HAL_Driver/Src/stm32f4xx_hal_nor.c ****   
 368:Libraries/STM32F4xx_HAL_Driver/Src/stm32f4xx_hal_nor.c ****   /* Process Locked */
 369:Libraries/STM32F4xx_HAL_Driver/Src/stm32f4xx_hal_nor.c ****   __HAL_LOCK(hnor);
 264              		.loc 1 369 3 view .LVU53
 265              		.loc 1 369 3 view .LVU54
 266 0000 90F84820 		ldrb	r2, [r0, #72]	@ zero_extendqisi2
 267 0004 012A     		cmp	r2, #1
 268 0006 55D0     		beq	.L32
 269 0008 0346     		mov	r3, r0
 270              		.loc 1 369 3 discriminator 2 view .LVU55
 271 000a 0122     		movs	r2, #1
 272 000c 80F84820 		strb	r2, [r0, #72]
 273              		.loc 1 369 3 discriminator 2 view .LVU56
 370:Libraries/STM32F4xx_HAL_Driver/Src/stm32f4xx_hal_nor.c ****   
 371:Libraries/STM32F4xx_HAL_Driver/Src/stm32f4xx_hal_nor.c ****   /* Check the NOR controller state */
 372:Libraries/STM32F4xx_HAL_Driver/Src/stm32f4xx_hal_nor.c ****   if(hnor->State == HAL_NOR_STATE_BUSY)
 274              		.loc 1 372 3 discriminator 2 view .LVU57
 275              		.loc 1 372 10 is_stmt 0 discriminator 2 view .LVU58
 276 0010 90F84900 		ldrb	r0, [r0, #73]	@ zero_extendqisi2
 277              	.LVL16:
 278              		.loc 1 372 10 discriminator 2 view .LVU59
 279 0014 C0B2     		uxtb	r0, r0
 280              		.loc 1 372 5 discriminator 2 view .LVU60
 281 0016 0228     		cmp	r0, #2
 282 0018 4ED0     		beq	.L37
ARM GAS  C:\Users\yzy\AppData\Local\Temp\ccvAdv2d.s 			page 13


 365:Libraries/STM32F4xx_HAL_Driver/Src/stm32f4xx_hal_nor.c ****   uint32_t deviceaddress = 0U;
 283              		.loc 1 365 1 view .LVU61
 284 001a 70B4     		push	{r4, r5, r6}
 285              	.LCFI3:
 286              		.cfi_def_cfa_offset 12
 287              		.cfi_offset 4, -12
 288              		.cfi_offset 5, -8
 289              		.cfi_offset 6, -4
 373:Libraries/STM32F4xx_HAL_Driver/Src/stm32f4xx_hal_nor.c ****   {
 374:Libraries/STM32F4xx_HAL_Driver/Src/stm32f4xx_hal_nor.c ****      return HAL_BUSY;
 375:Libraries/STM32F4xx_HAL_Driver/Src/stm32f4xx_hal_nor.c ****   }
 376:Libraries/STM32F4xx_HAL_Driver/Src/stm32f4xx_hal_nor.c ****   
 377:Libraries/STM32F4xx_HAL_Driver/Src/stm32f4xx_hal_nor.c ****   /* Select the NOR device address */
 378:Libraries/STM32F4xx_HAL_Driver/Src/stm32f4xx_hal_nor.c ****   if (hnor->Init.NSBank == FMC_NORSRAM_BANK1)
 290              		.loc 1 378 3 is_stmt 1 view .LVU62
 291              		.loc 1 378 17 is_stmt 0 view .LVU63
 292 001c 9A68     		ldr	r2, [r3, #8]
 293              		.loc 1 378 6 view .LVU64
 294 001e 4AB1     		cbz	r2, .L33
 379:Libraries/STM32F4xx_HAL_Driver/Src/stm32f4xx_hal_nor.c ****   {
 380:Libraries/STM32F4xx_HAL_Driver/Src/stm32f4xx_hal_nor.c ****     deviceaddress = NOR_MEMORY_ADRESS1;
 381:Libraries/STM32F4xx_HAL_Driver/Src/stm32f4xx_hal_nor.c ****   }
 382:Libraries/STM32F4xx_HAL_Driver/Src/stm32f4xx_hal_nor.c ****   else if (hnor->Init.NSBank == FMC_NORSRAM_BANK2)
 295              		.loc 1 382 8 is_stmt 1 view .LVU65
 296              		.loc 1 382 11 is_stmt 0 view .LVU66
 297 0020 022A     		cmp	r2, #2
 298 0022 37D0     		beq	.L34
 383:Libraries/STM32F4xx_HAL_Driver/Src/stm32f4xx_hal_nor.c ****   {
 384:Libraries/STM32F4xx_HAL_Driver/Src/stm32f4xx_hal_nor.c ****     deviceaddress = NOR_MEMORY_ADRESS2;
 385:Libraries/STM32F4xx_HAL_Driver/Src/stm32f4xx_hal_nor.c ****   }
 386:Libraries/STM32F4xx_HAL_Driver/Src/stm32f4xx_hal_nor.c ****   else if (hnor->Init.NSBank == FMC_NORSRAM_BANK3)
 299              		.loc 1 386 8 is_stmt 1 view .LVU67
 300              		.loc 1 386 11 is_stmt 0 view .LVU68
 301 0024 042A     		cmp	r2, #4
 302 0026 02D0     		beq	.L40
 387:Libraries/STM32F4xx_HAL_Driver/Src/stm32f4xx_hal_nor.c ****   {
 388:Libraries/STM32F4xx_HAL_Driver/Src/stm32f4xx_hal_nor.c ****     deviceaddress = NOR_MEMORY_ADRESS3;
 389:Libraries/STM32F4xx_HAL_Driver/Src/stm32f4xx_hal_nor.c ****   }
 390:Libraries/STM32F4xx_HAL_Driver/Src/stm32f4xx_hal_nor.c ****   else /* FMC_NORSRAM_BANK4 */
 391:Libraries/STM32F4xx_HAL_Driver/Src/stm32f4xx_hal_nor.c ****   {
 392:Libraries/STM32F4xx_HAL_Driver/Src/stm32f4xx_hal_nor.c ****     deviceaddress = NOR_MEMORY_ADRESS4;
 303              		.loc 1 392 19 view .LVU69
 304 0028 4FF0D842 		mov	r2, #1811939328
 305 002c 04E0     		b	.L21
 306              	.L40:
 388:Libraries/STM32F4xx_HAL_Driver/Src/stm32f4xx_hal_nor.c ****   }
 307              		.loc 1 388 19 view .LVU70
 308 002e 4FF0D042 		mov	r2, #1744830464
 309 0032 01E0     		b	.L21
 310              	.L33:
 380:Libraries/STM32F4xx_HAL_Driver/Src/stm32f4xx_hal_nor.c ****   }
 311              		.loc 1 380 19 view .LVU71
 312 0034 4FF0C042 		mov	r2, #1610612736
 313              	.L21:
 314              	.LVL17:
 393:Libraries/STM32F4xx_HAL_Driver/Src/stm32f4xx_hal_nor.c ****   }  
 394:Libraries/STM32F4xx_HAL_Driver/Src/stm32f4xx_hal_nor.c ****     
ARM GAS  C:\Users\yzy\AppData\Local\Temp\ccvAdv2d.s 			page 14


 395:Libraries/STM32F4xx_HAL_Driver/Src/stm32f4xx_hal_nor.c ****   /* Update the NOR controller state */
 396:Libraries/STM32F4xx_HAL_Driver/Src/stm32f4xx_hal_nor.c ****   hnor->State = HAL_NOR_STATE_BUSY;
 315              		.loc 1 396 3 is_stmt 1 view .LVU72
 316              		.loc 1 396 15 is_stmt 0 view .LVU73
 317 0038 0220     		movs	r0, #2
 318 003a 83F84900 		strb	r0, [r3, #73]
 397:Libraries/STM32F4xx_HAL_Driver/Src/stm32f4xx_hal_nor.c ****   
 398:Libraries/STM32F4xx_HAL_Driver/Src/stm32f4xx_hal_nor.c ****   /* Send read ID command */
 399:Libraries/STM32F4xx_HAL_Driver/Src/stm32f4xx_hal_nor.c ****   NOR_WRITE(NOR_ADDR_SHIFT(deviceaddress, uwNORMemoryDataWidth, NOR_CMD_ADDRESS_FIRST), NOR_CMD_DAT
 319              		.loc 1 399 3 is_stmt 1 view .LVU74
 320 003e 1F48     		ldr	r0, .L46
 321 0040 0068     		ldr	r0, [r0]
 322 0042 0128     		cmp	r0, #1
 323 0044 29D0     		beq	.L41
 324              		.loc 1 399 3 is_stmt 0 discriminator 2 view .LVU75
 325 0046 02F25554 		addw	r4, r2, #1365
 326              	.L23:
 327              		.loc 1 399 3 discriminator 4 view .LVU76
 328 004a 2546     		mov	r5, r4
 329 004c AA26     		movs	r6, #170
 330 004e 2680     		strh	r6, [r4]	@ movhi
 400:Libraries/STM32F4xx_HAL_Driver/Src/stm32f4xx_hal_nor.c ****   NOR_WRITE(NOR_ADDR_SHIFT(deviceaddress, uwNORMemoryDataWidth, NOR_CMD_ADDRESS_SECOND), NOR_CMD_DA
 331              		.loc 1 400 3 is_stmt 1 discriminator 4 view .LVU77
 332 0050 0128     		cmp	r0, #1
 333 0052 25D0     		beq	.L42
 334              		.loc 1 400 3 is_stmt 0 discriminator 2 view .LVU78
 335 0054 02F2AA24 		addw	r4, r2, #682
 336              	.L25:
 337              		.loc 1 400 3 discriminator 4 view .LVU79
 338 0058 5526     		movs	r6, #85
 339 005a 2680     		strh	r6, [r4]	@ movhi
 401:Libraries/STM32F4xx_HAL_Driver/Src/stm32f4xx_hal_nor.c ****   NOR_WRITE(NOR_ADDR_SHIFT(deviceaddress, uwNORMemoryDataWidth, NOR_CMD_ADDRESS_THIRD), NOR_CMD_DAT
 340              		.loc 1 401 3 is_stmt 1 discriminator 4 view .LVU80
 341 005c 9024     		movs	r4, #144
 342 005e 2C80     		strh	r4, [r5]	@ movhi
 402:Libraries/STM32F4xx_HAL_Driver/Src/stm32f4xx_hal_nor.c **** 
 403:Libraries/STM32F4xx_HAL_Driver/Src/stm32f4xx_hal_nor.c ****   /* Read the NOR IDs */
 404:Libraries/STM32F4xx_HAL_Driver/Src/stm32f4xx_hal_nor.c ****   pNOR_ID->Manufacturer_Code = *(__IO uint16_t *) NOR_ADDR_SHIFT(deviceaddress, uwNORMemoryDataWidt
 343              		.loc 1 404 3 discriminator 4 view .LVU81
 344              		.loc 1 404 32 is_stmt 0 discriminator 4 view .LVU82
 345 0060 1488     		ldrh	r4, [r2]
 346              		.loc 1 404 30 discriminator 4 view .LVU83
 347 0062 0C80     		strh	r4, [r1]	@ movhi
 405:Libraries/STM32F4xx_HAL_Driver/Src/stm32f4xx_hal_nor.c ****   pNOR_ID->Device_Code1      = *(__IO uint16_t *) NOR_ADDR_SHIFT(deviceaddress, uwNORMemoryDataWidt
 348              		.loc 1 405 3 is_stmt 1 discriminator 4 view .LVU84
 349              		.loc 1 405 33 is_stmt 0 discriminator 4 view .LVU85
 350 0064 0128     		cmp	r0, #1
 351 0066 1ED0     		beq	.L43
 352              		.loc 1 405 33 discriminator 2 view .LVU86
 353 0068 541C     		adds	r4, r2, #1
 354              	.L27:
 355              		.loc 1 405 32 discriminator 4 view .LVU87
 356 006a 2488     		ldrh	r4, [r4]
 357              		.loc 1 405 30 discriminator 4 view .LVU88
 358 006c 4C80     		strh	r4, [r1, #2]	@ movhi
 406:Libraries/STM32F4xx_HAL_Driver/Src/stm32f4xx_hal_nor.c ****   pNOR_ID->Device_Code2      = *(__IO uint16_t *) NOR_ADDR_SHIFT(deviceaddress, uwNORMemoryDataWidt
 359              		.loc 1 406 3 is_stmt 1 discriminator 4 view .LVU89
ARM GAS  C:\Users\yzy\AppData\Local\Temp\ccvAdv2d.s 			page 15


 360              		.loc 1 406 33 is_stmt 0 discriminator 4 view .LVU90
 361 006e 0128     		cmp	r0, #1
 362 0070 1BD0     		beq	.L44
 363              		.loc 1 406 33 discriminator 2 view .LVU91
 364 0072 02F10E04 		add	r4, r2, #14
 365              	.L29:
 366              		.loc 1 406 32 discriminator 4 view .LVU92
 367 0076 2488     		ldrh	r4, [r4]
 368              		.loc 1 406 30 discriminator 4 view .LVU93
 369 0078 8C80     		strh	r4, [r1, #4]	@ movhi
 407:Libraries/STM32F4xx_HAL_Driver/Src/stm32f4xx_hal_nor.c ****   pNOR_ID->Device_Code3      = *(__IO uint16_t *) NOR_ADDR_SHIFT(deviceaddress, uwNORMemoryDataWidt
 370              		.loc 1 407 3 is_stmt 1 discriminator 4 view .LVU94
 371              		.loc 1 407 33 is_stmt 0 discriminator 4 view .LVU95
 372 007a 0128     		cmp	r0, #1
 373 007c 18D0     		beq	.L45
 374              		.loc 1 407 33 discriminator 2 view .LVU96
 375 007e 0F32     		adds	r2, r2, #15
 376              	.LVL18:
 377              	.L31:
 378              		.loc 1 407 32 discriminator 4 view .LVU97
 379 0080 1288     		ldrh	r2, [r2]
 380              		.loc 1 407 30 discriminator 4 view .LVU98
 381 0082 CA80     		strh	r2, [r1, #6]	@ movhi
 408:Libraries/STM32F4xx_HAL_Driver/Src/stm32f4xx_hal_nor.c ****   
 409:Libraries/STM32F4xx_HAL_Driver/Src/stm32f4xx_hal_nor.c ****   /* Check the NOR controller state */
 410:Libraries/STM32F4xx_HAL_Driver/Src/stm32f4xx_hal_nor.c ****   hnor->State = HAL_NOR_STATE_READY;
 382              		.loc 1 410 3 is_stmt 1 discriminator 4 view .LVU99
 383              		.loc 1 410 15 is_stmt 0 discriminator 4 view .LVU100
 384 0084 0122     		movs	r2, #1
 385 0086 83F84920 		strb	r2, [r3, #73]
 411:Libraries/STM32F4xx_HAL_Driver/Src/stm32f4xx_hal_nor.c ****   
 412:Libraries/STM32F4xx_HAL_Driver/Src/stm32f4xx_hal_nor.c ****   /* Process unlocked */
 413:Libraries/STM32F4xx_HAL_Driver/Src/stm32f4xx_hal_nor.c ****   __HAL_UNLOCK(hnor);   
 386              		.loc 1 413 3 is_stmt 1 discriminator 4 view .LVU101
 387              		.loc 1 413 3 discriminator 4 view .LVU102
 388 008a 0020     		movs	r0, #0
 389 008c 83F84800 		strb	r0, [r3, #72]
 390              		.loc 1 413 3 discriminator 4 view .LVU103
 414:Libraries/STM32F4xx_HAL_Driver/Src/stm32f4xx_hal_nor.c ****   
 415:Libraries/STM32F4xx_HAL_Driver/Src/stm32f4xx_hal_nor.c ****   return HAL_OK;
 391              		.loc 1 415 3 discriminator 4 view .LVU104
 416:Libraries/STM32F4xx_HAL_Driver/Src/stm32f4xx_hal_nor.c **** }
 392              		.loc 1 416 1 is_stmt 0 discriminator 4 view .LVU105
 393 0090 70BC     		pop	{r4, r5, r6}
 394              	.LCFI4:
 395              		.cfi_remember_state
 396              		.cfi_restore 6
 397              		.cfi_restore 5
 398              		.cfi_restore 4
 399              		.cfi_def_cfa_offset 0
 400 0092 7047     		bx	lr
 401              	.LVL19:
 402              	.L34:
 403              	.LCFI5:
 404              		.cfi_restore_state
 384:Libraries/STM32F4xx_HAL_Driver/Src/stm32f4xx_hal_nor.c ****   }
 405              		.loc 1 384 19 view .LVU106
ARM GAS  C:\Users\yzy\AppData\Local\Temp\ccvAdv2d.s 			page 16


 406 0094 4FF0C842 		mov	r2, #1677721600
 407 0098 CEE7     		b	.L21
 408              	.LVL20:
 409              	.L41:
 399:Libraries/STM32F4xx_HAL_Driver/Src/stm32f4xx_hal_nor.c ****   NOR_WRITE(NOR_ADDR_SHIFT(deviceaddress, uwNORMemoryDataWidth, NOR_CMD_ADDRESS_SECOND), NOR_CMD_DA
 410              		.loc 1 399 3 discriminator 1 view .LVU107
 411 009a 02F6AA24 		addw	r4, r2, #2730
 412 009e D4E7     		b	.L23
 413              	.L42:
 400:Libraries/STM32F4xx_HAL_Driver/Src/stm32f4xx_hal_nor.c ****   NOR_WRITE(NOR_ADDR_SHIFT(deviceaddress, uwNORMemoryDataWidth, NOR_CMD_ADDRESS_THIRD), NOR_CMD_DAT
 414              		.loc 1 400 3 discriminator 1 view .LVU108
 415 00a0 02F25454 		addw	r4, r2, #1364
 416 00a4 D8E7     		b	.L25
 417              	.L43:
 405:Libraries/STM32F4xx_HAL_Driver/Src/stm32f4xx_hal_nor.c ****   pNOR_ID->Device_Code2      = *(__IO uint16_t *) NOR_ADDR_SHIFT(deviceaddress, uwNORMemoryDataWidt
 418              		.loc 1 405 33 discriminator 1 view .LVU109
 419 00a6 941C     		adds	r4, r2, #2
 420 00a8 DFE7     		b	.L27
 421              	.L44:
 406:Libraries/STM32F4xx_HAL_Driver/Src/stm32f4xx_hal_nor.c ****   pNOR_ID->Device_Code3      = *(__IO uint16_t *) NOR_ADDR_SHIFT(deviceaddress, uwNORMemoryDataWidt
 422              		.loc 1 406 33 discriminator 1 view .LVU110
 423 00aa 02F11C04 		add	r4, r2, #28
 424 00ae E2E7     		b	.L29
 425              	.L45:
 407:Libraries/STM32F4xx_HAL_Driver/Src/stm32f4xx_hal_nor.c ****   
 426              		.loc 1 407 33 discriminator 1 view .LVU111
 427 00b0 1E32     		adds	r2, r2, #30
 428              	.LVL21:
 407:Libraries/STM32F4xx_HAL_Driver/Src/stm32f4xx_hal_nor.c ****   
 429              		.loc 1 407 33 discriminator 1 view .LVU112
 430 00b2 E5E7     		b	.L31
 431              	.LVL22:
 432              	.L32:
 433              	.LCFI6:
 434              		.cfi_def_cfa_offset 0
 435              		.cfi_restore 4
 436              		.cfi_restore 5
 437              		.cfi_restore 6
 369:Libraries/STM32F4xx_HAL_Driver/Src/stm32f4xx_hal_nor.c ****   
 438              		.loc 1 369 3 view .LVU113
 439 00b4 0220     		movs	r0, #2
 440              	.LVL23:
 369:Libraries/STM32F4xx_HAL_Driver/Src/stm32f4xx_hal_nor.c ****   
 441              		.loc 1 369 3 view .LVU114
 442 00b6 7047     		bx	lr
 443              	.LVL24:
 444              	.L37:
 445              		.loc 1 416 1 view .LVU115
 446 00b8 7047     		bx	lr
 447              	.L47:
 448 00ba 00BF     		.align	2
 449              	.L46:
 450 00bc 00000000 		.word	.LANCHOR0
 451              		.cfi_endproc
 452              	.LFE135:
 454              		.section	.text.HAL_NOR_ReturnToReadMode,"ax",%progbits
 455              		.align	1
ARM GAS  C:\Users\yzy\AppData\Local\Temp\ccvAdv2d.s 			page 17


 456              		.global	HAL_NOR_ReturnToReadMode
 457              		.syntax unified
 458              		.thumb
 459              		.thumb_func
 460              		.fpu softvfp
 462              	HAL_NOR_ReturnToReadMode:
 463              	.LVL25:
 464              	.LFB136:
 417:Libraries/STM32F4xx_HAL_Driver/Src/stm32f4xx_hal_nor.c **** 
 418:Libraries/STM32F4xx_HAL_Driver/Src/stm32f4xx_hal_nor.c **** /**
 419:Libraries/STM32F4xx_HAL_Driver/Src/stm32f4xx_hal_nor.c ****   * @brief  Returns the NOR memory to Read mode.
 420:Libraries/STM32F4xx_HAL_Driver/Src/stm32f4xx_hal_nor.c ****   * @param  hnor pointer to a NOR_HandleTypeDef structure that contains
 421:Libraries/STM32F4xx_HAL_Driver/Src/stm32f4xx_hal_nor.c ****   *                the configuration information for NOR module.
 422:Libraries/STM32F4xx_HAL_Driver/Src/stm32f4xx_hal_nor.c ****   * @retval HAL status
 423:Libraries/STM32F4xx_HAL_Driver/Src/stm32f4xx_hal_nor.c ****   */
 424:Libraries/STM32F4xx_HAL_Driver/Src/stm32f4xx_hal_nor.c **** HAL_StatusTypeDef HAL_NOR_ReturnToReadMode(NOR_HandleTypeDef *hnor)
 425:Libraries/STM32F4xx_HAL_Driver/Src/stm32f4xx_hal_nor.c **** {
 465              		.loc 1 425 1 is_stmt 1 view -0
 466              		.cfi_startproc
 467              		@ args = 0, pretend = 0, frame = 0
 468              		@ frame_needed = 0, uses_anonymous_args = 0
 469              		@ link register save eliminated.
 470              		.loc 1 425 1 is_stmt 0 view .LVU117
 471 0000 0346     		mov	r3, r0
 426:Libraries/STM32F4xx_HAL_Driver/Src/stm32f4xx_hal_nor.c ****   uint32_t deviceaddress = 0U;  
 472              		.loc 1 426 3 is_stmt 1 view .LVU118
 473              	.LVL26:
 427:Libraries/STM32F4xx_HAL_Driver/Src/stm32f4xx_hal_nor.c ****   
 428:Libraries/STM32F4xx_HAL_Driver/Src/stm32f4xx_hal_nor.c ****   /* Process Locked */
 429:Libraries/STM32F4xx_HAL_Driver/Src/stm32f4xx_hal_nor.c ****   __HAL_LOCK(hnor);
 474              		.loc 1 429 3 view .LVU119
 475              		.loc 1 429 3 view .LVU120
 476 0002 90F84820 		ldrb	r2, [r0, #72]	@ zero_extendqisi2
 477 0006 012A     		cmp	r2, #1
 478 0008 21D0     		beq	.L51
 479              		.loc 1 429 3 discriminator 2 view .LVU121
 480 000a 0122     		movs	r2, #1
 481 000c 80F84820 		strb	r2, [r0, #72]
 482              		.loc 1 429 3 discriminator 2 view .LVU122
 430:Libraries/STM32F4xx_HAL_Driver/Src/stm32f4xx_hal_nor.c ****   
 431:Libraries/STM32F4xx_HAL_Driver/Src/stm32f4xx_hal_nor.c ****   /* Check the NOR controller state */
 432:Libraries/STM32F4xx_HAL_Driver/Src/stm32f4xx_hal_nor.c ****   if(hnor->State == HAL_NOR_STATE_BUSY)
 483              		.loc 1 432 3 discriminator 2 view .LVU123
 484              		.loc 1 432 10 is_stmt 0 discriminator 2 view .LVU124
 485 0010 90F84900 		ldrb	r0, [r0, #73]	@ zero_extendqisi2
 486              	.LVL27:
 487              		.loc 1 432 10 discriminator 2 view .LVU125
 488 0014 C0B2     		uxtb	r0, r0
 489              		.loc 1 432 5 discriminator 2 view .LVU126
 490 0016 0228     		cmp	r0, #2
 491 0018 1AD0     		beq	.L49
 433:Libraries/STM32F4xx_HAL_Driver/Src/stm32f4xx_hal_nor.c ****   {
 434:Libraries/STM32F4xx_HAL_Driver/Src/stm32f4xx_hal_nor.c ****      return HAL_BUSY;
 435:Libraries/STM32F4xx_HAL_Driver/Src/stm32f4xx_hal_nor.c ****   }
 436:Libraries/STM32F4xx_HAL_Driver/Src/stm32f4xx_hal_nor.c ****   
 437:Libraries/STM32F4xx_HAL_Driver/Src/stm32f4xx_hal_nor.c ****   /* Select the NOR device address */
 438:Libraries/STM32F4xx_HAL_Driver/Src/stm32f4xx_hal_nor.c ****   if (hnor->Init.NSBank == FMC_NORSRAM_BANK1)
ARM GAS  C:\Users\yzy\AppData\Local\Temp\ccvAdv2d.s 			page 18


 492              		.loc 1 438 3 is_stmt 1 view .LVU127
 493              		.loc 1 438 17 is_stmt 0 view .LVU128
 494 001a 9A68     		ldr	r2, [r3, #8]
 495              		.loc 1 438 6 view .LVU129
 496 001c 4AB1     		cbz	r2, .L52
 439:Libraries/STM32F4xx_HAL_Driver/Src/stm32f4xx_hal_nor.c ****   {
 440:Libraries/STM32F4xx_HAL_Driver/Src/stm32f4xx_hal_nor.c ****     deviceaddress = NOR_MEMORY_ADRESS1;
 441:Libraries/STM32F4xx_HAL_Driver/Src/stm32f4xx_hal_nor.c ****   }
 442:Libraries/STM32F4xx_HAL_Driver/Src/stm32f4xx_hal_nor.c ****   else if (hnor->Init.NSBank == FMC_NORSRAM_BANK2)
 497              		.loc 1 442 8 is_stmt 1 view .LVU130
 498              		.loc 1 442 11 is_stmt 0 view .LVU131
 499 001e 022A     		cmp	r2, #2
 500 0020 12D0     		beq	.L53
 443:Libraries/STM32F4xx_HAL_Driver/Src/stm32f4xx_hal_nor.c ****   {
 444:Libraries/STM32F4xx_HAL_Driver/Src/stm32f4xx_hal_nor.c ****     deviceaddress = NOR_MEMORY_ADRESS2;
 445:Libraries/STM32F4xx_HAL_Driver/Src/stm32f4xx_hal_nor.c ****   }
 446:Libraries/STM32F4xx_HAL_Driver/Src/stm32f4xx_hal_nor.c ****   else if (hnor->Init.NSBank == FMC_NORSRAM_BANK3)
 501              		.loc 1 446 8 is_stmt 1 view .LVU132
 502              		.loc 1 446 11 is_stmt 0 view .LVU133
 503 0022 042A     		cmp	r2, #4
 504 0024 02D0     		beq	.L55
 447:Libraries/STM32F4xx_HAL_Driver/Src/stm32f4xx_hal_nor.c ****   {
 448:Libraries/STM32F4xx_HAL_Driver/Src/stm32f4xx_hal_nor.c ****     deviceaddress = NOR_MEMORY_ADRESS3;
 449:Libraries/STM32F4xx_HAL_Driver/Src/stm32f4xx_hal_nor.c ****   }
 450:Libraries/STM32F4xx_HAL_Driver/Src/stm32f4xx_hal_nor.c ****   else /* FMC_NORSRAM_BANK4 */
 451:Libraries/STM32F4xx_HAL_Driver/Src/stm32f4xx_hal_nor.c ****   {
 452:Libraries/STM32F4xx_HAL_Driver/Src/stm32f4xx_hal_nor.c ****     deviceaddress = NOR_MEMORY_ADRESS4;
 505              		.loc 1 452 19 view .LVU134
 506 0026 4FF0D841 		mov	r1, #1811939328
 507 002a 04E0     		b	.L50
 508              	.L55:
 448:Libraries/STM32F4xx_HAL_Driver/Src/stm32f4xx_hal_nor.c ****   }
 509              		.loc 1 448 19 view .LVU135
 510 002c 4FF0D041 		mov	r1, #1744830464
 511 0030 01E0     		b	.L50
 512              	.L52:
 440:Libraries/STM32F4xx_HAL_Driver/Src/stm32f4xx_hal_nor.c ****   }
 513              		.loc 1 440 19 view .LVU136
 514 0032 4FF0C041 		mov	r1, #1610612736
 515              	.L50:
 516              	.LVL28:
 453:Libraries/STM32F4xx_HAL_Driver/Src/stm32f4xx_hal_nor.c ****   }  
 454:Libraries/STM32F4xx_HAL_Driver/Src/stm32f4xx_hal_nor.c ****   
 455:Libraries/STM32F4xx_HAL_Driver/Src/stm32f4xx_hal_nor.c ****   NOR_WRITE(deviceaddress, NOR_CMD_DATA_READ_RESET);
 517              		.loc 1 455 3 is_stmt 1 view .LVU137
 518 0036 F022     		movs	r2, #240
 519 0038 0A80     		strh	r2, [r1]	@ movhi
 456:Libraries/STM32F4xx_HAL_Driver/Src/stm32f4xx_hal_nor.c **** 
 457:Libraries/STM32F4xx_HAL_Driver/Src/stm32f4xx_hal_nor.c ****   /* Check the NOR controller state */
 458:Libraries/STM32F4xx_HAL_Driver/Src/stm32f4xx_hal_nor.c ****   hnor->State = HAL_NOR_STATE_READY;
 520              		.loc 1 458 3 view .LVU138
 521              		.loc 1 458 15 is_stmt 0 view .LVU139
 522 003a 0122     		movs	r2, #1
 523 003c 83F84920 		strb	r2, [r3, #73]
 459:Libraries/STM32F4xx_HAL_Driver/Src/stm32f4xx_hal_nor.c ****   
 460:Libraries/STM32F4xx_HAL_Driver/Src/stm32f4xx_hal_nor.c ****   /* Process unlocked */
 461:Libraries/STM32F4xx_HAL_Driver/Src/stm32f4xx_hal_nor.c ****   __HAL_UNLOCK(hnor);   
ARM GAS  C:\Users\yzy\AppData\Local\Temp\ccvAdv2d.s 			page 19


 524              		.loc 1 461 3 is_stmt 1 view .LVU140
 525              		.loc 1 461 3 view .LVU141
 526 0040 0020     		movs	r0, #0
 527 0042 83F84800 		strb	r0, [r3, #72]
 528              		.loc 1 461 3 view .LVU142
 462:Libraries/STM32F4xx_HAL_Driver/Src/stm32f4xx_hal_nor.c ****   
 463:Libraries/STM32F4xx_HAL_Driver/Src/stm32f4xx_hal_nor.c ****   return HAL_OK;
 529              		.loc 1 463 3 view .LVU143
 530              		.loc 1 463 10 is_stmt 0 view .LVU144
 531 0046 7047     		bx	lr
 532              	.LVL29:
 533              	.L53:
 444:Libraries/STM32F4xx_HAL_Driver/Src/stm32f4xx_hal_nor.c ****   }
 534              		.loc 1 444 19 view .LVU145
 535 0048 4FF0C841 		mov	r1, #1677721600
 536 004c F3E7     		b	.L50
 537              	.LVL30:
 538              	.L51:
 429:Libraries/STM32F4xx_HAL_Driver/Src/stm32f4xx_hal_nor.c ****   
 539              		.loc 1 429 3 view .LVU146
 540 004e 0220     		movs	r0, #2
 541              	.LVL31:
 542              	.L49:
 464:Libraries/STM32F4xx_HAL_Driver/Src/stm32f4xx_hal_nor.c **** }
 543              		.loc 1 464 1 view .LVU147
 544 0050 7047     		bx	lr
 545              		.cfi_endproc
 546              	.LFE136:
 548              		.section	.text.HAL_NOR_Read,"ax",%progbits
 549              		.align	1
 550              		.global	HAL_NOR_Read
 551              		.syntax unified
 552              		.thumb
 553              		.thumb_func
 554              		.fpu softvfp
 556              	HAL_NOR_Read:
 557              	.LVL32:
 558              	.LFB137:
 465:Libraries/STM32F4xx_HAL_Driver/Src/stm32f4xx_hal_nor.c **** 
 466:Libraries/STM32F4xx_HAL_Driver/Src/stm32f4xx_hal_nor.c **** /**
 467:Libraries/STM32F4xx_HAL_Driver/Src/stm32f4xx_hal_nor.c ****   * @brief  Read data from NOR memory 
 468:Libraries/STM32F4xx_HAL_Driver/Src/stm32f4xx_hal_nor.c ****   * @param  hnor pointer to a NOR_HandleTypeDef structure that contains
 469:Libraries/STM32F4xx_HAL_Driver/Src/stm32f4xx_hal_nor.c ****   *                the configuration information for NOR module.
 470:Libraries/STM32F4xx_HAL_Driver/Src/stm32f4xx_hal_nor.c ****   * @param  pAddress pointer to Device address
 471:Libraries/STM32F4xx_HAL_Driver/Src/stm32f4xx_hal_nor.c ****   * @param  pData  pointer to read data  
 472:Libraries/STM32F4xx_HAL_Driver/Src/stm32f4xx_hal_nor.c ****   * @retval HAL status
 473:Libraries/STM32F4xx_HAL_Driver/Src/stm32f4xx_hal_nor.c ****   */
 474:Libraries/STM32F4xx_HAL_Driver/Src/stm32f4xx_hal_nor.c **** HAL_StatusTypeDef HAL_NOR_Read(NOR_HandleTypeDef *hnor, uint32_t *pAddress, uint16_t *pData)
 475:Libraries/STM32F4xx_HAL_Driver/Src/stm32f4xx_hal_nor.c **** {
 559              		.loc 1 475 1 is_stmt 1 view -0
 560              		.cfi_startproc
 561              		@ args = 0, pretend = 0, frame = 0
 562              		@ frame_needed = 0, uses_anonymous_args = 0
 563              		@ link register save eliminated.
 564              		.loc 1 475 1 is_stmt 0 view .LVU149
 565 0000 0346     		mov	r3, r0
 476:Libraries/STM32F4xx_HAL_Driver/Src/stm32f4xx_hal_nor.c ****   uint32_t deviceaddress = 0U;
ARM GAS  C:\Users\yzy\AppData\Local\Temp\ccvAdv2d.s 			page 20


 566              		.loc 1 476 3 is_stmt 1 view .LVU150
 567              	.LVL33:
 477:Libraries/STM32F4xx_HAL_Driver/Src/stm32f4xx_hal_nor.c ****   
 478:Libraries/STM32F4xx_HAL_Driver/Src/stm32f4xx_hal_nor.c ****   /* Process Locked */
 479:Libraries/STM32F4xx_HAL_Driver/Src/stm32f4xx_hal_nor.c ****   __HAL_LOCK(hnor);
 568              		.loc 1 479 3 view .LVU151
 569              		.loc 1 479 3 view .LVU152
 570 0002 90F84800 		ldrb	r0, [r0, #72]	@ zero_extendqisi2
 571              	.LVL34:
 572              		.loc 1 479 3 is_stmt 0 view .LVU153
 573 0006 0128     		cmp	r0, #1
 574 0008 3DD0     		beq	.L63
 575              		.loc 1 479 3 is_stmt 1 discriminator 2 view .LVU154
 576 000a 0120     		movs	r0, #1
 577 000c 83F84800 		strb	r0, [r3, #72]
 578              		.loc 1 479 3 discriminator 2 view .LVU155
 480:Libraries/STM32F4xx_HAL_Driver/Src/stm32f4xx_hal_nor.c ****   
 481:Libraries/STM32F4xx_HAL_Driver/Src/stm32f4xx_hal_nor.c ****   /* Check the NOR controller state */
 482:Libraries/STM32F4xx_HAL_Driver/Src/stm32f4xx_hal_nor.c ****   if(hnor->State == HAL_NOR_STATE_BUSY)
 579              		.loc 1 482 3 discriminator 2 view .LVU156
 580              		.loc 1 482 10 is_stmt 0 discriminator 2 view .LVU157
 581 0010 93F84900 		ldrb	r0, [r3, #73]	@ zero_extendqisi2
 582 0014 C0B2     		uxtb	r0, r0
 583              		.loc 1 482 5 discriminator 2 view .LVU158
 584 0016 0228     		cmp	r0, #2
 585 0018 37D0     		beq	.L68
 475:Libraries/STM32F4xx_HAL_Driver/Src/stm32f4xx_hal_nor.c ****   uint32_t deviceaddress = 0U;
 586              		.loc 1 475 1 view .LVU159
 587 001a F0B4     		push	{r4, r5, r6, r7}
 588              	.LCFI7:
 589              		.cfi_def_cfa_offset 16
 590              		.cfi_offset 4, -16
 591              		.cfi_offset 5, -12
 592              		.cfi_offset 6, -8
 593              		.cfi_offset 7, -4
 483:Libraries/STM32F4xx_HAL_Driver/Src/stm32f4xx_hal_nor.c ****   {
 484:Libraries/STM32F4xx_HAL_Driver/Src/stm32f4xx_hal_nor.c ****      return HAL_BUSY;
 485:Libraries/STM32F4xx_HAL_Driver/Src/stm32f4xx_hal_nor.c ****   }
 486:Libraries/STM32F4xx_HAL_Driver/Src/stm32f4xx_hal_nor.c ****   
 487:Libraries/STM32F4xx_HAL_Driver/Src/stm32f4xx_hal_nor.c ****   /* Select the NOR device address */
 488:Libraries/STM32F4xx_HAL_Driver/Src/stm32f4xx_hal_nor.c ****   if (hnor->Init.NSBank == FMC_NORSRAM_BANK1)
 594              		.loc 1 488 3 is_stmt 1 view .LVU160
 595              		.loc 1 488 17 is_stmt 0 view .LVU161
 596 001c 9868     		ldr	r0, [r3, #8]
 597              		.loc 1 488 6 view .LVU162
 598 001e 48B1     		cbz	r0, .L64
 489:Libraries/STM32F4xx_HAL_Driver/Src/stm32f4xx_hal_nor.c ****   {
 490:Libraries/STM32F4xx_HAL_Driver/Src/stm32f4xx_hal_nor.c ****     deviceaddress = NOR_MEMORY_ADRESS1;
 491:Libraries/STM32F4xx_HAL_Driver/Src/stm32f4xx_hal_nor.c ****   }
 492:Libraries/STM32F4xx_HAL_Driver/Src/stm32f4xx_hal_nor.c ****   else if (hnor->Init.NSBank == FMC_NORSRAM_BANK2)
 599              		.loc 1 492 8 is_stmt 1 view .LVU163
 600              		.loc 1 492 11 is_stmt 0 view .LVU164
 601 0020 0228     		cmp	r0, #2
 602 0022 27D0     		beq	.L65
 493:Libraries/STM32F4xx_HAL_Driver/Src/stm32f4xx_hal_nor.c ****   {
 494:Libraries/STM32F4xx_HAL_Driver/Src/stm32f4xx_hal_nor.c ****     deviceaddress = NOR_MEMORY_ADRESS2;
 495:Libraries/STM32F4xx_HAL_Driver/Src/stm32f4xx_hal_nor.c ****   }
ARM GAS  C:\Users\yzy\AppData\Local\Temp\ccvAdv2d.s 			page 21


 496:Libraries/STM32F4xx_HAL_Driver/Src/stm32f4xx_hal_nor.c ****   else if (hnor->Init.NSBank == FMC_NORSRAM_BANK3)
 603              		.loc 1 496 8 is_stmt 1 view .LVU165
 604              		.loc 1 496 11 is_stmt 0 view .LVU166
 605 0024 0428     		cmp	r0, #4
 606 0026 02D0     		beq	.L71
 497:Libraries/STM32F4xx_HAL_Driver/Src/stm32f4xx_hal_nor.c ****   {
 498:Libraries/STM32F4xx_HAL_Driver/Src/stm32f4xx_hal_nor.c ****     deviceaddress = NOR_MEMORY_ADRESS3;
 499:Libraries/STM32F4xx_HAL_Driver/Src/stm32f4xx_hal_nor.c ****   }
 500:Libraries/STM32F4xx_HAL_Driver/Src/stm32f4xx_hal_nor.c ****   else /* FMC_NORSRAM_BANK4 */
 501:Libraries/STM32F4xx_HAL_Driver/Src/stm32f4xx_hal_nor.c ****   {
 502:Libraries/STM32F4xx_HAL_Driver/Src/stm32f4xx_hal_nor.c ****     deviceaddress = NOR_MEMORY_ADRESS4;
 607              		.loc 1 502 19 view .LVU167
 608 0028 4FF0D840 		mov	r0, #1811939328
 609 002c 04E0     		b	.L58
 610              	.L71:
 498:Libraries/STM32F4xx_HAL_Driver/Src/stm32f4xx_hal_nor.c ****   }
 611              		.loc 1 498 19 view .LVU168
 612 002e 4FF0D040 		mov	r0, #1744830464
 613 0032 01E0     		b	.L58
 614              	.L64:
 490:Libraries/STM32F4xx_HAL_Driver/Src/stm32f4xx_hal_nor.c ****   }
 615              		.loc 1 490 19 view .LVU169
 616 0034 4FF0C040 		mov	r0, #1610612736
 617              	.L58:
 618              	.LVL35:
 503:Libraries/STM32F4xx_HAL_Driver/Src/stm32f4xx_hal_nor.c ****   } 
 504:Libraries/STM32F4xx_HAL_Driver/Src/stm32f4xx_hal_nor.c ****     
 505:Libraries/STM32F4xx_HAL_Driver/Src/stm32f4xx_hal_nor.c ****   /* Update the NOR controller state */
 506:Libraries/STM32F4xx_HAL_Driver/Src/stm32f4xx_hal_nor.c ****   hnor->State = HAL_NOR_STATE_BUSY;
 619              		.loc 1 506 3 is_stmt 1 view .LVU170
 620              		.loc 1 506 15 is_stmt 0 view .LVU171
 621 0038 0224     		movs	r4, #2
 622 003a 83F84940 		strb	r4, [r3, #73]
 507:Libraries/STM32F4xx_HAL_Driver/Src/stm32f4xx_hal_nor.c ****   
 508:Libraries/STM32F4xx_HAL_Driver/Src/stm32f4xx_hal_nor.c ****   /* Send read data command */
 509:Libraries/STM32F4xx_HAL_Driver/Src/stm32f4xx_hal_nor.c ****   NOR_WRITE(NOR_ADDR_SHIFT(deviceaddress, uwNORMemoryDataWidth, NOR_CMD_ADDRESS_FIRST), NOR_CMD_DAT
 623              		.loc 1 509 3 is_stmt 1 view .LVU172
 624 003e 134C     		ldr	r4, .L74
 625 0040 2468     		ldr	r4, [r4]
 626 0042 012C     		cmp	r4, #1
 627 0044 19D0     		beq	.L72
 628              		.loc 1 509 3 is_stmt 0 discriminator 2 view .LVU173
 629 0046 00F25555 		addw	r5, r0, #1365
 630              	.L60:
 631              		.loc 1 509 3 discriminator 4 view .LVU174
 632 004a 2E46     		mov	r6, r5
 633 004c AA27     		movs	r7, #170
 634 004e 2F80     		strh	r7, [r5]	@ movhi
 510:Libraries/STM32F4xx_HAL_Driver/Src/stm32f4xx_hal_nor.c ****   NOR_WRITE(NOR_ADDR_SHIFT(deviceaddress, uwNORMemoryDataWidth, NOR_CMD_ADDRESS_SECOND), NOR_CMD_DA
 635              		.loc 1 510 3 is_stmt 1 discriminator 4 view .LVU175
 636 0050 012C     		cmp	r4, #1
 637 0052 15D0     		beq	.L73
 638              		.loc 1 510 3 is_stmt 0 discriminator 2 view .LVU176
 639 0054 00F2AA20 		addw	r0, r0, #682
 640              	.LVL36:
 641              	.L62:
 642              		.loc 1 510 3 discriminator 4 view .LVU177
ARM GAS  C:\Users\yzy\AppData\Local\Temp\ccvAdv2d.s 			page 22


 643 0058 5524     		movs	r4, #85
 644 005a 0480     		strh	r4, [r0]	@ movhi
 511:Libraries/STM32F4xx_HAL_Driver/Src/stm32f4xx_hal_nor.c ****   NOR_WRITE(NOR_ADDR_SHIFT(deviceaddress, uwNORMemoryDataWidth, NOR_CMD_ADDRESS_THIRD), NOR_CMD_DAT
 645              		.loc 1 511 3 is_stmt 1 discriminator 4 view .LVU178
 646 005c F020     		movs	r0, #240
 647 005e 3080     		strh	r0, [r6]	@ movhi
 512:Libraries/STM32F4xx_HAL_Driver/Src/stm32f4xx_hal_nor.c **** 
 513:Libraries/STM32F4xx_HAL_Driver/Src/stm32f4xx_hal_nor.c ****   /* Read the data */
 514:Libraries/STM32F4xx_HAL_Driver/Src/stm32f4xx_hal_nor.c ****   *pData = *(__IO uint32_t *)(uint32_t)pAddress;
 648              		.loc 1 514 3 discriminator 4 view .LVU179
 649              		.loc 1 514 12 is_stmt 0 discriminator 4 view .LVU180
 650 0060 0968     		ldr	r1, [r1]
 651              	.LVL37:
 652              		.loc 1 514 10 discriminator 4 view .LVU181
 653 0062 1180     		strh	r1, [r2]	@ movhi
 515:Libraries/STM32F4xx_HAL_Driver/Src/stm32f4xx_hal_nor.c ****   
 516:Libraries/STM32F4xx_HAL_Driver/Src/stm32f4xx_hal_nor.c ****   /* Check the NOR controller state */
 517:Libraries/STM32F4xx_HAL_Driver/Src/stm32f4xx_hal_nor.c ****   hnor->State = HAL_NOR_STATE_READY;
 654              		.loc 1 517 3 is_stmt 1 discriminator 4 view .LVU182
 655              		.loc 1 517 15 is_stmt 0 discriminator 4 view .LVU183
 656 0064 0122     		movs	r2, #1
 657              	.LVL38:
 658              		.loc 1 517 15 discriminator 4 view .LVU184
 659 0066 83F84920 		strb	r2, [r3, #73]
 518:Libraries/STM32F4xx_HAL_Driver/Src/stm32f4xx_hal_nor.c ****   
 519:Libraries/STM32F4xx_HAL_Driver/Src/stm32f4xx_hal_nor.c ****   /* Process unlocked */
 520:Libraries/STM32F4xx_HAL_Driver/Src/stm32f4xx_hal_nor.c ****   __HAL_UNLOCK(hnor);
 660              		.loc 1 520 3 is_stmt 1 discriminator 4 view .LVU185
 661              		.loc 1 520 3 discriminator 4 view .LVU186
 662 006a 0020     		movs	r0, #0
 663 006c 83F84800 		strb	r0, [r3, #72]
 664              		.loc 1 520 3 discriminator 4 view .LVU187
 521:Libraries/STM32F4xx_HAL_Driver/Src/stm32f4xx_hal_nor.c ****   
 522:Libraries/STM32F4xx_HAL_Driver/Src/stm32f4xx_hal_nor.c ****   return HAL_OK;  
 665              		.loc 1 522 3 discriminator 4 view .LVU188
 523:Libraries/STM32F4xx_HAL_Driver/Src/stm32f4xx_hal_nor.c **** }
 666              		.loc 1 523 1 is_stmt 0 discriminator 4 view .LVU189
 667 0070 F0BC     		pop	{r4, r5, r6, r7}
 668              	.LCFI8:
 669              		.cfi_remember_state
 670              		.cfi_restore 7
 671              		.cfi_restore 6
 672              		.cfi_restore 5
 673              		.cfi_restore 4
 674              		.cfi_def_cfa_offset 0
 675 0072 7047     		bx	lr
 676              	.LVL39:
 677              	.L65:
 678              	.LCFI9:
 679              		.cfi_restore_state
 494:Libraries/STM32F4xx_HAL_Driver/Src/stm32f4xx_hal_nor.c ****   }
 680              		.loc 1 494 19 view .LVU190
 681 0074 4FF0C840 		mov	r0, #1677721600
 682 0078 DEE7     		b	.L58
 683              	.LVL40:
 684              	.L72:
 509:Libraries/STM32F4xx_HAL_Driver/Src/stm32f4xx_hal_nor.c ****   NOR_WRITE(NOR_ADDR_SHIFT(deviceaddress, uwNORMemoryDataWidth, NOR_CMD_ADDRESS_SECOND), NOR_CMD_DA
ARM GAS  C:\Users\yzy\AppData\Local\Temp\ccvAdv2d.s 			page 23


 685              		.loc 1 509 3 discriminator 1 view .LVU191
 686 007a 00F6AA25 		addw	r5, r0, #2730
 687 007e E4E7     		b	.L60
 688              	.L73:
 510:Libraries/STM32F4xx_HAL_Driver/Src/stm32f4xx_hal_nor.c ****   NOR_WRITE(NOR_ADDR_SHIFT(deviceaddress, uwNORMemoryDataWidth, NOR_CMD_ADDRESS_THIRD), NOR_CMD_DAT
 689              		.loc 1 510 3 discriminator 1 view .LVU192
 690 0080 00F25450 		addw	r0, r0, #1364
 691              	.LVL41:
 510:Libraries/STM32F4xx_HAL_Driver/Src/stm32f4xx_hal_nor.c ****   NOR_WRITE(NOR_ADDR_SHIFT(deviceaddress, uwNORMemoryDataWidth, NOR_CMD_ADDRESS_THIRD), NOR_CMD_DAT
 692              		.loc 1 510 3 discriminator 1 view .LVU193
 693 0084 E8E7     		b	.L62
 694              	.LVL42:
 695              	.L63:
 696              	.LCFI10:
 697              		.cfi_def_cfa_offset 0
 698              		.cfi_restore 4
 699              		.cfi_restore 5
 700              		.cfi_restore 6
 701              		.cfi_restore 7
 479:Libraries/STM32F4xx_HAL_Driver/Src/stm32f4xx_hal_nor.c ****   
 702              		.loc 1 479 3 view .LVU194
 703 0086 0220     		movs	r0, #2
 704 0088 7047     		bx	lr
 705              	.L68:
 706              		.loc 1 523 1 view .LVU195
 707 008a 7047     		bx	lr
 708              	.L75:
 709              		.align	2
 710              	.L74:
 711 008c 00000000 		.word	.LANCHOR0
 712              		.cfi_endproc
 713              	.LFE137:
 715              		.section	.text.HAL_NOR_Program,"ax",%progbits
 716              		.align	1
 717              		.global	HAL_NOR_Program
 718              		.syntax unified
 719              		.thumb
 720              		.thumb_func
 721              		.fpu softvfp
 723              	HAL_NOR_Program:
 724              	.LVL43:
 725              	.LFB138:
 524:Libraries/STM32F4xx_HAL_Driver/Src/stm32f4xx_hal_nor.c **** 
 525:Libraries/STM32F4xx_HAL_Driver/Src/stm32f4xx_hal_nor.c **** /**
 526:Libraries/STM32F4xx_HAL_Driver/Src/stm32f4xx_hal_nor.c ****   * @brief  Program data to NOR memory 
 527:Libraries/STM32F4xx_HAL_Driver/Src/stm32f4xx_hal_nor.c ****   * @param  hnor pointer to a NOR_HandleTypeDef structure that contains
 528:Libraries/STM32F4xx_HAL_Driver/Src/stm32f4xx_hal_nor.c ****   *                the configuration information for NOR module.
 529:Libraries/STM32F4xx_HAL_Driver/Src/stm32f4xx_hal_nor.c ****   * @param  pAddress Device address
 530:Libraries/STM32F4xx_HAL_Driver/Src/stm32f4xx_hal_nor.c ****   * @param  pData  pointer to the data to write   
 531:Libraries/STM32F4xx_HAL_Driver/Src/stm32f4xx_hal_nor.c ****   * @retval HAL status
 532:Libraries/STM32F4xx_HAL_Driver/Src/stm32f4xx_hal_nor.c ****   */
 533:Libraries/STM32F4xx_HAL_Driver/Src/stm32f4xx_hal_nor.c **** HAL_StatusTypeDef HAL_NOR_Program(NOR_HandleTypeDef *hnor, uint32_t *pAddress, uint16_t *pData)
 534:Libraries/STM32F4xx_HAL_Driver/Src/stm32f4xx_hal_nor.c **** {
 726              		.loc 1 534 1 is_stmt 1 view -0
 727              		.cfi_startproc
 728              		@ args = 0, pretend = 0, frame = 0
 729              		@ frame_needed = 0, uses_anonymous_args = 0
ARM GAS  C:\Users\yzy\AppData\Local\Temp\ccvAdv2d.s 			page 24


 730              		@ link register save eliminated.
 731              		.loc 1 534 1 is_stmt 0 view .LVU197
 732 0000 0346     		mov	r3, r0
 535:Libraries/STM32F4xx_HAL_Driver/Src/stm32f4xx_hal_nor.c ****   uint32_t deviceaddress = 0U;
 733              		.loc 1 535 3 is_stmt 1 view .LVU198
 734              	.LVL44:
 536:Libraries/STM32F4xx_HAL_Driver/Src/stm32f4xx_hal_nor.c ****   
 537:Libraries/STM32F4xx_HAL_Driver/Src/stm32f4xx_hal_nor.c ****   /* Process Locked */
 538:Libraries/STM32F4xx_HAL_Driver/Src/stm32f4xx_hal_nor.c ****   __HAL_LOCK(hnor);
 735              		.loc 1 538 3 view .LVU199
 736              		.loc 1 538 3 view .LVU200
 737 0002 90F84800 		ldrb	r0, [r0, #72]	@ zero_extendqisi2
 738              	.LVL45:
 739              		.loc 1 538 3 is_stmt 0 view .LVU201
 740 0006 0128     		cmp	r0, #1
 741 0008 3DD0     		beq	.L83
 742              		.loc 1 538 3 is_stmt 1 discriminator 2 view .LVU202
 743 000a 0120     		movs	r0, #1
 744 000c 83F84800 		strb	r0, [r3, #72]
 745              		.loc 1 538 3 discriminator 2 view .LVU203
 539:Libraries/STM32F4xx_HAL_Driver/Src/stm32f4xx_hal_nor.c ****   
 540:Libraries/STM32F4xx_HAL_Driver/Src/stm32f4xx_hal_nor.c ****   /* Check the NOR controller state */
 541:Libraries/STM32F4xx_HAL_Driver/Src/stm32f4xx_hal_nor.c ****   if(hnor->State == HAL_NOR_STATE_BUSY)
 746              		.loc 1 541 3 discriminator 2 view .LVU204
 747              		.loc 1 541 10 is_stmt 0 discriminator 2 view .LVU205
 748 0010 93F84900 		ldrb	r0, [r3, #73]	@ zero_extendqisi2
 749 0014 C0B2     		uxtb	r0, r0
 750              		.loc 1 541 5 discriminator 2 view .LVU206
 751 0016 0228     		cmp	r0, #2
 752 0018 37D0     		beq	.L88
 534:Libraries/STM32F4xx_HAL_Driver/Src/stm32f4xx_hal_nor.c ****   uint32_t deviceaddress = 0U;
 753              		.loc 1 534 1 view .LVU207
 754 001a F0B4     		push	{r4, r5, r6, r7}
 755              	.LCFI11:
 756              		.cfi_def_cfa_offset 16
 757              		.cfi_offset 4, -16
 758              		.cfi_offset 5, -12
 759              		.cfi_offset 6, -8
 760              		.cfi_offset 7, -4
 542:Libraries/STM32F4xx_HAL_Driver/Src/stm32f4xx_hal_nor.c ****   {
 543:Libraries/STM32F4xx_HAL_Driver/Src/stm32f4xx_hal_nor.c ****      return HAL_BUSY;
 544:Libraries/STM32F4xx_HAL_Driver/Src/stm32f4xx_hal_nor.c ****   }
 545:Libraries/STM32F4xx_HAL_Driver/Src/stm32f4xx_hal_nor.c ****   
 546:Libraries/STM32F4xx_HAL_Driver/Src/stm32f4xx_hal_nor.c ****   /* Select the NOR device address */
 547:Libraries/STM32F4xx_HAL_Driver/Src/stm32f4xx_hal_nor.c ****   if (hnor->Init.NSBank == FMC_NORSRAM_BANK1)
 761              		.loc 1 547 3 is_stmt 1 view .LVU208
 762              		.loc 1 547 17 is_stmt 0 view .LVU209
 763 001c 9868     		ldr	r0, [r3, #8]
 764              		.loc 1 547 6 view .LVU210
 765 001e 48B1     		cbz	r0, .L84
 548:Libraries/STM32F4xx_HAL_Driver/Src/stm32f4xx_hal_nor.c ****   {
 549:Libraries/STM32F4xx_HAL_Driver/Src/stm32f4xx_hal_nor.c ****     deviceaddress = NOR_MEMORY_ADRESS1;
 550:Libraries/STM32F4xx_HAL_Driver/Src/stm32f4xx_hal_nor.c ****   }
 551:Libraries/STM32F4xx_HAL_Driver/Src/stm32f4xx_hal_nor.c ****   else if (hnor->Init.NSBank == FMC_NORSRAM_BANK2)
 766              		.loc 1 551 8 is_stmt 1 view .LVU211
 767              		.loc 1 551 11 is_stmt 0 view .LVU212
 768 0020 0228     		cmp	r0, #2
ARM GAS  C:\Users\yzy\AppData\Local\Temp\ccvAdv2d.s 			page 25


 769 0022 27D0     		beq	.L85
 552:Libraries/STM32F4xx_HAL_Driver/Src/stm32f4xx_hal_nor.c ****   {
 553:Libraries/STM32F4xx_HAL_Driver/Src/stm32f4xx_hal_nor.c ****     deviceaddress = NOR_MEMORY_ADRESS2;
 554:Libraries/STM32F4xx_HAL_Driver/Src/stm32f4xx_hal_nor.c ****   }
 555:Libraries/STM32F4xx_HAL_Driver/Src/stm32f4xx_hal_nor.c ****   else if (hnor->Init.NSBank == FMC_NORSRAM_BANK3)
 770              		.loc 1 555 8 is_stmt 1 view .LVU213
 771              		.loc 1 555 11 is_stmt 0 view .LVU214
 772 0024 0428     		cmp	r0, #4
 773 0026 02D0     		beq	.L91
 556:Libraries/STM32F4xx_HAL_Driver/Src/stm32f4xx_hal_nor.c ****   {
 557:Libraries/STM32F4xx_HAL_Driver/Src/stm32f4xx_hal_nor.c ****     deviceaddress = NOR_MEMORY_ADRESS3;
 558:Libraries/STM32F4xx_HAL_Driver/Src/stm32f4xx_hal_nor.c ****   }
 559:Libraries/STM32F4xx_HAL_Driver/Src/stm32f4xx_hal_nor.c ****   else /* FMC_NORSRAM_BANK4 */
 560:Libraries/STM32F4xx_HAL_Driver/Src/stm32f4xx_hal_nor.c ****   {
 561:Libraries/STM32F4xx_HAL_Driver/Src/stm32f4xx_hal_nor.c ****     deviceaddress = NOR_MEMORY_ADRESS4;
 774              		.loc 1 561 19 view .LVU215
 775 0028 4FF0D840 		mov	r0, #1811939328
 776 002c 04E0     		b	.L78
 777              	.L91:
 557:Libraries/STM32F4xx_HAL_Driver/Src/stm32f4xx_hal_nor.c ****   }
 778              		.loc 1 557 19 view .LVU216
 779 002e 4FF0D040 		mov	r0, #1744830464
 780 0032 01E0     		b	.L78
 781              	.L84:
 549:Libraries/STM32F4xx_HAL_Driver/Src/stm32f4xx_hal_nor.c ****   }
 782              		.loc 1 549 19 view .LVU217
 783 0034 4FF0C040 		mov	r0, #1610612736
 784              	.L78:
 785              	.LVL46:
 562:Libraries/STM32F4xx_HAL_Driver/Src/stm32f4xx_hal_nor.c ****   } 
 563:Libraries/STM32F4xx_HAL_Driver/Src/stm32f4xx_hal_nor.c ****     
 564:Libraries/STM32F4xx_HAL_Driver/Src/stm32f4xx_hal_nor.c ****   /* Update the NOR controller state */
 565:Libraries/STM32F4xx_HAL_Driver/Src/stm32f4xx_hal_nor.c ****   hnor->State = HAL_NOR_STATE_BUSY;
 786              		.loc 1 565 3 is_stmt 1 view .LVU218
 787              		.loc 1 565 15 is_stmt 0 view .LVU219
 788 0038 0224     		movs	r4, #2
 789 003a 83F84940 		strb	r4, [r3, #73]
 566:Libraries/STM32F4xx_HAL_Driver/Src/stm32f4xx_hal_nor.c ****   
 567:Libraries/STM32F4xx_HAL_Driver/Src/stm32f4xx_hal_nor.c ****   /* Send program data command */
 568:Libraries/STM32F4xx_HAL_Driver/Src/stm32f4xx_hal_nor.c ****   NOR_WRITE(NOR_ADDR_SHIFT(deviceaddress, uwNORMemoryDataWidth, NOR_CMD_ADDRESS_FIRST), NOR_CMD_DAT
 790              		.loc 1 568 3 is_stmt 1 view .LVU220
 791 003e 134C     		ldr	r4, .L94
 792 0040 2468     		ldr	r4, [r4]
 793 0042 012C     		cmp	r4, #1
 794 0044 19D0     		beq	.L92
 795              		.loc 1 568 3 is_stmt 0 discriminator 2 view .LVU221
 796 0046 00F25555 		addw	r5, r0, #1365
 797              	.L80:
 798              		.loc 1 568 3 discriminator 4 view .LVU222
 799 004a 2E46     		mov	r6, r5
 800 004c AA27     		movs	r7, #170
 801 004e 2F80     		strh	r7, [r5]	@ movhi
 569:Libraries/STM32F4xx_HAL_Driver/Src/stm32f4xx_hal_nor.c ****   NOR_WRITE(NOR_ADDR_SHIFT(deviceaddress, uwNORMemoryDataWidth, NOR_CMD_ADDRESS_SECOND), NOR_CMD_DA
 802              		.loc 1 569 3 is_stmt 1 discriminator 4 view .LVU223
 803 0050 012C     		cmp	r4, #1
 804 0052 15D0     		beq	.L93
 805              		.loc 1 569 3 is_stmt 0 discriminator 2 view .LVU224
ARM GAS  C:\Users\yzy\AppData\Local\Temp\ccvAdv2d.s 			page 26


 806 0054 00F2AA20 		addw	r0, r0, #682
 807              	.LVL47:
 808              	.L82:
 809              		.loc 1 569 3 discriminator 4 view .LVU225
 810 0058 5524     		movs	r4, #85
 811 005a 0480     		strh	r4, [r0]	@ movhi
 570:Libraries/STM32F4xx_HAL_Driver/Src/stm32f4xx_hal_nor.c ****   NOR_WRITE(NOR_ADDR_SHIFT(deviceaddress, uwNORMemoryDataWidth, NOR_CMD_ADDRESS_THIRD), NOR_CMD_DAT
 812              		.loc 1 570 3 is_stmt 1 discriminator 4 view .LVU226
 813 005c A020     		movs	r0, #160
 814 005e 3080     		strh	r0, [r6]	@ movhi
 571:Libraries/STM32F4xx_HAL_Driver/Src/stm32f4xx_hal_nor.c **** 
 572:Libraries/STM32F4xx_HAL_Driver/Src/stm32f4xx_hal_nor.c ****   /* Write the data */
 573:Libraries/STM32F4xx_HAL_Driver/Src/stm32f4xx_hal_nor.c ****   NOR_WRITE(pAddress, *pData);
 815              		.loc 1 573 3 discriminator 4 view .LVU227
 816 0060 1288     		ldrh	r2, [r2]
 817              	.LVL48:
 818              		.loc 1 573 3 is_stmt 0 discriminator 4 view .LVU228
 819 0062 0A80     		strh	r2, [r1]	@ movhi
 574:Libraries/STM32F4xx_HAL_Driver/Src/stm32f4xx_hal_nor.c ****   
 575:Libraries/STM32F4xx_HAL_Driver/Src/stm32f4xx_hal_nor.c ****   /* Check the NOR controller state */
 576:Libraries/STM32F4xx_HAL_Driver/Src/stm32f4xx_hal_nor.c ****   hnor->State = HAL_NOR_STATE_READY;
 820              		.loc 1 576 3 is_stmt 1 discriminator 4 view .LVU229
 821              		.loc 1 576 15 is_stmt 0 discriminator 4 view .LVU230
 822 0064 0122     		movs	r2, #1
 823 0066 83F84920 		strb	r2, [r3, #73]
 577:Libraries/STM32F4xx_HAL_Driver/Src/stm32f4xx_hal_nor.c ****   
 578:Libraries/STM32F4xx_HAL_Driver/Src/stm32f4xx_hal_nor.c ****   /* Process unlocked */
 579:Libraries/STM32F4xx_HAL_Driver/Src/stm32f4xx_hal_nor.c ****   __HAL_UNLOCK(hnor);
 824              		.loc 1 579 3 is_stmt 1 discriminator 4 view .LVU231
 825              		.loc 1 579 3 discriminator 4 view .LVU232
 826 006a 0020     		movs	r0, #0
 827 006c 83F84800 		strb	r0, [r3, #72]
 828              		.loc 1 579 3 discriminator 4 view .LVU233
 580:Libraries/STM32F4xx_HAL_Driver/Src/stm32f4xx_hal_nor.c ****   
 581:Libraries/STM32F4xx_HAL_Driver/Src/stm32f4xx_hal_nor.c ****   return HAL_OK;  
 829              		.loc 1 581 3 discriminator 4 view .LVU234
 582:Libraries/STM32F4xx_HAL_Driver/Src/stm32f4xx_hal_nor.c **** }
 830              		.loc 1 582 1 is_stmt 0 discriminator 4 view .LVU235
 831 0070 F0BC     		pop	{r4, r5, r6, r7}
 832              	.LCFI12:
 833              		.cfi_remember_state
 834              		.cfi_restore 7
 835              		.cfi_restore 6
 836              		.cfi_restore 5
 837              		.cfi_restore 4
 838              		.cfi_def_cfa_offset 0
 839 0072 7047     		bx	lr
 840              	.LVL49:
 841              	.L85:
 842              	.LCFI13:
 843              		.cfi_restore_state
 553:Libraries/STM32F4xx_HAL_Driver/Src/stm32f4xx_hal_nor.c ****   }
 844              		.loc 1 553 19 view .LVU236
 845 0074 4FF0C840 		mov	r0, #1677721600
 846 0078 DEE7     		b	.L78
 847              	.LVL50:
 848              	.L92:
ARM GAS  C:\Users\yzy\AppData\Local\Temp\ccvAdv2d.s 			page 27


 568:Libraries/STM32F4xx_HAL_Driver/Src/stm32f4xx_hal_nor.c ****   NOR_WRITE(NOR_ADDR_SHIFT(deviceaddress, uwNORMemoryDataWidth, NOR_CMD_ADDRESS_SECOND), NOR_CMD_DA
 849              		.loc 1 568 3 discriminator 1 view .LVU237
 850 007a 00F6AA25 		addw	r5, r0, #2730
 851 007e E4E7     		b	.L80
 852              	.L93:
 569:Libraries/STM32F4xx_HAL_Driver/Src/stm32f4xx_hal_nor.c ****   NOR_WRITE(NOR_ADDR_SHIFT(deviceaddress, uwNORMemoryDataWidth, NOR_CMD_ADDRESS_THIRD), NOR_CMD_DAT
 853              		.loc 1 569 3 discriminator 1 view .LVU238
 854 0080 00F25450 		addw	r0, r0, #1364
 855              	.LVL51:
 569:Libraries/STM32F4xx_HAL_Driver/Src/stm32f4xx_hal_nor.c ****   NOR_WRITE(NOR_ADDR_SHIFT(deviceaddress, uwNORMemoryDataWidth, NOR_CMD_ADDRESS_THIRD), NOR_CMD_DAT
 856              		.loc 1 569 3 discriminator 1 view .LVU239
 857 0084 E8E7     		b	.L82
 858              	.LVL52:
 859              	.L83:
 860              	.LCFI14:
 861              		.cfi_def_cfa_offset 0
 862              		.cfi_restore 4
 863              		.cfi_restore 5
 864              		.cfi_restore 6
 865              		.cfi_restore 7
 538:Libraries/STM32F4xx_HAL_Driver/Src/stm32f4xx_hal_nor.c ****   
 866              		.loc 1 538 3 view .LVU240
 867 0086 0220     		movs	r0, #2
 868 0088 7047     		bx	lr
 869              	.L88:
 870              		.loc 1 582 1 view .LVU241
 871 008a 7047     		bx	lr
 872              	.L95:
 873              		.align	2
 874              	.L94:
 875 008c 00000000 		.word	.LANCHOR0
 876              		.cfi_endproc
 877              	.LFE138:
 879              		.section	.text.HAL_NOR_ReadBuffer,"ax",%progbits
 880              		.align	1
 881              		.global	HAL_NOR_ReadBuffer
 882              		.syntax unified
 883              		.thumb
 884              		.thumb_func
 885              		.fpu softvfp
 887              	HAL_NOR_ReadBuffer:
 888              	.LVL53:
 889              	.LFB139:
 583:Libraries/STM32F4xx_HAL_Driver/Src/stm32f4xx_hal_nor.c **** 
 584:Libraries/STM32F4xx_HAL_Driver/Src/stm32f4xx_hal_nor.c **** /**
 585:Libraries/STM32F4xx_HAL_Driver/Src/stm32f4xx_hal_nor.c ****   * @brief  Reads a half-word buffer from the NOR memory.
 586:Libraries/STM32F4xx_HAL_Driver/Src/stm32f4xx_hal_nor.c ****   * @param  hnor pointer to the NOR handle
 587:Libraries/STM32F4xx_HAL_Driver/Src/stm32f4xx_hal_nor.c ****   * @param  uwAddress NOR memory internal address to read from.
 588:Libraries/STM32F4xx_HAL_Driver/Src/stm32f4xx_hal_nor.c ****   * @param  pData pointer to the buffer that receives the data read from the 
 589:Libraries/STM32F4xx_HAL_Driver/Src/stm32f4xx_hal_nor.c ****   *         NOR memory.
 590:Libraries/STM32F4xx_HAL_Driver/Src/stm32f4xx_hal_nor.c ****   * @param  uwBufferSize  number of Half word to read.
 591:Libraries/STM32F4xx_HAL_Driver/Src/stm32f4xx_hal_nor.c ****   * @retval HAL status
 592:Libraries/STM32F4xx_HAL_Driver/Src/stm32f4xx_hal_nor.c ****   */
 593:Libraries/STM32F4xx_HAL_Driver/Src/stm32f4xx_hal_nor.c **** HAL_StatusTypeDef HAL_NOR_ReadBuffer(NOR_HandleTypeDef *hnor, uint32_t uwAddress, uint16_t *pData, 
 594:Libraries/STM32F4xx_HAL_Driver/Src/stm32f4xx_hal_nor.c **** {
 890              		.loc 1 594 1 is_stmt 1 view -0
 891              		.cfi_startproc
ARM GAS  C:\Users\yzy\AppData\Local\Temp\ccvAdv2d.s 			page 28


 892              		@ args = 0, pretend = 0, frame = 0
 893              		@ frame_needed = 0, uses_anonymous_args = 0
 894              		@ link register save eliminated.
 895              		.loc 1 594 1 is_stmt 0 view .LVU243
 896 0000 F0B4     		push	{r4, r5, r6, r7}
 897              	.LCFI15:
 898              		.cfi_def_cfa_offset 16
 899              		.cfi_offset 4, -16
 900              		.cfi_offset 5, -12
 901              		.cfi_offset 6, -8
 902              		.cfi_offset 7, -4
 903 0002 0546     		mov	r5, r0
 595:Libraries/STM32F4xx_HAL_Driver/Src/stm32f4xx_hal_nor.c ****   uint32_t deviceaddress = 0U;
 904              		.loc 1 595 3 is_stmt 1 view .LVU244
 905              	.LVL54:
 596:Libraries/STM32F4xx_HAL_Driver/Src/stm32f4xx_hal_nor.c ****   
 597:Libraries/STM32F4xx_HAL_Driver/Src/stm32f4xx_hal_nor.c ****   /* Process Locked */
 598:Libraries/STM32F4xx_HAL_Driver/Src/stm32f4xx_hal_nor.c ****   __HAL_LOCK(hnor);
 906              		.loc 1 598 3 view .LVU245
 907              		.loc 1 598 3 view .LVU246
 908 0004 90F84800 		ldrb	r0, [r0, #72]	@ zero_extendqisi2
 909              	.LVL55:
 910              		.loc 1 598 3 is_stmt 0 view .LVU247
 911 0008 0128     		cmp	r0, #1
 912 000a 44D0     		beq	.L105
 913              		.loc 1 598 3 is_stmt 1 discriminator 2 view .LVU248
 914 000c 0120     		movs	r0, #1
 915 000e 85F84800 		strb	r0, [r5, #72]
 916              		.loc 1 598 3 discriminator 2 view .LVU249
 599:Libraries/STM32F4xx_HAL_Driver/Src/stm32f4xx_hal_nor.c ****   
 600:Libraries/STM32F4xx_HAL_Driver/Src/stm32f4xx_hal_nor.c ****   /* Check the NOR controller state */
 601:Libraries/STM32F4xx_HAL_Driver/Src/stm32f4xx_hal_nor.c ****   if(hnor->State == HAL_NOR_STATE_BUSY)
 917              		.loc 1 601 3 discriminator 2 view .LVU250
 918              		.loc 1 601 10 is_stmt 0 discriminator 2 view .LVU251
 919 0012 95F84900 		ldrb	r0, [r5, #73]	@ zero_extendqisi2
 920 0016 C0B2     		uxtb	r0, r0
 921              		.loc 1 601 5 discriminator 2 view .LVU252
 922 0018 0228     		cmp	r0, #2
 923 001a 3AD0     		beq	.L97
 602:Libraries/STM32F4xx_HAL_Driver/Src/stm32f4xx_hal_nor.c ****   {
 603:Libraries/STM32F4xx_HAL_Driver/Src/stm32f4xx_hal_nor.c ****      return HAL_BUSY;
 604:Libraries/STM32F4xx_HAL_Driver/Src/stm32f4xx_hal_nor.c ****   }
 605:Libraries/STM32F4xx_HAL_Driver/Src/stm32f4xx_hal_nor.c ****   
 606:Libraries/STM32F4xx_HAL_Driver/Src/stm32f4xx_hal_nor.c ****   /* Select the NOR device address */
 607:Libraries/STM32F4xx_HAL_Driver/Src/stm32f4xx_hal_nor.c ****   if (hnor->Init.NSBank == FMC_NORSRAM_BANK1)
 924              		.loc 1 607 3 is_stmt 1 view .LVU253
 925              		.loc 1 607 17 is_stmt 0 view .LVU254
 926 001c A868     		ldr	r0, [r5, #8]
 927              		.loc 1 607 6 view .LVU255
 928 001e 48B1     		cbz	r0, .L106
 608:Libraries/STM32F4xx_HAL_Driver/Src/stm32f4xx_hal_nor.c ****   {
 609:Libraries/STM32F4xx_HAL_Driver/Src/stm32f4xx_hal_nor.c ****     deviceaddress = NOR_MEMORY_ADRESS1;
 610:Libraries/STM32F4xx_HAL_Driver/Src/stm32f4xx_hal_nor.c ****   }
 611:Libraries/STM32F4xx_HAL_Driver/Src/stm32f4xx_hal_nor.c ****   else if (hnor->Init.NSBank == FMC_NORSRAM_BANK2)
 929              		.loc 1 611 8 is_stmt 1 view .LVU256
 930              		.loc 1 611 11 is_stmt 0 view .LVU257
 931 0020 0228     		cmp	r0, #2
ARM GAS  C:\Users\yzy\AppData\Local\Temp\ccvAdv2d.s 			page 29


 932 0022 20D0     		beq	.L107
 612:Libraries/STM32F4xx_HAL_Driver/Src/stm32f4xx_hal_nor.c ****   {
 613:Libraries/STM32F4xx_HAL_Driver/Src/stm32f4xx_hal_nor.c ****     deviceaddress = NOR_MEMORY_ADRESS2;
 614:Libraries/STM32F4xx_HAL_Driver/Src/stm32f4xx_hal_nor.c ****   }
 615:Libraries/STM32F4xx_HAL_Driver/Src/stm32f4xx_hal_nor.c ****   else if (hnor->Init.NSBank == FMC_NORSRAM_BANK3)
 933              		.loc 1 615 8 is_stmt 1 view .LVU258
 934              		.loc 1 615 11 is_stmt 0 view .LVU259
 935 0024 0428     		cmp	r0, #4
 936 0026 02D0     		beq	.L110
 616:Libraries/STM32F4xx_HAL_Driver/Src/stm32f4xx_hal_nor.c ****   {
 617:Libraries/STM32F4xx_HAL_Driver/Src/stm32f4xx_hal_nor.c ****     deviceaddress = NOR_MEMORY_ADRESS3;
 618:Libraries/STM32F4xx_HAL_Driver/Src/stm32f4xx_hal_nor.c ****   }
 619:Libraries/STM32F4xx_HAL_Driver/Src/stm32f4xx_hal_nor.c ****   else /* FMC_NORSRAM_BANK4 */
 620:Libraries/STM32F4xx_HAL_Driver/Src/stm32f4xx_hal_nor.c ****   {
 621:Libraries/STM32F4xx_HAL_Driver/Src/stm32f4xx_hal_nor.c ****     deviceaddress = NOR_MEMORY_ADRESS4;
 937              		.loc 1 621 19 view .LVU260
 938 0028 4FF0D840 		mov	r0, #1811939328
 939 002c 04E0     		b	.L98
 940              	.L110:
 617:Libraries/STM32F4xx_HAL_Driver/Src/stm32f4xx_hal_nor.c ****   }
 941              		.loc 1 617 19 view .LVU261
 942 002e 4FF0D040 		mov	r0, #1744830464
 943 0032 01E0     		b	.L98
 944              	.L106:
 609:Libraries/STM32F4xx_HAL_Driver/Src/stm32f4xx_hal_nor.c ****   }
 945              		.loc 1 609 19 view .LVU262
 946 0034 4FF0C040 		mov	r0, #1610612736
 947              	.L98:
 948              	.LVL56:
 622:Libraries/STM32F4xx_HAL_Driver/Src/stm32f4xx_hal_nor.c ****   }  
 623:Libraries/STM32F4xx_HAL_Driver/Src/stm32f4xx_hal_nor.c ****     
 624:Libraries/STM32F4xx_HAL_Driver/Src/stm32f4xx_hal_nor.c ****   /* Update the NOR controller state */
 625:Libraries/STM32F4xx_HAL_Driver/Src/stm32f4xx_hal_nor.c ****   hnor->State = HAL_NOR_STATE_BUSY;
 949              		.loc 1 625 3 is_stmt 1 view .LVU263
 950              		.loc 1 625 15 is_stmt 0 view .LVU264
 951 0038 0224     		movs	r4, #2
 952 003a 85F84940 		strb	r4, [r5, #73]
 626:Libraries/STM32F4xx_HAL_Driver/Src/stm32f4xx_hal_nor.c ****   
 627:Libraries/STM32F4xx_HAL_Driver/Src/stm32f4xx_hal_nor.c ****   /* Send read data command */
 628:Libraries/STM32F4xx_HAL_Driver/Src/stm32f4xx_hal_nor.c ****   NOR_WRITE(NOR_ADDR_SHIFT(deviceaddress, uwNORMemoryDataWidth, NOR_CMD_ADDRESS_FIRST), NOR_CMD_DAT
 953              		.loc 1 628 3 is_stmt 1 view .LVU265
 954 003e 174C     		ldr	r4, .L113
 955 0040 2468     		ldr	r4, [r4]
 956 0042 012C     		cmp	r4, #1
 957 0044 12D0     		beq	.L111
 958              		.loc 1 628 3 is_stmt 0 discriminator 2 view .LVU266
 959 0046 00F25556 		addw	r6, r0, #1365
 960              	.L100:
 961              		.loc 1 628 3 discriminator 4 view .LVU267
 962 004a 3746     		mov	r7, r6
 963 004c 4FF0AA0C 		mov	ip, #170
 964 0050 A6F800C0 		strh	ip, [r6]	@ movhi
 629:Libraries/STM32F4xx_HAL_Driver/Src/stm32f4xx_hal_nor.c ****   NOR_WRITE(NOR_ADDR_SHIFT(deviceaddress, uwNORMemoryDataWidth, NOR_CMD_ADDRESS_SECOND), NOR_CMD_DA
 965              		.loc 1 629 3 is_stmt 1 discriminator 4 view .LVU268
 966 0054 012C     		cmp	r4, #1
 967 0056 0CD0     		beq	.L112
 968              		.loc 1 629 3 is_stmt 0 discriminator 2 view .LVU269
ARM GAS  C:\Users\yzy\AppData\Local\Temp\ccvAdv2d.s 			page 30


 969 0058 00F2AA20 		addw	r0, r0, #682
 970              	.LVL57:
 971              	.L102:
 972              		.loc 1 629 3 discriminator 4 view .LVU270
 973 005c 5524     		movs	r4, #85
 974 005e 0480     		strh	r4, [r0]	@ movhi
 630:Libraries/STM32F4xx_HAL_Driver/Src/stm32f4xx_hal_nor.c ****   NOR_WRITE(NOR_ADDR_SHIFT(deviceaddress, uwNORMemoryDataWidth, NOR_CMD_ADDRESS_THIRD), NOR_CMD_DAT
 975              		.loc 1 630 3 is_stmt 1 discriminator 4 view .LVU271
 976 0060 F020     		movs	r0, #240
 977 0062 3880     		strh	r0, [r7]	@ movhi
 631:Libraries/STM32F4xx_HAL_Driver/Src/stm32f4xx_hal_nor.c ****   
 632:Libraries/STM32F4xx_HAL_Driver/Src/stm32f4xx_hal_nor.c ****   /* Read buffer */
 633:Libraries/STM32F4xx_HAL_Driver/Src/stm32f4xx_hal_nor.c ****   while( uwBufferSize > 0U) 
 978              		.loc 1 633 3 discriminator 4 view .LVU272
 979              		.loc 1 633 8 is_stmt 0 discriminator 4 view .LVU273
 980 0064 0DE0     		b	.L103
 981              	.LVL58:
 982              	.L107:
 613:Libraries/STM32F4xx_HAL_Driver/Src/stm32f4xx_hal_nor.c ****   }
 983              		.loc 1 613 19 view .LVU274
 984 0066 4FF0C840 		mov	r0, #1677721600
 985 006a E5E7     		b	.L98
 986              	.LVL59:
 987              	.L111:
 628:Libraries/STM32F4xx_HAL_Driver/Src/stm32f4xx_hal_nor.c ****   NOR_WRITE(NOR_ADDR_SHIFT(deviceaddress, uwNORMemoryDataWidth, NOR_CMD_ADDRESS_SECOND), NOR_CMD_DA
 988              		.loc 1 628 3 discriminator 1 view .LVU275
 989 006c 00F6AA26 		addw	r6, r0, #2730
 990 0070 EBE7     		b	.L100
 991              	.L112:
 629:Libraries/STM32F4xx_HAL_Driver/Src/stm32f4xx_hal_nor.c ****   NOR_WRITE(NOR_ADDR_SHIFT(deviceaddress, uwNORMemoryDataWidth, NOR_CMD_ADDRESS_THIRD), NOR_CMD_DAT
 992              		.loc 1 629 3 discriminator 1 view .LVU276
 993 0072 00F25450 		addw	r0, r0, #1364
 994              	.LVL60:
 629:Libraries/STM32F4xx_HAL_Driver/Src/stm32f4xx_hal_nor.c ****   NOR_WRITE(NOR_ADDR_SHIFT(deviceaddress, uwNORMemoryDataWidth, NOR_CMD_ADDRESS_THIRD), NOR_CMD_DAT
 995              		.loc 1 629 3 discriminator 1 view .LVU277
 996 0076 F1E7     		b	.L102
 997              	.LVL61:
 998              	.L104:
 634:Libraries/STM32F4xx_HAL_Driver/Src/stm32f4xx_hal_nor.c ****   {
 635:Libraries/STM32F4xx_HAL_Driver/Src/stm32f4xx_hal_nor.c ****     *pData++ = *(__IO uint16_t *)uwAddress;
 999              		.loc 1 635 5 is_stmt 1 view .LVU278
 1000              		.loc 1 635 16 is_stmt 0 view .LVU279
 1001 0078 31F8024B 		ldrh	r4, [r1], #2
 1002              	.LVL62:
 1003              		.loc 1 635 14 view .LVU280
 1004 007c 22F8024B 		strh	r4, [r2], #2	@ movhi
 1005              	.LVL63:
 636:Libraries/STM32F4xx_HAL_Driver/Src/stm32f4xx_hal_nor.c ****     uwAddress += 2U;
 1006              		.loc 1 636 5 is_stmt 1 view .LVU281
 637:Libraries/STM32F4xx_HAL_Driver/Src/stm32f4xx_hal_nor.c ****     uwBufferSize--;
 1007              		.loc 1 637 5 view .LVU282
 1008              		.loc 1 637 17 is_stmt 0 view .LVU283
 1009 0080 013B     		subs	r3, r3, #1
 1010              	.LVL64:
 1011              	.L103:
 633:Libraries/STM32F4xx_HAL_Driver/Src/stm32f4xx_hal_nor.c ****   {
 1012              		.loc 1 633 8 is_stmt 1 view .LVU284
ARM GAS  C:\Users\yzy\AppData\Local\Temp\ccvAdv2d.s 			page 31


 1013 0082 002B     		cmp	r3, #0
 1014 0084 F8D1     		bne	.L104
 638:Libraries/STM32F4xx_HAL_Driver/Src/stm32f4xx_hal_nor.c ****   } 
 639:Libraries/STM32F4xx_HAL_Driver/Src/stm32f4xx_hal_nor.c ****   
 640:Libraries/STM32F4xx_HAL_Driver/Src/stm32f4xx_hal_nor.c ****   /* Check the NOR controller state */
 641:Libraries/STM32F4xx_HAL_Driver/Src/stm32f4xx_hal_nor.c ****   hnor->State = HAL_NOR_STATE_READY;
 1015              		.loc 1 641 3 view .LVU285
 1016              		.loc 1 641 15 is_stmt 0 view .LVU286
 1017 0086 0123     		movs	r3, #1
 1018              	.LVL65:
 1019              		.loc 1 641 15 view .LVU287
 1020 0088 85F84930 		strb	r3, [r5, #73]
 642:Libraries/STM32F4xx_HAL_Driver/Src/stm32f4xx_hal_nor.c ****   
 643:Libraries/STM32F4xx_HAL_Driver/Src/stm32f4xx_hal_nor.c ****   /* Process unlocked */
 644:Libraries/STM32F4xx_HAL_Driver/Src/stm32f4xx_hal_nor.c ****   __HAL_UNLOCK(hnor);
 1021              		.loc 1 644 3 is_stmt 1 view .LVU288
 1022              		.loc 1 644 3 view .LVU289
 1023 008c 0020     		movs	r0, #0
 1024 008e 85F84800 		strb	r0, [r5, #72]
 1025              		.loc 1 644 3 view .LVU290
 645:Libraries/STM32F4xx_HAL_Driver/Src/stm32f4xx_hal_nor.c ****   
 646:Libraries/STM32F4xx_HAL_Driver/Src/stm32f4xx_hal_nor.c ****   return HAL_OK;  
 1026              		.loc 1 646 3 view .LVU291
 1027              	.L97:
 647:Libraries/STM32F4xx_HAL_Driver/Src/stm32f4xx_hal_nor.c **** }
 1028              		.loc 1 647 1 is_stmt 0 view .LVU292
 1029 0092 F0BC     		pop	{r4, r5, r6, r7}
 1030              	.LCFI16:
 1031              		.cfi_remember_state
 1032              		.cfi_restore 7
 1033              		.cfi_restore 6
 1034              		.cfi_restore 5
 1035              		.cfi_restore 4
 1036              		.cfi_def_cfa_offset 0
 1037              	.LVL66:
 1038              		.loc 1 647 1 view .LVU293
 1039 0094 7047     		bx	lr
 1040              	.LVL67:
 1041              	.L105:
 1042              	.LCFI17:
 1043              		.cfi_restore_state
 598:Libraries/STM32F4xx_HAL_Driver/Src/stm32f4xx_hal_nor.c ****   
 1044              		.loc 1 598 3 view .LVU294
 1045 0096 0220     		movs	r0, #2
 1046 0098 FBE7     		b	.L97
 1047              	.L114:
 1048 009a 00BF     		.align	2
 1049              	.L113:
 1050 009c 00000000 		.word	.LANCHOR0
 1051              		.cfi_endproc
 1052              	.LFE139:
 1054              		.section	.text.HAL_NOR_ProgramBuffer,"ax",%progbits
 1055              		.align	1
 1056              		.global	HAL_NOR_ProgramBuffer
 1057              		.syntax unified
 1058              		.thumb
 1059              		.thumb_func
ARM GAS  C:\Users\yzy\AppData\Local\Temp\ccvAdv2d.s 			page 32


 1060              		.fpu softvfp
 1062              	HAL_NOR_ProgramBuffer:
 1063              	.LVL68:
 1064              	.LFB140:
 648:Libraries/STM32F4xx_HAL_Driver/Src/stm32f4xx_hal_nor.c **** 
 649:Libraries/STM32F4xx_HAL_Driver/Src/stm32f4xx_hal_nor.c **** /**
 650:Libraries/STM32F4xx_HAL_Driver/Src/stm32f4xx_hal_nor.c ****   * @brief  Writes a half-word buffer to the NOR memory. This function must be used 
 651:Libraries/STM32F4xx_HAL_Driver/Src/stm32f4xx_hal_nor.c ****             only with S29GL128P NOR memory. 
 652:Libraries/STM32F4xx_HAL_Driver/Src/stm32f4xx_hal_nor.c ****   * @param  hnor pointer to the NOR handle
 653:Libraries/STM32F4xx_HAL_Driver/Src/stm32f4xx_hal_nor.c ****   * @param  uwAddress NOR memory internal start write address 
 654:Libraries/STM32F4xx_HAL_Driver/Src/stm32f4xx_hal_nor.c ****   * @param  pData pointer to source data buffer. 
 655:Libraries/STM32F4xx_HAL_Driver/Src/stm32f4xx_hal_nor.c ****   * @param  uwBufferSize Size of the buffer to write
 656:Libraries/STM32F4xx_HAL_Driver/Src/stm32f4xx_hal_nor.c ****   * @retval HAL status
 657:Libraries/STM32F4xx_HAL_Driver/Src/stm32f4xx_hal_nor.c ****   */ 
 658:Libraries/STM32F4xx_HAL_Driver/Src/stm32f4xx_hal_nor.c **** HAL_StatusTypeDef HAL_NOR_ProgramBuffer(NOR_HandleTypeDef *hnor, uint32_t uwAddress, uint16_t *pDat
 659:Libraries/STM32F4xx_HAL_Driver/Src/stm32f4xx_hal_nor.c **** {
 1065              		.loc 1 659 1 is_stmt 1 view -0
 1066              		.cfi_startproc
 1067              		@ args = 0, pretend = 0, frame = 0
 1068              		@ frame_needed = 0, uses_anonymous_args = 0
 1069              		.loc 1 659 1 is_stmt 0 view .LVU296
 1070 0000 F0B5     		push	{r4, r5, r6, r7, lr}
 1071              	.LCFI18:
 1072              		.cfi_def_cfa_offset 20
 1073              		.cfi_offset 4, -20
 1074              		.cfi_offset 5, -16
 1075              		.cfi_offset 6, -12
 1076              		.cfi_offset 7, -8
 1077              		.cfi_offset 14, -4
 1078 0002 0646     		mov	r6, r0
 660:Libraries/STM32F4xx_HAL_Driver/Src/stm32f4xx_hal_nor.c ****   uint16_t * p_currentaddress = (uint16_t *)NULL;
 1079              		.loc 1 660 3 is_stmt 1 view .LVU297
 1080              	.LVL69:
 661:Libraries/STM32F4xx_HAL_Driver/Src/stm32f4xx_hal_nor.c ****   uint16_t * p_endaddress = (uint16_t *)NULL;
 1081              		.loc 1 661 3 view .LVU298
 662:Libraries/STM32F4xx_HAL_Driver/Src/stm32f4xx_hal_nor.c ****   uint32_t lastloadedaddress = 0U, deviceaddress = 0U;
 1082              		.loc 1 662 3 view .LVU299
 663:Libraries/STM32F4xx_HAL_Driver/Src/stm32f4xx_hal_nor.c ****   
 664:Libraries/STM32F4xx_HAL_Driver/Src/stm32f4xx_hal_nor.c ****   /* Process Locked */
 665:Libraries/STM32F4xx_HAL_Driver/Src/stm32f4xx_hal_nor.c ****   __HAL_LOCK(hnor);
 1083              		.loc 1 665 3 view .LVU300
 1084              		.loc 1 665 3 view .LVU301
 1085 0004 90F84800 		ldrb	r0, [r0, #72]	@ zero_extendqisi2
 1086              	.LVL70:
 1087              		.loc 1 665 3 is_stmt 0 view .LVU302
 1088 0008 0128     		cmp	r0, #1
 1089 000a 55D0     		beq	.L126
 1090              		.loc 1 665 3 is_stmt 1 discriminator 2 view .LVU303
 1091 000c 0120     		movs	r0, #1
 1092 000e 86F84800 		strb	r0, [r6, #72]
 1093              		.loc 1 665 3 discriminator 2 view .LVU304
 666:Libraries/STM32F4xx_HAL_Driver/Src/stm32f4xx_hal_nor.c ****   
 667:Libraries/STM32F4xx_HAL_Driver/Src/stm32f4xx_hal_nor.c ****   /* Check the NOR controller state */
 668:Libraries/STM32F4xx_HAL_Driver/Src/stm32f4xx_hal_nor.c ****   if(hnor->State == HAL_NOR_STATE_BUSY)
 1094              		.loc 1 668 3 discriminator 2 view .LVU305
 1095              		.loc 1 668 10 is_stmt 0 discriminator 2 view .LVU306
 1096 0012 96F84900 		ldrb	r0, [r6, #73]	@ zero_extendqisi2
ARM GAS  C:\Users\yzy\AppData\Local\Temp\ccvAdv2d.s 			page 33


 1097 0016 C0B2     		uxtb	r0, r0
 1098              		.loc 1 668 5 discriminator 2 view .LVU307
 1099 0018 0228     		cmp	r0, #2
 1100 001a 4CD0     		beq	.L116
 669:Libraries/STM32F4xx_HAL_Driver/Src/stm32f4xx_hal_nor.c ****   {
 670:Libraries/STM32F4xx_HAL_Driver/Src/stm32f4xx_hal_nor.c ****      return HAL_BUSY;
 671:Libraries/STM32F4xx_HAL_Driver/Src/stm32f4xx_hal_nor.c ****   }
 672:Libraries/STM32F4xx_HAL_Driver/Src/stm32f4xx_hal_nor.c ****   
 673:Libraries/STM32F4xx_HAL_Driver/Src/stm32f4xx_hal_nor.c ****   /* Select the NOR device address */
 674:Libraries/STM32F4xx_HAL_Driver/Src/stm32f4xx_hal_nor.c ****   if (hnor->Init.NSBank == FMC_NORSRAM_BANK1)
 1101              		.loc 1 674 3 is_stmt 1 view .LVU308
 1102              		.loc 1 674 17 is_stmt 0 view .LVU309
 1103 001c B068     		ldr	r0, [r6, #8]
 1104              		.loc 1 674 6 view .LVU310
 1105 001e 48B1     		cbz	r0, .L127
 675:Libraries/STM32F4xx_HAL_Driver/Src/stm32f4xx_hal_nor.c ****   {
 676:Libraries/STM32F4xx_HAL_Driver/Src/stm32f4xx_hal_nor.c ****     deviceaddress = NOR_MEMORY_ADRESS1;
 677:Libraries/STM32F4xx_HAL_Driver/Src/stm32f4xx_hal_nor.c ****   }
 678:Libraries/STM32F4xx_HAL_Driver/Src/stm32f4xx_hal_nor.c ****   else if (hnor->Init.NSBank == FMC_NORSRAM_BANK2)
 1106              		.loc 1 678 8 is_stmt 1 view .LVU311
 1107              		.loc 1 678 11 is_stmt 0 view .LVU312
 1108 0020 0228     		cmp	r0, #2
 1109 0022 2DD0     		beq	.L128
 679:Libraries/STM32F4xx_HAL_Driver/Src/stm32f4xx_hal_nor.c ****   {
 680:Libraries/STM32F4xx_HAL_Driver/Src/stm32f4xx_hal_nor.c ****     deviceaddress = NOR_MEMORY_ADRESS2;
 681:Libraries/STM32F4xx_HAL_Driver/Src/stm32f4xx_hal_nor.c ****   }
 682:Libraries/STM32F4xx_HAL_Driver/Src/stm32f4xx_hal_nor.c ****   else if (hnor->Init.NSBank == FMC_NORSRAM_BANK3)
 1110              		.loc 1 682 8 is_stmt 1 view .LVU313
 1111              		.loc 1 682 11 is_stmt 0 view .LVU314
 1112 0024 0428     		cmp	r0, #4
 1113 0026 02D0     		beq	.L131
 683:Libraries/STM32F4xx_HAL_Driver/Src/stm32f4xx_hal_nor.c ****   {
 684:Libraries/STM32F4xx_HAL_Driver/Src/stm32f4xx_hal_nor.c ****     deviceaddress = NOR_MEMORY_ADRESS3;
 685:Libraries/STM32F4xx_HAL_Driver/Src/stm32f4xx_hal_nor.c ****   }
 686:Libraries/STM32F4xx_HAL_Driver/Src/stm32f4xx_hal_nor.c ****   else /* FMC_NORSRAM_BANK4 */
 687:Libraries/STM32F4xx_HAL_Driver/Src/stm32f4xx_hal_nor.c ****   {
 688:Libraries/STM32F4xx_HAL_Driver/Src/stm32f4xx_hal_nor.c ****     deviceaddress = NOR_MEMORY_ADRESS4;
 1114              		.loc 1 688 19 view .LVU315
 1115 0028 4FF0D840 		mov	r0, #1811939328
 1116 002c 04E0     		b	.L117
 1117              	.L131:
 684:Libraries/STM32F4xx_HAL_Driver/Src/stm32f4xx_hal_nor.c ****   }
 1118              		.loc 1 684 19 view .LVU316
 1119 002e 4FF0D040 		mov	r0, #1744830464
 1120 0032 01E0     		b	.L117
 1121              	.L127:
 676:Libraries/STM32F4xx_HAL_Driver/Src/stm32f4xx_hal_nor.c ****   }
 1122              		.loc 1 676 19 view .LVU317
 1123 0034 4FF0C040 		mov	r0, #1610612736
 1124              	.L117:
 1125              	.LVL71:
 689:Libraries/STM32F4xx_HAL_Driver/Src/stm32f4xx_hal_nor.c ****   }  
 690:Libraries/STM32F4xx_HAL_Driver/Src/stm32f4xx_hal_nor.c ****     
 691:Libraries/STM32F4xx_HAL_Driver/Src/stm32f4xx_hal_nor.c ****   /* Update the NOR controller state */
 692:Libraries/STM32F4xx_HAL_Driver/Src/stm32f4xx_hal_nor.c ****   hnor->State = HAL_NOR_STATE_BUSY;
 1126              		.loc 1 692 3 is_stmt 1 view .LVU318
 1127              		.loc 1 692 15 is_stmt 0 view .LVU319
ARM GAS  C:\Users\yzy\AppData\Local\Temp\ccvAdv2d.s 			page 34


 1128 0038 0224     		movs	r4, #2
 1129 003a 86F84940 		strb	r4, [r6, #73]
 693:Libraries/STM32F4xx_HAL_Driver/Src/stm32f4xx_hal_nor.c ****   
 694:Libraries/STM32F4xx_HAL_Driver/Src/stm32f4xx_hal_nor.c ****   /* Initialize variables */
 695:Libraries/STM32F4xx_HAL_Driver/Src/stm32f4xx_hal_nor.c ****   p_currentaddress  = (uint16_t*)((uint32_t)(uwAddress));
 1130              		.loc 1 695 3 is_stmt 1 view .LVU320
 1131              		.loc 1 695 21 is_stmt 0 view .LVU321
 1132 003e 0C46     		mov	r4, r1
 1133              	.LVL72:
 696:Libraries/STM32F4xx_HAL_Driver/Src/stm32f4xx_hal_nor.c ****   p_endaddress      = p_currentaddress + (uwBufferSize-1U);
 1134              		.loc 1 696 3 is_stmt 1 view .LVU322
 1135              		.loc 1 696 40 is_stmt 0 view .LVU323
 1136 0040 03F10045 		add	r5, r3, #-2147483648
 1137 0044 013D     		subs	r5, r5, #1
 1138              		.loc 1 696 21 view .LVU324
 1139 0046 01EB4505 		add	r5, r1, r5, lsl #1
 1140              	.LVL73:
 697:Libraries/STM32F4xx_HAL_Driver/Src/stm32f4xx_hal_nor.c ****   lastloadedaddress = (uint32_t)(uwAddress);
 1141              		.loc 1 697 3 is_stmt 1 view .LVU325
 698:Libraries/STM32F4xx_HAL_Driver/Src/stm32f4xx_hal_nor.c **** 
 699:Libraries/STM32F4xx_HAL_Driver/Src/stm32f4xx_hal_nor.c ****   /* Issue unlock command sequence */
 700:Libraries/STM32F4xx_HAL_Driver/Src/stm32f4xx_hal_nor.c ****   NOR_WRITE(NOR_ADDR_SHIFT(deviceaddress, uwNORMemoryDataWidth, NOR_CMD_ADDRESS_FIRST), NOR_CMD_DAT
 1142              		.loc 1 700 3 view .LVU326
 1143 004a 1C4F     		ldr	r7, .L135
 1144 004c 3F68     		ldr	r7, [r7]
 1145 004e 012F     		cmp	r7, #1
 1146 0050 19D0     		beq	.L132
 1147              	.LVL74:
 1148              		.loc 1 700 3 is_stmt 0 discriminator 2 view .LVU327
 1149 0052 00F2555E 		addw	lr, r0, #1365
 1150              	.L119:
 1151              		.loc 1 700 3 discriminator 4 view .LVU328
 1152 0056 4FF0AA0C 		mov	ip, #170
 1153 005a AEF800C0 		strh	ip, [lr]	@ movhi
 701:Libraries/STM32F4xx_HAL_Driver/Src/stm32f4xx_hal_nor.c ****   NOR_WRITE(NOR_ADDR_SHIFT(deviceaddress, uwNORMemoryDataWidth, NOR_CMD_ADDRESS_SECOND), NOR_CMD_DA
 1154              		.loc 1 701 3 is_stmt 1 discriminator 4 view .LVU329
 1155 005e 012F     		cmp	r7, #1
 1156 0060 14D0     		beq	.L133
 1157              		.loc 1 701 3 is_stmt 0 discriminator 2 view .LVU330
 1158 0062 00F2AA2E 		addw	lr, r0, #682
 1159              	.L121:
 1160              		.loc 1 701 3 discriminator 4 view .LVU331
 1161 0066 4FF0550C 		mov	ip, #85
 1162 006a AEF800C0 		strh	ip, [lr]	@ movhi
 702:Libraries/STM32F4xx_HAL_Driver/Src/stm32f4xx_hal_nor.c **** 
 703:Libraries/STM32F4xx_HAL_Driver/Src/stm32f4xx_hal_nor.c ****   /* Write Buffer Load Command */
 704:Libraries/STM32F4xx_HAL_Driver/Src/stm32f4xx_hal_nor.c ****   NOR_WRITE(NOR_ADDR_SHIFT(deviceaddress, uwNORMemoryDataWidth, uwAddress), NOR_CMD_DATA_BUFFER_AND
 1163              		.loc 1 704 3 is_stmt 1 discriminator 4 view .LVU332
 1164 006e 012F     		cmp	r7, #1
 1165 0070 0FD0     		beq	.L134
 1166              		.loc 1 704 3 is_stmt 0 discriminator 2 view .LVU333
 1167 0072 0844     		add	r0, r0, r1
 1168              	.LVL75:
 1169              	.L123:
 1170              		.loc 1 704 3 discriminator 4 view .LVU334
 1171 0074 2527     		movs	r7, #37
 1172 0076 0780     		strh	r7, [r0]	@ movhi
ARM GAS  C:\Users\yzy\AppData\Local\Temp\ccvAdv2d.s 			page 35


 705:Libraries/STM32F4xx_HAL_Driver/Src/stm32f4xx_hal_nor.c ****   NOR_WRITE(NOR_ADDR_SHIFT(deviceaddress, uwNORMemoryDataWidth, uwAddress), (uwBufferSize - 1U)); 
 1173              		.loc 1 705 3 is_stmt 1 discriminator 4 view .LVU335
 1174 0078 013B     		subs	r3, r3, #1
 1175              	.LVL76:
 1176              		.loc 1 705 3 is_stmt 0 discriminator 4 view .LVU336
 1177 007a 9BB2     		uxth	r3, r3
 1178              	.LVL77:
 1179              		.loc 1 705 3 discriminator 4 view .LVU337
 1180 007c 0380     		strh	r3, [r0]	@ movhi
 706:Libraries/STM32F4xx_HAL_Driver/Src/stm32f4xx_hal_nor.c **** 
 707:Libraries/STM32F4xx_HAL_Driver/Src/stm32f4xx_hal_nor.c ****   /* Load Data into NOR Buffer */
 708:Libraries/STM32F4xx_HAL_Driver/Src/stm32f4xx_hal_nor.c ****   while(p_currentaddress <= p_endaddress)
 1181              		.loc 1 708 3 is_stmt 1 discriminator 4 view .LVU338
 1182              		.loc 1 708 8 is_stmt 0 discriminator 4 view .LVU339
 1183 007e 10E0     		b	.L124
 1184              	.LVL78:
 1185              	.L128:
 680:Libraries/STM32F4xx_HAL_Driver/Src/stm32f4xx_hal_nor.c ****   }
 1186              		.loc 1 680 19 view .LVU340
 1187 0080 4FF0C840 		mov	r0, #1677721600
 1188 0084 D8E7     		b	.L117
 1189              	.LVL79:
 1190              	.L132:
 700:Libraries/STM32F4xx_HAL_Driver/Src/stm32f4xx_hal_nor.c ****   NOR_WRITE(NOR_ADDR_SHIFT(deviceaddress, uwNORMemoryDataWidth, NOR_CMD_ADDRESS_SECOND), NOR_CMD_DA
 1191              		.loc 1 700 3 discriminator 1 view .LVU341
 1192 0086 00F6AA2E 		addw	lr, r0, #2730
 1193 008a E4E7     		b	.L119
 1194              	.L133:
 701:Libraries/STM32F4xx_HAL_Driver/Src/stm32f4xx_hal_nor.c **** 
 1195              		.loc 1 701 3 discriminator 1 view .LVU342
 1196 008c 00F2545E 		addw	lr, r0, #1364
 1197 0090 E9E7     		b	.L121
 1198              	.L134:
 704:Libraries/STM32F4xx_HAL_Driver/Src/stm32f4xx_hal_nor.c ****   NOR_WRITE(NOR_ADDR_SHIFT(deviceaddress, uwNORMemoryDataWidth, uwAddress), (uwBufferSize - 1U)); 
 1199              		.loc 1 704 3 discriminator 1 view .LVU343
 1200 0092 00EB4100 		add	r0, r0, r1, lsl #1
 1201              	.LVL80:
 704:Libraries/STM32F4xx_HAL_Driver/Src/stm32f4xx_hal_nor.c ****   NOR_WRITE(NOR_ADDR_SHIFT(deviceaddress, uwNORMemoryDataWidth, uwAddress), (uwBufferSize - 1U)); 
 1202              		.loc 1 704 3 discriminator 1 view .LVU344
 1203 0096 EDE7     		b	.L123
 1204              	.LVL81:
 1205              	.L125:
 709:Libraries/STM32F4xx_HAL_Driver/Src/stm32f4xx_hal_nor.c ****   {
 710:Libraries/STM32F4xx_HAL_Driver/Src/stm32f4xx_hal_nor.c ****     /* Store last loaded address & data value (for polling) */
 711:Libraries/STM32F4xx_HAL_Driver/Src/stm32f4xx_hal_nor.c ****      lastloadedaddress = (uint32_t)p_currentaddress;
 1206              		.loc 1 711 6 is_stmt 1 view .LVU345
 1207              		.loc 1 711 24 is_stmt 0 view .LVU346
 1208 0098 2146     		mov	r1, r4
 1209              	.LVL82:
 712:Libraries/STM32F4xx_HAL_Driver/Src/stm32f4xx_hal_nor.c ****  
 713:Libraries/STM32F4xx_HAL_Driver/Src/stm32f4xx_hal_nor.c ****     NOR_WRITE(p_currentaddress, *pData++);
 1210              		.loc 1 713 5 is_stmt 1 view .LVU347
 1211              		.loc 1 713 5 is_stmt 0 view .LVU348
 1212 009a 32F8023B 		ldrh	r3, [r2], #2
 1213              	.LVL83:
 1214              		.loc 1 713 5 view .LVU349
 1215 009e 24F8023B 		strh	r3, [r4], #2	@ movhi
ARM GAS  C:\Users\yzy\AppData\Local\Temp\ccvAdv2d.s 			page 36


 1216              	.LVL84:
 714:Libraries/STM32F4xx_HAL_Driver/Src/stm32f4xx_hal_nor.c ****     
 715:Libraries/STM32F4xx_HAL_Driver/Src/stm32f4xx_hal_nor.c ****     p_currentaddress ++; 
 1217              		.loc 1 715 5 is_stmt 1 view .LVU350
 1218              	.L124:
 708:Libraries/STM32F4xx_HAL_Driver/Src/stm32f4xx_hal_nor.c ****   {
 1219              		.loc 1 708 8 view .LVU351
 1220 00a2 AC42     		cmp	r4, r5
 1221 00a4 F8D9     		bls	.L125
 716:Libraries/STM32F4xx_HAL_Driver/Src/stm32f4xx_hal_nor.c ****   }
 717:Libraries/STM32F4xx_HAL_Driver/Src/stm32f4xx_hal_nor.c **** 
 718:Libraries/STM32F4xx_HAL_Driver/Src/stm32f4xx_hal_nor.c ****   NOR_WRITE((uint32_t)(lastloadedaddress), NOR_CMD_DATA_BUFFER_AND_PROG_CONFIRM);
 1222              		.loc 1 718 3 view .LVU352
 1223 00a6 2923     		movs	r3, #41
 1224 00a8 0B80     		strh	r3, [r1]	@ movhi
 719:Libraries/STM32F4xx_HAL_Driver/Src/stm32f4xx_hal_nor.c ****   
 720:Libraries/STM32F4xx_HAL_Driver/Src/stm32f4xx_hal_nor.c ****   /* Check the NOR controller state */
 721:Libraries/STM32F4xx_HAL_Driver/Src/stm32f4xx_hal_nor.c ****   hnor->State = HAL_NOR_STATE_READY;
 1225              		.loc 1 721 3 view .LVU353
 1226              		.loc 1 721 15 is_stmt 0 view .LVU354
 1227 00aa 0123     		movs	r3, #1
 1228 00ac 86F84930 		strb	r3, [r6, #73]
 722:Libraries/STM32F4xx_HAL_Driver/Src/stm32f4xx_hal_nor.c ****   
 723:Libraries/STM32F4xx_HAL_Driver/Src/stm32f4xx_hal_nor.c ****   /* Process unlocked */
 724:Libraries/STM32F4xx_HAL_Driver/Src/stm32f4xx_hal_nor.c ****   __HAL_UNLOCK(hnor);
 1229              		.loc 1 724 3 is_stmt 1 view .LVU355
 1230              		.loc 1 724 3 view .LVU356
 1231 00b0 0020     		movs	r0, #0
 1232 00b2 86F84800 		strb	r0, [r6, #72]
 1233              		.loc 1 724 3 view .LVU357
 725:Libraries/STM32F4xx_HAL_Driver/Src/stm32f4xx_hal_nor.c ****   
 726:Libraries/STM32F4xx_HAL_Driver/Src/stm32f4xx_hal_nor.c ****   return HAL_OK; 
 1234              		.loc 1 726 3 view .LVU358
 1235              	.LVL85:
 1236              	.L116:
 727:Libraries/STM32F4xx_HAL_Driver/Src/stm32f4xx_hal_nor.c ****   
 728:Libraries/STM32F4xx_HAL_Driver/Src/stm32f4xx_hal_nor.c **** }
 1237              		.loc 1 728 1 is_stmt 0 view .LVU359
 1238 00b6 F0BD     		pop	{r4, r5, r6, r7, pc}
 1239              	.LVL86:
 1240              	.L126:
 665:Libraries/STM32F4xx_HAL_Driver/Src/stm32f4xx_hal_nor.c ****   
 1241              		.loc 1 665 3 view .LVU360
 1242 00b8 0220     		movs	r0, #2
 1243 00ba FCE7     		b	.L116
 1244              	.L136:
 1245              		.align	2
 1246              	.L135:
 1247 00bc 00000000 		.word	.LANCHOR0
 1248              		.cfi_endproc
 1249              	.LFE140:
 1251              		.section	.text.HAL_NOR_Erase_Block,"ax",%progbits
 1252              		.align	1
 1253              		.global	HAL_NOR_Erase_Block
 1254              		.syntax unified
 1255              		.thumb
 1256              		.thumb_func
ARM GAS  C:\Users\yzy\AppData\Local\Temp\ccvAdv2d.s 			page 37


 1257              		.fpu softvfp
 1259              	HAL_NOR_Erase_Block:
 1260              	.LVL87:
 1261              	.LFB141:
 729:Libraries/STM32F4xx_HAL_Driver/Src/stm32f4xx_hal_nor.c **** 
 730:Libraries/STM32F4xx_HAL_Driver/Src/stm32f4xx_hal_nor.c **** /**
 731:Libraries/STM32F4xx_HAL_Driver/Src/stm32f4xx_hal_nor.c ****   * @brief  Erase the specified block of the NOR memory 
 732:Libraries/STM32F4xx_HAL_Driver/Src/stm32f4xx_hal_nor.c ****   * @param  hnor pointer to a NOR_HandleTypeDef structure that contains
 733:Libraries/STM32F4xx_HAL_Driver/Src/stm32f4xx_hal_nor.c ****   *                the configuration information for NOR module.
 734:Libraries/STM32F4xx_HAL_Driver/Src/stm32f4xx_hal_nor.c ****   * @param  BlockAddress  Block to erase address 
 735:Libraries/STM32F4xx_HAL_Driver/Src/stm32f4xx_hal_nor.c ****   * @param  Address Device address
 736:Libraries/STM32F4xx_HAL_Driver/Src/stm32f4xx_hal_nor.c ****   * @retval HAL status
 737:Libraries/STM32F4xx_HAL_Driver/Src/stm32f4xx_hal_nor.c ****   */
 738:Libraries/STM32F4xx_HAL_Driver/Src/stm32f4xx_hal_nor.c **** HAL_StatusTypeDef HAL_NOR_Erase_Block(NOR_HandleTypeDef *hnor, uint32_t BlockAddress, uint32_t Addr
 739:Libraries/STM32F4xx_HAL_Driver/Src/stm32f4xx_hal_nor.c **** {
 1262              		.loc 1 739 1 is_stmt 1 view -0
 1263              		.cfi_startproc
 1264              		@ args = 0, pretend = 0, frame = 0
 1265              		@ frame_needed = 0, uses_anonymous_args = 0
 1266              		@ link register save eliminated.
 1267              		.loc 1 739 1 is_stmt 0 view .LVU362
 1268 0000 0346     		mov	r3, r0
 740:Libraries/STM32F4xx_HAL_Driver/Src/stm32f4xx_hal_nor.c ****   uint32_t deviceaddress = 0U;
 1269              		.loc 1 740 3 is_stmt 1 view .LVU363
 1270              	.LVL88:
 741:Libraries/STM32F4xx_HAL_Driver/Src/stm32f4xx_hal_nor.c **** 
 742:Libraries/STM32F4xx_HAL_Driver/Src/stm32f4xx_hal_nor.c ****   /* Process Locked */
 743:Libraries/STM32F4xx_HAL_Driver/Src/stm32f4xx_hal_nor.c ****   __HAL_LOCK(hnor);
 1271              		.loc 1 743 3 view .LVU364
 1272              		.loc 1 743 3 view .LVU365
 1273 0002 90F84800 		ldrb	r0, [r0, #72]	@ zero_extendqisi2
 1274              	.LVL89:
 1275              		.loc 1 743 3 is_stmt 0 view .LVU366
 1276 0006 0128     		cmp	r0, #1
 1277 0008 40D0     		beq	.L144
 1278              		.loc 1 743 3 is_stmt 1 discriminator 2 view .LVU367
 1279 000a 0120     		movs	r0, #1
 1280 000c 83F84800 		strb	r0, [r3, #72]
 1281              		.loc 1 743 3 discriminator 2 view .LVU368
 744:Libraries/STM32F4xx_HAL_Driver/Src/stm32f4xx_hal_nor.c ****   
 745:Libraries/STM32F4xx_HAL_Driver/Src/stm32f4xx_hal_nor.c ****   /* Check the NOR controller state */
 746:Libraries/STM32F4xx_HAL_Driver/Src/stm32f4xx_hal_nor.c ****   if(hnor->State == HAL_NOR_STATE_BUSY)
 1282              		.loc 1 746 3 discriminator 2 view .LVU369
 1283              		.loc 1 746 10 is_stmt 0 discriminator 2 view .LVU370
 1284 0010 93F84900 		ldrb	r0, [r3, #73]	@ zero_extendqisi2
 1285 0014 C0B2     		uxtb	r0, r0
 1286              		.loc 1 746 5 discriminator 2 view .LVU371
 1287 0016 0228     		cmp	r0, #2
 1288 0018 3AD0     		beq	.L149
 739:Libraries/STM32F4xx_HAL_Driver/Src/stm32f4xx_hal_nor.c ****   uint32_t deviceaddress = 0U;
 1289              		.loc 1 739 1 view .LVU372
 1290 001a F0B4     		push	{r4, r5, r6, r7}
 1291              	.LCFI19:
 1292              		.cfi_def_cfa_offset 16
 1293              		.cfi_offset 4, -16
 1294              		.cfi_offset 5, -12
 1295              		.cfi_offset 6, -8
ARM GAS  C:\Users\yzy\AppData\Local\Temp\ccvAdv2d.s 			page 38


 1296              		.cfi_offset 7, -4
 747:Libraries/STM32F4xx_HAL_Driver/Src/stm32f4xx_hal_nor.c ****   {
 748:Libraries/STM32F4xx_HAL_Driver/Src/stm32f4xx_hal_nor.c ****      return HAL_BUSY;
 749:Libraries/STM32F4xx_HAL_Driver/Src/stm32f4xx_hal_nor.c ****   }
 750:Libraries/STM32F4xx_HAL_Driver/Src/stm32f4xx_hal_nor.c ****   
 751:Libraries/STM32F4xx_HAL_Driver/Src/stm32f4xx_hal_nor.c ****   /* Select the NOR device address */
 752:Libraries/STM32F4xx_HAL_Driver/Src/stm32f4xx_hal_nor.c ****   if (hnor->Init.NSBank == FMC_NORSRAM_BANK1)
 1297              		.loc 1 752 3 is_stmt 1 view .LVU373
 1298              		.loc 1 752 17 is_stmt 0 view .LVU374
 1299 001c 9868     		ldr	r0, [r3, #8]
 1300              		.loc 1 752 6 view .LVU375
 1301 001e 48B1     		cbz	r0, .L145
 753:Libraries/STM32F4xx_HAL_Driver/Src/stm32f4xx_hal_nor.c ****   {
 754:Libraries/STM32F4xx_HAL_Driver/Src/stm32f4xx_hal_nor.c ****     deviceaddress = NOR_MEMORY_ADRESS1;
 755:Libraries/STM32F4xx_HAL_Driver/Src/stm32f4xx_hal_nor.c ****   }
 756:Libraries/STM32F4xx_HAL_Driver/Src/stm32f4xx_hal_nor.c ****   else if (hnor->Init.NSBank == FMC_NORSRAM_BANK2)
 1302              		.loc 1 756 8 is_stmt 1 view .LVU376
 1303              		.loc 1 756 11 is_stmt 0 view .LVU377
 1304 0020 0228     		cmp	r0, #2
 1305 0022 2AD0     		beq	.L146
 757:Libraries/STM32F4xx_HAL_Driver/Src/stm32f4xx_hal_nor.c ****   {
 758:Libraries/STM32F4xx_HAL_Driver/Src/stm32f4xx_hal_nor.c ****     deviceaddress = NOR_MEMORY_ADRESS2;
 759:Libraries/STM32F4xx_HAL_Driver/Src/stm32f4xx_hal_nor.c ****   }
 760:Libraries/STM32F4xx_HAL_Driver/Src/stm32f4xx_hal_nor.c ****   else if (hnor->Init.NSBank == FMC_NORSRAM_BANK3)
 1306              		.loc 1 760 8 is_stmt 1 view .LVU378
 1307              		.loc 1 760 11 is_stmt 0 view .LVU379
 1308 0024 0428     		cmp	r0, #4
 1309 0026 02D0     		beq	.L152
 761:Libraries/STM32F4xx_HAL_Driver/Src/stm32f4xx_hal_nor.c ****   {
 762:Libraries/STM32F4xx_HAL_Driver/Src/stm32f4xx_hal_nor.c ****     deviceaddress = NOR_MEMORY_ADRESS3;
 763:Libraries/STM32F4xx_HAL_Driver/Src/stm32f4xx_hal_nor.c ****   }
 764:Libraries/STM32F4xx_HAL_Driver/Src/stm32f4xx_hal_nor.c ****   else /* FMC_NORSRAM_BANK4 */
 765:Libraries/STM32F4xx_HAL_Driver/Src/stm32f4xx_hal_nor.c ****   {
 766:Libraries/STM32F4xx_HAL_Driver/Src/stm32f4xx_hal_nor.c ****     deviceaddress = NOR_MEMORY_ADRESS4;
 1310              		.loc 1 766 19 view .LVU380
 1311 0028 4FF0D840 		mov	r0, #1811939328
 1312 002c 04E0     		b	.L139
 1313              	.L152:
 762:Libraries/STM32F4xx_HAL_Driver/Src/stm32f4xx_hal_nor.c ****   }
 1314              		.loc 1 762 19 view .LVU381
 1315 002e 4FF0D040 		mov	r0, #1744830464
 1316 0032 01E0     		b	.L139
 1317              	.L145:
 754:Libraries/STM32F4xx_HAL_Driver/Src/stm32f4xx_hal_nor.c ****   }
 1318              		.loc 1 754 19 view .LVU382
 1319 0034 4FF0C040 		mov	r0, #1610612736
 1320              	.L139:
 1321              	.LVL90:
 767:Libraries/STM32F4xx_HAL_Driver/Src/stm32f4xx_hal_nor.c ****   }
 768:Libraries/STM32F4xx_HAL_Driver/Src/stm32f4xx_hal_nor.c ****     
 769:Libraries/STM32F4xx_HAL_Driver/Src/stm32f4xx_hal_nor.c ****   /* Update the NOR controller state */
 770:Libraries/STM32F4xx_HAL_Driver/Src/stm32f4xx_hal_nor.c ****   hnor->State = HAL_NOR_STATE_BUSY;
 1322              		.loc 1 770 3 is_stmt 1 view .LVU383
 1323              		.loc 1 770 15 is_stmt 0 view .LVU384
 1324 0038 0224     		movs	r4, #2
 1325 003a 83F84940 		strb	r4, [r3, #73]
 771:Libraries/STM32F4xx_HAL_Driver/Src/stm32f4xx_hal_nor.c ****   
ARM GAS  C:\Users\yzy\AppData\Local\Temp\ccvAdv2d.s 			page 39


 772:Libraries/STM32F4xx_HAL_Driver/Src/stm32f4xx_hal_nor.c ****   /* Send block erase command sequence */
 773:Libraries/STM32F4xx_HAL_Driver/Src/stm32f4xx_hal_nor.c ****   NOR_WRITE(NOR_ADDR_SHIFT(deviceaddress, uwNORMemoryDataWidth, NOR_CMD_ADDRESS_FIRST), NOR_CMD_DAT
 1326              		.loc 1 773 3 is_stmt 1 view .LVU385
 1327 003e 154C     		ldr	r4, .L155
 1328 0040 2468     		ldr	r4, [r4]
 1329 0042 012C     		cmp	r4, #1
 1330 0044 1CD0     		beq	.L153
 1331              		.loc 1 773 3 is_stmt 0 discriminator 2 view .LVU386
 1332 0046 00F25556 		addw	r6, r0, #1365
 1333              	.L141:
 1334              		.loc 1 773 3 discriminator 4 view .LVU387
 1335 004a 3546     		mov	r5, r6
 1336 004c AA27     		movs	r7, #170
 1337 004e 3780     		strh	r7, [r6]	@ movhi
 774:Libraries/STM32F4xx_HAL_Driver/Src/stm32f4xx_hal_nor.c ****   NOR_WRITE(NOR_ADDR_SHIFT(deviceaddress, uwNORMemoryDataWidth, NOR_CMD_ADDRESS_SECOND), NOR_CMD_DA
 1338              		.loc 1 774 3 is_stmt 1 discriminator 4 view .LVU388
 1339 0050 012C     		cmp	r4, #1
 1340 0052 18D0     		beq	.L154
 1341              		.loc 1 774 3 is_stmt 0 discriminator 2 view .LVU389
 1342 0054 00F2AA20 		addw	r0, r0, #682
 1343              	.LVL91:
 1344              	.L143:
 1345              		.loc 1 774 3 discriminator 4 view .LVU390
 1346 0058 5524     		movs	r4, #85
 1347 005a 0480     		strh	r4, [r0]	@ movhi
 775:Libraries/STM32F4xx_HAL_Driver/Src/stm32f4xx_hal_nor.c ****   NOR_WRITE(NOR_ADDR_SHIFT(deviceaddress, uwNORMemoryDataWidth, NOR_CMD_ADDRESS_THIRD), NOR_CMD_DAT
 1348              		.loc 1 775 3 is_stmt 1 discriminator 4 view .LVU391
 1349 005c 8026     		movs	r6, #128
 1350 005e 2E80     		strh	r6, [r5]	@ movhi
 776:Libraries/STM32F4xx_HAL_Driver/Src/stm32f4xx_hal_nor.c ****   NOR_WRITE(NOR_ADDR_SHIFT(deviceaddress, uwNORMemoryDataWidth, NOR_CMD_ADDRESS_FOURTH), NOR_CMD_DA
 1351              		.loc 1 776 3 discriminator 4 view .LVU392
 1352 0060 AA26     		movs	r6, #170
 1353 0062 2E80     		strh	r6, [r5]	@ movhi
 777:Libraries/STM32F4xx_HAL_Driver/Src/stm32f4xx_hal_nor.c ****   NOR_WRITE(NOR_ADDR_SHIFT(deviceaddress, uwNORMemoryDataWidth, NOR_CMD_ADDRESS_FIFTH), NOR_CMD_DAT
 1354              		.loc 1 777 3 discriminator 4 view .LVU393
 1355 0064 0480     		strh	r4, [r0]	@ movhi
 778:Libraries/STM32F4xx_HAL_Driver/Src/stm32f4xx_hal_nor.c ****   NOR_WRITE((uint32_t)(BlockAddress + Address), NOR_CMD_DATA_BLOCK_ERASE);
 1356              		.loc 1 778 3 discriminator 4 view .LVU394
 1357 0066 3020     		movs	r0, #48
 1358 0068 8852     		strh	r0, [r1, r2]	@ movhi
 779:Libraries/STM32F4xx_HAL_Driver/Src/stm32f4xx_hal_nor.c **** 
 780:Libraries/STM32F4xx_HAL_Driver/Src/stm32f4xx_hal_nor.c ****   /* Check the NOR memory status and update the controller state */
 781:Libraries/STM32F4xx_HAL_Driver/Src/stm32f4xx_hal_nor.c ****   hnor->State = HAL_NOR_STATE_READY;
 1359              		.loc 1 781 3 discriminator 4 view .LVU395
 1360              		.loc 1 781 15 is_stmt 0 discriminator 4 view .LVU396
 1361 006a 0122     		movs	r2, #1
 1362              	.LVL92:
 1363              		.loc 1 781 15 discriminator 4 view .LVU397
 1364 006c 83F84920 		strb	r2, [r3, #73]
 782:Libraries/STM32F4xx_HAL_Driver/Src/stm32f4xx_hal_nor.c ****     
 783:Libraries/STM32F4xx_HAL_Driver/Src/stm32f4xx_hal_nor.c ****   /* Process unlocked */
 784:Libraries/STM32F4xx_HAL_Driver/Src/stm32f4xx_hal_nor.c ****   __HAL_UNLOCK(hnor);
 1365              		.loc 1 784 3 is_stmt 1 discriminator 4 view .LVU398
 1366              		.loc 1 784 3 discriminator 4 view .LVU399
 1367 0070 0020     		movs	r0, #0
 1368 0072 83F84800 		strb	r0, [r3, #72]
 1369              		.loc 1 784 3 discriminator 4 view .LVU400
ARM GAS  C:\Users\yzy\AppData\Local\Temp\ccvAdv2d.s 			page 40


 785:Libraries/STM32F4xx_HAL_Driver/Src/stm32f4xx_hal_nor.c ****   
 786:Libraries/STM32F4xx_HAL_Driver/Src/stm32f4xx_hal_nor.c ****   return HAL_OK;
 1370              		.loc 1 786 3 discriminator 4 view .LVU401
 787:Libraries/STM32F4xx_HAL_Driver/Src/stm32f4xx_hal_nor.c ****  
 788:Libraries/STM32F4xx_HAL_Driver/Src/stm32f4xx_hal_nor.c **** }
 1371              		.loc 1 788 1 is_stmt 0 discriminator 4 view .LVU402
 1372 0076 F0BC     		pop	{r4, r5, r6, r7}
 1373              	.LCFI20:
 1374              		.cfi_remember_state
 1375              		.cfi_restore 7
 1376              		.cfi_restore 6
 1377              		.cfi_restore 5
 1378              		.cfi_restore 4
 1379              		.cfi_def_cfa_offset 0
 1380 0078 7047     		bx	lr
 1381              	.LVL93:
 1382              	.L146:
 1383              	.LCFI21:
 1384              		.cfi_restore_state
 758:Libraries/STM32F4xx_HAL_Driver/Src/stm32f4xx_hal_nor.c ****   }
 1385              		.loc 1 758 19 view .LVU403
 1386 007a 4FF0C840 		mov	r0, #1677721600
 1387 007e DBE7     		b	.L139
 1388              	.LVL94:
 1389              	.L153:
 773:Libraries/STM32F4xx_HAL_Driver/Src/stm32f4xx_hal_nor.c ****   NOR_WRITE(NOR_ADDR_SHIFT(deviceaddress, uwNORMemoryDataWidth, NOR_CMD_ADDRESS_SECOND), NOR_CMD_DA
 1390              		.loc 1 773 3 discriminator 1 view .LVU404
 1391 0080 00F6AA26 		addw	r6, r0, #2730
 1392 0084 E1E7     		b	.L141
 1393              	.L154:
 774:Libraries/STM32F4xx_HAL_Driver/Src/stm32f4xx_hal_nor.c ****   NOR_WRITE(NOR_ADDR_SHIFT(deviceaddress, uwNORMemoryDataWidth, NOR_CMD_ADDRESS_THIRD), NOR_CMD_DAT
 1394              		.loc 1 774 3 discriminator 1 view .LVU405
 1395 0086 00F25450 		addw	r0, r0, #1364
 1396              	.LVL95:
 774:Libraries/STM32F4xx_HAL_Driver/Src/stm32f4xx_hal_nor.c ****   NOR_WRITE(NOR_ADDR_SHIFT(deviceaddress, uwNORMemoryDataWidth, NOR_CMD_ADDRESS_THIRD), NOR_CMD_DAT
 1397              		.loc 1 774 3 discriminator 1 view .LVU406
 1398 008a E5E7     		b	.L143
 1399              	.LVL96:
 1400              	.L144:
 1401              	.LCFI22:
 1402              		.cfi_def_cfa_offset 0
 1403              		.cfi_restore 4
 1404              		.cfi_restore 5
 1405              		.cfi_restore 6
 1406              		.cfi_restore 7
 743:Libraries/STM32F4xx_HAL_Driver/Src/stm32f4xx_hal_nor.c ****   
 1407              		.loc 1 743 3 view .LVU407
 1408 008c 0220     		movs	r0, #2
 1409 008e 7047     		bx	lr
 1410              	.L149:
 1411              		.loc 1 788 1 view .LVU408
 1412 0090 7047     		bx	lr
 1413              	.L156:
 1414 0092 00BF     		.align	2
 1415              	.L155:
 1416 0094 00000000 		.word	.LANCHOR0
 1417              		.cfi_endproc
ARM GAS  C:\Users\yzy\AppData\Local\Temp\ccvAdv2d.s 			page 41


 1418              	.LFE141:
 1420              		.section	.text.HAL_NOR_Erase_Chip,"ax",%progbits
 1421              		.align	1
 1422              		.global	HAL_NOR_Erase_Chip
 1423              		.syntax unified
 1424              		.thumb
 1425              		.thumb_func
 1426              		.fpu softvfp
 1428              	HAL_NOR_Erase_Chip:
 1429              	.LVL97:
 1430              	.LFB142:
 789:Libraries/STM32F4xx_HAL_Driver/Src/stm32f4xx_hal_nor.c **** 
 790:Libraries/STM32F4xx_HAL_Driver/Src/stm32f4xx_hal_nor.c **** /**
 791:Libraries/STM32F4xx_HAL_Driver/Src/stm32f4xx_hal_nor.c ****   * @brief  Erase the entire NOR chip.
 792:Libraries/STM32F4xx_HAL_Driver/Src/stm32f4xx_hal_nor.c ****   * @param  hnor pointer to a NOR_HandleTypeDef structure that contains
 793:Libraries/STM32F4xx_HAL_Driver/Src/stm32f4xx_hal_nor.c ****   *                the configuration information for NOR module.
 794:Libraries/STM32F4xx_HAL_Driver/Src/stm32f4xx_hal_nor.c ****   * @param  Address  Device address  
 795:Libraries/STM32F4xx_HAL_Driver/Src/stm32f4xx_hal_nor.c ****   * @retval HAL status
 796:Libraries/STM32F4xx_HAL_Driver/Src/stm32f4xx_hal_nor.c ****   */
 797:Libraries/STM32F4xx_HAL_Driver/Src/stm32f4xx_hal_nor.c **** HAL_StatusTypeDef HAL_NOR_Erase_Chip(NOR_HandleTypeDef *hnor, uint32_t Address)
 798:Libraries/STM32F4xx_HAL_Driver/Src/stm32f4xx_hal_nor.c **** {
 1431              		.loc 1 798 1 is_stmt 1 view -0
 1432              		.cfi_startproc
 1433              		@ args = 0, pretend = 0, frame = 0
 1434              		@ frame_needed = 0, uses_anonymous_args = 0
 1435              		@ link register save eliminated.
 799:Libraries/STM32F4xx_HAL_Driver/Src/stm32f4xx_hal_nor.c ****   uint32_t deviceaddress = 0U;
 1436              		.loc 1 799 3 view .LVU410
 800:Libraries/STM32F4xx_HAL_Driver/Src/stm32f4xx_hal_nor.c ****   
 801:Libraries/STM32F4xx_HAL_Driver/Src/stm32f4xx_hal_nor.c ****   /* Prevent unused argument(s) compilation warning */
 802:Libraries/STM32F4xx_HAL_Driver/Src/stm32f4xx_hal_nor.c ****   UNUSED(Address);
 1437              		.loc 1 802 3 view .LVU411
 803:Libraries/STM32F4xx_HAL_Driver/Src/stm32f4xx_hal_nor.c ****   
 804:Libraries/STM32F4xx_HAL_Driver/Src/stm32f4xx_hal_nor.c ****   /* Process Locked */
 805:Libraries/STM32F4xx_HAL_Driver/Src/stm32f4xx_hal_nor.c ****   __HAL_LOCK(hnor);
 1438              		.loc 1 805 3 view .LVU412
 1439              		.loc 1 805 3 view .LVU413
 1440 0000 90F84820 		ldrb	r2, [r0, #72]	@ zero_extendqisi2
 1441 0004 012A     		cmp	r2, #1
 1442 0006 41D0     		beq	.L164
 1443 0008 0346     		mov	r3, r0
 1444              		.loc 1 805 3 discriminator 2 view .LVU414
 1445 000a 0122     		movs	r2, #1
 1446 000c 80F84820 		strb	r2, [r0, #72]
 1447              		.loc 1 805 3 discriminator 2 view .LVU415
 806:Libraries/STM32F4xx_HAL_Driver/Src/stm32f4xx_hal_nor.c ****   
 807:Libraries/STM32F4xx_HAL_Driver/Src/stm32f4xx_hal_nor.c ****   /* Check the NOR controller state */
 808:Libraries/STM32F4xx_HAL_Driver/Src/stm32f4xx_hal_nor.c ****   if(hnor->State == HAL_NOR_STATE_BUSY)
 1448              		.loc 1 808 3 discriminator 2 view .LVU416
 1449              		.loc 1 808 10 is_stmt 0 discriminator 2 view .LVU417
 1450 0010 90F84900 		ldrb	r0, [r0, #73]	@ zero_extendqisi2
 1451              	.LVL98:
 1452              		.loc 1 808 10 discriminator 2 view .LVU418
 1453 0014 C0B2     		uxtb	r0, r0
 1454              		.loc 1 808 5 discriminator 2 view .LVU419
 1455 0016 0228     		cmp	r0, #2
 1456 0018 3AD0     		beq	.L169
ARM GAS  C:\Users\yzy\AppData\Local\Temp\ccvAdv2d.s 			page 42


 798:Libraries/STM32F4xx_HAL_Driver/Src/stm32f4xx_hal_nor.c ****   uint32_t deviceaddress = 0U;
 1457              		.loc 1 798 1 view .LVU420
 1458 001a 30B4     		push	{r4, r5}
 1459              	.LCFI23:
 1460              		.cfi_def_cfa_offset 8
 1461              		.cfi_offset 4, -8
 1462              		.cfi_offset 5, -4
 809:Libraries/STM32F4xx_HAL_Driver/Src/stm32f4xx_hal_nor.c ****   {
 810:Libraries/STM32F4xx_HAL_Driver/Src/stm32f4xx_hal_nor.c ****      return HAL_BUSY;
 811:Libraries/STM32F4xx_HAL_Driver/Src/stm32f4xx_hal_nor.c ****   }
 812:Libraries/STM32F4xx_HAL_Driver/Src/stm32f4xx_hal_nor.c ****   
 813:Libraries/STM32F4xx_HAL_Driver/Src/stm32f4xx_hal_nor.c ****   /* Select the NOR device address */
 814:Libraries/STM32F4xx_HAL_Driver/Src/stm32f4xx_hal_nor.c ****   if (hnor->Init.NSBank == FMC_NORSRAM_BANK1)
 1463              		.loc 1 814 3 is_stmt 1 view .LVU421
 1464              		.loc 1 814 17 is_stmt 0 view .LVU422
 1465 001c 9A68     		ldr	r2, [r3, #8]
 1466              		.loc 1 814 6 view .LVU423
 1467 001e 4AB1     		cbz	r2, .L165
 815:Libraries/STM32F4xx_HAL_Driver/Src/stm32f4xx_hal_nor.c ****   {
 816:Libraries/STM32F4xx_HAL_Driver/Src/stm32f4xx_hal_nor.c ****     deviceaddress = NOR_MEMORY_ADRESS1;
 817:Libraries/STM32F4xx_HAL_Driver/Src/stm32f4xx_hal_nor.c ****   }
 818:Libraries/STM32F4xx_HAL_Driver/Src/stm32f4xx_hal_nor.c ****   else if (hnor->Init.NSBank == FMC_NORSRAM_BANK2)
 1468              		.loc 1 818 8 is_stmt 1 view .LVU424
 1469              		.loc 1 818 11 is_stmt 0 view .LVU425
 1470 0020 022A     		cmp	r2, #2
 1471 0022 2AD0     		beq	.L166
 819:Libraries/STM32F4xx_HAL_Driver/Src/stm32f4xx_hal_nor.c ****   {
 820:Libraries/STM32F4xx_HAL_Driver/Src/stm32f4xx_hal_nor.c ****     deviceaddress = NOR_MEMORY_ADRESS2;
 821:Libraries/STM32F4xx_HAL_Driver/Src/stm32f4xx_hal_nor.c ****   }
 822:Libraries/STM32F4xx_HAL_Driver/Src/stm32f4xx_hal_nor.c ****   else if (hnor->Init.NSBank == FMC_NORSRAM_BANK3)
 1472              		.loc 1 822 8 is_stmt 1 view .LVU426
 1473              		.loc 1 822 11 is_stmt 0 view .LVU427
 1474 0024 042A     		cmp	r2, #4
 1475 0026 02D0     		beq	.L172
 823:Libraries/STM32F4xx_HAL_Driver/Src/stm32f4xx_hal_nor.c ****   {
 824:Libraries/STM32F4xx_HAL_Driver/Src/stm32f4xx_hal_nor.c ****     deviceaddress = NOR_MEMORY_ADRESS3;
 825:Libraries/STM32F4xx_HAL_Driver/Src/stm32f4xx_hal_nor.c ****   }
 826:Libraries/STM32F4xx_HAL_Driver/Src/stm32f4xx_hal_nor.c ****   else /* FMC_NORSRAM_BANK4 */
 827:Libraries/STM32F4xx_HAL_Driver/Src/stm32f4xx_hal_nor.c ****   {
 828:Libraries/STM32F4xx_HAL_Driver/Src/stm32f4xx_hal_nor.c ****     deviceaddress = NOR_MEMORY_ADRESS4;
 1476              		.loc 1 828 19 view .LVU428
 1477 0028 4FF0D842 		mov	r2, #1811939328
 1478 002c 04E0     		b	.L159
 1479              	.L172:
 824:Libraries/STM32F4xx_HAL_Driver/Src/stm32f4xx_hal_nor.c ****   }
 1480              		.loc 1 824 19 view .LVU429
 1481 002e 4FF0D042 		mov	r2, #1744830464
 1482 0032 01E0     		b	.L159
 1483              	.L165:
 816:Libraries/STM32F4xx_HAL_Driver/Src/stm32f4xx_hal_nor.c ****   }
 1484              		.loc 1 816 19 view .LVU430
 1485 0034 4FF0C042 		mov	r2, #1610612736
 1486              	.L159:
 1487              	.LVL99:
 829:Libraries/STM32F4xx_HAL_Driver/Src/stm32f4xx_hal_nor.c ****   }
 830:Libraries/STM32F4xx_HAL_Driver/Src/stm32f4xx_hal_nor.c ****     
 831:Libraries/STM32F4xx_HAL_Driver/Src/stm32f4xx_hal_nor.c ****   /* Update the NOR controller state */
ARM GAS  C:\Users\yzy\AppData\Local\Temp\ccvAdv2d.s 			page 43


 832:Libraries/STM32F4xx_HAL_Driver/Src/stm32f4xx_hal_nor.c ****   hnor->State = HAL_NOR_STATE_BUSY;  
 1488              		.loc 1 832 3 is_stmt 1 view .LVU431
 1489              		.loc 1 832 15 is_stmt 0 view .LVU432
 1490 0038 0221     		movs	r1, #2
 1491              	.LVL100:
 1492              		.loc 1 832 15 view .LVU433
 1493 003a 83F84910 		strb	r1, [r3, #73]
 833:Libraries/STM32F4xx_HAL_Driver/Src/stm32f4xx_hal_nor.c ****     
 834:Libraries/STM32F4xx_HAL_Driver/Src/stm32f4xx_hal_nor.c ****   /* Send NOR chip erase command sequence */
 835:Libraries/STM32F4xx_HAL_Driver/Src/stm32f4xx_hal_nor.c ****   NOR_WRITE(NOR_ADDR_SHIFT(deviceaddress, uwNORMemoryDataWidth, NOR_CMD_ADDRESS_FIRST), NOR_CMD_DAT
 1494              		.loc 1 835 3 is_stmt 1 view .LVU434
 1495 003e 1549     		ldr	r1, .L175
 1496 0040 0868     		ldr	r0, [r1]
 1497 0042 0128     		cmp	r0, #1
 1498 0044 1CD0     		beq	.L173
 1499              		.loc 1 835 3 is_stmt 0 discriminator 2 view .LVU435
 1500 0046 02F25554 		addw	r4, r2, #1365
 1501              	.L161:
 1502              		.loc 1 835 3 discriminator 4 view .LVU436
 1503 004a 2146     		mov	r1, r4
 1504 004c AA25     		movs	r5, #170
 1505 004e 2580     		strh	r5, [r4]	@ movhi
 836:Libraries/STM32F4xx_HAL_Driver/Src/stm32f4xx_hal_nor.c ****   NOR_WRITE(NOR_ADDR_SHIFT(deviceaddress, uwNORMemoryDataWidth, NOR_CMD_ADDRESS_SECOND), NOR_CMD_DA
 1506              		.loc 1 836 3 is_stmt 1 discriminator 4 view .LVU437
 1507 0050 0128     		cmp	r0, #1
 1508 0052 18D0     		beq	.L174
 1509              		.loc 1 836 3 is_stmt 0 discriminator 2 view .LVU438
 1510 0054 02F2AA22 		addw	r2, r2, #682
 1511              	.LVL101:
 1512              	.L163:
 1513              		.loc 1 836 3 discriminator 4 view .LVU439
 1514 0058 5520     		movs	r0, #85
 1515 005a 1080     		strh	r0, [r2]	@ movhi
 837:Libraries/STM32F4xx_HAL_Driver/Src/stm32f4xx_hal_nor.c ****   NOR_WRITE(NOR_ADDR_SHIFT(deviceaddress, uwNORMemoryDataWidth, NOR_CMD_ADDRESS_THIRD), NOR_CMD_DAT
 1516              		.loc 1 837 3 is_stmt 1 discriminator 4 view .LVU440
 1517 005c 8024     		movs	r4, #128
 1518 005e 0C80     		strh	r4, [r1]	@ movhi
 838:Libraries/STM32F4xx_HAL_Driver/Src/stm32f4xx_hal_nor.c ****   NOR_WRITE(NOR_ADDR_SHIFT(deviceaddress, uwNORMemoryDataWidth, NOR_CMD_ADDRESS_FOURTH), NOR_CMD_DA
 1519              		.loc 1 838 3 discriminator 4 view .LVU441
 1520 0060 AA24     		movs	r4, #170
 1521 0062 0C80     		strh	r4, [r1]	@ movhi
 839:Libraries/STM32F4xx_HAL_Driver/Src/stm32f4xx_hal_nor.c ****   NOR_WRITE(NOR_ADDR_SHIFT(deviceaddress, uwNORMemoryDataWidth, NOR_CMD_ADDRESS_FIFTH), NOR_CMD_DAT
 1522              		.loc 1 839 3 discriminator 4 view .LVU442
 1523 0064 1080     		strh	r0, [r2]	@ movhi
 840:Libraries/STM32F4xx_HAL_Driver/Src/stm32f4xx_hal_nor.c ****   NOR_WRITE(NOR_ADDR_SHIFT(deviceaddress, uwNORMemoryDataWidth, NOR_CMD_ADDRESS_SIXTH), NOR_CMD_DAT
 1524              		.loc 1 840 3 discriminator 4 view .LVU443
 1525 0066 1022     		movs	r2, #16
 1526 0068 0A80     		strh	r2, [r1]	@ movhi
 841:Libraries/STM32F4xx_HAL_Driver/Src/stm32f4xx_hal_nor.c ****   
 842:Libraries/STM32F4xx_HAL_Driver/Src/stm32f4xx_hal_nor.c ****   /* Check the NOR memory status and update the controller state */
 843:Libraries/STM32F4xx_HAL_Driver/Src/stm32f4xx_hal_nor.c ****   hnor->State = HAL_NOR_STATE_READY;
 1527              		.loc 1 843 3 discriminator 4 view .LVU444
 1528              		.loc 1 843 15 is_stmt 0 discriminator 4 view .LVU445
 1529 006a 0122     		movs	r2, #1
 1530 006c 83F84920 		strb	r2, [r3, #73]
 844:Libraries/STM32F4xx_HAL_Driver/Src/stm32f4xx_hal_nor.c ****     
 845:Libraries/STM32F4xx_HAL_Driver/Src/stm32f4xx_hal_nor.c ****   /* Process unlocked */
ARM GAS  C:\Users\yzy\AppData\Local\Temp\ccvAdv2d.s 			page 44


 846:Libraries/STM32F4xx_HAL_Driver/Src/stm32f4xx_hal_nor.c ****   __HAL_UNLOCK(hnor);
 1531              		.loc 1 846 3 is_stmt 1 discriminator 4 view .LVU446
 1532              		.loc 1 846 3 discriminator 4 view .LVU447
 1533 0070 0020     		movs	r0, #0
 1534 0072 83F84800 		strb	r0, [r3, #72]
 1535              		.loc 1 846 3 discriminator 4 view .LVU448
 847:Libraries/STM32F4xx_HAL_Driver/Src/stm32f4xx_hal_nor.c ****   
 848:Libraries/STM32F4xx_HAL_Driver/Src/stm32f4xx_hal_nor.c ****   return HAL_OK;  
 1536              		.loc 1 848 3 discriminator 4 view .LVU449
 849:Libraries/STM32F4xx_HAL_Driver/Src/stm32f4xx_hal_nor.c **** }
 1537              		.loc 1 849 1 is_stmt 0 discriminator 4 view .LVU450
 1538 0076 30BC     		pop	{r4, r5}
 1539              	.LCFI24:
 1540              		.cfi_remember_state
 1541              		.cfi_restore 5
 1542              		.cfi_restore 4
 1543              		.cfi_def_cfa_offset 0
 1544 0078 7047     		bx	lr
 1545              	.LVL102:
 1546              	.L166:
 1547              	.LCFI25:
 1548              		.cfi_restore_state
 820:Libraries/STM32F4xx_HAL_Driver/Src/stm32f4xx_hal_nor.c ****   }
 1549              		.loc 1 820 19 view .LVU451
 1550 007a 4FF0C842 		mov	r2, #1677721600
 1551 007e DBE7     		b	.L159
 1552              	.LVL103:
 1553              	.L173:
 835:Libraries/STM32F4xx_HAL_Driver/Src/stm32f4xx_hal_nor.c ****   NOR_WRITE(NOR_ADDR_SHIFT(deviceaddress, uwNORMemoryDataWidth, NOR_CMD_ADDRESS_SECOND), NOR_CMD_DA
 1554              		.loc 1 835 3 discriminator 1 view .LVU452
 1555 0080 02F6AA24 		addw	r4, r2, #2730
 1556 0084 E1E7     		b	.L161
 1557              	.L174:
 836:Libraries/STM32F4xx_HAL_Driver/Src/stm32f4xx_hal_nor.c ****   NOR_WRITE(NOR_ADDR_SHIFT(deviceaddress, uwNORMemoryDataWidth, NOR_CMD_ADDRESS_THIRD), NOR_CMD_DAT
 1558              		.loc 1 836 3 discriminator 1 view .LVU453
 1559 0086 02F25452 		addw	r2, r2, #1364
 1560              	.LVL104:
 836:Libraries/STM32F4xx_HAL_Driver/Src/stm32f4xx_hal_nor.c ****   NOR_WRITE(NOR_ADDR_SHIFT(deviceaddress, uwNORMemoryDataWidth, NOR_CMD_ADDRESS_THIRD), NOR_CMD_DAT
 1561              		.loc 1 836 3 discriminator 1 view .LVU454
 1562 008a E5E7     		b	.L163
 1563              	.LVL105:
 1564              	.L164:
 1565              	.LCFI26:
 1566              		.cfi_def_cfa_offset 0
 1567              		.cfi_restore 4
 1568              		.cfi_restore 5
 805:Libraries/STM32F4xx_HAL_Driver/Src/stm32f4xx_hal_nor.c ****   
 1569              		.loc 1 805 3 view .LVU455
 1570 008c 0220     		movs	r0, #2
 1571              	.LVL106:
 805:Libraries/STM32F4xx_HAL_Driver/Src/stm32f4xx_hal_nor.c ****   
 1572              		.loc 1 805 3 view .LVU456
 1573 008e 7047     		bx	lr
 1574              	.LVL107:
 1575              	.L169:
 1576              		.loc 1 849 1 view .LVU457
 1577 0090 7047     		bx	lr
ARM GAS  C:\Users\yzy\AppData\Local\Temp\ccvAdv2d.s 			page 45


 1578              	.L176:
 1579 0092 00BF     		.align	2
 1580              	.L175:
 1581 0094 00000000 		.word	.LANCHOR0
 1582              		.cfi_endproc
 1583              	.LFE142:
 1585              		.section	.text.HAL_NOR_Read_CFI,"ax",%progbits
 1586              		.align	1
 1587              		.global	HAL_NOR_Read_CFI
 1588              		.syntax unified
 1589              		.thumb
 1590              		.thumb_func
 1591              		.fpu softvfp
 1593              	HAL_NOR_Read_CFI:
 1594              	.LVL108:
 1595              	.LFB143:
 850:Libraries/STM32F4xx_HAL_Driver/Src/stm32f4xx_hal_nor.c **** 
 851:Libraries/STM32F4xx_HAL_Driver/Src/stm32f4xx_hal_nor.c **** /**
 852:Libraries/STM32F4xx_HAL_Driver/Src/stm32f4xx_hal_nor.c ****   * @brief  Read NOR flash CFI IDs
 853:Libraries/STM32F4xx_HAL_Driver/Src/stm32f4xx_hal_nor.c ****   * @param  hnor pointer to a NOR_HandleTypeDef structure that contains
 854:Libraries/STM32F4xx_HAL_Driver/Src/stm32f4xx_hal_nor.c ****   *                the configuration information for NOR module.
 855:Libraries/STM32F4xx_HAL_Driver/Src/stm32f4xx_hal_nor.c ****   * @param  pNOR_CFI  pointer to NOR CFI IDs structure  
 856:Libraries/STM32F4xx_HAL_Driver/Src/stm32f4xx_hal_nor.c ****   * @retval HAL status
 857:Libraries/STM32F4xx_HAL_Driver/Src/stm32f4xx_hal_nor.c ****   */
 858:Libraries/STM32F4xx_HAL_Driver/Src/stm32f4xx_hal_nor.c **** HAL_StatusTypeDef HAL_NOR_Read_CFI(NOR_HandleTypeDef *hnor, NOR_CFITypeDef *pNOR_CFI)
 859:Libraries/STM32F4xx_HAL_Driver/Src/stm32f4xx_hal_nor.c **** {
 1596              		.loc 1 859 1 is_stmt 1 view -0
 1597              		.cfi_startproc
 1598              		@ args = 0, pretend = 0, frame = 0
 1599              		@ frame_needed = 0, uses_anonymous_args = 0
 1600              		@ link register save eliminated.
 860:Libraries/STM32F4xx_HAL_Driver/Src/stm32f4xx_hal_nor.c ****   uint32_t deviceaddress = 0U;
 1601              		.loc 1 860 3 view .LVU459
 861:Libraries/STM32F4xx_HAL_Driver/Src/stm32f4xx_hal_nor.c ****   
 862:Libraries/STM32F4xx_HAL_Driver/Src/stm32f4xx_hal_nor.c ****   /* Process Locked */
 863:Libraries/STM32F4xx_HAL_Driver/Src/stm32f4xx_hal_nor.c ****   __HAL_LOCK(hnor);
 1602              		.loc 1 863 3 view .LVU460
 1603              		.loc 1 863 3 view .LVU461
 1604 0000 90F84820 		ldrb	r2, [r0, #72]	@ zero_extendqisi2
 1605 0004 012A     		cmp	r2, #1
 1606 0006 52D0     		beq	.L190
 1607 0008 0346     		mov	r3, r0
 1608              		.loc 1 863 3 discriminator 2 view .LVU462
 1609 000a 0122     		movs	r2, #1
 1610 000c 80F84820 		strb	r2, [r0, #72]
 1611              		.loc 1 863 3 discriminator 2 view .LVU463
 864:Libraries/STM32F4xx_HAL_Driver/Src/stm32f4xx_hal_nor.c ****   
 865:Libraries/STM32F4xx_HAL_Driver/Src/stm32f4xx_hal_nor.c ****   /* Check the NOR controller state */
 866:Libraries/STM32F4xx_HAL_Driver/Src/stm32f4xx_hal_nor.c ****   if(hnor->State == HAL_NOR_STATE_BUSY)
 1612              		.loc 1 866 3 discriminator 2 view .LVU464
 1613              		.loc 1 866 10 is_stmt 0 discriminator 2 view .LVU465
 1614 0010 90F84900 		ldrb	r0, [r0, #73]	@ zero_extendqisi2
 1615              	.LVL109:
 1616              		.loc 1 866 10 discriminator 2 view .LVU466
 1617 0014 C0B2     		uxtb	r0, r0
 1618              		.loc 1 866 5 discriminator 2 view .LVU467
 1619 0016 0228     		cmp	r0, #2
ARM GAS  C:\Users\yzy\AppData\Local\Temp\ccvAdv2d.s 			page 46


 1620 0018 4BD0     		beq	.L195
 859:Libraries/STM32F4xx_HAL_Driver/Src/stm32f4xx_hal_nor.c ****   uint32_t deviceaddress = 0U;
 1621              		.loc 1 859 1 view .LVU468
 1622 001a 30B4     		push	{r4, r5}
 1623              	.LCFI27:
 1624              		.cfi_def_cfa_offset 8
 1625              		.cfi_offset 4, -8
 1626              		.cfi_offset 5, -4
 867:Libraries/STM32F4xx_HAL_Driver/Src/stm32f4xx_hal_nor.c ****   {
 868:Libraries/STM32F4xx_HAL_Driver/Src/stm32f4xx_hal_nor.c ****      return HAL_BUSY;
 869:Libraries/STM32F4xx_HAL_Driver/Src/stm32f4xx_hal_nor.c ****   }
 870:Libraries/STM32F4xx_HAL_Driver/Src/stm32f4xx_hal_nor.c ****   
 871:Libraries/STM32F4xx_HAL_Driver/Src/stm32f4xx_hal_nor.c ****   /* Select the NOR device address */
 872:Libraries/STM32F4xx_HAL_Driver/Src/stm32f4xx_hal_nor.c ****   if (hnor->Init.NSBank == FMC_NORSRAM_BANK1)
 1627              		.loc 1 872 3 is_stmt 1 view .LVU469
 1628              		.loc 1 872 17 is_stmt 0 view .LVU470
 1629 001c 9A68     		ldr	r2, [r3, #8]
 1630              		.loc 1 872 6 view .LVU471
 1631 001e 4AB1     		cbz	r2, .L191
 873:Libraries/STM32F4xx_HAL_Driver/Src/stm32f4xx_hal_nor.c ****   {
 874:Libraries/STM32F4xx_HAL_Driver/Src/stm32f4xx_hal_nor.c ****     deviceaddress = NOR_MEMORY_ADRESS1;
 875:Libraries/STM32F4xx_HAL_Driver/Src/stm32f4xx_hal_nor.c ****   }
 876:Libraries/STM32F4xx_HAL_Driver/Src/stm32f4xx_hal_nor.c ****   else if (hnor->Init.NSBank == FMC_NORSRAM_BANK2)
 1632              		.loc 1 876 8 is_stmt 1 view .LVU472
 1633              		.loc 1 876 11 is_stmt 0 view .LVU473
 1634 0020 022A     		cmp	r2, #2
 1635 0022 33D0     		beq	.L192
 877:Libraries/STM32F4xx_HAL_Driver/Src/stm32f4xx_hal_nor.c ****   {
 878:Libraries/STM32F4xx_HAL_Driver/Src/stm32f4xx_hal_nor.c ****     deviceaddress = NOR_MEMORY_ADRESS2;
 879:Libraries/STM32F4xx_HAL_Driver/Src/stm32f4xx_hal_nor.c ****   }
 880:Libraries/STM32F4xx_HAL_Driver/Src/stm32f4xx_hal_nor.c ****   else if (hnor->Init.NSBank == FMC_NORSRAM_BANK3)
 1636              		.loc 1 880 8 is_stmt 1 view .LVU474
 1637              		.loc 1 880 11 is_stmt 0 view .LVU475
 1638 0024 042A     		cmp	r2, #4
 1639 0026 02D0     		beq	.L198
 881:Libraries/STM32F4xx_HAL_Driver/Src/stm32f4xx_hal_nor.c ****   {
 882:Libraries/STM32F4xx_HAL_Driver/Src/stm32f4xx_hal_nor.c ****     deviceaddress = NOR_MEMORY_ADRESS3;
 883:Libraries/STM32F4xx_HAL_Driver/Src/stm32f4xx_hal_nor.c ****   }
 884:Libraries/STM32F4xx_HAL_Driver/Src/stm32f4xx_hal_nor.c ****   else /* FMC_NORSRAM_BANK4 */
 885:Libraries/STM32F4xx_HAL_Driver/Src/stm32f4xx_hal_nor.c ****   {
 886:Libraries/STM32F4xx_HAL_Driver/Src/stm32f4xx_hal_nor.c ****     deviceaddress = NOR_MEMORY_ADRESS4;
 1640              		.loc 1 886 19 view .LVU476
 1641 0028 4FF0D842 		mov	r2, #1811939328
 1642 002c 04E0     		b	.L179
 1643              	.L198:
 882:Libraries/STM32F4xx_HAL_Driver/Src/stm32f4xx_hal_nor.c ****   }
 1644              		.loc 1 882 19 view .LVU477
 1645 002e 4FF0D042 		mov	r2, #1744830464
 1646 0032 01E0     		b	.L179
 1647              	.L191:
 874:Libraries/STM32F4xx_HAL_Driver/Src/stm32f4xx_hal_nor.c ****   }
 1648              		.loc 1 874 19 view .LVU478
 1649 0034 4FF0C042 		mov	r2, #1610612736
 1650              	.L179:
 1651              	.LVL110:
 887:Libraries/STM32F4xx_HAL_Driver/Src/stm32f4xx_hal_nor.c ****   }  
 888:Libraries/STM32F4xx_HAL_Driver/Src/stm32f4xx_hal_nor.c ****     
ARM GAS  C:\Users\yzy\AppData\Local\Temp\ccvAdv2d.s 			page 47


 889:Libraries/STM32F4xx_HAL_Driver/Src/stm32f4xx_hal_nor.c ****   /* Update the NOR controller state */
 890:Libraries/STM32F4xx_HAL_Driver/Src/stm32f4xx_hal_nor.c ****   hnor->State = HAL_NOR_STATE_BUSY;
 1652              		.loc 1 890 3 is_stmt 1 view .LVU479
 1653              		.loc 1 890 15 is_stmt 0 view .LVU480
 1654 0038 0220     		movs	r0, #2
 1655 003a 83F84900 		strb	r0, [r3, #73]
 891:Libraries/STM32F4xx_HAL_Driver/Src/stm32f4xx_hal_nor.c ****   
 892:Libraries/STM32F4xx_HAL_Driver/Src/stm32f4xx_hal_nor.c ****   /* Send read CFI query command */
 893:Libraries/STM32F4xx_HAL_Driver/Src/stm32f4xx_hal_nor.c ****   NOR_WRITE(NOR_ADDR_SHIFT(deviceaddress, uwNORMemoryDataWidth, NOR_CMD_ADDRESS_FIRST_CFI), NOR_CMD
 1656              		.loc 1 893 3 is_stmt 1 view .LVU481
 1657 003e 1D48     		ldr	r0, .L204
 1658 0040 0068     		ldr	r0, [r0]
 1659 0042 0128     		cmp	r0, #1
 1660 0044 25D0     		beq	.L199
 1661              		.loc 1 893 3 is_stmt 0 discriminator 2 view .LVU482
 1662 0046 02F15504 		add	r4, r2, #85
 1663              	.L181:
 1664              		.loc 1 893 3 discriminator 4 view .LVU483
 1665 004a 9825     		movs	r5, #152
 1666 004c 2580     		strh	r5, [r4]	@ movhi
 894:Libraries/STM32F4xx_HAL_Driver/Src/stm32f4xx_hal_nor.c **** 
 895:Libraries/STM32F4xx_HAL_Driver/Src/stm32f4xx_hal_nor.c ****   /* read the NOR CFI information */
 896:Libraries/STM32F4xx_HAL_Driver/Src/stm32f4xx_hal_nor.c ****   pNOR_CFI->CFI_1 = *(__IO uint16_t *) NOR_ADDR_SHIFT(deviceaddress, uwNORMemoryDataWidth, CFI1_ADD
 1667              		.loc 1 896 3 is_stmt 1 discriminator 4 view .LVU484
 1668              		.loc 1 896 22 is_stmt 0 discriminator 4 view .LVU485
 1669 004e 0128     		cmp	r0, #1
 1670 0050 22D0     		beq	.L200
 1671              		.loc 1 896 22 discriminator 2 view .LVU486
 1672 0052 02F16104 		add	r4, r2, #97
 1673              	.L183:
 1674              		.loc 1 896 21 discriminator 4 view .LVU487
 1675 0056 2488     		ldrh	r4, [r4]
 1676              		.loc 1 896 19 discriminator 4 view .LVU488
 1677 0058 0C80     		strh	r4, [r1]	@ movhi
 897:Libraries/STM32F4xx_HAL_Driver/Src/stm32f4xx_hal_nor.c ****   pNOR_CFI->CFI_2 = *(__IO uint16_t *) NOR_ADDR_SHIFT(deviceaddress, uwNORMemoryDataWidth, CFI2_ADD
 1678              		.loc 1 897 3 is_stmt 1 discriminator 4 view .LVU489
 1679              		.loc 1 897 22 is_stmt 0 discriminator 4 view .LVU490
 1680 005a 0128     		cmp	r0, #1
 1681 005c 1FD0     		beq	.L201
 1682              		.loc 1 897 22 discriminator 2 view .LVU491
 1683 005e 02F16204 		add	r4, r2, #98
 1684              	.L185:
 1685              		.loc 1 897 21 discriminator 4 view .LVU492
 1686 0062 2488     		ldrh	r4, [r4]
 1687              		.loc 1 897 19 discriminator 4 view .LVU493
 1688 0064 4C80     		strh	r4, [r1, #2]	@ movhi
 898:Libraries/STM32F4xx_HAL_Driver/Src/stm32f4xx_hal_nor.c ****   pNOR_CFI->CFI_3 = *(__IO uint16_t *) NOR_ADDR_SHIFT(deviceaddress, uwNORMemoryDataWidth, CFI3_ADD
 1689              		.loc 1 898 3 is_stmt 1 discriminator 4 view .LVU494
 1690              		.loc 1 898 22 is_stmt 0 discriminator 4 view .LVU495
 1691 0066 0128     		cmp	r0, #1
 1692 0068 1CD0     		beq	.L202
 1693              		.loc 1 898 22 discriminator 2 view .LVU496
 1694 006a 02F16304 		add	r4, r2, #99
 1695              	.L187:
 1696              		.loc 1 898 21 discriminator 4 view .LVU497
 1697 006e 2488     		ldrh	r4, [r4]
 1698              		.loc 1 898 19 discriminator 4 view .LVU498
ARM GAS  C:\Users\yzy\AppData\Local\Temp\ccvAdv2d.s 			page 48


 1699 0070 8C80     		strh	r4, [r1, #4]	@ movhi
 899:Libraries/STM32F4xx_HAL_Driver/Src/stm32f4xx_hal_nor.c ****   pNOR_CFI->CFI_4 = *(__IO uint16_t *) NOR_ADDR_SHIFT(deviceaddress, uwNORMemoryDataWidth, CFI4_ADD
 1700              		.loc 1 899 3 is_stmt 1 discriminator 4 view .LVU499
 1701              		.loc 1 899 22 is_stmt 0 discriminator 4 view .LVU500
 1702 0072 0128     		cmp	r0, #1
 1703 0074 19D0     		beq	.L203
 1704              		.loc 1 899 22 discriminator 2 view .LVU501
 1705 0076 6432     		adds	r2, r2, #100
 1706              	.LVL111:
 1707              	.L189:
 1708              		.loc 1 899 21 discriminator 4 view .LVU502
 1709 0078 1288     		ldrh	r2, [r2]
 1710              		.loc 1 899 19 discriminator 4 view .LVU503
 1711 007a CA80     		strh	r2, [r1, #6]	@ movhi
 900:Libraries/STM32F4xx_HAL_Driver/Src/stm32f4xx_hal_nor.c **** 
 901:Libraries/STM32F4xx_HAL_Driver/Src/stm32f4xx_hal_nor.c ****   /* Check the NOR controller state */
 902:Libraries/STM32F4xx_HAL_Driver/Src/stm32f4xx_hal_nor.c ****   hnor->State = HAL_NOR_STATE_READY;
 1712              		.loc 1 902 3 is_stmt 1 discriminator 4 view .LVU504
 1713              		.loc 1 902 15 is_stmt 0 discriminator 4 view .LVU505
 1714 007c 0122     		movs	r2, #1
 1715 007e 83F84920 		strb	r2, [r3, #73]
 903:Libraries/STM32F4xx_HAL_Driver/Src/stm32f4xx_hal_nor.c ****   
 904:Libraries/STM32F4xx_HAL_Driver/Src/stm32f4xx_hal_nor.c ****   /* Process unlocked */
 905:Libraries/STM32F4xx_HAL_Driver/Src/stm32f4xx_hal_nor.c ****   __HAL_UNLOCK(hnor);
 1716              		.loc 1 905 3 is_stmt 1 discriminator 4 view .LVU506
 1717              		.loc 1 905 3 discriminator 4 view .LVU507
 1718 0082 0020     		movs	r0, #0
 1719 0084 83F84800 		strb	r0, [r3, #72]
 1720              		.loc 1 905 3 discriminator 4 view .LVU508
 906:Libraries/STM32F4xx_HAL_Driver/Src/stm32f4xx_hal_nor.c ****   
 907:Libraries/STM32F4xx_HAL_Driver/Src/stm32f4xx_hal_nor.c ****   return HAL_OK;
 1721              		.loc 1 907 3 discriminator 4 view .LVU509
 908:Libraries/STM32F4xx_HAL_Driver/Src/stm32f4xx_hal_nor.c **** }
 1722              		.loc 1 908 1 is_stmt 0 discriminator 4 view .LVU510
 1723 0088 30BC     		pop	{r4, r5}
 1724              	.LCFI28:
 1725              		.cfi_remember_state
 1726              		.cfi_restore 5
 1727              		.cfi_restore 4
 1728              		.cfi_def_cfa_offset 0
 1729 008a 7047     		bx	lr
 1730              	.LVL112:
 1731              	.L192:
 1732              	.LCFI29:
 1733              		.cfi_restore_state
 878:Libraries/STM32F4xx_HAL_Driver/Src/stm32f4xx_hal_nor.c ****   }
 1734              		.loc 1 878 19 view .LVU511
 1735 008c 4FF0C842 		mov	r2, #1677721600
 1736 0090 D2E7     		b	.L179
 1737              	.LVL113:
 1738              	.L199:
 893:Libraries/STM32F4xx_HAL_Driver/Src/stm32f4xx_hal_nor.c **** 
 1739              		.loc 1 893 3 discriminator 1 view .LVU512
 1740 0092 02F1AA04 		add	r4, r2, #170
 1741 0096 D8E7     		b	.L181
 1742              	.L200:
 896:Libraries/STM32F4xx_HAL_Driver/Src/stm32f4xx_hal_nor.c ****   pNOR_CFI->CFI_2 = *(__IO uint16_t *) NOR_ADDR_SHIFT(deviceaddress, uwNORMemoryDataWidth, CFI2_ADD
ARM GAS  C:\Users\yzy\AppData\Local\Temp\ccvAdv2d.s 			page 49


 1743              		.loc 1 896 22 discriminator 1 view .LVU513
 1744 0098 02F1C204 		add	r4, r2, #194
 1745 009c DBE7     		b	.L183
 1746              	.L201:
 897:Libraries/STM32F4xx_HAL_Driver/Src/stm32f4xx_hal_nor.c ****   pNOR_CFI->CFI_3 = *(__IO uint16_t *) NOR_ADDR_SHIFT(deviceaddress, uwNORMemoryDataWidth, CFI3_ADD
 1747              		.loc 1 897 22 discriminator 1 view .LVU514
 1748 009e 02F1C404 		add	r4, r2, #196
 1749 00a2 DEE7     		b	.L185
 1750              	.L202:
 898:Libraries/STM32F4xx_HAL_Driver/Src/stm32f4xx_hal_nor.c ****   pNOR_CFI->CFI_4 = *(__IO uint16_t *) NOR_ADDR_SHIFT(deviceaddress, uwNORMemoryDataWidth, CFI4_ADD
 1751              		.loc 1 898 22 discriminator 1 view .LVU515
 1752 00a4 02F1C604 		add	r4, r2, #198
 1753 00a8 E1E7     		b	.L187
 1754              	.L203:
 899:Libraries/STM32F4xx_HAL_Driver/Src/stm32f4xx_hal_nor.c **** 
 1755              		.loc 1 899 22 discriminator 1 view .LVU516
 1756 00aa C832     		adds	r2, r2, #200
 1757              	.LVL114:
 899:Libraries/STM32F4xx_HAL_Driver/Src/stm32f4xx_hal_nor.c **** 
 1758              		.loc 1 899 22 discriminator 1 view .LVU517
 1759 00ac E4E7     		b	.L189
 1760              	.LVL115:
 1761              	.L190:
 1762              	.LCFI30:
 1763              		.cfi_def_cfa_offset 0
 1764              		.cfi_restore 4
 1765              		.cfi_restore 5
 863:Libraries/STM32F4xx_HAL_Driver/Src/stm32f4xx_hal_nor.c ****   
 1766              		.loc 1 863 3 view .LVU518
 1767 00ae 0220     		movs	r0, #2
 1768              	.LVL116:
 863:Libraries/STM32F4xx_HAL_Driver/Src/stm32f4xx_hal_nor.c ****   
 1769              		.loc 1 863 3 view .LVU519
 1770 00b0 7047     		bx	lr
 1771              	.LVL117:
 1772              	.L195:
 1773              		.loc 1 908 1 view .LVU520
 1774 00b2 7047     		bx	lr
 1775              	.L205:
 1776              		.align	2
 1777              	.L204:
 1778 00b4 00000000 		.word	.LANCHOR0
 1779              		.cfi_endproc
 1780              	.LFE143:
 1782              		.section	.text.HAL_NOR_WriteOperation_Enable,"ax",%progbits
 1783              		.align	1
 1784              		.global	HAL_NOR_WriteOperation_Enable
 1785              		.syntax unified
 1786              		.thumb
 1787              		.thumb_func
 1788              		.fpu softvfp
 1790              	HAL_NOR_WriteOperation_Enable:
 1791              	.LVL118:
 1792              	.LFB144:
 909:Libraries/STM32F4xx_HAL_Driver/Src/stm32f4xx_hal_nor.c **** 
 910:Libraries/STM32F4xx_HAL_Driver/Src/stm32f4xx_hal_nor.c **** #if (USE_HAL_NOR_REGISTER_CALLBACKS == 1)
 911:Libraries/STM32F4xx_HAL_Driver/Src/stm32f4xx_hal_nor.c **** /**
ARM GAS  C:\Users\yzy\AppData\Local\Temp\ccvAdv2d.s 			page 50


 912:Libraries/STM32F4xx_HAL_Driver/Src/stm32f4xx_hal_nor.c ****   * @brief  Register a User NOR Callback
 913:Libraries/STM32F4xx_HAL_Driver/Src/stm32f4xx_hal_nor.c ****   *         To be used instead of the weak (surcharged) predefined callback
 914:Libraries/STM32F4xx_HAL_Driver/Src/stm32f4xx_hal_nor.c ****   * @param hnor : NOR handle
 915:Libraries/STM32F4xx_HAL_Driver/Src/stm32f4xx_hal_nor.c ****   * @param CallbackId : ID of the callback to be registered
 916:Libraries/STM32F4xx_HAL_Driver/Src/stm32f4xx_hal_nor.c ****   *        This parameter can be one of the following values:
 917:Libraries/STM32F4xx_HAL_Driver/Src/stm32f4xx_hal_nor.c ****   *          @arg @ref HAL_NOR_MSP_INIT_CB_ID       NOR MspInit callback ID
 918:Libraries/STM32F4xx_HAL_Driver/Src/stm32f4xx_hal_nor.c ****   *          @arg @ref HAL_NOR_MSP_DEINIT_CB_ID     NOR MspDeInit callback ID
 919:Libraries/STM32F4xx_HAL_Driver/Src/stm32f4xx_hal_nor.c ****   * @param pCallback : pointer to the Callback function
 920:Libraries/STM32F4xx_HAL_Driver/Src/stm32f4xx_hal_nor.c ****   * @retval status
 921:Libraries/STM32F4xx_HAL_Driver/Src/stm32f4xx_hal_nor.c ****   */
 922:Libraries/STM32F4xx_HAL_Driver/Src/stm32f4xx_hal_nor.c **** HAL_StatusTypeDef HAL_NOR_RegisterCallback (NOR_HandleTypeDef *hnor, HAL_NOR_CallbackIDTypeDef Call
 923:Libraries/STM32F4xx_HAL_Driver/Src/stm32f4xx_hal_nor.c **** {
 924:Libraries/STM32F4xx_HAL_Driver/Src/stm32f4xx_hal_nor.c ****   HAL_StatusTypeDef status = HAL_OK;
 925:Libraries/STM32F4xx_HAL_Driver/Src/stm32f4xx_hal_nor.c ****   HAL_NOR_StateTypeDef state;
 926:Libraries/STM32F4xx_HAL_Driver/Src/stm32f4xx_hal_nor.c **** 
 927:Libraries/STM32F4xx_HAL_Driver/Src/stm32f4xx_hal_nor.c ****   if(pCallback == NULL)
 928:Libraries/STM32F4xx_HAL_Driver/Src/stm32f4xx_hal_nor.c ****   {
 929:Libraries/STM32F4xx_HAL_Driver/Src/stm32f4xx_hal_nor.c ****     return HAL_ERROR;
 930:Libraries/STM32F4xx_HAL_Driver/Src/stm32f4xx_hal_nor.c ****   }
 931:Libraries/STM32F4xx_HAL_Driver/Src/stm32f4xx_hal_nor.c **** 
 932:Libraries/STM32F4xx_HAL_Driver/Src/stm32f4xx_hal_nor.c ****   /* Process locked */
 933:Libraries/STM32F4xx_HAL_Driver/Src/stm32f4xx_hal_nor.c ****   __HAL_LOCK(hnor);
 934:Libraries/STM32F4xx_HAL_Driver/Src/stm32f4xx_hal_nor.c **** 
 935:Libraries/STM32F4xx_HAL_Driver/Src/stm32f4xx_hal_nor.c ****   state = hnor->State;
 936:Libraries/STM32F4xx_HAL_Driver/Src/stm32f4xx_hal_nor.c ****   if((state == HAL_NOR_STATE_READY) || (state == HAL_NOR_STATE_RESET) || (state == HAL_NOR_STATE_PR
 937:Libraries/STM32F4xx_HAL_Driver/Src/stm32f4xx_hal_nor.c ****   {
 938:Libraries/STM32F4xx_HAL_Driver/Src/stm32f4xx_hal_nor.c ****     switch (CallbackId)
 939:Libraries/STM32F4xx_HAL_Driver/Src/stm32f4xx_hal_nor.c ****     {
 940:Libraries/STM32F4xx_HAL_Driver/Src/stm32f4xx_hal_nor.c ****     case HAL_NOR_MSP_INIT_CB_ID :
 941:Libraries/STM32F4xx_HAL_Driver/Src/stm32f4xx_hal_nor.c ****       hnor->MspInitCallback = pCallback;
 942:Libraries/STM32F4xx_HAL_Driver/Src/stm32f4xx_hal_nor.c ****       break;
 943:Libraries/STM32F4xx_HAL_Driver/Src/stm32f4xx_hal_nor.c ****     case HAL_NOR_MSP_DEINIT_CB_ID :
 944:Libraries/STM32F4xx_HAL_Driver/Src/stm32f4xx_hal_nor.c ****       hnor->MspDeInitCallback = pCallback;
 945:Libraries/STM32F4xx_HAL_Driver/Src/stm32f4xx_hal_nor.c ****       break;
 946:Libraries/STM32F4xx_HAL_Driver/Src/stm32f4xx_hal_nor.c ****     default :
 947:Libraries/STM32F4xx_HAL_Driver/Src/stm32f4xx_hal_nor.c ****       /* update return status */
 948:Libraries/STM32F4xx_HAL_Driver/Src/stm32f4xx_hal_nor.c ****       status =  HAL_ERROR;
 949:Libraries/STM32F4xx_HAL_Driver/Src/stm32f4xx_hal_nor.c ****       break;
 950:Libraries/STM32F4xx_HAL_Driver/Src/stm32f4xx_hal_nor.c ****     }
 951:Libraries/STM32F4xx_HAL_Driver/Src/stm32f4xx_hal_nor.c ****   }
 952:Libraries/STM32F4xx_HAL_Driver/Src/stm32f4xx_hal_nor.c ****   else
 953:Libraries/STM32F4xx_HAL_Driver/Src/stm32f4xx_hal_nor.c ****   {
 954:Libraries/STM32F4xx_HAL_Driver/Src/stm32f4xx_hal_nor.c ****     /* update return status */
 955:Libraries/STM32F4xx_HAL_Driver/Src/stm32f4xx_hal_nor.c ****     status =  HAL_ERROR;
 956:Libraries/STM32F4xx_HAL_Driver/Src/stm32f4xx_hal_nor.c ****   }
 957:Libraries/STM32F4xx_HAL_Driver/Src/stm32f4xx_hal_nor.c **** 
 958:Libraries/STM32F4xx_HAL_Driver/Src/stm32f4xx_hal_nor.c ****   /* Release Lock */
 959:Libraries/STM32F4xx_HAL_Driver/Src/stm32f4xx_hal_nor.c ****   __HAL_UNLOCK(hnor);
 960:Libraries/STM32F4xx_HAL_Driver/Src/stm32f4xx_hal_nor.c ****   return status;
 961:Libraries/STM32F4xx_HAL_Driver/Src/stm32f4xx_hal_nor.c **** }
 962:Libraries/STM32F4xx_HAL_Driver/Src/stm32f4xx_hal_nor.c **** 
 963:Libraries/STM32F4xx_HAL_Driver/Src/stm32f4xx_hal_nor.c **** /**
 964:Libraries/STM32F4xx_HAL_Driver/Src/stm32f4xx_hal_nor.c ****   * @brief  Unregister a User NOR Callback
 965:Libraries/STM32F4xx_HAL_Driver/Src/stm32f4xx_hal_nor.c ****   *         NOR Callback is redirected to the weak (surcharged) predefined callback
 966:Libraries/STM32F4xx_HAL_Driver/Src/stm32f4xx_hal_nor.c ****   * @param hnor : NOR handle
 967:Libraries/STM32F4xx_HAL_Driver/Src/stm32f4xx_hal_nor.c ****   * @param CallbackId : ID of the callback to be unregistered
 968:Libraries/STM32F4xx_HAL_Driver/Src/stm32f4xx_hal_nor.c ****   *        This parameter can be one of the following values:
ARM GAS  C:\Users\yzy\AppData\Local\Temp\ccvAdv2d.s 			page 51


 969:Libraries/STM32F4xx_HAL_Driver/Src/stm32f4xx_hal_nor.c ****   *          @arg @ref HAL_NOR_MSP_INIT_CB_ID       NOR MspInit callback ID
 970:Libraries/STM32F4xx_HAL_Driver/Src/stm32f4xx_hal_nor.c ****   *          @arg @ref HAL_NOR_MSP_DEINIT_CB_ID     NOR MspDeInit callback ID
 971:Libraries/STM32F4xx_HAL_Driver/Src/stm32f4xx_hal_nor.c ****   * @retval status
 972:Libraries/STM32F4xx_HAL_Driver/Src/stm32f4xx_hal_nor.c ****   */
 973:Libraries/STM32F4xx_HAL_Driver/Src/stm32f4xx_hal_nor.c **** HAL_StatusTypeDef HAL_NOR_UnRegisterCallback (NOR_HandleTypeDef *hnor, HAL_NOR_CallbackIDTypeDef Ca
 974:Libraries/STM32F4xx_HAL_Driver/Src/stm32f4xx_hal_nor.c **** {
 975:Libraries/STM32F4xx_HAL_Driver/Src/stm32f4xx_hal_nor.c ****   HAL_StatusTypeDef status = HAL_OK;
 976:Libraries/STM32F4xx_HAL_Driver/Src/stm32f4xx_hal_nor.c ****   HAL_NOR_StateTypeDef state;
 977:Libraries/STM32F4xx_HAL_Driver/Src/stm32f4xx_hal_nor.c **** 
 978:Libraries/STM32F4xx_HAL_Driver/Src/stm32f4xx_hal_nor.c ****   /* Process locked */
 979:Libraries/STM32F4xx_HAL_Driver/Src/stm32f4xx_hal_nor.c ****   __HAL_LOCK(hnor);
 980:Libraries/STM32F4xx_HAL_Driver/Src/stm32f4xx_hal_nor.c **** 
 981:Libraries/STM32F4xx_HAL_Driver/Src/stm32f4xx_hal_nor.c ****   state = hnor->State;
 982:Libraries/STM32F4xx_HAL_Driver/Src/stm32f4xx_hal_nor.c ****   if((state == HAL_NOR_STATE_READY) || (state == HAL_NOR_STATE_RESET) || (state == HAL_NOR_STATE_PR
 983:Libraries/STM32F4xx_HAL_Driver/Src/stm32f4xx_hal_nor.c ****   {
 984:Libraries/STM32F4xx_HAL_Driver/Src/stm32f4xx_hal_nor.c ****     switch (CallbackId)
 985:Libraries/STM32F4xx_HAL_Driver/Src/stm32f4xx_hal_nor.c ****     {
 986:Libraries/STM32F4xx_HAL_Driver/Src/stm32f4xx_hal_nor.c ****     case HAL_NOR_MSP_INIT_CB_ID :
 987:Libraries/STM32F4xx_HAL_Driver/Src/stm32f4xx_hal_nor.c ****       hnor->MspInitCallback = HAL_NOR_MspInit;
 988:Libraries/STM32F4xx_HAL_Driver/Src/stm32f4xx_hal_nor.c ****       break;
 989:Libraries/STM32F4xx_HAL_Driver/Src/stm32f4xx_hal_nor.c ****     case HAL_NOR_MSP_DEINIT_CB_ID :
 990:Libraries/STM32F4xx_HAL_Driver/Src/stm32f4xx_hal_nor.c ****       hnor->MspDeInitCallback = HAL_NOR_MspDeInit;
 991:Libraries/STM32F4xx_HAL_Driver/Src/stm32f4xx_hal_nor.c ****       break;
 992:Libraries/STM32F4xx_HAL_Driver/Src/stm32f4xx_hal_nor.c ****     default :
 993:Libraries/STM32F4xx_HAL_Driver/Src/stm32f4xx_hal_nor.c ****       /* update return status */
 994:Libraries/STM32F4xx_HAL_Driver/Src/stm32f4xx_hal_nor.c ****       status =  HAL_ERROR;
 995:Libraries/STM32F4xx_HAL_Driver/Src/stm32f4xx_hal_nor.c ****       break;
 996:Libraries/STM32F4xx_HAL_Driver/Src/stm32f4xx_hal_nor.c ****     }
 997:Libraries/STM32F4xx_HAL_Driver/Src/stm32f4xx_hal_nor.c ****   }
 998:Libraries/STM32F4xx_HAL_Driver/Src/stm32f4xx_hal_nor.c ****   else
 999:Libraries/STM32F4xx_HAL_Driver/Src/stm32f4xx_hal_nor.c ****   {
1000:Libraries/STM32F4xx_HAL_Driver/Src/stm32f4xx_hal_nor.c ****     /* update return status */
1001:Libraries/STM32F4xx_HAL_Driver/Src/stm32f4xx_hal_nor.c ****     status =  HAL_ERROR;
1002:Libraries/STM32F4xx_HAL_Driver/Src/stm32f4xx_hal_nor.c ****   }
1003:Libraries/STM32F4xx_HAL_Driver/Src/stm32f4xx_hal_nor.c **** 
1004:Libraries/STM32F4xx_HAL_Driver/Src/stm32f4xx_hal_nor.c ****   /* Release Lock */
1005:Libraries/STM32F4xx_HAL_Driver/Src/stm32f4xx_hal_nor.c ****   __HAL_UNLOCK(hnor);
1006:Libraries/STM32F4xx_HAL_Driver/Src/stm32f4xx_hal_nor.c ****   return status;
1007:Libraries/STM32F4xx_HAL_Driver/Src/stm32f4xx_hal_nor.c **** }
1008:Libraries/STM32F4xx_HAL_Driver/Src/stm32f4xx_hal_nor.c **** #endif /* (USE_HAL_NOR_REGISTER_CALLBACKS) */
1009:Libraries/STM32F4xx_HAL_Driver/Src/stm32f4xx_hal_nor.c **** /**
1010:Libraries/STM32F4xx_HAL_Driver/Src/stm32f4xx_hal_nor.c ****   * @}
1011:Libraries/STM32F4xx_HAL_Driver/Src/stm32f4xx_hal_nor.c ****   */
1012:Libraries/STM32F4xx_HAL_Driver/Src/stm32f4xx_hal_nor.c ****   
1013:Libraries/STM32F4xx_HAL_Driver/Src/stm32f4xx_hal_nor.c **** /** @defgroup NOR_Exported_Functions_Group3 NOR Control functions
1014:Libraries/STM32F4xx_HAL_Driver/Src/stm32f4xx_hal_nor.c ****  *  @brief   management functions 
1015:Libraries/STM32F4xx_HAL_Driver/Src/stm32f4xx_hal_nor.c ****  *
1016:Libraries/STM32F4xx_HAL_Driver/Src/stm32f4xx_hal_nor.c **** @verbatim   
1017:Libraries/STM32F4xx_HAL_Driver/Src/stm32f4xx_hal_nor.c ****   ==============================================================================
1018:Libraries/STM32F4xx_HAL_Driver/Src/stm32f4xx_hal_nor.c ****                         ##### NOR Control functions #####
1019:Libraries/STM32F4xx_HAL_Driver/Src/stm32f4xx_hal_nor.c ****   ==============================================================================
1020:Libraries/STM32F4xx_HAL_Driver/Src/stm32f4xx_hal_nor.c ****   [..]
1021:Libraries/STM32F4xx_HAL_Driver/Src/stm32f4xx_hal_nor.c ****     This subsection provides a set of functions allowing to control dynamically
1022:Libraries/STM32F4xx_HAL_Driver/Src/stm32f4xx_hal_nor.c ****     the NOR interface.
1023:Libraries/STM32F4xx_HAL_Driver/Src/stm32f4xx_hal_nor.c **** 
1024:Libraries/STM32F4xx_HAL_Driver/Src/stm32f4xx_hal_nor.c **** @endverbatim
1025:Libraries/STM32F4xx_HAL_Driver/Src/stm32f4xx_hal_nor.c ****   * @{
ARM GAS  C:\Users\yzy\AppData\Local\Temp\ccvAdv2d.s 			page 52


1026:Libraries/STM32F4xx_HAL_Driver/Src/stm32f4xx_hal_nor.c ****   */
1027:Libraries/STM32F4xx_HAL_Driver/Src/stm32f4xx_hal_nor.c ****     
1028:Libraries/STM32F4xx_HAL_Driver/Src/stm32f4xx_hal_nor.c **** /**
1029:Libraries/STM32F4xx_HAL_Driver/Src/stm32f4xx_hal_nor.c ****   * @brief  Enables dynamically NOR write operation.
1030:Libraries/STM32F4xx_HAL_Driver/Src/stm32f4xx_hal_nor.c ****   * @param  hnor pointer to a NOR_HandleTypeDef structure that contains
1031:Libraries/STM32F4xx_HAL_Driver/Src/stm32f4xx_hal_nor.c ****   *                the configuration information for NOR module.
1032:Libraries/STM32F4xx_HAL_Driver/Src/stm32f4xx_hal_nor.c ****   * @retval HAL status
1033:Libraries/STM32F4xx_HAL_Driver/Src/stm32f4xx_hal_nor.c ****   */
1034:Libraries/STM32F4xx_HAL_Driver/Src/stm32f4xx_hal_nor.c **** HAL_StatusTypeDef HAL_NOR_WriteOperation_Enable(NOR_HandleTypeDef *hnor)
1035:Libraries/STM32F4xx_HAL_Driver/Src/stm32f4xx_hal_nor.c **** {
 1793              		.loc 1 1035 1 is_stmt 1 view -0
 1794              		.cfi_startproc
 1795              		@ args = 0, pretend = 0, frame = 0
 1796              		@ frame_needed = 0, uses_anonymous_args = 0
 1797              		.loc 1 1035 1 is_stmt 0 view .LVU522
 1798 0000 38B5     		push	{r3, r4, r5, lr}
 1799              	.LCFI31:
 1800              		.cfi_def_cfa_offset 16
 1801              		.cfi_offset 3, -16
 1802              		.cfi_offset 4, -12
 1803              		.cfi_offset 5, -8
 1804              		.cfi_offset 14, -4
1036:Libraries/STM32F4xx_HAL_Driver/Src/stm32f4xx_hal_nor.c ****   /* Process Locked */
1037:Libraries/STM32F4xx_HAL_Driver/Src/stm32f4xx_hal_nor.c ****   __HAL_LOCK(hnor);
 1805              		.loc 1 1037 3 is_stmt 1 view .LVU523
 1806              		.loc 1 1037 3 view .LVU524
 1807 0002 90F84830 		ldrb	r3, [r0, #72]	@ zero_extendqisi2
 1808 0006 012B     		cmp	r3, #1
 1809 0008 0DD0     		beq	.L208
 1810 000a 0446     		mov	r4, r0
 1811              		.loc 1 1037 3 discriminator 2 view .LVU525
 1812 000c 0125     		movs	r5, #1
 1813 000e 80F84850 		strb	r5, [r0, #72]
 1814              		.loc 1 1037 3 discriminator 2 view .LVU526
1038:Libraries/STM32F4xx_HAL_Driver/Src/stm32f4xx_hal_nor.c **** 
1039:Libraries/STM32F4xx_HAL_Driver/Src/stm32f4xx_hal_nor.c ****   /* Enable write operation */
1040:Libraries/STM32F4xx_HAL_Driver/Src/stm32f4xx_hal_nor.c ****   FMC_NORSRAM_WriteOperation_Enable(hnor->Instance, hnor->Init.NSBank); 
 1815              		.loc 1 1040 3 discriminator 2 view .LVU527
 1816 0012 8168     		ldr	r1, [r0, #8]
 1817 0014 0068     		ldr	r0, [r0]
 1818              	.LVL119:
 1819              		.loc 1 1040 3 is_stmt 0 discriminator 2 view .LVU528
 1820 0016 FFF7FEFF 		bl	FSMC_NORSRAM_WriteOperation_Enable
 1821              	.LVL120:
1041:Libraries/STM32F4xx_HAL_Driver/Src/stm32f4xx_hal_nor.c ****   
1042:Libraries/STM32F4xx_HAL_Driver/Src/stm32f4xx_hal_nor.c ****   /* Update the NOR controller state */
1043:Libraries/STM32F4xx_HAL_Driver/Src/stm32f4xx_hal_nor.c ****   hnor->State = HAL_NOR_STATE_READY;
 1822              		.loc 1 1043 3 is_stmt 1 discriminator 2 view .LVU529
 1823              		.loc 1 1043 15 is_stmt 0 discriminator 2 view .LVU530
 1824 001a 84F84950 		strb	r5, [r4, #73]
1044:Libraries/STM32F4xx_HAL_Driver/Src/stm32f4xx_hal_nor.c ****   
1045:Libraries/STM32F4xx_HAL_Driver/Src/stm32f4xx_hal_nor.c ****   /* Process unlocked */
1046:Libraries/STM32F4xx_HAL_Driver/Src/stm32f4xx_hal_nor.c ****   __HAL_UNLOCK(hnor); 
 1825              		.loc 1 1046 3 is_stmt 1 discriminator 2 view .LVU531
 1826              		.loc 1 1046 3 discriminator 2 view .LVU532
 1827 001e 0020     		movs	r0, #0
 1828 0020 84F84800 		strb	r0, [r4, #72]
ARM GAS  C:\Users\yzy\AppData\Local\Temp\ccvAdv2d.s 			page 53


 1829              		.loc 1 1046 3 discriminator 2 view .LVU533
1047:Libraries/STM32F4xx_HAL_Driver/Src/stm32f4xx_hal_nor.c ****   
1048:Libraries/STM32F4xx_HAL_Driver/Src/stm32f4xx_hal_nor.c ****   return HAL_OK;  
 1830              		.loc 1 1048 3 discriminator 2 view .LVU534
 1831              	.LVL121:
 1832              	.L207:
1049:Libraries/STM32F4xx_HAL_Driver/Src/stm32f4xx_hal_nor.c **** }
 1833              		.loc 1 1049 1 is_stmt 0 view .LVU535
 1834 0024 38BD     		pop	{r3, r4, r5, pc}
 1835              	.LVL122:
 1836              	.L208:
1037:Libraries/STM32F4xx_HAL_Driver/Src/stm32f4xx_hal_nor.c **** 
 1837              		.loc 1 1037 3 view .LVU536
 1838 0026 0220     		movs	r0, #2
 1839              	.LVL123:
1037:Libraries/STM32F4xx_HAL_Driver/Src/stm32f4xx_hal_nor.c **** 
 1840              		.loc 1 1037 3 view .LVU537
 1841 0028 FCE7     		b	.L207
 1842              		.cfi_endproc
 1843              	.LFE144:
 1845              		.section	.text.HAL_NOR_WriteOperation_Disable,"ax",%progbits
 1846              		.align	1
 1847              		.global	HAL_NOR_WriteOperation_Disable
 1848              		.syntax unified
 1849              		.thumb
 1850              		.thumb_func
 1851              		.fpu softvfp
 1853              	HAL_NOR_WriteOperation_Disable:
 1854              	.LVL124:
 1855              	.LFB145:
1050:Libraries/STM32F4xx_HAL_Driver/Src/stm32f4xx_hal_nor.c **** 
1051:Libraries/STM32F4xx_HAL_Driver/Src/stm32f4xx_hal_nor.c **** /**
1052:Libraries/STM32F4xx_HAL_Driver/Src/stm32f4xx_hal_nor.c ****   * @brief  Disables dynamically NOR write operation.
1053:Libraries/STM32F4xx_HAL_Driver/Src/stm32f4xx_hal_nor.c ****   * @param  hnor pointer to a NOR_HandleTypeDef structure that contains
1054:Libraries/STM32F4xx_HAL_Driver/Src/stm32f4xx_hal_nor.c ****   *                the configuration information for NOR module.
1055:Libraries/STM32F4xx_HAL_Driver/Src/stm32f4xx_hal_nor.c ****   * @retval HAL status
1056:Libraries/STM32F4xx_HAL_Driver/Src/stm32f4xx_hal_nor.c ****   */
1057:Libraries/STM32F4xx_HAL_Driver/Src/stm32f4xx_hal_nor.c **** HAL_StatusTypeDef HAL_NOR_WriteOperation_Disable(NOR_HandleTypeDef *hnor)
1058:Libraries/STM32F4xx_HAL_Driver/Src/stm32f4xx_hal_nor.c **** {
 1856              		.loc 1 1058 1 is_stmt 1 view -0
 1857              		.cfi_startproc
 1858              		@ args = 0, pretend = 0, frame = 0
 1859              		@ frame_needed = 0, uses_anonymous_args = 0
1059:Libraries/STM32F4xx_HAL_Driver/Src/stm32f4xx_hal_nor.c ****   /* Process Locked */
1060:Libraries/STM32F4xx_HAL_Driver/Src/stm32f4xx_hal_nor.c ****   __HAL_LOCK(hnor);
 1860              		.loc 1 1060 3 view .LVU539
 1861              		.loc 1 1060 3 view .LVU540
 1862 0000 90F84830 		ldrb	r3, [r0, #72]	@ zero_extendqisi2
 1863 0004 012B     		cmp	r3, #1
 1864 0006 12D0     		beq	.L212
1058:Libraries/STM32F4xx_HAL_Driver/Src/stm32f4xx_hal_nor.c ****   /* Process Locked */
 1865              		.loc 1 1058 1 is_stmt 0 discriminator 2 view .LVU541
 1866 0008 10B5     		push	{r4, lr}
 1867              	.LCFI32:
 1868              		.cfi_def_cfa_offset 8
 1869              		.cfi_offset 4, -8
 1870              		.cfi_offset 14, -4
ARM GAS  C:\Users\yzy\AppData\Local\Temp\ccvAdv2d.s 			page 54


 1871 000a 0446     		mov	r4, r0
 1872              		.loc 1 1060 3 is_stmt 1 discriminator 2 view .LVU542
 1873 000c 0123     		movs	r3, #1
 1874 000e 80F84830 		strb	r3, [r0, #72]
 1875              		.loc 1 1060 3 discriminator 2 view .LVU543
1061:Libraries/STM32F4xx_HAL_Driver/Src/stm32f4xx_hal_nor.c **** 
1062:Libraries/STM32F4xx_HAL_Driver/Src/stm32f4xx_hal_nor.c ****   /* Update the SRAM controller state */
1063:Libraries/STM32F4xx_HAL_Driver/Src/stm32f4xx_hal_nor.c ****   hnor->State = HAL_NOR_STATE_BUSY;
 1876              		.loc 1 1063 3 discriminator 2 view .LVU544
 1877              		.loc 1 1063 15 is_stmt 0 discriminator 2 view .LVU545
 1878 0012 0223     		movs	r3, #2
 1879 0014 80F84930 		strb	r3, [r0, #73]
1064:Libraries/STM32F4xx_HAL_Driver/Src/stm32f4xx_hal_nor.c ****     
1065:Libraries/STM32F4xx_HAL_Driver/Src/stm32f4xx_hal_nor.c ****   /* Disable write operation */
1066:Libraries/STM32F4xx_HAL_Driver/Src/stm32f4xx_hal_nor.c ****   FMC_NORSRAM_WriteOperation_Disable(hnor->Instance, hnor->Init.NSBank); 
 1880              		.loc 1 1066 3 is_stmt 1 discriminator 2 view .LVU546
 1881 0018 8168     		ldr	r1, [r0, #8]
 1882 001a 0068     		ldr	r0, [r0]
 1883              	.LVL125:
 1884              		.loc 1 1066 3 is_stmt 0 discriminator 2 view .LVU547
 1885 001c FFF7FEFF 		bl	FSMC_NORSRAM_WriteOperation_Disable
 1886              	.LVL126:
1067:Libraries/STM32F4xx_HAL_Driver/Src/stm32f4xx_hal_nor.c ****   
1068:Libraries/STM32F4xx_HAL_Driver/Src/stm32f4xx_hal_nor.c ****   /* Update the NOR controller state */
1069:Libraries/STM32F4xx_HAL_Driver/Src/stm32f4xx_hal_nor.c ****   hnor->State = HAL_NOR_STATE_PROTECTED;
 1887              		.loc 1 1069 3 is_stmt 1 discriminator 2 view .LVU548
 1888              		.loc 1 1069 15 is_stmt 0 discriminator 2 view .LVU549
 1889 0020 0423     		movs	r3, #4
 1890 0022 84F84930 		strb	r3, [r4, #73]
1070:Libraries/STM32F4xx_HAL_Driver/Src/stm32f4xx_hal_nor.c ****   
1071:Libraries/STM32F4xx_HAL_Driver/Src/stm32f4xx_hal_nor.c ****   /* Process unlocked */
1072:Libraries/STM32F4xx_HAL_Driver/Src/stm32f4xx_hal_nor.c ****   __HAL_UNLOCK(hnor); 
 1891              		.loc 1 1072 3 is_stmt 1 discriminator 2 view .LVU550
 1892              		.loc 1 1072 3 discriminator 2 view .LVU551
 1893 0026 0020     		movs	r0, #0
 1894 0028 84F84800 		strb	r0, [r4, #72]
 1895              		.loc 1 1072 3 discriminator 2 view .LVU552
1073:Libraries/STM32F4xx_HAL_Driver/Src/stm32f4xx_hal_nor.c ****   
1074:Libraries/STM32F4xx_HAL_Driver/Src/stm32f4xx_hal_nor.c ****   return HAL_OK;  
 1896              		.loc 1 1074 3 discriminator 2 view .LVU553
1075:Libraries/STM32F4xx_HAL_Driver/Src/stm32f4xx_hal_nor.c **** }
 1897              		.loc 1 1075 1 is_stmt 0 discriminator 2 view .LVU554
 1898 002c 10BD     		pop	{r4, pc}
 1899              	.LVL127:
 1900              	.L212:
 1901              	.LCFI33:
 1902              		.cfi_def_cfa_offset 0
 1903              		.cfi_restore 4
 1904              		.cfi_restore 14
1060:Libraries/STM32F4xx_HAL_Driver/Src/stm32f4xx_hal_nor.c **** 
 1905              		.loc 1 1060 3 view .LVU555
 1906 002e 0220     		movs	r0, #2
 1907              	.LVL128:
 1908              		.loc 1 1075 1 view .LVU556
 1909 0030 7047     		bx	lr
 1910              		.cfi_endproc
 1911              	.LFE145:
ARM GAS  C:\Users\yzy\AppData\Local\Temp\ccvAdv2d.s 			page 55


 1913              		.section	.text.HAL_NOR_GetState,"ax",%progbits
 1914              		.align	1
 1915              		.global	HAL_NOR_GetState
 1916              		.syntax unified
 1917              		.thumb
 1918              		.thumb_func
 1919              		.fpu softvfp
 1921              	HAL_NOR_GetState:
 1922              	.LVL129:
 1923              	.LFB146:
1076:Libraries/STM32F4xx_HAL_Driver/Src/stm32f4xx_hal_nor.c **** 
1077:Libraries/STM32F4xx_HAL_Driver/Src/stm32f4xx_hal_nor.c **** /**
1078:Libraries/STM32F4xx_HAL_Driver/Src/stm32f4xx_hal_nor.c ****   * @}
1079:Libraries/STM32F4xx_HAL_Driver/Src/stm32f4xx_hal_nor.c ****   */  
1080:Libraries/STM32F4xx_HAL_Driver/Src/stm32f4xx_hal_nor.c ****   
1081:Libraries/STM32F4xx_HAL_Driver/Src/stm32f4xx_hal_nor.c **** /** @defgroup NOR_Exported_Functions_Group4 NOR State functions 
1082:Libraries/STM32F4xx_HAL_Driver/Src/stm32f4xx_hal_nor.c ****  *  @brief   Peripheral State functions 
1083:Libraries/STM32F4xx_HAL_Driver/Src/stm32f4xx_hal_nor.c ****  *
1084:Libraries/STM32F4xx_HAL_Driver/Src/stm32f4xx_hal_nor.c **** @verbatim   
1085:Libraries/STM32F4xx_HAL_Driver/Src/stm32f4xx_hal_nor.c ****   ==============================================================================
1086:Libraries/STM32F4xx_HAL_Driver/Src/stm32f4xx_hal_nor.c ****                       ##### NOR State functions #####
1087:Libraries/STM32F4xx_HAL_Driver/Src/stm32f4xx_hal_nor.c ****   ==============================================================================  
1088:Libraries/STM32F4xx_HAL_Driver/Src/stm32f4xx_hal_nor.c ****   [..]
1089:Libraries/STM32F4xx_HAL_Driver/Src/stm32f4xx_hal_nor.c ****     This subsection permits to get in run-time the status of the NOR controller 
1090:Libraries/STM32F4xx_HAL_Driver/Src/stm32f4xx_hal_nor.c ****     and the data flow.
1091:Libraries/STM32F4xx_HAL_Driver/Src/stm32f4xx_hal_nor.c **** 
1092:Libraries/STM32F4xx_HAL_Driver/Src/stm32f4xx_hal_nor.c **** @endverbatim
1093:Libraries/STM32F4xx_HAL_Driver/Src/stm32f4xx_hal_nor.c ****   * @{
1094:Libraries/STM32F4xx_HAL_Driver/Src/stm32f4xx_hal_nor.c ****   */
1095:Libraries/STM32F4xx_HAL_Driver/Src/stm32f4xx_hal_nor.c ****   
1096:Libraries/STM32F4xx_HAL_Driver/Src/stm32f4xx_hal_nor.c **** /**
1097:Libraries/STM32F4xx_HAL_Driver/Src/stm32f4xx_hal_nor.c ****   * @brief  return the NOR controller state
1098:Libraries/STM32F4xx_HAL_Driver/Src/stm32f4xx_hal_nor.c ****   * @param  hnor pointer to a NOR_HandleTypeDef structure that contains
1099:Libraries/STM32F4xx_HAL_Driver/Src/stm32f4xx_hal_nor.c ****   *                the configuration information for NOR module.
1100:Libraries/STM32F4xx_HAL_Driver/Src/stm32f4xx_hal_nor.c ****   * @retval NOR controller state
1101:Libraries/STM32F4xx_HAL_Driver/Src/stm32f4xx_hal_nor.c ****   */
1102:Libraries/STM32F4xx_HAL_Driver/Src/stm32f4xx_hal_nor.c **** HAL_NOR_StateTypeDef HAL_NOR_GetState(NOR_HandleTypeDef *hnor)
1103:Libraries/STM32F4xx_HAL_Driver/Src/stm32f4xx_hal_nor.c **** {
 1924              		.loc 1 1103 1 is_stmt 1 view -0
 1925              		.cfi_startproc
 1926              		@ args = 0, pretend = 0, frame = 0
 1927              		@ frame_needed = 0, uses_anonymous_args = 0
 1928              		@ link register save eliminated.
1104:Libraries/STM32F4xx_HAL_Driver/Src/stm32f4xx_hal_nor.c ****   return hnor->State;
 1929              		.loc 1 1104 3 view .LVU558
 1930              		.loc 1 1104 14 is_stmt 0 view .LVU559
 1931 0000 90F84900 		ldrb	r0, [r0, #73]	@ zero_extendqisi2
 1932              	.LVL130:
1105:Libraries/STM32F4xx_HAL_Driver/Src/stm32f4xx_hal_nor.c **** }
 1933              		.loc 1 1105 1 view .LVU560
 1934 0004 7047     		bx	lr
 1935              		.cfi_endproc
 1936              	.LFE146:
 1938              		.section	.text.HAL_NOR_GetStatus,"ax",%progbits
 1939              		.align	1
 1940              		.global	HAL_NOR_GetStatus
 1941              		.syntax unified
ARM GAS  C:\Users\yzy\AppData\Local\Temp\ccvAdv2d.s 			page 56


 1942              		.thumb
 1943              		.thumb_func
 1944              		.fpu softvfp
 1946              	HAL_NOR_GetStatus:
 1947              	.LVL131:
 1948              	.LFB147:
1106:Libraries/STM32F4xx_HAL_Driver/Src/stm32f4xx_hal_nor.c **** 
1107:Libraries/STM32F4xx_HAL_Driver/Src/stm32f4xx_hal_nor.c **** /**
1108:Libraries/STM32F4xx_HAL_Driver/Src/stm32f4xx_hal_nor.c ****   * @brief  Returns the NOR operation status.
1109:Libraries/STM32F4xx_HAL_Driver/Src/stm32f4xx_hal_nor.c ****   * @param  hnor pointer to a NOR_HandleTypeDef structure that contains
1110:Libraries/STM32F4xx_HAL_Driver/Src/stm32f4xx_hal_nor.c ****   *                the configuration information for NOR module.   
1111:Libraries/STM32F4xx_HAL_Driver/Src/stm32f4xx_hal_nor.c ****   * @param  Address Device address
1112:Libraries/STM32F4xx_HAL_Driver/Src/stm32f4xx_hal_nor.c ****   * @param  Timeout NOR programming Timeout
1113:Libraries/STM32F4xx_HAL_Driver/Src/stm32f4xx_hal_nor.c ****   * @retval NOR_Status: The returned value can be: HAL_NOR_STATUS_SUCCESS, HAL_NOR_STATUS_ERROR
1114:Libraries/STM32F4xx_HAL_Driver/Src/stm32f4xx_hal_nor.c ****   *         or HAL_NOR_STATUS_TIMEOUT
1115:Libraries/STM32F4xx_HAL_Driver/Src/stm32f4xx_hal_nor.c ****   */
1116:Libraries/STM32F4xx_HAL_Driver/Src/stm32f4xx_hal_nor.c **** HAL_NOR_StatusTypeDef HAL_NOR_GetStatus(NOR_HandleTypeDef *hnor, uint32_t Address, uint32_t Timeout
1117:Libraries/STM32F4xx_HAL_Driver/Src/stm32f4xx_hal_nor.c **** { 
 1949              		.loc 1 1117 1 is_stmt 1 view -0
 1950              		.cfi_startproc
 1951              		@ args = 0, pretend = 0, frame = 0
 1952              		@ frame_needed = 0, uses_anonymous_args = 0
 1953              		.loc 1 1117 1 is_stmt 0 view .LVU562
 1954 0000 F8B5     		push	{r3, r4, r5, r6, r7, lr}
 1955              	.LCFI34:
 1956              		.cfi_def_cfa_offset 24
 1957              		.cfi_offset 3, -24
 1958              		.cfi_offset 4, -20
 1959              		.cfi_offset 5, -16
 1960              		.cfi_offset 6, -12
 1961              		.cfi_offset 7, -8
 1962              		.cfi_offset 14, -4
 1963 0002 0C46     		mov	r4, r1
 1964 0004 1646     		mov	r6, r2
1118:Libraries/STM32F4xx_HAL_Driver/Src/stm32f4xx_hal_nor.c ****   HAL_NOR_StatusTypeDef status = HAL_NOR_STATUS_ONGOING;
 1965              		.loc 1 1118 3 is_stmt 1 view .LVU563
 1966              	.LVL132:
1119:Libraries/STM32F4xx_HAL_Driver/Src/stm32f4xx_hal_nor.c ****   uint16_t tmpSR1 = 0, tmpSR2 = 0;
 1967              		.loc 1 1119 3 view .LVU564
1120:Libraries/STM32F4xx_HAL_Driver/Src/stm32f4xx_hal_nor.c ****   uint32_t tickstart = 0U;
 1968              		.loc 1 1120 3 view .LVU565
1121:Libraries/STM32F4xx_HAL_Driver/Src/stm32f4xx_hal_nor.c **** 
1122:Libraries/STM32F4xx_HAL_Driver/Src/stm32f4xx_hal_nor.c ****   /* Poll on NOR memory Ready/Busy signal ------------------------------------*/
1123:Libraries/STM32F4xx_HAL_Driver/Src/stm32f4xx_hal_nor.c ****   HAL_NOR_MspWait(hnor, Timeout);
 1969              		.loc 1 1123 3 view .LVU566
 1970 0006 1146     		mov	r1, r2
 1971              	.LVL133:
 1972              		.loc 1 1123 3 is_stmt 0 view .LVU567
 1973 0008 FFF7FEFF 		bl	HAL_NOR_MspWait
 1974              	.LVL134:
1124:Libraries/STM32F4xx_HAL_Driver/Src/stm32f4xx_hal_nor.c ****   
1125:Libraries/STM32F4xx_HAL_Driver/Src/stm32f4xx_hal_nor.c ****   /* Get the NOR memory operation status -------------------------------------*/
1126:Libraries/STM32F4xx_HAL_Driver/Src/stm32f4xx_hal_nor.c ****   
1127:Libraries/STM32F4xx_HAL_Driver/Src/stm32f4xx_hal_nor.c ****   /* Get tick */
1128:Libraries/STM32F4xx_HAL_Driver/Src/stm32f4xx_hal_nor.c ****   tickstart = HAL_GetTick();
 1975              		.loc 1 1128 3 is_stmt 1 view .LVU568
 1976              		.loc 1 1128 15 is_stmt 0 view .LVU569
ARM GAS  C:\Users\yzy\AppData\Local\Temp\ccvAdv2d.s 			page 57


 1977 000c FFF7FEFF 		bl	HAL_GetTick
 1978              	.LVL135:
 1979 0010 0746     		mov	r7, r0
 1980              	.LVL136:
1129:Libraries/STM32F4xx_HAL_Driver/Src/stm32f4xx_hal_nor.c ****   while((status != HAL_NOR_STATUS_SUCCESS ) && (status != HAL_NOR_STATUS_TIMEOUT))
 1981              		.loc 1 1129 3 is_stmt 1 view .LVU570
1118:Libraries/STM32F4xx_HAL_Driver/Src/stm32f4xx_hal_nor.c ****   uint16_t tmpSR1 = 0, tmpSR2 = 0;
 1982              		.loc 1 1118 25 is_stmt 0 view .LVU571
 1983 0012 0125     		movs	r5, #1
 1984              		.loc 1 1129 8 view .LVU572
 1985 0014 1BE0     		b	.L219
 1986              	.LVL137:
 1987              	.L231:
1130:Libraries/STM32F4xx_HAL_Driver/Src/stm32f4xx_hal_nor.c ****   {
1131:Libraries/STM32F4xx_HAL_Driver/Src/stm32f4xx_hal_nor.c ****     /* Check for the Timeout */
1132:Libraries/STM32F4xx_HAL_Driver/Src/stm32f4xx_hal_nor.c ****     if(Timeout != HAL_MAX_DELAY)
1133:Libraries/STM32F4xx_HAL_Driver/Src/stm32f4xx_hal_nor.c ****     {
1134:Libraries/STM32F4xx_HAL_Driver/Src/stm32f4xx_hal_nor.c ****       if((Timeout == 0U)||((HAL_GetTick() - tickstart ) > Timeout))
 1988              		.loc 1 1134 29 discriminator 1 view .LVU573
 1989 0016 FFF7FEFF 		bl	HAL_GetTick
 1990              	.LVL138:
 1991              		.loc 1 1134 43 discriminator 1 view .LVU574
 1992 001a C01B     		subs	r0, r0, r7
 1993              		.loc 1 1134 25 discriminator 1 view .LVU575
 1994 001c B042     		cmp	r0, r6
 1995 001e 20D8     		bhi	.L225
 1996              	.LVL139:
 1997              	.L220:
1135:Libraries/STM32F4xx_HAL_Driver/Src/stm32f4xx_hal_nor.c ****       {
1136:Libraries/STM32F4xx_HAL_Driver/Src/stm32f4xx_hal_nor.c ****         status = HAL_NOR_STATUS_TIMEOUT; 
1137:Libraries/STM32F4xx_HAL_Driver/Src/stm32f4xx_hal_nor.c ****       } 
1138:Libraries/STM32F4xx_HAL_Driver/Src/stm32f4xx_hal_nor.c ****     } 
1139:Libraries/STM32F4xx_HAL_Driver/Src/stm32f4xx_hal_nor.c **** 
1140:Libraries/STM32F4xx_HAL_Driver/Src/stm32f4xx_hal_nor.c ****     /* Read NOR status register (DQ6 and DQ5) */
1141:Libraries/STM32F4xx_HAL_Driver/Src/stm32f4xx_hal_nor.c ****     tmpSR1 = *(__IO uint16_t *)Address;
 1998              		.loc 1 1141 5 is_stmt 1 view .LVU576
 1999              		.loc 1 1141 12 is_stmt 0 view .LVU577
 2000 0020 2288     		ldrh	r2, [r4]
 2001 0022 92B2     		uxth	r2, r2
 2002              	.LVL140:
1142:Libraries/STM32F4xx_HAL_Driver/Src/stm32f4xx_hal_nor.c ****     tmpSR2 = *(__IO uint16_t *)Address;
 2003              		.loc 1 1142 5 is_stmt 1 view .LVU578
 2004              		.loc 1 1142 12 is_stmt 0 view .LVU579
 2005 0024 2388     		ldrh	r3, [r4]
 2006 0026 9BB2     		uxth	r3, r3
 2007              	.LVL141:
1143:Libraries/STM32F4xx_HAL_Driver/Src/stm32f4xx_hal_nor.c **** 
1144:Libraries/STM32F4xx_HAL_Driver/Src/stm32f4xx_hal_nor.c ****     /* If DQ6 did not toggle between the two reads then return HAL_NOR_STATUS_SUCCESS  */
1145:Libraries/STM32F4xx_HAL_Driver/Src/stm32f4xx_hal_nor.c ****     if((tmpSR1 & NOR_MASK_STATUS_DQ6) == (tmpSR2 & NOR_MASK_STATUS_DQ6)) 
 2008              		.loc 1 1145 5 is_stmt 1 view .LVU580
 2009              		.loc 1 1145 39 is_stmt 0 view .LVU581
 2010 0028 5340     		eors	r3, r3, r2
 2011              	.LVL142:
 2012              		.loc 1 1145 7 view .LVU582
 2013 002a 13F0400F 		tst	r3, #64
 2014 002e 1AD0     		beq	.L226
1146:Libraries/STM32F4xx_HAL_Driver/Src/stm32f4xx_hal_nor.c ****     {
ARM GAS  C:\Users\yzy\AppData\Local\Temp\ccvAdv2d.s 			page 58


1147:Libraries/STM32F4xx_HAL_Driver/Src/stm32f4xx_hal_nor.c ****       return HAL_NOR_STATUS_SUCCESS ;
1148:Libraries/STM32F4xx_HAL_Driver/Src/stm32f4xx_hal_nor.c ****     }
1149:Libraries/STM32F4xx_HAL_Driver/Src/stm32f4xx_hal_nor.c ****     
1150:Libraries/STM32F4xx_HAL_Driver/Src/stm32f4xx_hal_nor.c ****     if((tmpSR1 & NOR_MASK_STATUS_DQ5) == NOR_MASK_STATUS_DQ5)
 2015              		.loc 1 1150 5 is_stmt 1 view .LVU583
 2016              		.loc 1 1150 7 is_stmt 0 view .LVU584
 2017 0030 12F0200F 		tst	r2, #32
 2018 0034 00D0     		beq	.L222
1151:Libraries/STM32F4xx_HAL_Driver/Src/stm32f4xx_hal_nor.c ****     {
1152:Libraries/STM32F4xx_HAL_Driver/Src/stm32f4xx_hal_nor.c ****       status = HAL_NOR_STATUS_ONGOING;
 2019              		.loc 1 1152 14 view .LVU585
 2020 0036 0125     		movs	r5, #1
 2021              	.LVL143:
 2022              	.L222:
1153:Libraries/STM32F4xx_HAL_Driver/Src/stm32f4xx_hal_nor.c ****     }
1154:Libraries/STM32F4xx_HAL_Driver/Src/stm32f4xx_hal_nor.c ****     
1155:Libraries/STM32F4xx_HAL_Driver/Src/stm32f4xx_hal_nor.c ****     tmpSR1 = *(__IO uint16_t *)Address;
 2023              		.loc 1 1155 5 is_stmt 1 view .LVU586
 2024              		.loc 1 1155 12 is_stmt 0 view .LVU587
 2025 0038 2288     		ldrh	r2, [r4]
 2026              	.LVL144:
 2027              		.loc 1 1155 12 view .LVU588
 2028 003a 92B2     		uxth	r2, r2
 2029              	.LVL145:
1156:Libraries/STM32F4xx_HAL_Driver/Src/stm32f4xx_hal_nor.c ****     tmpSR2 = *(__IO uint16_t *)Address;
 2030              		.loc 1 1156 5 is_stmt 1 view .LVU589
 2031              		.loc 1 1156 12 is_stmt 0 view .LVU590
 2032 003c 2388     		ldrh	r3, [r4]
 2033 003e 9BB2     		uxth	r3, r3
 2034              	.LVL146:
1157:Libraries/STM32F4xx_HAL_Driver/Src/stm32f4xx_hal_nor.c **** 
1158:Libraries/STM32F4xx_HAL_Driver/Src/stm32f4xx_hal_nor.c ****     /* If DQ6 did not toggle between the two reads then return HAL_NOR_STATUS_SUCCESS  */
1159:Libraries/STM32F4xx_HAL_Driver/Src/stm32f4xx_hal_nor.c ****     if((tmpSR1 & NOR_MASK_STATUS_DQ6) == (tmpSR2 & NOR_MASK_STATUS_DQ6)) 
 2035              		.loc 1 1159 5 is_stmt 1 view .LVU591
 2036              		.loc 1 1159 39 is_stmt 0 view .LVU592
 2037 0040 5340     		eors	r3, r3, r2
 2038              	.LVL147:
 2039              		.loc 1 1159 7 view .LVU593
 2040 0042 13F0400F 		tst	r3, #64
 2041 0046 11D0     		beq	.L228
1160:Libraries/STM32F4xx_HAL_Driver/Src/stm32f4xx_hal_nor.c ****     {
1161:Libraries/STM32F4xx_HAL_Driver/Src/stm32f4xx_hal_nor.c ****       return HAL_NOR_STATUS_SUCCESS;
1162:Libraries/STM32F4xx_HAL_Driver/Src/stm32f4xx_hal_nor.c ****     }
1163:Libraries/STM32F4xx_HAL_Driver/Src/stm32f4xx_hal_nor.c ****     if((tmpSR1 & NOR_MASK_STATUS_DQ5) == NOR_MASK_STATUS_DQ5)
 2042              		.loc 1 1163 5 is_stmt 1 view .LVU594
 2043              		.loc 1 1163 7 is_stmt 0 view .LVU595
 2044 0048 12F0200F 		tst	r2, #32
 2045 004c 10D1     		bne	.L229
 2046              	.LVL148:
 2047              	.L219:
1129:Libraries/STM32F4xx_HAL_Driver/Src/stm32f4xx_hal_nor.c ****   {
 2048              		.loc 1 1129 8 is_stmt 1 view .LVU596
 2049 004e 5DB1     		cbz	r5, .L221
1129:Libraries/STM32F4xx_HAL_Driver/Src/stm32f4xx_hal_nor.c ****   {
 2050              		.loc 1 1129 45 is_stmt 0 discriminator 1 view .LVU597
 2051 0050 032D     		cmp	r5, #3
 2052 0052 09D0     		beq	.L221
ARM GAS  C:\Users\yzy\AppData\Local\Temp\ccvAdv2d.s 			page 59


1132:Libraries/STM32F4xx_HAL_Driver/Src/stm32f4xx_hal_nor.c ****     {
 2053              		.loc 1 1132 5 is_stmt 1 view .LVU598
1132:Libraries/STM32F4xx_HAL_Driver/Src/stm32f4xx_hal_nor.c ****     {
 2054              		.loc 1 1132 7 is_stmt 0 view .LVU599
 2055 0054 B6F1FF3F 		cmp	r6, #-1
 2056 0058 E2D0     		beq	.L220
1134:Libraries/STM32F4xx_HAL_Driver/Src/stm32f4xx_hal_nor.c ****       {
 2057              		.loc 1 1134 7 is_stmt 1 view .LVU600
1134:Libraries/STM32F4xx_HAL_Driver/Src/stm32f4xx_hal_nor.c ****       {
 2058              		.loc 1 1134 9 is_stmt 0 view .LVU601
 2059 005a 002E     		cmp	r6, #0
 2060 005c DBD1     		bne	.L231
1136:Libraries/STM32F4xx_HAL_Driver/Src/stm32f4xx_hal_nor.c ****       } 
 2061              		.loc 1 1136 16 view .LVU602
 2062 005e 0325     		movs	r5, #3
 2063              	.LVL149:
1136:Libraries/STM32F4xx_HAL_Driver/Src/stm32f4xx_hal_nor.c ****       } 
 2064              		.loc 1 1136 16 view .LVU603
 2065 0060 DEE7     		b	.L220
 2066              	.LVL150:
 2067              	.L225:
1136:Libraries/STM32F4xx_HAL_Driver/Src/stm32f4xx_hal_nor.c ****       } 
 2068              		.loc 1 1136 16 view .LVU604
 2069 0062 0325     		movs	r5, #3
 2070              	.LVL151:
1136:Libraries/STM32F4xx_HAL_Driver/Src/stm32f4xx_hal_nor.c ****       } 
 2071              		.loc 1 1136 16 view .LVU605
 2072 0064 DCE7     		b	.L220
 2073              	.LVL152:
 2074              	.L226:
1147:Libraries/STM32F4xx_HAL_Driver/Src/stm32f4xx_hal_nor.c ****     }
 2075              		.loc 1 1147 14 view .LVU606
 2076 0066 0025     		movs	r5, #0
 2077              	.LVL153:
 2078              	.L221:
1164:Libraries/STM32F4xx_HAL_Driver/Src/stm32f4xx_hal_nor.c ****     {
1165:Libraries/STM32F4xx_HAL_Driver/Src/stm32f4xx_hal_nor.c ****       return HAL_NOR_STATUS_ERROR;
1166:Libraries/STM32F4xx_HAL_Driver/Src/stm32f4xx_hal_nor.c ****     } 
1167:Libraries/STM32F4xx_HAL_Driver/Src/stm32f4xx_hal_nor.c ****   }
1168:Libraries/STM32F4xx_HAL_Driver/Src/stm32f4xx_hal_nor.c **** 
1169:Libraries/STM32F4xx_HAL_Driver/Src/stm32f4xx_hal_nor.c ****   /* Return the operation status */
1170:Libraries/STM32F4xx_HAL_Driver/Src/stm32f4xx_hal_nor.c ****   return status;
1171:Libraries/STM32F4xx_HAL_Driver/Src/stm32f4xx_hal_nor.c **** }
 2079              		.loc 1 1171 1 view .LVU607
 2080 0068 2846     		mov	r0, r5
 2081 006a F8BD     		pop	{r3, r4, r5, r6, r7, pc}
 2082              	.LVL154:
 2083              	.L228:
1161:Libraries/STM32F4xx_HAL_Driver/Src/stm32f4xx_hal_nor.c ****     }
 2084              		.loc 1 1161 14 view .LVU608
 2085 006c 0025     		movs	r5, #0
 2086              	.LVL155:
1161:Libraries/STM32F4xx_HAL_Driver/Src/stm32f4xx_hal_nor.c ****     }
 2087              		.loc 1 1161 14 view .LVU609
 2088 006e FBE7     		b	.L221
 2089              	.LVL156:
 2090              	.L229:
ARM GAS  C:\Users\yzy\AppData\Local\Temp\ccvAdv2d.s 			page 60


1165:Libraries/STM32F4xx_HAL_Driver/Src/stm32f4xx_hal_nor.c ****     } 
 2091              		.loc 1 1165 14 view .LVU610
 2092 0070 0225     		movs	r5, #2
 2093              	.LVL157:
1165:Libraries/STM32F4xx_HAL_Driver/Src/stm32f4xx_hal_nor.c ****     } 
 2094              		.loc 1 1165 14 view .LVU611
 2095 0072 F9E7     		b	.L221
 2096              		.cfi_endproc
 2097              	.LFE147:
 2099              		.section	.bss.uwNORMemoryDataWidth,"aw",%nobits
 2100              		.align	2
 2101              		.set	.LANCHOR0,. + 0
 2104              	uwNORMemoryDataWidth:
 2105 0000 00000000 		.space	4
 2106              		.text
 2107              	.Letext0:
 2108              		.file 2 "c:\\program files (x86)\\gnu arm embedded toolchain\\2020-q2-update\\arm-none-eabi\\inclu
 2109              		.file 3 "c:\\program files (x86)\\gnu arm embedded toolchain\\2020-q2-update\\arm-none-eabi\\inclu
 2110              		.file 4 "Libraries/CMSIS/Include/core_cm4.h"
 2111              		.file 5 "Libraries/CMSIS/Device/ST/STM32F4xx/Include/system_stm32f4xx.h"
 2112              		.file 6 "Libraries/CMSIS/Device/ST/STM32F4xx/Include/stm32f407xx.h"
 2113              		.file 7 "Libraries/STM32F4xx_HAL_Driver/Inc/stm32f4xx_hal_def.h"
 2114              		.file 8 "Libraries/STM32F4xx_HAL_Driver/Inc/stm32f4xx_ll_fsmc.h"
 2115              		.file 9 "Libraries/STM32F4xx_HAL_Driver/Inc/stm32f4xx_hal_nor.h"
 2116              		.file 10 "Libraries/STM32F4xx_HAL_Driver/Inc/stm32f4xx_hal.h"
ARM GAS  C:\Users\yzy\AppData\Local\Temp\ccvAdv2d.s 			page 61

