ARM GAS  C:\Users\yzy\AppData\Local\Temp\ccHOwreO.s 			page 1


   1              		.cpu cortex-m4
   2              		.eabi_attribute 20, 1
   3              		.eabi_attribute 21, 1
   4              		.eabi_attribute 23, 3
   5              		.eabi_attribute 24, 1
   6              		.eabi_attribute 25, 1
   7              		.eabi_attribute 26, 1
   8              		.eabi_attribute 30, 1
   9              		.eabi_attribute 34, 1
  10              		.eabi_attribute 18, 4
  11              		.file	"stm32f4xx_hal_rcc.c"
  12              		.text
  13              	.Ltext0:
  14              		.cfi_sections	.debug_frame
  15              		.section	.text.HAL_RCC_DeInit,"ax",%progbits
  16              		.align	1
  17              		.weak	HAL_RCC_DeInit
  18              		.arch armv7e-m
  19              		.syntax unified
  20              		.thumb
  21              		.thumb_func
  22              		.fpu softvfp
  24              	HAL_RCC_DeInit:
  25              	.LFB130:
  26              		.file 1 "Libraries/STM32F4xx_HAL_Driver/Src/stm32f4xx_hal_rcc.c"
   1:Libraries/STM32F4xx_HAL_Driver/Src/stm32f4xx_hal_rcc.c **** /**
   2:Libraries/STM32F4xx_HAL_Driver/Src/stm32f4xx_hal_rcc.c ****   ******************************************************************************
   3:Libraries/STM32F4xx_HAL_Driver/Src/stm32f4xx_hal_rcc.c ****   * @file    stm32f4xx_hal_rcc.c
   4:Libraries/STM32F4xx_HAL_Driver/Src/stm32f4xx_hal_rcc.c ****   * @author  MCD Application Team
   5:Libraries/STM32F4xx_HAL_Driver/Src/stm32f4xx_hal_rcc.c ****   * @brief   RCC HAL module driver.
   6:Libraries/STM32F4xx_HAL_Driver/Src/stm32f4xx_hal_rcc.c ****   *          This file provides firmware functions to manage the following
   7:Libraries/STM32F4xx_HAL_Driver/Src/stm32f4xx_hal_rcc.c ****   *          functionalities of the Reset and Clock Control (RCC) peripheral:
   8:Libraries/STM32F4xx_HAL_Driver/Src/stm32f4xx_hal_rcc.c ****   *           + Initialization and de-initialization functions
   9:Libraries/STM32F4xx_HAL_Driver/Src/stm32f4xx_hal_rcc.c ****   *           + Peripheral Control functions
  10:Libraries/STM32F4xx_HAL_Driver/Src/stm32f4xx_hal_rcc.c ****   *
  11:Libraries/STM32F4xx_HAL_Driver/Src/stm32f4xx_hal_rcc.c ****   @verbatim
  12:Libraries/STM32F4xx_HAL_Driver/Src/stm32f4xx_hal_rcc.c ****   ==============================================================================
  13:Libraries/STM32F4xx_HAL_Driver/Src/stm32f4xx_hal_rcc.c ****                       ##### RCC specific features #####
  14:Libraries/STM32F4xx_HAL_Driver/Src/stm32f4xx_hal_rcc.c ****   ==============================================================================
  15:Libraries/STM32F4xx_HAL_Driver/Src/stm32f4xx_hal_rcc.c ****     [..]
  16:Libraries/STM32F4xx_HAL_Driver/Src/stm32f4xx_hal_rcc.c ****       After reset the device is running from Internal High Speed oscillator
  17:Libraries/STM32F4xx_HAL_Driver/Src/stm32f4xx_hal_rcc.c ****       (HSI 16MHz) with Flash 0 wait state, Flash prefetch buffer, D-Cache
  18:Libraries/STM32F4xx_HAL_Driver/Src/stm32f4xx_hal_rcc.c ****       and I-Cache are disabled, and all peripherals are off except internal
  19:Libraries/STM32F4xx_HAL_Driver/Src/stm32f4xx_hal_rcc.c ****       SRAM, Flash and JTAG.
  20:Libraries/STM32F4xx_HAL_Driver/Src/stm32f4xx_hal_rcc.c ****       (+) There is no prescaler on High speed (AHB) and Low speed (APB) busses;
  21:Libraries/STM32F4xx_HAL_Driver/Src/stm32f4xx_hal_rcc.c ****           all peripherals mapped on these busses are running at HSI speed.
  22:Libraries/STM32F4xx_HAL_Driver/Src/stm32f4xx_hal_rcc.c ****       (+) The clock for all peripherals is switched off, except the SRAM and FLASH.
  23:Libraries/STM32F4xx_HAL_Driver/Src/stm32f4xx_hal_rcc.c ****       (+) All GPIOs are in input floating state, except the JTAG pins which
  24:Libraries/STM32F4xx_HAL_Driver/Src/stm32f4xx_hal_rcc.c ****           are assigned to be used for debug purpose.
  25:Libraries/STM32F4xx_HAL_Driver/Src/stm32f4xx_hal_rcc.c **** 
  26:Libraries/STM32F4xx_HAL_Driver/Src/stm32f4xx_hal_rcc.c ****     [..]
  27:Libraries/STM32F4xx_HAL_Driver/Src/stm32f4xx_hal_rcc.c ****       Once the device started from reset, the user application has to:
  28:Libraries/STM32F4xx_HAL_Driver/Src/stm32f4xx_hal_rcc.c ****       (+) Configure the clock source to be used to drive the System clock
  29:Libraries/STM32F4xx_HAL_Driver/Src/stm32f4xx_hal_rcc.c ****           (if the application needs higher frequency/performance)
  30:Libraries/STM32F4xx_HAL_Driver/Src/stm32f4xx_hal_rcc.c ****       (+) Configure the System clock frequency and Flash settings
  31:Libraries/STM32F4xx_HAL_Driver/Src/stm32f4xx_hal_rcc.c ****       (+) Configure the AHB and APB busses prescalers
  32:Libraries/STM32F4xx_HAL_Driver/Src/stm32f4xx_hal_rcc.c ****       (+) Enable the clock for the peripheral(s) to be used
ARM GAS  C:\Users\yzy\AppData\Local\Temp\ccHOwreO.s 			page 2


  33:Libraries/STM32F4xx_HAL_Driver/Src/stm32f4xx_hal_rcc.c ****       (+) Configure the clock source(s) for peripherals which clocks are not
  34:Libraries/STM32F4xx_HAL_Driver/Src/stm32f4xx_hal_rcc.c ****           derived from the System clock (I2S, RTC, ADC, USB OTG FS/SDIO/RNG)
  35:Libraries/STM32F4xx_HAL_Driver/Src/stm32f4xx_hal_rcc.c **** 
  36:Libraries/STM32F4xx_HAL_Driver/Src/stm32f4xx_hal_rcc.c ****                       ##### RCC Limitations #####
  37:Libraries/STM32F4xx_HAL_Driver/Src/stm32f4xx_hal_rcc.c ****   ==============================================================================
  38:Libraries/STM32F4xx_HAL_Driver/Src/stm32f4xx_hal_rcc.c ****     [..]
  39:Libraries/STM32F4xx_HAL_Driver/Src/stm32f4xx_hal_rcc.c ****       A delay between an RCC peripheral clock enable and the effective peripheral
  40:Libraries/STM32F4xx_HAL_Driver/Src/stm32f4xx_hal_rcc.c ****       enabling should be taken into account in order to manage the peripheral read/write
  41:Libraries/STM32F4xx_HAL_Driver/Src/stm32f4xx_hal_rcc.c ****       from/to registers.
  42:Libraries/STM32F4xx_HAL_Driver/Src/stm32f4xx_hal_rcc.c ****       (+) This delay depends on the peripheral mapping.
  43:Libraries/STM32F4xx_HAL_Driver/Src/stm32f4xx_hal_rcc.c ****       (+) If peripheral is mapped on AHB: the delay is 2 AHB clock cycle
  44:Libraries/STM32F4xx_HAL_Driver/Src/stm32f4xx_hal_rcc.c ****           after the clock enable bit is set on the hardware register
  45:Libraries/STM32F4xx_HAL_Driver/Src/stm32f4xx_hal_rcc.c ****       (+) If peripheral is mapped on APB: the delay is 2 APB clock cycle
  46:Libraries/STM32F4xx_HAL_Driver/Src/stm32f4xx_hal_rcc.c ****           after the clock enable bit is set on the hardware register
  47:Libraries/STM32F4xx_HAL_Driver/Src/stm32f4xx_hal_rcc.c **** 
  48:Libraries/STM32F4xx_HAL_Driver/Src/stm32f4xx_hal_rcc.c ****     [..]
  49:Libraries/STM32F4xx_HAL_Driver/Src/stm32f4xx_hal_rcc.c ****       Implemented Workaround:
  50:Libraries/STM32F4xx_HAL_Driver/Src/stm32f4xx_hal_rcc.c ****       (+) For AHB & APB peripherals, a dummy read to the peripheral register has been
  51:Libraries/STM32F4xx_HAL_Driver/Src/stm32f4xx_hal_rcc.c ****           inserted in each __HAL_RCC_PPP_CLK_ENABLE() macro.
  52:Libraries/STM32F4xx_HAL_Driver/Src/stm32f4xx_hal_rcc.c **** 
  53:Libraries/STM32F4xx_HAL_Driver/Src/stm32f4xx_hal_rcc.c ****   @endverbatim
  54:Libraries/STM32F4xx_HAL_Driver/Src/stm32f4xx_hal_rcc.c ****   ******************************************************************************
  55:Libraries/STM32F4xx_HAL_Driver/Src/stm32f4xx_hal_rcc.c ****   * @attention
  56:Libraries/STM32F4xx_HAL_Driver/Src/stm32f4xx_hal_rcc.c ****   *
  57:Libraries/STM32F4xx_HAL_Driver/Src/stm32f4xx_hal_rcc.c ****   * <h2><center>&copy; Copyright (c) 2017 STMicroelectronics.
  58:Libraries/STM32F4xx_HAL_Driver/Src/stm32f4xx_hal_rcc.c ****   * All rights reserved.</center></h2>
  59:Libraries/STM32F4xx_HAL_Driver/Src/stm32f4xx_hal_rcc.c ****   *
  60:Libraries/STM32F4xx_HAL_Driver/Src/stm32f4xx_hal_rcc.c ****   * This software component is licensed by ST under BSD 3-Clause license,
  61:Libraries/STM32F4xx_HAL_Driver/Src/stm32f4xx_hal_rcc.c ****   * the "License"; You may not use this file except in compliance with the
  62:Libraries/STM32F4xx_HAL_Driver/Src/stm32f4xx_hal_rcc.c ****   * License. You may obtain a copy of the License at:
  63:Libraries/STM32F4xx_HAL_Driver/Src/stm32f4xx_hal_rcc.c ****   *                        opensource.org/licenses/BSD-3-Clause
  64:Libraries/STM32F4xx_HAL_Driver/Src/stm32f4xx_hal_rcc.c ****   *
  65:Libraries/STM32F4xx_HAL_Driver/Src/stm32f4xx_hal_rcc.c ****   ******************************************************************************
  66:Libraries/STM32F4xx_HAL_Driver/Src/stm32f4xx_hal_rcc.c ****   */
  67:Libraries/STM32F4xx_HAL_Driver/Src/stm32f4xx_hal_rcc.c **** 
  68:Libraries/STM32F4xx_HAL_Driver/Src/stm32f4xx_hal_rcc.c **** /* Includes ------------------------------------------------------------------*/
  69:Libraries/STM32F4xx_HAL_Driver/Src/stm32f4xx_hal_rcc.c **** #include "stm32f4xx_hal.h"
  70:Libraries/STM32F4xx_HAL_Driver/Src/stm32f4xx_hal_rcc.c **** 
  71:Libraries/STM32F4xx_HAL_Driver/Src/stm32f4xx_hal_rcc.c **** /** @addtogroup STM32F4xx_HAL_Driver
  72:Libraries/STM32F4xx_HAL_Driver/Src/stm32f4xx_hal_rcc.c ****   * @{
  73:Libraries/STM32F4xx_HAL_Driver/Src/stm32f4xx_hal_rcc.c ****   */
  74:Libraries/STM32F4xx_HAL_Driver/Src/stm32f4xx_hal_rcc.c **** 
  75:Libraries/STM32F4xx_HAL_Driver/Src/stm32f4xx_hal_rcc.c **** /** @defgroup RCC RCC
  76:Libraries/STM32F4xx_HAL_Driver/Src/stm32f4xx_hal_rcc.c ****   * @brief RCC HAL module driver
  77:Libraries/STM32F4xx_HAL_Driver/Src/stm32f4xx_hal_rcc.c ****   * @{
  78:Libraries/STM32F4xx_HAL_Driver/Src/stm32f4xx_hal_rcc.c ****   */
  79:Libraries/STM32F4xx_HAL_Driver/Src/stm32f4xx_hal_rcc.c **** 
  80:Libraries/STM32F4xx_HAL_Driver/Src/stm32f4xx_hal_rcc.c **** #ifdef HAL_RCC_MODULE_ENABLED
  81:Libraries/STM32F4xx_HAL_Driver/Src/stm32f4xx_hal_rcc.c **** 
  82:Libraries/STM32F4xx_HAL_Driver/Src/stm32f4xx_hal_rcc.c **** /* Private typedef -----------------------------------------------------------*/
  83:Libraries/STM32F4xx_HAL_Driver/Src/stm32f4xx_hal_rcc.c **** /* Private define ------------------------------------------------------------*/
  84:Libraries/STM32F4xx_HAL_Driver/Src/stm32f4xx_hal_rcc.c **** /** @addtogroup RCC_Private_Constants
  85:Libraries/STM32F4xx_HAL_Driver/Src/stm32f4xx_hal_rcc.c ****   * @{
  86:Libraries/STM32F4xx_HAL_Driver/Src/stm32f4xx_hal_rcc.c ****   */
  87:Libraries/STM32F4xx_HAL_Driver/Src/stm32f4xx_hal_rcc.c **** 
  88:Libraries/STM32F4xx_HAL_Driver/Src/stm32f4xx_hal_rcc.c **** /* Private macro -------------------------------------------------------------*/
  89:Libraries/STM32F4xx_HAL_Driver/Src/stm32f4xx_hal_rcc.c **** #define __MCO1_CLK_ENABLE()   __HAL_RCC_GPIOA_CLK_ENABLE()
ARM GAS  C:\Users\yzy\AppData\Local\Temp\ccHOwreO.s 			page 3


  90:Libraries/STM32F4xx_HAL_Driver/Src/stm32f4xx_hal_rcc.c **** #define MCO1_GPIO_PORT        GPIOA
  91:Libraries/STM32F4xx_HAL_Driver/Src/stm32f4xx_hal_rcc.c **** #define MCO1_PIN              GPIO_PIN_8
  92:Libraries/STM32F4xx_HAL_Driver/Src/stm32f4xx_hal_rcc.c **** 
  93:Libraries/STM32F4xx_HAL_Driver/Src/stm32f4xx_hal_rcc.c **** #define __MCO2_CLK_ENABLE()   __HAL_RCC_GPIOC_CLK_ENABLE()
  94:Libraries/STM32F4xx_HAL_Driver/Src/stm32f4xx_hal_rcc.c **** #define MCO2_GPIO_PORT         GPIOC
  95:Libraries/STM32F4xx_HAL_Driver/Src/stm32f4xx_hal_rcc.c **** #define MCO2_PIN               GPIO_PIN_9
  96:Libraries/STM32F4xx_HAL_Driver/Src/stm32f4xx_hal_rcc.c **** /**
  97:Libraries/STM32F4xx_HAL_Driver/Src/stm32f4xx_hal_rcc.c ****   * @}
  98:Libraries/STM32F4xx_HAL_Driver/Src/stm32f4xx_hal_rcc.c ****   */
  99:Libraries/STM32F4xx_HAL_Driver/Src/stm32f4xx_hal_rcc.c **** 
 100:Libraries/STM32F4xx_HAL_Driver/Src/stm32f4xx_hal_rcc.c **** /* Private variables ---------------------------------------------------------*/
 101:Libraries/STM32F4xx_HAL_Driver/Src/stm32f4xx_hal_rcc.c **** /** @defgroup RCC_Private_Variables RCC Private Variables
 102:Libraries/STM32F4xx_HAL_Driver/Src/stm32f4xx_hal_rcc.c ****   * @{
 103:Libraries/STM32F4xx_HAL_Driver/Src/stm32f4xx_hal_rcc.c ****   */
 104:Libraries/STM32F4xx_HAL_Driver/Src/stm32f4xx_hal_rcc.c **** /**
 105:Libraries/STM32F4xx_HAL_Driver/Src/stm32f4xx_hal_rcc.c ****   * @}
 106:Libraries/STM32F4xx_HAL_Driver/Src/stm32f4xx_hal_rcc.c ****   */
 107:Libraries/STM32F4xx_HAL_Driver/Src/stm32f4xx_hal_rcc.c **** /* Private function prototypes -----------------------------------------------*/
 108:Libraries/STM32F4xx_HAL_Driver/Src/stm32f4xx_hal_rcc.c **** /* Private functions ---------------------------------------------------------*/
 109:Libraries/STM32F4xx_HAL_Driver/Src/stm32f4xx_hal_rcc.c **** 
 110:Libraries/STM32F4xx_HAL_Driver/Src/stm32f4xx_hal_rcc.c **** /** @defgroup RCC_Exported_Functions RCC Exported Functions
 111:Libraries/STM32F4xx_HAL_Driver/Src/stm32f4xx_hal_rcc.c ****   *  @{
 112:Libraries/STM32F4xx_HAL_Driver/Src/stm32f4xx_hal_rcc.c ****   */
 113:Libraries/STM32F4xx_HAL_Driver/Src/stm32f4xx_hal_rcc.c **** 
 114:Libraries/STM32F4xx_HAL_Driver/Src/stm32f4xx_hal_rcc.c **** /** @defgroup RCC_Exported_Functions_Group1 Initialization and de-initialization functions
 115:Libraries/STM32F4xx_HAL_Driver/Src/stm32f4xx_hal_rcc.c ****  *  @brief    Initialization and Configuration functions
 116:Libraries/STM32F4xx_HAL_Driver/Src/stm32f4xx_hal_rcc.c ****  *
 117:Libraries/STM32F4xx_HAL_Driver/Src/stm32f4xx_hal_rcc.c **** @verbatim
 118:Libraries/STM32F4xx_HAL_Driver/Src/stm32f4xx_hal_rcc.c ****  ===============================================================================
 119:Libraries/STM32F4xx_HAL_Driver/Src/stm32f4xx_hal_rcc.c ****            ##### Initialization and de-initialization functions #####
 120:Libraries/STM32F4xx_HAL_Driver/Src/stm32f4xx_hal_rcc.c ****  ===============================================================================
 121:Libraries/STM32F4xx_HAL_Driver/Src/stm32f4xx_hal_rcc.c ****     [..]
 122:Libraries/STM32F4xx_HAL_Driver/Src/stm32f4xx_hal_rcc.c ****       This section provides functions allowing to configure the internal/external oscillators
 123:Libraries/STM32F4xx_HAL_Driver/Src/stm32f4xx_hal_rcc.c ****       (HSE, HSI, LSE, LSI, PLL, CSS and MCO) and the System busses clocks (SYSCLK, AHB, APB1
 124:Libraries/STM32F4xx_HAL_Driver/Src/stm32f4xx_hal_rcc.c ****        and APB2).
 125:Libraries/STM32F4xx_HAL_Driver/Src/stm32f4xx_hal_rcc.c **** 
 126:Libraries/STM32F4xx_HAL_Driver/Src/stm32f4xx_hal_rcc.c ****     [..] Internal/external clock and PLL configuration
 127:Libraries/STM32F4xx_HAL_Driver/Src/stm32f4xx_hal_rcc.c ****          (#) HSI (high-speed internal), 16 MHz factory-trimmed RC used directly or through
 128:Libraries/STM32F4xx_HAL_Driver/Src/stm32f4xx_hal_rcc.c ****              the PLL as System clock source.
 129:Libraries/STM32F4xx_HAL_Driver/Src/stm32f4xx_hal_rcc.c **** 
 130:Libraries/STM32F4xx_HAL_Driver/Src/stm32f4xx_hal_rcc.c ****          (#) LSI (low-speed internal), 32 KHz low consumption RC used as IWDG and/or RTC
 131:Libraries/STM32F4xx_HAL_Driver/Src/stm32f4xx_hal_rcc.c ****              clock source.
 132:Libraries/STM32F4xx_HAL_Driver/Src/stm32f4xx_hal_rcc.c **** 
 133:Libraries/STM32F4xx_HAL_Driver/Src/stm32f4xx_hal_rcc.c ****          (#) HSE (high-speed external), 4 to 26 MHz crystal oscillator used directly or
 134:Libraries/STM32F4xx_HAL_Driver/Src/stm32f4xx_hal_rcc.c ****              through the PLL as System clock source. Can be used also as RTC clock source.
 135:Libraries/STM32F4xx_HAL_Driver/Src/stm32f4xx_hal_rcc.c **** 
 136:Libraries/STM32F4xx_HAL_Driver/Src/stm32f4xx_hal_rcc.c ****          (#) LSE (low-speed external), 32 KHz oscillator used as RTC clock source.
 137:Libraries/STM32F4xx_HAL_Driver/Src/stm32f4xx_hal_rcc.c **** 
 138:Libraries/STM32F4xx_HAL_Driver/Src/stm32f4xx_hal_rcc.c ****          (#) PLL (clocked by HSI or HSE), featuring two different output clocks:
 139:Libraries/STM32F4xx_HAL_Driver/Src/stm32f4xx_hal_rcc.c ****            (++) The first output is used to generate the high speed system clock (up to 168 MHz)
 140:Libraries/STM32F4xx_HAL_Driver/Src/stm32f4xx_hal_rcc.c ****            (++) The second output is used to generate the clock for the USB OTG FS (48 MHz),
 141:Libraries/STM32F4xx_HAL_Driver/Src/stm32f4xx_hal_rcc.c ****                 the random analog generator (<=48 MHz) and the SDIO (<= 48 MHz).
 142:Libraries/STM32F4xx_HAL_Driver/Src/stm32f4xx_hal_rcc.c **** 
 143:Libraries/STM32F4xx_HAL_Driver/Src/stm32f4xx_hal_rcc.c ****          (#) CSS (Clock security system), once enable using the macro __HAL_RCC_CSS_ENABLE()
 144:Libraries/STM32F4xx_HAL_Driver/Src/stm32f4xx_hal_rcc.c ****              and if a HSE clock failure occurs(HSE used directly or through PLL as System
 145:Libraries/STM32F4xx_HAL_Driver/Src/stm32f4xx_hal_rcc.c ****              clock source), the System clocks automatically switched to HSI and an interrupt
 146:Libraries/STM32F4xx_HAL_Driver/Src/stm32f4xx_hal_rcc.c ****              is generated if enabled. The interrupt is linked to the Cortex-M4 NMI
ARM GAS  C:\Users\yzy\AppData\Local\Temp\ccHOwreO.s 			page 4


 147:Libraries/STM32F4xx_HAL_Driver/Src/stm32f4xx_hal_rcc.c ****              (Non-Maskable Interrupt) exception vector.
 148:Libraries/STM32F4xx_HAL_Driver/Src/stm32f4xx_hal_rcc.c **** 
 149:Libraries/STM32F4xx_HAL_Driver/Src/stm32f4xx_hal_rcc.c ****          (#) MCO1 (microcontroller clock output), used to output HSI, LSE, HSE or PLL
 150:Libraries/STM32F4xx_HAL_Driver/Src/stm32f4xx_hal_rcc.c ****              clock (through a configurable prescaler) on PA8 pin.
 151:Libraries/STM32F4xx_HAL_Driver/Src/stm32f4xx_hal_rcc.c **** 
 152:Libraries/STM32F4xx_HAL_Driver/Src/stm32f4xx_hal_rcc.c ****          (#) MCO2 (microcontroller clock output), used to output HSE, PLL, SYSCLK or PLLI2S
 153:Libraries/STM32F4xx_HAL_Driver/Src/stm32f4xx_hal_rcc.c ****              clock (through a configurable prescaler) on PC9 pin.
 154:Libraries/STM32F4xx_HAL_Driver/Src/stm32f4xx_hal_rcc.c **** 
 155:Libraries/STM32F4xx_HAL_Driver/Src/stm32f4xx_hal_rcc.c ****     [..] System, AHB and APB busses clocks configuration
 156:Libraries/STM32F4xx_HAL_Driver/Src/stm32f4xx_hal_rcc.c ****          (#) Several clock sources can be used to drive the System clock (SYSCLK): HSI,
 157:Libraries/STM32F4xx_HAL_Driver/Src/stm32f4xx_hal_rcc.c ****              HSE and PLL.
 158:Libraries/STM32F4xx_HAL_Driver/Src/stm32f4xx_hal_rcc.c ****              The AHB clock (HCLK) is derived from System clock through configurable
 159:Libraries/STM32F4xx_HAL_Driver/Src/stm32f4xx_hal_rcc.c ****              prescaler and used to clock the CPU, memory and peripherals mapped
 160:Libraries/STM32F4xx_HAL_Driver/Src/stm32f4xx_hal_rcc.c ****              on AHB bus (DMA, GPIO...). APB1 (PCLK1) and APB2 (PCLK2) clocks are derived
 161:Libraries/STM32F4xx_HAL_Driver/Src/stm32f4xx_hal_rcc.c ****              from AHB clock through configurable prescalers and used to clock
 162:Libraries/STM32F4xx_HAL_Driver/Src/stm32f4xx_hal_rcc.c ****              the peripherals mapped on these busses. You can use
 163:Libraries/STM32F4xx_HAL_Driver/Src/stm32f4xx_hal_rcc.c ****              "HAL_RCC_GetSysClockFreq()" function to retrieve the frequencies of these clocks.
 164:Libraries/STM32F4xx_HAL_Driver/Src/stm32f4xx_hal_rcc.c **** 
 165:Libraries/STM32F4xx_HAL_Driver/Src/stm32f4xx_hal_rcc.c ****          (#) For the STM32F405xx/07xx and STM32F415xx/17xx devices, the maximum
 166:Libraries/STM32F4xx_HAL_Driver/Src/stm32f4xx_hal_rcc.c ****              frequency of the SYSCLK and HCLK is 168 MHz, PCLK2 84 MHz and PCLK1 42 MHz.
 167:Libraries/STM32F4xx_HAL_Driver/Src/stm32f4xx_hal_rcc.c ****              Depending on the device voltage range, the maximum frequency should
 168:Libraries/STM32F4xx_HAL_Driver/Src/stm32f4xx_hal_rcc.c ****              be adapted accordingly (refer to the product datasheets for more details).
 169:Libraries/STM32F4xx_HAL_Driver/Src/stm32f4xx_hal_rcc.c **** 
 170:Libraries/STM32F4xx_HAL_Driver/Src/stm32f4xx_hal_rcc.c ****          (#) For the STM32F42xxx, STM32F43xxx, STM32F446xx, STM32F469xx and STM32F479xx devices,
 171:Libraries/STM32F4xx_HAL_Driver/Src/stm32f4xx_hal_rcc.c ****              the maximum frequency of the SYSCLK and HCLK is 180 MHz, PCLK2 90 MHz and PCLK1 45 MHz
 172:Libraries/STM32F4xx_HAL_Driver/Src/stm32f4xx_hal_rcc.c ****              Depending on the device voltage range, the maximum frequency should
 173:Libraries/STM32F4xx_HAL_Driver/Src/stm32f4xx_hal_rcc.c ****              be adapted accordingly (refer to the product datasheets for more details).
 174:Libraries/STM32F4xx_HAL_Driver/Src/stm32f4xx_hal_rcc.c **** 
 175:Libraries/STM32F4xx_HAL_Driver/Src/stm32f4xx_hal_rcc.c ****          (#) For the STM32F401xx, the maximum frequency of the SYSCLK and HCLK is 84 MHz,
 176:Libraries/STM32F4xx_HAL_Driver/Src/stm32f4xx_hal_rcc.c ****              PCLK2 84 MHz and PCLK1 42 MHz.
 177:Libraries/STM32F4xx_HAL_Driver/Src/stm32f4xx_hal_rcc.c ****              Depending on the device voltage range, the maximum frequency should
 178:Libraries/STM32F4xx_HAL_Driver/Src/stm32f4xx_hal_rcc.c ****              be adapted accordingly (refer to the product datasheets for more details).
 179:Libraries/STM32F4xx_HAL_Driver/Src/stm32f4xx_hal_rcc.c **** 
 180:Libraries/STM32F4xx_HAL_Driver/Src/stm32f4xx_hal_rcc.c ****          (#) For the STM32F41xxx, the maximum frequency of the SYSCLK and HCLK is 100 MHz,
 181:Libraries/STM32F4xx_HAL_Driver/Src/stm32f4xx_hal_rcc.c ****              PCLK2 100 MHz and PCLK1 50 MHz.
 182:Libraries/STM32F4xx_HAL_Driver/Src/stm32f4xx_hal_rcc.c ****              Depending on the device voltage range, the maximum frequency should
 183:Libraries/STM32F4xx_HAL_Driver/Src/stm32f4xx_hal_rcc.c ****              be adapted accordingly (refer to the product datasheets for more details).
 184:Libraries/STM32F4xx_HAL_Driver/Src/stm32f4xx_hal_rcc.c **** 
 185:Libraries/STM32F4xx_HAL_Driver/Src/stm32f4xx_hal_rcc.c **** @endverbatim
 186:Libraries/STM32F4xx_HAL_Driver/Src/stm32f4xx_hal_rcc.c ****   * @{
 187:Libraries/STM32F4xx_HAL_Driver/Src/stm32f4xx_hal_rcc.c ****   */
 188:Libraries/STM32F4xx_HAL_Driver/Src/stm32f4xx_hal_rcc.c **** 
 189:Libraries/STM32F4xx_HAL_Driver/Src/stm32f4xx_hal_rcc.c **** /**
 190:Libraries/STM32F4xx_HAL_Driver/Src/stm32f4xx_hal_rcc.c ****   * @brief  Resets the RCC clock configuration to the default reset state.
 191:Libraries/STM32F4xx_HAL_Driver/Src/stm32f4xx_hal_rcc.c ****   * @note   The default reset state of the clock configuration is given below:
 192:Libraries/STM32F4xx_HAL_Driver/Src/stm32f4xx_hal_rcc.c ****   *            - HSI ON and used as system clock source
 193:Libraries/STM32F4xx_HAL_Driver/Src/stm32f4xx_hal_rcc.c ****   *            - HSE and PLL OFF
 194:Libraries/STM32F4xx_HAL_Driver/Src/stm32f4xx_hal_rcc.c ****   *            - AHB, APB1 and APB2 prescaler set to 1.
 195:Libraries/STM32F4xx_HAL_Driver/Src/stm32f4xx_hal_rcc.c ****   *            - CSS, MCO1 and MCO2 OFF
 196:Libraries/STM32F4xx_HAL_Driver/Src/stm32f4xx_hal_rcc.c ****   *            - All interrupts disabled
 197:Libraries/STM32F4xx_HAL_Driver/Src/stm32f4xx_hal_rcc.c ****   * @note   This function doesn't modify the configuration of the
 198:Libraries/STM32F4xx_HAL_Driver/Src/stm32f4xx_hal_rcc.c ****   *            - Peripheral clocks
 199:Libraries/STM32F4xx_HAL_Driver/Src/stm32f4xx_hal_rcc.c ****   *            - LSI, LSE and RTC clocks
 200:Libraries/STM32F4xx_HAL_Driver/Src/stm32f4xx_hal_rcc.c ****   * @retval HAL status
 201:Libraries/STM32F4xx_HAL_Driver/Src/stm32f4xx_hal_rcc.c ****   */
 202:Libraries/STM32F4xx_HAL_Driver/Src/stm32f4xx_hal_rcc.c **** __weak HAL_StatusTypeDef HAL_RCC_DeInit(void)
 203:Libraries/STM32F4xx_HAL_Driver/Src/stm32f4xx_hal_rcc.c **** {
ARM GAS  C:\Users\yzy\AppData\Local\Temp\ccHOwreO.s 			page 5


  27              		.loc 1 203 1 view -0
  28              		.cfi_startproc
  29              		@ args = 0, pretend = 0, frame = 0
  30              		@ frame_needed = 0, uses_anonymous_args = 0
  31              		@ link register save eliminated.
 204:Libraries/STM32F4xx_HAL_Driver/Src/stm32f4xx_hal_rcc.c ****   return HAL_OK;
  32              		.loc 1 204 3 view .LVU1
 205:Libraries/STM32F4xx_HAL_Driver/Src/stm32f4xx_hal_rcc.c **** }
  33              		.loc 1 205 1 is_stmt 0 view .LVU2
  34 0000 0020     		movs	r0, #0
  35 0002 7047     		bx	lr
  36              		.cfi_endproc
  37              	.LFE130:
  39              		.section	.text.HAL_RCC_OscConfig,"ax",%progbits
  40              		.align	1
  41              		.weak	HAL_RCC_OscConfig
  42              		.syntax unified
  43              		.thumb
  44              		.thumb_func
  45              		.fpu softvfp
  47              	HAL_RCC_OscConfig:
  48              	.LVL0:
  49              	.LFB131:
 206:Libraries/STM32F4xx_HAL_Driver/Src/stm32f4xx_hal_rcc.c **** 
 207:Libraries/STM32F4xx_HAL_Driver/Src/stm32f4xx_hal_rcc.c **** /**
 208:Libraries/STM32F4xx_HAL_Driver/Src/stm32f4xx_hal_rcc.c ****   * @brief  Initializes the RCC Oscillators according to the specified parameters in the
 209:Libraries/STM32F4xx_HAL_Driver/Src/stm32f4xx_hal_rcc.c ****   *         RCC_OscInitTypeDef.
 210:Libraries/STM32F4xx_HAL_Driver/Src/stm32f4xx_hal_rcc.c ****   * @param  RCC_OscInitStruct pointer to an RCC_OscInitTypeDef structure that
 211:Libraries/STM32F4xx_HAL_Driver/Src/stm32f4xx_hal_rcc.c ****   *         contains the configuration information for the RCC Oscillators.
 212:Libraries/STM32F4xx_HAL_Driver/Src/stm32f4xx_hal_rcc.c ****   * @note   The PLL is not disabled when used as system clock.
 213:Libraries/STM32F4xx_HAL_Driver/Src/stm32f4xx_hal_rcc.c ****   * @note   Transitions LSE Bypass to LSE On and LSE On to LSE Bypass are not
 214:Libraries/STM32F4xx_HAL_Driver/Src/stm32f4xx_hal_rcc.c ****   *         supported by this API. User should request a transition to LSE Off
 215:Libraries/STM32F4xx_HAL_Driver/Src/stm32f4xx_hal_rcc.c ****   *         first and then LSE On or LSE Bypass.
 216:Libraries/STM32F4xx_HAL_Driver/Src/stm32f4xx_hal_rcc.c ****   * @note   Transition HSE Bypass to HSE On and HSE On to HSE Bypass are not
 217:Libraries/STM32F4xx_HAL_Driver/Src/stm32f4xx_hal_rcc.c ****   *         supported by this API. User should request a transition to HSE Off
 218:Libraries/STM32F4xx_HAL_Driver/Src/stm32f4xx_hal_rcc.c ****   *         first and then HSE On or HSE Bypass.
 219:Libraries/STM32F4xx_HAL_Driver/Src/stm32f4xx_hal_rcc.c ****   * @retval HAL status
 220:Libraries/STM32F4xx_HAL_Driver/Src/stm32f4xx_hal_rcc.c ****   */
 221:Libraries/STM32F4xx_HAL_Driver/Src/stm32f4xx_hal_rcc.c **** __weak HAL_StatusTypeDef HAL_RCC_OscConfig(RCC_OscInitTypeDef  *RCC_OscInitStruct)
 222:Libraries/STM32F4xx_HAL_Driver/Src/stm32f4xx_hal_rcc.c **** {
  50              		.loc 1 222 1 is_stmt 1 view -0
  51              		.cfi_startproc
  52              		@ args = 0, pretend = 0, frame = 8
  53              		@ frame_needed = 0, uses_anonymous_args = 0
 223:Libraries/STM32F4xx_HAL_Driver/Src/stm32f4xx_hal_rcc.c ****   uint32_t tickstart, pll_config;
  54              		.loc 1 223 3 view .LVU4
 224:Libraries/STM32F4xx_HAL_Driver/Src/stm32f4xx_hal_rcc.c **** 
 225:Libraries/STM32F4xx_HAL_Driver/Src/stm32f4xx_hal_rcc.c ****   /* Check Null pointer */
 226:Libraries/STM32F4xx_HAL_Driver/Src/stm32f4xx_hal_rcc.c ****   if(RCC_OscInitStruct == NULL)
  55              		.loc 1 226 3 view .LVU5
  56              		.loc 1 226 5 is_stmt 0 view .LVU6
  57 0000 0028     		cmp	r0, #0
  58 0002 00F0D981 		beq	.L52
 222:Libraries/STM32F4xx_HAL_Driver/Src/stm32f4xx_hal_rcc.c ****   uint32_t tickstart, pll_config;
  59              		.loc 1 222 1 view .LVU7
  60 0006 70B5     		push	{r4, r5, r6, lr}
  61              	.LCFI0:
ARM GAS  C:\Users\yzy\AppData\Local\Temp\ccHOwreO.s 			page 6


  62              		.cfi_def_cfa_offset 16
  63              		.cfi_offset 4, -16
  64              		.cfi_offset 5, -12
  65              		.cfi_offset 6, -8
  66              		.cfi_offset 14, -4
  67 0008 82B0     		sub	sp, sp, #8
  68              	.LCFI1:
  69              		.cfi_def_cfa_offset 24
  70 000a 0446     		mov	r4, r0
 227:Libraries/STM32F4xx_HAL_Driver/Src/stm32f4xx_hal_rcc.c ****   {
 228:Libraries/STM32F4xx_HAL_Driver/Src/stm32f4xx_hal_rcc.c ****     return HAL_ERROR;
 229:Libraries/STM32F4xx_HAL_Driver/Src/stm32f4xx_hal_rcc.c ****   }
 230:Libraries/STM32F4xx_HAL_Driver/Src/stm32f4xx_hal_rcc.c **** 
 231:Libraries/STM32F4xx_HAL_Driver/Src/stm32f4xx_hal_rcc.c ****   /* Check the parameters */
 232:Libraries/STM32F4xx_HAL_Driver/Src/stm32f4xx_hal_rcc.c ****   assert_param(IS_RCC_OSCILLATORTYPE(RCC_OscInitStruct->OscillatorType));
  71              		.loc 1 232 3 is_stmt 1 view .LVU8
 233:Libraries/STM32F4xx_HAL_Driver/Src/stm32f4xx_hal_rcc.c ****   /*------------------------------- HSE Configuration ------------------------*/
 234:Libraries/STM32F4xx_HAL_Driver/Src/stm32f4xx_hal_rcc.c ****   if(((RCC_OscInitStruct->OscillatorType) & RCC_OSCILLATORTYPE_HSE) == RCC_OSCILLATORTYPE_HSE)
  72              		.loc 1 234 3 view .LVU9
  73              		.loc 1 234 25 is_stmt 0 view .LVU10
  74 000c 0368     		ldr	r3, [r0]
  75              		.loc 1 234 5 view .LVU11
  76 000e 13F0010F 		tst	r3, #1
  77 0012 3BD0     		beq	.L4
 235:Libraries/STM32F4xx_HAL_Driver/Src/stm32f4xx_hal_rcc.c ****   {
 236:Libraries/STM32F4xx_HAL_Driver/Src/stm32f4xx_hal_rcc.c ****     /* Check the parameters */
 237:Libraries/STM32F4xx_HAL_Driver/Src/stm32f4xx_hal_rcc.c ****     assert_param(IS_RCC_HSE(RCC_OscInitStruct->HSEState));
  78              		.loc 1 237 5 is_stmt 1 view .LVU12
 238:Libraries/STM32F4xx_HAL_Driver/Src/stm32f4xx_hal_rcc.c ****     /* When the HSE is used as system clock or clock source for PLL in these cases HSE will not dis
 239:Libraries/STM32F4xx_HAL_Driver/Src/stm32f4xx_hal_rcc.c ****     if((__HAL_RCC_GET_SYSCLK_SOURCE() == RCC_CFGR_SWS_HSE) ||\
  79              		.loc 1 239 5 view .LVU13
  80              		.loc 1 239 9 is_stmt 0 view .LVU14
  81 0014 A64B     		ldr	r3, .L93
  82 0016 9B68     		ldr	r3, [r3, #8]
  83 0018 03F00C03 		and	r3, r3, #12
  84              		.loc 1 239 7 view .LVU15
  85 001c 042B     		cmp	r3, #4
  86 001e 2CD0     		beq	.L5
 240:Libraries/STM32F4xx_HAL_Driver/Src/stm32f4xx_hal_rcc.c ****       ((__HAL_RCC_GET_SYSCLK_SOURCE() == RCC_CFGR_SWS_PLL) && ((RCC->PLLCFGR & RCC_PLLCFGR_PLLSRC) 
  87              		.loc 1 240 9 discriminator 1 view .LVU16
  88 0020 A34B     		ldr	r3, .L93
  89 0022 9B68     		ldr	r3, [r3, #8]
  90 0024 03F00C03 		and	r3, r3, #12
 239:Libraries/STM32F4xx_HAL_Driver/Src/stm32f4xx_hal_rcc.c ****       ((__HAL_RCC_GET_SYSCLK_SOURCE() == RCC_CFGR_SWS_PLL) && ((RCC->PLLCFGR & RCC_PLLCFGR_PLLSRC) 
  91              		.loc 1 239 60 discriminator 1 view .LVU17
  92 0028 082B     		cmp	r3, #8
  93 002a 21D0     		beq	.L79
  94              	.L6:
 241:Libraries/STM32F4xx_HAL_Driver/Src/stm32f4xx_hal_rcc.c ****     {
 242:Libraries/STM32F4xx_HAL_Driver/Src/stm32f4xx_hal_rcc.c ****       if((__HAL_RCC_GET_FLAG(RCC_FLAG_HSERDY) != RESET) && (RCC_OscInitStruct->HSEState == RCC_HSE_
 243:Libraries/STM32F4xx_HAL_Driver/Src/stm32f4xx_hal_rcc.c ****       {
 244:Libraries/STM32F4xx_HAL_Driver/Src/stm32f4xx_hal_rcc.c ****         return HAL_ERROR;
 245:Libraries/STM32F4xx_HAL_Driver/Src/stm32f4xx_hal_rcc.c ****       }
 246:Libraries/STM32F4xx_HAL_Driver/Src/stm32f4xx_hal_rcc.c ****     }
 247:Libraries/STM32F4xx_HAL_Driver/Src/stm32f4xx_hal_rcc.c ****     else
 248:Libraries/STM32F4xx_HAL_Driver/Src/stm32f4xx_hal_rcc.c ****     {
 249:Libraries/STM32F4xx_HAL_Driver/Src/stm32f4xx_hal_rcc.c ****       /* Set the new HSE configuration ---------------------------------------*/
ARM GAS  C:\Users\yzy\AppData\Local\Temp\ccHOwreO.s 			page 7


 250:Libraries/STM32F4xx_HAL_Driver/Src/stm32f4xx_hal_rcc.c ****       __HAL_RCC_HSE_CONFIG(RCC_OscInitStruct->HSEState);
  95              		.loc 1 250 7 is_stmt 1 view .LVU18
  96              		.loc 1 250 7 view .LVU19
  97 002c 6368     		ldr	r3, [r4, #4]
  98 002e B3F5803F 		cmp	r3, #65536
  99 0032 4FD0     		beq	.L80
 100              		.loc 1 250 7 discriminator 2 view .LVU20
 101 0034 B3F5A02F 		cmp	r3, #327680
 102 0038 52D0     		beq	.L81
 103              		.loc 1 250 7 discriminator 5 view .LVU21
 104 003a 9D4B     		ldr	r3, .L93
 105 003c 1A68     		ldr	r2, [r3]
 106 003e 22F48032 		bic	r2, r2, #65536
 107 0042 1A60     		str	r2, [r3]
 108              		.loc 1 250 7 discriminator 5 view .LVU22
 109 0044 1A68     		ldr	r2, [r3]
 110 0046 22F48022 		bic	r2, r2, #262144
 111 004a 1A60     		str	r2, [r3]
 112              	.L8:
 113              		.loc 1 250 7 discriminator 7 view .LVU23
 251:Libraries/STM32F4xx_HAL_Driver/Src/stm32f4xx_hal_rcc.c **** 
 252:Libraries/STM32F4xx_HAL_Driver/Src/stm32f4xx_hal_rcc.c ****       /* Check the HSE State */
 253:Libraries/STM32F4xx_HAL_Driver/Src/stm32f4xx_hal_rcc.c ****       if((RCC_OscInitStruct->HSEState) != RCC_HSE_OFF)
 114              		.loc 1 253 7 discriminator 7 view .LVU24
 115              		.loc 1 253 28 is_stmt 0 discriminator 7 view .LVU25
 116 004c 6368     		ldr	r3, [r4, #4]
 117              		.loc 1 253 9 discriminator 7 view .LVU26
 118 004e 002B     		cmp	r3, #0
 119 0050 50D0     		beq	.L10
 254:Libraries/STM32F4xx_HAL_Driver/Src/stm32f4xx_hal_rcc.c ****       {
 255:Libraries/STM32F4xx_HAL_Driver/Src/stm32f4xx_hal_rcc.c ****         /* Get Start Tick */
 256:Libraries/STM32F4xx_HAL_Driver/Src/stm32f4xx_hal_rcc.c ****         tickstart = HAL_GetTick();
 120              		.loc 1 256 9 is_stmt 1 view .LVU27
 121              		.loc 1 256 21 is_stmt 0 view .LVU28
 122 0052 FFF7FEFF 		bl	HAL_GetTick
 123              	.LVL1:
 124              		.loc 1 256 21 view .LVU29
 125 0056 0546     		mov	r5, r0
 126              	.LVL2:
 257:Libraries/STM32F4xx_HAL_Driver/Src/stm32f4xx_hal_rcc.c **** 
 258:Libraries/STM32F4xx_HAL_Driver/Src/stm32f4xx_hal_rcc.c ****         /* Wait till HSE is ready */
 259:Libraries/STM32F4xx_HAL_Driver/Src/stm32f4xx_hal_rcc.c ****         while(__HAL_RCC_GET_FLAG(RCC_FLAG_HSERDY) == RESET)
 127              		.loc 1 259 9 is_stmt 1 view .LVU30
 128              	.L11:
 129              		.loc 1 259 14 view .LVU31
 130              		.loc 1 259 15 is_stmt 0 view .LVU32
 131 0058 954B     		ldr	r3, .L93
 132 005a 1B68     		ldr	r3, [r3]
 133              		.loc 1 259 14 view .LVU33
 134 005c 13F4003F 		tst	r3, #131072
 135 0060 14D1     		bne	.L4
 260:Libraries/STM32F4xx_HAL_Driver/Src/stm32f4xx_hal_rcc.c ****         {
 261:Libraries/STM32F4xx_HAL_Driver/Src/stm32f4xx_hal_rcc.c ****           if((HAL_GetTick() - tickstart ) > HSE_TIMEOUT_VALUE)
 136              		.loc 1 261 11 is_stmt 1 view .LVU34
 137              		.loc 1 261 15 is_stmt 0 view .LVU35
 138 0062 FFF7FEFF 		bl	HAL_GetTick
 139              	.LVL3:
ARM GAS  C:\Users\yzy\AppData\Local\Temp\ccHOwreO.s 			page 8


 140              		.loc 1 261 29 view .LVU36
 141 0066 401B     		subs	r0, r0, r5
 142              		.loc 1 261 13 view .LVU37
 143 0068 6428     		cmp	r0, #100
 144 006a F5D9     		bls	.L11
 262:Libraries/STM32F4xx_HAL_Driver/Src/stm32f4xx_hal_rcc.c ****           {
 263:Libraries/STM32F4xx_HAL_Driver/Src/stm32f4xx_hal_rcc.c ****             return HAL_TIMEOUT;
 145              		.loc 1 263 20 view .LVU38
 146 006c 0320     		movs	r0, #3
 147 006e AAE1     		b	.L3
 148              	.LVL4:
 149              	.L79:
 240:Libraries/STM32F4xx_HAL_Driver/Src/stm32f4xx_hal_rcc.c ****     {
 150              		.loc 1 240 68 view .LVU39
 151 0070 8F4B     		ldr	r3, .L93
 152 0072 5B68     		ldr	r3, [r3, #4]
 240:Libraries/STM32F4xx_HAL_Driver/Src/stm32f4xx_hal_rcc.c ****     {
 153              		.loc 1 240 60 view .LVU40
 154 0074 13F4800F 		tst	r3, #4194304
 155 0078 D8D0     		beq	.L6
 156              	.L5:
 242:Libraries/STM32F4xx_HAL_Driver/Src/stm32f4xx_hal_rcc.c ****       {
 157              		.loc 1 242 7 is_stmt 1 view .LVU41
 242:Libraries/STM32F4xx_HAL_Driver/Src/stm32f4xx_hal_rcc.c ****       {
 158              		.loc 1 242 11 is_stmt 0 view .LVU42
 159 007a 8D4B     		ldr	r3, .L93
 160 007c 1B68     		ldr	r3, [r3]
 242:Libraries/STM32F4xx_HAL_Driver/Src/stm32f4xx_hal_rcc.c ****       {
 161              		.loc 1 242 9 view .LVU43
 162 007e 13F4003F 		tst	r3, #131072
 163 0082 03D0     		beq	.L4
 242:Libraries/STM32F4xx_HAL_Driver/Src/stm32f4xx_hal_rcc.c ****       {
 164              		.loc 1 242 78 discriminator 1 view .LVU44
 165 0084 6368     		ldr	r3, [r4, #4]
 242:Libraries/STM32F4xx_HAL_Driver/Src/stm32f4xx_hal_rcc.c ****       {
 166              		.loc 1 242 57 discriminator 1 view .LVU45
 167 0086 002B     		cmp	r3, #0
 168 0088 00F09881 		beq	.L82
 169              	.LVL5:
 170              	.L4:
 264:Libraries/STM32F4xx_HAL_Driver/Src/stm32f4xx_hal_rcc.c ****           }
 265:Libraries/STM32F4xx_HAL_Driver/Src/stm32f4xx_hal_rcc.c ****         }
 266:Libraries/STM32F4xx_HAL_Driver/Src/stm32f4xx_hal_rcc.c ****       }
 267:Libraries/STM32F4xx_HAL_Driver/Src/stm32f4xx_hal_rcc.c ****       else
 268:Libraries/STM32F4xx_HAL_Driver/Src/stm32f4xx_hal_rcc.c ****       {
 269:Libraries/STM32F4xx_HAL_Driver/Src/stm32f4xx_hal_rcc.c ****         /* Get Start Tick */
 270:Libraries/STM32F4xx_HAL_Driver/Src/stm32f4xx_hal_rcc.c ****         tickstart = HAL_GetTick();
 271:Libraries/STM32F4xx_HAL_Driver/Src/stm32f4xx_hal_rcc.c **** 
 272:Libraries/STM32F4xx_HAL_Driver/Src/stm32f4xx_hal_rcc.c ****         /* Wait till HSE is bypassed or disabled */
 273:Libraries/STM32F4xx_HAL_Driver/Src/stm32f4xx_hal_rcc.c ****         while(__HAL_RCC_GET_FLAG(RCC_FLAG_HSERDY) != RESET)
 274:Libraries/STM32F4xx_HAL_Driver/Src/stm32f4xx_hal_rcc.c ****         {
 275:Libraries/STM32F4xx_HAL_Driver/Src/stm32f4xx_hal_rcc.c ****           if((HAL_GetTick() - tickstart ) > HSE_TIMEOUT_VALUE)
 276:Libraries/STM32F4xx_HAL_Driver/Src/stm32f4xx_hal_rcc.c ****           {
 277:Libraries/STM32F4xx_HAL_Driver/Src/stm32f4xx_hal_rcc.c ****             return HAL_TIMEOUT;
 278:Libraries/STM32F4xx_HAL_Driver/Src/stm32f4xx_hal_rcc.c ****           }
 279:Libraries/STM32F4xx_HAL_Driver/Src/stm32f4xx_hal_rcc.c ****         }
 280:Libraries/STM32F4xx_HAL_Driver/Src/stm32f4xx_hal_rcc.c ****       }
ARM GAS  C:\Users\yzy\AppData\Local\Temp\ccHOwreO.s 			page 9


 281:Libraries/STM32F4xx_HAL_Driver/Src/stm32f4xx_hal_rcc.c ****     }
 282:Libraries/STM32F4xx_HAL_Driver/Src/stm32f4xx_hal_rcc.c ****   }
 283:Libraries/STM32F4xx_HAL_Driver/Src/stm32f4xx_hal_rcc.c ****   /*----------------------------- HSI Configuration --------------------------*/
 284:Libraries/STM32F4xx_HAL_Driver/Src/stm32f4xx_hal_rcc.c ****   if(((RCC_OscInitStruct->OscillatorType) & RCC_OSCILLATORTYPE_HSI) == RCC_OSCILLATORTYPE_HSI)
 171              		.loc 1 284 3 is_stmt 1 view .LVU46
 172              		.loc 1 284 25 is_stmt 0 view .LVU47
 173 008c 2368     		ldr	r3, [r4]
 174              		.loc 1 284 5 view .LVU48
 175 008e 13F0020F 		tst	r3, #2
 176 0092 54D0     		beq	.L15
 285:Libraries/STM32F4xx_HAL_Driver/Src/stm32f4xx_hal_rcc.c ****   {
 286:Libraries/STM32F4xx_HAL_Driver/Src/stm32f4xx_hal_rcc.c ****     /* Check the parameters */
 287:Libraries/STM32F4xx_HAL_Driver/Src/stm32f4xx_hal_rcc.c ****     assert_param(IS_RCC_HSI(RCC_OscInitStruct->HSIState));
 177              		.loc 1 287 5 is_stmt 1 view .LVU49
 288:Libraries/STM32F4xx_HAL_Driver/Src/stm32f4xx_hal_rcc.c ****     assert_param(IS_RCC_CALIBRATION_VALUE(RCC_OscInitStruct->HSICalibrationValue));
 178              		.loc 1 288 5 view .LVU50
 289:Libraries/STM32F4xx_HAL_Driver/Src/stm32f4xx_hal_rcc.c **** 
 290:Libraries/STM32F4xx_HAL_Driver/Src/stm32f4xx_hal_rcc.c ****     /* Check if HSI is used as system clock or as PLL source when PLL is selected as system clock *
 291:Libraries/STM32F4xx_HAL_Driver/Src/stm32f4xx_hal_rcc.c ****     if((__HAL_RCC_GET_SYSCLK_SOURCE() == RCC_CFGR_SWS_HSI) ||\
 179              		.loc 1 291 5 view .LVU51
 180              		.loc 1 291 9 is_stmt 0 view .LVU52
 181 0094 864B     		ldr	r3, .L93
 182 0096 9B68     		ldr	r3, [r3, #8]
 183              		.loc 1 291 7 view .LVU53
 184 0098 13F00C0F 		tst	r3, #12
 185 009c 3ED0     		beq	.L16
 292:Libraries/STM32F4xx_HAL_Driver/Src/stm32f4xx_hal_rcc.c ****       ((__HAL_RCC_GET_SYSCLK_SOURCE() == RCC_CFGR_SWS_PLL) && ((RCC->PLLCFGR & RCC_PLLCFGR_PLLSRC) 
 186              		.loc 1 292 9 discriminator 1 view .LVU54
 187 009e 844B     		ldr	r3, .L93
 188 00a0 9B68     		ldr	r3, [r3, #8]
 189 00a2 03F00C03 		and	r3, r3, #12
 291:Libraries/STM32F4xx_HAL_Driver/Src/stm32f4xx_hal_rcc.c ****       ((__HAL_RCC_GET_SYSCLK_SOURCE() == RCC_CFGR_SWS_PLL) && ((RCC->PLLCFGR & RCC_PLLCFGR_PLLSRC) 
 190              		.loc 1 291 60 discriminator 1 view .LVU55
 191 00a6 082B     		cmp	r3, #8
 192 00a8 33D0     		beq	.L83
 193              	.L17:
 293:Libraries/STM32F4xx_HAL_Driver/Src/stm32f4xx_hal_rcc.c ****     {
 294:Libraries/STM32F4xx_HAL_Driver/Src/stm32f4xx_hal_rcc.c ****       /* When HSI is used as system clock it will not disabled */
 295:Libraries/STM32F4xx_HAL_Driver/Src/stm32f4xx_hal_rcc.c ****       if((__HAL_RCC_GET_FLAG(RCC_FLAG_HSIRDY) != RESET) && (RCC_OscInitStruct->HSIState != RCC_HSI_
 296:Libraries/STM32F4xx_HAL_Driver/Src/stm32f4xx_hal_rcc.c ****       {
 297:Libraries/STM32F4xx_HAL_Driver/Src/stm32f4xx_hal_rcc.c ****         return HAL_ERROR;
 298:Libraries/STM32F4xx_HAL_Driver/Src/stm32f4xx_hal_rcc.c ****       }
 299:Libraries/STM32F4xx_HAL_Driver/Src/stm32f4xx_hal_rcc.c ****       /* Otherwise, just the calibration is allowed */
 300:Libraries/STM32F4xx_HAL_Driver/Src/stm32f4xx_hal_rcc.c ****       else
 301:Libraries/STM32F4xx_HAL_Driver/Src/stm32f4xx_hal_rcc.c ****       {
 302:Libraries/STM32F4xx_HAL_Driver/Src/stm32f4xx_hal_rcc.c ****         /* Adjusts the Internal High Speed oscillator (HSI) calibration value.*/
 303:Libraries/STM32F4xx_HAL_Driver/Src/stm32f4xx_hal_rcc.c ****         __HAL_RCC_HSI_CALIBRATIONVALUE_ADJUST(RCC_OscInitStruct->HSICalibrationValue);
 304:Libraries/STM32F4xx_HAL_Driver/Src/stm32f4xx_hal_rcc.c ****       }
 305:Libraries/STM32F4xx_HAL_Driver/Src/stm32f4xx_hal_rcc.c ****     }
 306:Libraries/STM32F4xx_HAL_Driver/Src/stm32f4xx_hal_rcc.c ****     else
 307:Libraries/STM32F4xx_HAL_Driver/Src/stm32f4xx_hal_rcc.c ****     {
 308:Libraries/STM32F4xx_HAL_Driver/Src/stm32f4xx_hal_rcc.c ****       /* Check the HSI State */
 309:Libraries/STM32F4xx_HAL_Driver/Src/stm32f4xx_hal_rcc.c ****       if((RCC_OscInitStruct->HSIState)!= RCC_HSI_OFF)
 194              		.loc 1 309 7 is_stmt 1 view .LVU56
 195              		.loc 1 309 28 is_stmt 0 view .LVU57
 196 00aa E368     		ldr	r3, [r4, #12]
 197              		.loc 1 309 9 view .LVU58
ARM GAS  C:\Users\yzy\AppData\Local\Temp\ccHOwreO.s 			page 10


 198 00ac 002B     		cmp	r3, #0
 199 00ae 67D0     		beq	.L19
 310:Libraries/STM32F4xx_HAL_Driver/Src/stm32f4xx_hal_rcc.c ****       {
 311:Libraries/STM32F4xx_HAL_Driver/Src/stm32f4xx_hal_rcc.c ****         /* Enable the Internal High Speed oscillator (HSI). */
 312:Libraries/STM32F4xx_HAL_Driver/Src/stm32f4xx_hal_rcc.c ****         __HAL_RCC_HSI_ENABLE();
 200              		.loc 1 312 9 is_stmt 1 view .LVU59
 201 00b0 804B     		ldr	r3, .L93+4
 202 00b2 0122     		movs	r2, #1
 203 00b4 1A60     		str	r2, [r3]
 313:Libraries/STM32F4xx_HAL_Driver/Src/stm32f4xx_hal_rcc.c **** 
 314:Libraries/STM32F4xx_HAL_Driver/Src/stm32f4xx_hal_rcc.c ****         /* Get Start Tick*/
 315:Libraries/STM32F4xx_HAL_Driver/Src/stm32f4xx_hal_rcc.c ****         tickstart = HAL_GetTick();
 204              		.loc 1 315 9 view .LVU60
 205              		.loc 1 315 21 is_stmt 0 view .LVU61
 206 00b6 FFF7FEFF 		bl	HAL_GetTick
 207              	.LVL6:
 208 00ba 0546     		mov	r5, r0
 209              	.LVL7:
 316:Libraries/STM32F4xx_HAL_Driver/Src/stm32f4xx_hal_rcc.c **** 
 317:Libraries/STM32F4xx_HAL_Driver/Src/stm32f4xx_hal_rcc.c ****         /* Wait till HSI is ready */
 318:Libraries/STM32F4xx_HAL_Driver/Src/stm32f4xx_hal_rcc.c ****         while(__HAL_RCC_GET_FLAG(RCC_FLAG_HSIRDY) == RESET)
 210              		.loc 1 318 9 is_stmt 1 view .LVU62
 211              	.L20:
 212              		.loc 1 318 14 view .LVU63
 213              		.loc 1 318 15 is_stmt 0 view .LVU64
 214 00bc 7C4B     		ldr	r3, .L93
 215 00be 1B68     		ldr	r3, [r3]
 216              		.loc 1 318 14 view .LVU65
 217 00c0 13F0020F 		tst	r3, #2
 218 00c4 53D1     		bne	.L84
 319:Libraries/STM32F4xx_HAL_Driver/Src/stm32f4xx_hal_rcc.c ****         {
 320:Libraries/STM32F4xx_HAL_Driver/Src/stm32f4xx_hal_rcc.c ****           if((HAL_GetTick() - tickstart ) > HSI_TIMEOUT_VALUE)
 219              		.loc 1 320 11 is_stmt 1 view .LVU66
 220              		.loc 1 320 15 is_stmt 0 view .LVU67
 221 00c6 FFF7FEFF 		bl	HAL_GetTick
 222              	.LVL8:
 223              		.loc 1 320 29 view .LVU68
 224 00ca 401B     		subs	r0, r0, r5
 225              		.loc 1 320 13 view .LVU69
 226 00cc 0228     		cmp	r0, #2
 227 00ce F5D9     		bls	.L20
 321:Libraries/STM32F4xx_HAL_Driver/Src/stm32f4xx_hal_rcc.c ****           {
 322:Libraries/STM32F4xx_HAL_Driver/Src/stm32f4xx_hal_rcc.c ****             return HAL_TIMEOUT;
 228              		.loc 1 322 20 view .LVU70
 229 00d0 0320     		movs	r0, #3
 230 00d2 78E1     		b	.L3
 231              	.LVL9:
 232              	.L80:
 250:Libraries/STM32F4xx_HAL_Driver/Src/stm32f4xx_hal_rcc.c **** 
 233              		.loc 1 250 7 is_stmt 1 discriminator 1 view .LVU71
 234 00d4 764A     		ldr	r2, .L93
 235 00d6 1368     		ldr	r3, [r2]
 236 00d8 43F48033 		orr	r3, r3, #65536
 237 00dc 1360     		str	r3, [r2]
 238 00de B5E7     		b	.L8
 239              	.L81:
 250:Libraries/STM32F4xx_HAL_Driver/Src/stm32f4xx_hal_rcc.c **** 
ARM GAS  C:\Users\yzy\AppData\Local\Temp\ccHOwreO.s 			page 11


 240              		.loc 1 250 7 discriminator 4 view .LVU72
 241 00e0 734B     		ldr	r3, .L93
 242 00e2 1A68     		ldr	r2, [r3]
 243 00e4 42F48022 		orr	r2, r2, #262144
 244 00e8 1A60     		str	r2, [r3]
 250:Libraries/STM32F4xx_HAL_Driver/Src/stm32f4xx_hal_rcc.c **** 
 245              		.loc 1 250 7 discriminator 4 view .LVU73
 246 00ea 1A68     		ldr	r2, [r3]
 247 00ec 42F48032 		orr	r2, r2, #65536
 248 00f0 1A60     		str	r2, [r3]
 249 00f2 ABE7     		b	.L8
 250              	.L10:
 270:Libraries/STM32F4xx_HAL_Driver/Src/stm32f4xx_hal_rcc.c **** 
 251              		.loc 1 270 9 view .LVU74
 270:Libraries/STM32F4xx_HAL_Driver/Src/stm32f4xx_hal_rcc.c **** 
 252              		.loc 1 270 21 is_stmt 0 view .LVU75
 253 00f4 FFF7FEFF 		bl	HAL_GetTick
 254              	.LVL10:
 270:Libraries/STM32F4xx_HAL_Driver/Src/stm32f4xx_hal_rcc.c **** 
 255              		.loc 1 270 21 view .LVU76
 256 00f8 0546     		mov	r5, r0
 257              	.LVL11:
 273:Libraries/STM32F4xx_HAL_Driver/Src/stm32f4xx_hal_rcc.c ****         {
 258              		.loc 1 273 9 is_stmt 1 view .LVU77
 259              	.L13:
 273:Libraries/STM32F4xx_HAL_Driver/Src/stm32f4xx_hal_rcc.c ****         {
 260              		.loc 1 273 14 view .LVU78
 273:Libraries/STM32F4xx_HAL_Driver/Src/stm32f4xx_hal_rcc.c ****         {
 261              		.loc 1 273 15 is_stmt 0 view .LVU79
 262 00fa 6D4B     		ldr	r3, .L93
 263 00fc 1B68     		ldr	r3, [r3]
 273:Libraries/STM32F4xx_HAL_Driver/Src/stm32f4xx_hal_rcc.c ****         {
 264              		.loc 1 273 14 view .LVU80
 265 00fe 13F4003F 		tst	r3, #131072
 266 0102 C3D0     		beq	.L4
 275:Libraries/STM32F4xx_HAL_Driver/Src/stm32f4xx_hal_rcc.c ****           {
 267              		.loc 1 275 11 is_stmt 1 view .LVU81
 275:Libraries/STM32F4xx_HAL_Driver/Src/stm32f4xx_hal_rcc.c ****           {
 268              		.loc 1 275 15 is_stmt 0 view .LVU82
 269 0104 FFF7FEFF 		bl	HAL_GetTick
 270              	.LVL12:
 275:Libraries/STM32F4xx_HAL_Driver/Src/stm32f4xx_hal_rcc.c ****           {
 271              		.loc 1 275 29 view .LVU83
 272 0108 401B     		subs	r0, r0, r5
 275:Libraries/STM32F4xx_HAL_Driver/Src/stm32f4xx_hal_rcc.c ****           {
 273              		.loc 1 275 13 view .LVU84
 274 010a 6428     		cmp	r0, #100
 275 010c F5D9     		bls	.L13
 277:Libraries/STM32F4xx_HAL_Driver/Src/stm32f4xx_hal_rcc.c ****           }
 276              		.loc 1 277 20 view .LVU85
 277 010e 0320     		movs	r0, #3
 278 0110 59E1     		b	.L3
 279              	.LVL13:
 280              	.L83:
 292:Libraries/STM32F4xx_HAL_Driver/Src/stm32f4xx_hal_rcc.c ****     {
 281              		.loc 1 292 68 view .LVU86
 282 0112 674B     		ldr	r3, .L93
ARM GAS  C:\Users\yzy\AppData\Local\Temp\ccHOwreO.s 			page 12


 283 0114 5B68     		ldr	r3, [r3, #4]
 292:Libraries/STM32F4xx_HAL_Driver/Src/stm32f4xx_hal_rcc.c ****     {
 284              		.loc 1 292 60 view .LVU87
 285 0116 13F4800F 		tst	r3, #4194304
 286 011a C6D1     		bne	.L17
 287              	.L16:
 295:Libraries/STM32F4xx_HAL_Driver/Src/stm32f4xx_hal_rcc.c ****       {
 288              		.loc 1 295 7 is_stmt 1 view .LVU88
 295:Libraries/STM32F4xx_HAL_Driver/Src/stm32f4xx_hal_rcc.c ****       {
 289              		.loc 1 295 11 is_stmt 0 view .LVU89
 290 011c 644B     		ldr	r3, .L93
 291 011e 1B68     		ldr	r3, [r3]
 295:Libraries/STM32F4xx_HAL_Driver/Src/stm32f4xx_hal_rcc.c ****       {
 292              		.loc 1 295 9 view .LVU90
 293 0120 13F0020F 		tst	r3, #2
 294 0124 03D0     		beq	.L18
 295:Libraries/STM32F4xx_HAL_Driver/Src/stm32f4xx_hal_rcc.c ****       {
 295              		.loc 1 295 78 discriminator 1 view .LVU91
 296 0126 E368     		ldr	r3, [r4, #12]
 295:Libraries/STM32F4xx_HAL_Driver/Src/stm32f4xx_hal_rcc.c ****       {
 297              		.loc 1 295 57 discriminator 1 view .LVU92
 298 0128 012B     		cmp	r3, #1
 299 012a 40F04981 		bne	.L56
 300              	.L18:
 303:Libraries/STM32F4xx_HAL_Driver/Src/stm32f4xx_hal_rcc.c ****       }
 301              		.loc 1 303 9 is_stmt 1 view .LVU93
 302 012e 604A     		ldr	r2, .L93
 303 0130 1368     		ldr	r3, [r2]
 304 0132 23F0F803 		bic	r3, r3, #248
 305 0136 2169     		ldr	r1, [r4, #16]
 306 0138 43EAC103 		orr	r3, r3, r1, lsl #3
 307 013c 1360     		str	r3, [r2]
 308              	.L15:
 323:Libraries/STM32F4xx_HAL_Driver/Src/stm32f4xx_hal_rcc.c ****           }
 324:Libraries/STM32F4xx_HAL_Driver/Src/stm32f4xx_hal_rcc.c ****         }
 325:Libraries/STM32F4xx_HAL_Driver/Src/stm32f4xx_hal_rcc.c **** 
 326:Libraries/STM32F4xx_HAL_Driver/Src/stm32f4xx_hal_rcc.c ****         /* Adjusts the Internal High Speed oscillator (HSI) calibration value. */
 327:Libraries/STM32F4xx_HAL_Driver/Src/stm32f4xx_hal_rcc.c ****         __HAL_RCC_HSI_CALIBRATIONVALUE_ADJUST(RCC_OscInitStruct->HSICalibrationValue);
 328:Libraries/STM32F4xx_HAL_Driver/Src/stm32f4xx_hal_rcc.c ****       }
 329:Libraries/STM32F4xx_HAL_Driver/Src/stm32f4xx_hal_rcc.c ****       else
 330:Libraries/STM32F4xx_HAL_Driver/Src/stm32f4xx_hal_rcc.c ****       {
 331:Libraries/STM32F4xx_HAL_Driver/Src/stm32f4xx_hal_rcc.c ****         /* Disable the Internal High Speed oscillator (HSI). */
 332:Libraries/STM32F4xx_HAL_Driver/Src/stm32f4xx_hal_rcc.c ****         __HAL_RCC_HSI_DISABLE();
 333:Libraries/STM32F4xx_HAL_Driver/Src/stm32f4xx_hal_rcc.c **** 
 334:Libraries/STM32F4xx_HAL_Driver/Src/stm32f4xx_hal_rcc.c ****         /* Get Start Tick*/
 335:Libraries/STM32F4xx_HAL_Driver/Src/stm32f4xx_hal_rcc.c ****         tickstart = HAL_GetTick();
 336:Libraries/STM32F4xx_HAL_Driver/Src/stm32f4xx_hal_rcc.c **** 
 337:Libraries/STM32F4xx_HAL_Driver/Src/stm32f4xx_hal_rcc.c ****         /* Wait till HSI is ready */
 338:Libraries/STM32F4xx_HAL_Driver/Src/stm32f4xx_hal_rcc.c ****         while(__HAL_RCC_GET_FLAG(RCC_FLAG_HSIRDY) != RESET)
 339:Libraries/STM32F4xx_HAL_Driver/Src/stm32f4xx_hal_rcc.c ****         {
 340:Libraries/STM32F4xx_HAL_Driver/Src/stm32f4xx_hal_rcc.c ****           if((HAL_GetTick() - tickstart ) > HSI_TIMEOUT_VALUE)
 341:Libraries/STM32F4xx_HAL_Driver/Src/stm32f4xx_hal_rcc.c ****           {
 342:Libraries/STM32F4xx_HAL_Driver/Src/stm32f4xx_hal_rcc.c ****             return HAL_TIMEOUT;
 343:Libraries/STM32F4xx_HAL_Driver/Src/stm32f4xx_hal_rcc.c ****           }
 344:Libraries/STM32F4xx_HAL_Driver/Src/stm32f4xx_hal_rcc.c ****         }
 345:Libraries/STM32F4xx_HAL_Driver/Src/stm32f4xx_hal_rcc.c ****       }
 346:Libraries/STM32F4xx_HAL_Driver/Src/stm32f4xx_hal_rcc.c ****     }
ARM GAS  C:\Users\yzy\AppData\Local\Temp\ccHOwreO.s 			page 13


 347:Libraries/STM32F4xx_HAL_Driver/Src/stm32f4xx_hal_rcc.c ****   }
 348:Libraries/STM32F4xx_HAL_Driver/Src/stm32f4xx_hal_rcc.c ****   /*------------------------------ LSI Configuration -------------------------*/
 349:Libraries/STM32F4xx_HAL_Driver/Src/stm32f4xx_hal_rcc.c ****   if(((RCC_OscInitStruct->OscillatorType) & RCC_OSCILLATORTYPE_LSI) == RCC_OSCILLATORTYPE_LSI)
 309              		.loc 1 349 3 view .LVU94
 310              		.loc 1 349 25 is_stmt 0 view .LVU95
 311 013e 2368     		ldr	r3, [r4]
 312              		.loc 1 349 5 view .LVU96
 313 0140 13F0080F 		tst	r3, #8
 314 0144 40D0     		beq	.L24
 350:Libraries/STM32F4xx_HAL_Driver/Src/stm32f4xx_hal_rcc.c ****   {
 351:Libraries/STM32F4xx_HAL_Driver/Src/stm32f4xx_hal_rcc.c ****     /* Check the parameters */
 352:Libraries/STM32F4xx_HAL_Driver/Src/stm32f4xx_hal_rcc.c ****     assert_param(IS_RCC_LSI(RCC_OscInitStruct->LSIState));
 315              		.loc 1 352 5 is_stmt 1 view .LVU97
 353:Libraries/STM32F4xx_HAL_Driver/Src/stm32f4xx_hal_rcc.c **** 
 354:Libraries/STM32F4xx_HAL_Driver/Src/stm32f4xx_hal_rcc.c ****     /* Check the LSI State */
 355:Libraries/STM32F4xx_HAL_Driver/Src/stm32f4xx_hal_rcc.c ****     if((RCC_OscInitStruct->LSIState)!= RCC_LSI_OFF)
 316              		.loc 1 355 5 view .LVU98
 317              		.loc 1 355 26 is_stmt 0 view .LVU99
 318 0146 6369     		ldr	r3, [r4, #20]
 319              		.loc 1 355 7 view .LVU100
 320 0148 63B3     		cbz	r3, .L25
 356:Libraries/STM32F4xx_HAL_Driver/Src/stm32f4xx_hal_rcc.c ****     {
 357:Libraries/STM32F4xx_HAL_Driver/Src/stm32f4xx_hal_rcc.c ****       /* Enable the Internal Low Speed oscillator (LSI). */
 358:Libraries/STM32F4xx_HAL_Driver/Src/stm32f4xx_hal_rcc.c ****       __HAL_RCC_LSI_ENABLE();
 321              		.loc 1 358 7 is_stmt 1 view .LVU101
 322 014a 5B4B     		ldr	r3, .L93+8
 323 014c 0122     		movs	r2, #1
 324 014e 1A60     		str	r2, [r3]
 359:Libraries/STM32F4xx_HAL_Driver/Src/stm32f4xx_hal_rcc.c **** 
 360:Libraries/STM32F4xx_HAL_Driver/Src/stm32f4xx_hal_rcc.c ****       /* Get Start Tick*/
 361:Libraries/STM32F4xx_HAL_Driver/Src/stm32f4xx_hal_rcc.c ****       tickstart = HAL_GetTick();
 325              		.loc 1 361 7 view .LVU102
 326              		.loc 1 361 19 is_stmt 0 view .LVU103
 327 0150 FFF7FEFF 		bl	HAL_GetTick
 328              	.LVL14:
 329 0154 0546     		mov	r5, r0
 330              	.LVL15:
 362:Libraries/STM32F4xx_HAL_Driver/Src/stm32f4xx_hal_rcc.c **** 
 363:Libraries/STM32F4xx_HAL_Driver/Src/stm32f4xx_hal_rcc.c ****       /* Wait till LSI is ready */
 364:Libraries/STM32F4xx_HAL_Driver/Src/stm32f4xx_hal_rcc.c ****       while(__HAL_RCC_GET_FLAG(RCC_FLAG_LSIRDY) == RESET)
 331              		.loc 1 364 7 is_stmt 1 view .LVU104
 332              	.L26:
 333              		.loc 1 364 12 view .LVU105
 334              		.loc 1 364 13 is_stmt 0 view .LVU106
 335 0156 564B     		ldr	r3, .L93
 336 0158 5B6F     		ldr	r3, [r3, #116]
 337              		.loc 1 364 12 view .LVU107
 338 015a 13F0020F 		tst	r3, #2
 339 015e 33D1     		bne	.L24
 365:Libraries/STM32F4xx_HAL_Driver/Src/stm32f4xx_hal_rcc.c ****       {
 366:Libraries/STM32F4xx_HAL_Driver/Src/stm32f4xx_hal_rcc.c ****         if((HAL_GetTick() - tickstart ) > LSI_TIMEOUT_VALUE)
 340              		.loc 1 366 9 is_stmt 1 view .LVU108
 341              		.loc 1 366 13 is_stmt 0 view .LVU109
 342 0160 FFF7FEFF 		bl	HAL_GetTick
 343              	.LVL16:
 344              		.loc 1 366 27 view .LVU110
 345 0164 401B     		subs	r0, r0, r5
ARM GAS  C:\Users\yzy\AppData\Local\Temp\ccHOwreO.s 			page 14


 346              		.loc 1 366 11 view .LVU111
 347 0166 0228     		cmp	r0, #2
 348 0168 F5D9     		bls	.L26
 367:Libraries/STM32F4xx_HAL_Driver/Src/stm32f4xx_hal_rcc.c ****         {
 368:Libraries/STM32F4xx_HAL_Driver/Src/stm32f4xx_hal_rcc.c ****           return HAL_TIMEOUT;
 349              		.loc 1 368 18 view .LVU112
 350 016a 0320     		movs	r0, #3
 351 016c 2BE1     		b	.L3
 352              	.L84:
 327:Libraries/STM32F4xx_HAL_Driver/Src/stm32f4xx_hal_rcc.c ****       }
 353              		.loc 1 327 9 is_stmt 1 view .LVU113
 354 016e 504A     		ldr	r2, .L93
 355 0170 1368     		ldr	r3, [r2]
 356 0172 23F0F803 		bic	r3, r3, #248
 357 0176 2169     		ldr	r1, [r4, #16]
 358 0178 43EAC103 		orr	r3, r3, r1, lsl #3
 359 017c 1360     		str	r3, [r2]
 360 017e DEE7     		b	.L15
 361              	.LVL17:
 362              	.L19:
 332:Libraries/STM32F4xx_HAL_Driver/Src/stm32f4xx_hal_rcc.c **** 
 363              		.loc 1 332 9 view .LVU114
 364 0180 4C4B     		ldr	r3, .L93+4
 365 0182 0022     		movs	r2, #0
 366 0184 1A60     		str	r2, [r3]
 335:Libraries/STM32F4xx_HAL_Driver/Src/stm32f4xx_hal_rcc.c **** 
 367              		.loc 1 335 9 view .LVU115
 335:Libraries/STM32F4xx_HAL_Driver/Src/stm32f4xx_hal_rcc.c **** 
 368              		.loc 1 335 21 is_stmt 0 view .LVU116
 369 0186 FFF7FEFF 		bl	HAL_GetTick
 370              	.LVL18:
 371 018a 0546     		mov	r5, r0
 372              	.LVL19:
 338:Libraries/STM32F4xx_HAL_Driver/Src/stm32f4xx_hal_rcc.c ****         {
 373              		.loc 1 338 9 is_stmt 1 view .LVU117
 374              	.L22:
 338:Libraries/STM32F4xx_HAL_Driver/Src/stm32f4xx_hal_rcc.c ****         {
 375              		.loc 1 338 14 view .LVU118
 338:Libraries/STM32F4xx_HAL_Driver/Src/stm32f4xx_hal_rcc.c ****         {
 376              		.loc 1 338 15 is_stmt 0 view .LVU119
 377 018c 484B     		ldr	r3, .L93
 378 018e 1B68     		ldr	r3, [r3]
 338:Libraries/STM32F4xx_HAL_Driver/Src/stm32f4xx_hal_rcc.c ****         {
 379              		.loc 1 338 14 view .LVU120
 380 0190 13F0020F 		tst	r3, #2
 381 0194 D3D0     		beq	.L15
 340:Libraries/STM32F4xx_HAL_Driver/Src/stm32f4xx_hal_rcc.c ****           {
 382              		.loc 1 340 11 is_stmt 1 view .LVU121
 340:Libraries/STM32F4xx_HAL_Driver/Src/stm32f4xx_hal_rcc.c ****           {
 383              		.loc 1 340 15 is_stmt 0 view .LVU122
 384 0196 FFF7FEFF 		bl	HAL_GetTick
 385              	.LVL20:
 340:Libraries/STM32F4xx_HAL_Driver/Src/stm32f4xx_hal_rcc.c ****           {
 386              		.loc 1 340 29 view .LVU123
 387 019a 401B     		subs	r0, r0, r5
 340:Libraries/STM32F4xx_HAL_Driver/Src/stm32f4xx_hal_rcc.c ****           {
 388              		.loc 1 340 13 view .LVU124
ARM GAS  C:\Users\yzy\AppData\Local\Temp\ccHOwreO.s 			page 15


 389 019c 0228     		cmp	r0, #2
 390 019e F5D9     		bls	.L22
 342:Libraries/STM32F4xx_HAL_Driver/Src/stm32f4xx_hal_rcc.c ****           }
 391              		.loc 1 342 20 view .LVU125
 392 01a0 0320     		movs	r0, #3
 393 01a2 10E1     		b	.L3
 394              	.LVL21:
 395              	.L25:
 369:Libraries/STM32F4xx_HAL_Driver/Src/stm32f4xx_hal_rcc.c ****         }
 370:Libraries/STM32F4xx_HAL_Driver/Src/stm32f4xx_hal_rcc.c ****       }
 371:Libraries/STM32F4xx_HAL_Driver/Src/stm32f4xx_hal_rcc.c ****     }
 372:Libraries/STM32F4xx_HAL_Driver/Src/stm32f4xx_hal_rcc.c ****     else
 373:Libraries/STM32F4xx_HAL_Driver/Src/stm32f4xx_hal_rcc.c ****     {
 374:Libraries/STM32F4xx_HAL_Driver/Src/stm32f4xx_hal_rcc.c ****       /* Disable the Internal Low Speed oscillator (LSI). */
 375:Libraries/STM32F4xx_HAL_Driver/Src/stm32f4xx_hal_rcc.c ****       __HAL_RCC_LSI_DISABLE();
 396              		.loc 1 375 7 is_stmt 1 view .LVU126
 397 01a4 444B     		ldr	r3, .L93+8
 398 01a6 0022     		movs	r2, #0
 399 01a8 1A60     		str	r2, [r3]
 376:Libraries/STM32F4xx_HAL_Driver/Src/stm32f4xx_hal_rcc.c **** 
 377:Libraries/STM32F4xx_HAL_Driver/Src/stm32f4xx_hal_rcc.c ****       /* Get Start Tick */
 378:Libraries/STM32F4xx_HAL_Driver/Src/stm32f4xx_hal_rcc.c ****       tickstart = HAL_GetTick();
 400              		.loc 1 378 7 view .LVU127
 401              		.loc 1 378 19 is_stmt 0 view .LVU128
 402 01aa FFF7FEFF 		bl	HAL_GetTick
 403              	.LVL22:
 404 01ae 0546     		mov	r5, r0
 405              	.LVL23:
 379:Libraries/STM32F4xx_HAL_Driver/Src/stm32f4xx_hal_rcc.c **** 
 380:Libraries/STM32F4xx_HAL_Driver/Src/stm32f4xx_hal_rcc.c ****       /* Wait till LSI is ready */
 381:Libraries/STM32F4xx_HAL_Driver/Src/stm32f4xx_hal_rcc.c ****       while(__HAL_RCC_GET_FLAG(RCC_FLAG_LSIRDY) != RESET)
 406              		.loc 1 381 7 is_stmt 1 view .LVU129
 407              	.L28:
 408              		.loc 1 381 12 view .LVU130
 409              		.loc 1 381 13 is_stmt 0 view .LVU131
 410 01b0 3F4B     		ldr	r3, .L93
 411 01b2 5B6F     		ldr	r3, [r3, #116]
 412              		.loc 1 381 12 view .LVU132
 413 01b4 13F0020F 		tst	r3, #2
 414 01b8 06D0     		beq	.L24
 382:Libraries/STM32F4xx_HAL_Driver/Src/stm32f4xx_hal_rcc.c ****       {
 383:Libraries/STM32F4xx_HAL_Driver/Src/stm32f4xx_hal_rcc.c ****         if((HAL_GetTick() - tickstart ) > LSI_TIMEOUT_VALUE)
 415              		.loc 1 383 9 is_stmt 1 view .LVU133
 416              		.loc 1 383 13 is_stmt 0 view .LVU134
 417 01ba FFF7FEFF 		bl	HAL_GetTick
 418              	.LVL24:
 419              		.loc 1 383 27 view .LVU135
 420 01be 401B     		subs	r0, r0, r5
 421              		.loc 1 383 11 view .LVU136
 422 01c0 0228     		cmp	r0, #2
 423 01c2 F5D9     		bls	.L28
 384:Libraries/STM32F4xx_HAL_Driver/Src/stm32f4xx_hal_rcc.c ****         {
 385:Libraries/STM32F4xx_HAL_Driver/Src/stm32f4xx_hal_rcc.c ****           return HAL_TIMEOUT;
 424              		.loc 1 385 18 view .LVU137
 425 01c4 0320     		movs	r0, #3
 426 01c6 FEE0     		b	.L3
 427              	.LVL25:
ARM GAS  C:\Users\yzy\AppData\Local\Temp\ccHOwreO.s 			page 16


 428              	.L24:
 386:Libraries/STM32F4xx_HAL_Driver/Src/stm32f4xx_hal_rcc.c ****         }
 387:Libraries/STM32F4xx_HAL_Driver/Src/stm32f4xx_hal_rcc.c ****       }
 388:Libraries/STM32F4xx_HAL_Driver/Src/stm32f4xx_hal_rcc.c ****     }
 389:Libraries/STM32F4xx_HAL_Driver/Src/stm32f4xx_hal_rcc.c ****   }
 390:Libraries/STM32F4xx_HAL_Driver/Src/stm32f4xx_hal_rcc.c ****   /*------------------------------ LSE Configuration -------------------------*/
 391:Libraries/STM32F4xx_HAL_Driver/Src/stm32f4xx_hal_rcc.c ****   if(((RCC_OscInitStruct->OscillatorType) & RCC_OSCILLATORTYPE_LSE) == RCC_OSCILLATORTYPE_LSE)
 429              		.loc 1 391 3 is_stmt 1 view .LVU138
 430              		.loc 1 391 25 is_stmt 0 view .LVU139
 431 01c8 2368     		ldr	r3, [r4]
 432              		.loc 1 391 5 view .LVU140
 433 01ca 13F0040F 		tst	r3, #4
 434 01ce 78D0     		beq	.L30
 435              	.LBB2:
 392:Libraries/STM32F4xx_HAL_Driver/Src/stm32f4xx_hal_rcc.c ****   {
 393:Libraries/STM32F4xx_HAL_Driver/Src/stm32f4xx_hal_rcc.c ****     FlagStatus       pwrclkchanged = RESET;
 436              		.loc 1 393 5 is_stmt 1 view .LVU141
 437              	.LVL26:
 394:Libraries/STM32F4xx_HAL_Driver/Src/stm32f4xx_hal_rcc.c **** 
 395:Libraries/STM32F4xx_HAL_Driver/Src/stm32f4xx_hal_rcc.c ****     /* Check the parameters */
 396:Libraries/STM32F4xx_HAL_Driver/Src/stm32f4xx_hal_rcc.c ****     assert_param(IS_RCC_LSE(RCC_OscInitStruct->LSEState));
 438              		.loc 1 396 5 view .LVU142
 397:Libraries/STM32F4xx_HAL_Driver/Src/stm32f4xx_hal_rcc.c **** 
 398:Libraries/STM32F4xx_HAL_Driver/Src/stm32f4xx_hal_rcc.c ****     /* Update LSE configuration in Backup Domain control register    */
 399:Libraries/STM32F4xx_HAL_Driver/Src/stm32f4xx_hal_rcc.c ****     /* Requires to enable write access to Backup Domain of necessary */
 400:Libraries/STM32F4xx_HAL_Driver/Src/stm32f4xx_hal_rcc.c ****     if(__HAL_RCC_PWR_IS_CLK_DISABLED())
 439              		.loc 1 400 5 view .LVU143
 440              		.loc 1 400 8 is_stmt 0 view .LVU144
 441 01d0 374B     		ldr	r3, .L93
 442 01d2 1B6C     		ldr	r3, [r3, #64]
 443              		.loc 1 400 7 view .LVU145
 444 01d4 13F0805F 		tst	r3, #268435456
 445 01d8 0DD1     		bne	.L61
 401:Libraries/STM32F4xx_HAL_Driver/Src/stm32f4xx_hal_rcc.c ****     {
 402:Libraries/STM32F4xx_HAL_Driver/Src/stm32f4xx_hal_rcc.c ****       __HAL_RCC_PWR_CLK_ENABLE();
 446              		.loc 1 402 7 is_stmt 1 view .LVU146
 447              	.LBB3:
 448              		.loc 1 402 7 view .LVU147
 449 01da 0023     		movs	r3, #0
 450 01dc 0193     		str	r3, [sp, #4]
 451              		.loc 1 402 7 view .LVU148
 452 01de 344B     		ldr	r3, .L93
 453 01e0 1A6C     		ldr	r2, [r3, #64]
 454 01e2 42F08052 		orr	r2, r2, #268435456
 455 01e6 1A64     		str	r2, [r3, #64]
 456              		.loc 1 402 7 view .LVU149
 457 01e8 1B6C     		ldr	r3, [r3, #64]
 458 01ea 03F08053 		and	r3, r3, #268435456
 459 01ee 0193     		str	r3, [sp, #4]
 460              		.loc 1 402 7 view .LVU150
 461 01f0 019B     		ldr	r3, [sp, #4]
 462              	.LBE3:
 463              		.loc 1 402 7 view .LVU151
 403:Libraries/STM32F4xx_HAL_Driver/Src/stm32f4xx_hal_rcc.c ****       pwrclkchanged = SET;
 464              		.loc 1 403 7 view .LVU152
 465              	.LVL27:
 466              		.loc 1 403 21 is_stmt 0 view .LVU153
ARM GAS  C:\Users\yzy\AppData\Local\Temp\ccHOwreO.s 			page 17


 467 01f2 0125     		movs	r5, #1
 468 01f4 00E0     		b	.L31
 469              	.LVL28:
 470              	.L61:
 393:Libraries/STM32F4xx_HAL_Driver/Src/stm32f4xx_hal_rcc.c **** 
 471              		.loc 1 393 22 view .LVU154
 472 01f6 0025     		movs	r5, #0
 473              	.LVL29:
 474              	.L31:
 404:Libraries/STM32F4xx_HAL_Driver/Src/stm32f4xx_hal_rcc.c ****     }
 405:Libraries/STM32F4xx_HAL_Driver/Src/stm32f4xx_hal_rcc.c **** 
 406:Libraries/STM32F4xx_HAL_Driver/Src/stm32f4xx_hal_rcc.c ****     if(HAL_IS_BIT_CLR(PWR->CR, PWR_CR_DBP))
 475              		.loc 1 406 5 is_stmt 1 view .LVU155
 476              		.loc 1 406 8 is_stmt 0 view .LVU156
 477 01f8 304B     		ldr	r3, .L93+12
 478 01fa 1B68     		ldr	r3, [r3]
 479              		.loc 1 406 7 view .LVU157
 480 01fc 13F4807F 		tst	r3, #256
 481 0200 21D0     		beq	.L85
 482              	.L32:
 407:Libraries/STM32F4xx_HAL_Driver/Src/stm32f4xx_hal_rcc.c ****     {
 408:Libraries/STM32F4xx_HAL_Driver/Src/stm32f4xx_hal_rcc.c ****       /* Enable write access to Backup domain */
 409:Libraries/STM32F4xx_HAL_Driver/Src/stm32f4xx_hal_rcc.c ****       SET_BIT(PWR->CR, PWR_CR_DBP);
 410:Libraries/STM32F4xx_HAL_Driver/Src/stm32f4xx_hal_rcc.c **** 
 411:Libraries/STM32F4xx_HAL_Driver/Src/stm32f4xx_hal_rcc.c ****       /* Wait for Backup domain Write protection disable */
 412:Libraries/STM32F4xx_HAL_Driver/Src/stm32f4xx_hal_rcc.c ****       tickstart = HAL_GetTick();
 413:Libraries/STM32F4xx_HAL_Driver/Src/stm32f4xx_hal_rcc.c **** 
 414:Libraries/STM32F4xx_HAL_Driver/Src/stm32f4xx_hal_rcc.c ****       while(HAL_IS_BIT_CLR(PWR->CR, PWR_CR_DBP))
 415:Libraries/STM32F4xx_HAL_Driver/Src/stm32f4xx_hal_rcc.c ****       {
 416:Libraries/STM32F4xx_HAL_Driver/Src/stm32f4xx_hal_rcc.c ****         if((HAL_GetTick() - tickstart) > RCC_DBP_TIMEOUT_VALUE)
 417:Libraries/STM32F4xx_HAL_Driver/Src/stm32f4xx_hal_rcc.c ****         {
 418:Libraries/STM32F4xx_HAL_Driver/Src/stm32f4xx_hal_rcc.c ****           return HAL_TIMEOUT;
 419:Libraries/STM32F4xx_HAL_Driver/Src/stm32f4xx_hal_rcc.c ****         }
 420:Libraries/STM32F4xx_HAL_Driver/Src/stm32f4xx_hal_rcc.c ****       }
 421:Libraries/STM32F4xx_HAL_Driver/Src/stm32f4xx_hal_rcc.c ****     }
 422:Libraries/STM32F4xx_HAL_Driver/Src/stm32f4xx_hal_rcc.c **** 
 423:Libraries/STM32F4xx_HAL_Driver/Src/stm32f4xx_hal_rcc.c ****     /* Set the new LSE configuration -----------------------------------------*/
 424:Libraries/STM32F4xx_HAL_Driver/Src/stm32f4xx_hal_rcc.c ****     __HAL_RCC_LSE_CONFIG(RCC_OscInitStruct->LSEState);
 483              		.loc 1 424 5 is_stmt 1 view .LVU158
 484              		.loc 1 424 5 view .LVU159
 485 0202 A368     		ldr	r3, [r4, #8]
 486 0204 012B     		cmp	r3, #1
 487 0206 32D0     		beq	.L86
 488              		.loc 1 424 5 discriminator 2 view .LVU160
 489 0208 052B     		cmp	r3, #5
 490 020a 36D0     		beq	.L87
 491              		.loc 1 424 5 discriminator 5 view .LVU161
 492 020c 284B     		ldr	r3, .L93
 493 020e 1A6F     		ldr	r2, [r3, #112]
 494 0210 22F00102 		bic	r2, r2, #1
 495 0214 1A67     		str	r2, [r3, #112]
 496              		.loc 1 424 5 discriminator 5 view .LVU162
 497 0216 1A6F     		ldr	r2, [r3, #112]
 498 0218 22F00402 		bic	r2, r2, #4
 499 021c 1A67     		str	r2, [r3, #112]
 500              	.L36:
 501              		.loc 1 424 5 discriminator 7 view .LVU163
ARM GAS  C:\Users\yzy\AppData\Local\Temp\ccHOwreO.s 			page 18


 425:Libraries/STM32F4xx_HAL_Driver/Src/stm32f4xx_hal_rcc.c ****     /* Check the LSE State */
 426:Libraries/STM32F4xx_HAL_Driver/Src/stm32f4xx_hal_rcc.c ****     if((RCC_OscInitStruct->LSEState) != RCC_LSE_OFF)
 502              		.loc 1 426 5 discriminator 7 view .LVU164
 503              		.loc 1 426 26 is_stmt 0 discriminator 7 view .LVU165
 504 021e A368     		ldr	r3, [r4, #8]
 505              		.loc 1 426 7 discriminator 7 view .LVU166
 506 0220 002B     		cmp	r3, #0
 507 0222 34D0     		beq	.L38
 427:Libraries/STM32F4xx_HAL_Driver/Src/stm32f4xx_hal_rcc.c ****     {
 428:Libraries/STM32F4xx_HAL_Driver/Src/stm32f4xx_hal_rcc.c ****       /* Get Start Tick*/
 429:Libraries/STM32F4xx_HAL_Driver/Src/stm32f4xx_hal_rcc.c ****       tickstart = HAL_GetTick();
 508              		.loc 1 429 7 is_stmt 1 view .LVU167
 509              		.loc 1 429 19 is_stmt 0 view .LVU168
 510 0224 FFF7FEFF 		bl	HAL_GetTick
 511              	.LVL30:
 512 0228 0646     		mov	r6, r0
 513              	.LVL31:
 430:Libraries/STM32F4xx_HAL_Driver/Src/stm32f4xx_hal_rcc.c **** 
 431:Libraries/STM32F4xx_HAL_Driver/Src/stm32f4xx_hal_rcc.c ****       /* Wait till LSE is ready */
 432:Libraries/STM32F4xx_HAL_Driver/Src/stm32f4xx_hal_rcc.c ****       while(__HAL_RCC_GET_FLAG(RCC_FLAG_LSERDY) == RESET)
 514              		.loc 1 432 7 is_stmt 1 view .LVU169
 515              	.L39:
 516              		.loc 1 432 12 view .LVU170
 517              		.loc 1 432 13 is_stmt 0 view .LVU171
 518 022a 214B     		ldr	r3, .L93
 519 022c 1B6F     		ldr	r3, [r3, #112]
 520              		.loc 1 432 12 view .LVU172
 521 022e 13F0020F 		tst	r3, #2
 522 0232 45D1     		bne	.L41
 433:Libraries/STM32F4xx_HAL_Driver/Src/stm32f4xx_hal_rcc.c ****       {
 434:Libraries/STM32F4xx_HAL_Driver/Src/stm32f4xx_hal_rcc.c ****         if((HAL_GetTick() - tickstart ) > RCC_LSE_TIMEOUT_VALUE)
 523              		.loc 1 434 9 is_stmt 1 view .LVU173
 524              		.loc 1 434 13 is_stmt 0 view .LVU174
 525 0234 FFF7FEFF 		bl	HAL_GetTick
 526              	.LVL32:
 527              		.loc 1 434 27 view .LVU175
 528 0238 801B     		subs	r0, r0, r6
 529              		.loc 1 434 11 view .LVU176
 530 023a 41F28833 		movw	r3, #5000
 531 023e 9842     		cmp	r0, r3
 532 0240 F3D9     		bls	.L39
 435:Libraries/STM32F4xx_HAL_Driver/Src/stm32f4xx_hal_rcc.c ****         {
 436:Libraries/STM32F4xx_HAL_Driver/Src/stm32f4xx_hal_rcc.c ****           return HAL_TIMEOUT;
 533              		.loc 1 436 18 view .LVU177
 534 0242 0320     		movs	r0, #3
 535 0244 BFE0     		b	.L3
 536              	.LVL33:
 537              	.L85:
 409:Libraries/STM32F4xx_HAL_Driver/Src/stm32f4xx_hal_rcc.c **** 
 538              		.loc 1 409 7 is_stmt 1 view .LVU178
 539 0246 1D4A     		ldr	r2, .L93+12
 540 0248 1368     		ldr	r3, [r2]
 541 024a 43F48073 		orr	r3, r3, #256
 542 024e 1360     		str	r3, [r2]
 412:Libraries/STM32F4xx_HAL_Driver/Src/stm32f4xx_hal_rcc.c **** 
 543              		.loc 1 412 7 view .LVU179
 412:Libraries/STM32F4xx_HAL_Driver/Src/stm32f4xx_hal_rcc.c **** 
ARM GAS  C:\Users\yzy\AppData\Local\Temp\ccHOwreO.s 			page 19


 544              		.loc 1 412 19 is_stmt 0 view .LVU180
 545 0250 FFF7FEFF 		bl	HAL_GetTick
 546              	.LVL34:
 547 0254 0646     		mov	r6, r0
 548              	.LVL35:
 414:Libraries/STM32F4xx_HAL_Driver/Src/stm32f4xx_hal_rcc.c ****       {
 549              		.loc 1 414 7 is_stmt 1 view .LVU181
 550              	.L33:
 414:Libraries/STM32F4xx_HAL_Driver/Src/stm32f4xx_hal_rcc.c ****       {
 551              		.loc 1 414 12 view .LVU182
 414:Libraries/STM32F4xx_HAL_Driver/Src/stm32f4xx_hal_rcc.c ****       {
 552              		.loc 1 414 13 is_stmt 0 view .LVU183
 553 0256 194B     		ldr	r3, .L93+12
 554 0258 1B68     		ldr	r3, [r3]
 414:Libraries/STM32F4xx_HAL_Driver/Src/stm32f4xx_hal_rcc.c ****       {
 555              		.loc 1 414 12 view .LVU184
 556 025a 13F4807F 		tst	r3, #256
 557 025e D0D1     		bne	.L32
 416:Libraries/STM32F4xx_HAL_Driver/Src/stm32f4xx_hal_rcc.c ****         {
 558              		.loc 1 416 9 is_stmt 1 view .LVU185
 416:Libraries/STM32F4xx_HAL_Driver/Src/stm32f4xx_hal_rcc.c ****         {
 559              		.loc 1 416 13 is_stmt 0 view .LVU186
 560 0260 FFF7FEFF 		bl	HAL_GetTick
 561              	.LVL36:
 416:Libraries/STM32F4xx_HAL_Driver/Src/stm32f4xx_hal_rcc.c ****         {
 562              		.loc 1 416 27 view .LVU187
 563 0264 801B     		subs	r0, r0, r6
 416:Libraries/STM32F4xx_HAL_Driver/Src/stm32f4xx_hal_rcc.c ****         {
 564              		.loc 1 416 11 view .LVU188
 565 0266 0228     		cmp	r0, #2
 566 0268 F5D9     		bls	.L33
 418:Libraries/STM32F4xx_HAL_Driver/Src/stm32f4xx_hal_rcc.c ****         }
 567              		.loc 1 418 18 view .LVU189
 568 026a 0320     		movs	r0, #3
 569 026c ABE0     		b	.L3
 570              	.LVL37:
 571              	.L86:
 424:Libraries/STM32F4xx_HAL_Driver/Src/stm32f4xx_hal_rcc.c ****     /* Check the LSE State */
 572              		.loc 1 424 5 is_stmt 1 discriminator 1 view .LVU190
 573 026e 104A     		ldr	r2, .L93
 574 0270 136F     		ldr	r3, [r2, #112]
 575 0272 43F00103 		orr	r3, r3, #1
 576 0276 1367     		str	r3, [r2, #112]
 577 0278 D1E7     		b	.L36
 578              	.L87:
 424:Libraries/STM32F4xx_HAL_Driver/Src/stm32f4xx_hal_rcc.c ****     /* Check the LSE State */
 579              		.loc 1 424 5 discriminator 4 view .LVU191
 580 027a 0D4B     		ldr	r3, .L93
 581 027c 1A6F     		ldr	r2, [r3, #112]
 582 027e 42F00402 		orr	r2, r2, #4
 583 0282 1A67     		str	r2, [r3, #112]
 424:Libraries/STM32F4xx_HAL_Driver/Src/stm32f4xx_hal_rcc.c ****     /* Check the LSE State */
 584              		.loc 1 424 5 discriminator 4 view .LVU192
 585 0284 1A6F     		ldr	r2, [r3, #112]
 586 0286 42F00102 		orr	r2, r2, #1
 587 028a 1A67     		str	r2, [r3, #112]
 588 028c C7E7     		b	.L36
ARM GAS  C:\Users\yzy\AppData\Local\Temp\ccHOwreO.s 			page 20


 589              	.L38:
 437:Libraries/STM32F4xx_HAL_Driver/Src/stm32f4xx_hal_rcc.c ****         }
 438:Libraries/STM32F4xx_HAL_Driver/Src/stm32f4xx_hal_rcc.c ****       }
 439:Libraries/STM32F4xx_HAL_Driver/Src/stm32f4xx_hal_rcc.c ****     }
 440:Libraries/STM32F4xx_HAL_Driver/Src/stm32f4xx_hal_rcc.c ****     else
 441:Libraries/STM32F4xx_HAL_Driver/Src/stm32f4xx_hal_rcc.c ****     {
 442:Libraries/STM32F4xx_HAL_Driver/Src/stm32f4xx_hal_rcc.c ****       /* Get Start Tick */
 443:Libraries/STM32F4xx_HAL_Driver/Src/stm32f4xx_hal_rcc.c ****       tickstart = HAL_GetTick();
 590              		.loc 1 443 7 view .LVU193
 591              		.loc 1 443 19 is_stmt 0 view .LVU194
 592 028e FFF7FEFF 		bl	HAL_GetTick
 593              	.LVL38:
 594 0292 0646     		mov	r6, r0
 595              	.LVL39:
 444:Libraries/STM32F4xx_HAL_Driver/Src/stm32f4xx_hal_rcc.c **** 
 445:Libraries/STM32F4xx_HAL_Driver/Src/stm32f4xx_hal_rcc.c ****       /* Wait till LSE is ready */
 446:Libraries/STM32F4xx_HAL_Driver/Src/stm32f4xx_hal_rcc.c ****       while(__HAL_RCC_GET_FLAG(RCC_FLAG_LSERDY) != RESET)
 596              		.loc 1 446 7 is_stmt 1 view .LVU195
 597              	.L42:
 598              		.loc 1 446 12 view .LVU196
 599              		.loc 1 446 13 is_stmt 0 view .LVU197
 600 0294 064B     		ldr	r3, .L93
 601 0296 1B6F     		ldr	r3, [r3, #112]
 602              		.loc 1 446 12 view .LVU198
 603 0298 13F0020F 		tst	r3, #2
 604 029c 10D0     		beq	.L41
 447:Libraries/STM32F4xx_HAL_Driver/Src/stm32f4xx_hal_rcc.c ****       {
 448:Libraries/STM32F4xx_HAL_Driver/Src/stm32f4xx_hal_rcc.c ****         if((HAL_GetTick() - tickstart ) > RCC_LSE_TIMEOUT_VALUE)
 605              		.loc 1 448 9 is_stmt 1 view .LVU199
 606              		.loc 1 448 13 is_stmt 0 view .LVU200
 607 029e FFF7FEFF 		bl	HAL_GetTick
 608              	.LVL40:
 609              		.loc 1 448 27 view .LVU201
 610 02a2 801B     		subs	r0, r0, r6
 611              		.loc 1 448 11 view .LVU202
 612 02a4 41F28833 		movw	r3, #5000
 613 02a8 9842     		cmp	r0, r3
 614 02aa F3D9     		bls	.L42
 449:Libraries/STM32F4xx_HAL_Driver/Src/stm32f4xx_hal_rcc.c ****         {
 450:Libraries/STM32F4xx_HAL_Driver/Src/stm32f4xx_hal_rcc.c ****           return HAL_TIMEOUT;
 615              		.loc 1 450 18 view .LVU203
 616 02ac 0320     		movs	r0, #3
 617 02ae 8AE0     		b	.L3
 618              	.L94:
 619              		.align	2
 620              	.L93:
 621 02b0 00380240 		.word	1073887232
 622 02b4 00004742 		.word	1111949312
 623 02b8 800E4742 		.word	1111953024
 624 02bc 00700040 		.word	1073770496
 625              	.L41:
 451:Libraries/STM32F4xx_HAL_Driver/Src/stm32f4xx_hal_rcc.c ****         }
 452:Libraries/STM32F4xx_HAL_Driver/Src/stm32f4xx_hal_rcc.c ****       }
 453:Libraries/STM32F4xx_HAL_Driver/Src/stm32f4xx_hal_rcc.c ****     }
 454:Libraries/STM32F4xx_HAL_Driver/Src/stm32f4xx_hal_rcc.c **** 
 455:Libraries/STM32F4xx_HAL_Driver/Src/stm32f4xx_hal_rcc.c ****     /* Restore clock configuration if changed */
 456:Libraries/STM32F4xx_HAL_Driver/Src/stm32f4xx_hal_rcc.c ****     if(pwrclkchanged == SET)
ARM GAS  C:\Users\yzy\AppData\Local\Temp\ccHOwreO.s 			page 21


 626              		.loc 1 456 5 is_stmt 1 view .LVU204
 627              		.loc 1 456 7 is_stmt 0 view .LVU205
 628 02c0 E5B9     		cbnz	r5, .L88
 629              	.LVL41:
 630              	.L30:
 631              		.loc 1 456 7 view .LVU206
 632              	.LBE2:
 457:Libraries/STM32F4xx_HAL_Driver/Src/stm32f4xx_hal_rcc.c ****     {
 458:Libraries/STM32F4xx_HAL_Driver/Src/stm32f4xx_hal_rcc.c ****       __HAL_RCC_PWR_CLK_DISABLE();
 459:Libraries/STM32F4xx_HAL_Driver/Src/stm32f4xx_hal_rcc.c ****     }
 460:Libraries/STM32F4xx_HAL_Driver/Src/stm32f4xx_hal_rcc.c ****   }
 461:Libraries/STM32F4xx_HAL_Driver/Src/stm32f4xx_hal_rcc.c ****   /*-------------------------------- PLL Configuration -----------------------*/
 462:Libraries/STM32F4xx_HAL_Driver/Src/stm32f4xx_hal_rcc.c ****   /* Check the parameters */
 463:Libraries/STM32F4xx_HAL_Driver/Src/stm32f4xx_hal_rcc.c ****   assert_param(IS_RCC_PLL(RCC_OscInitStruct->PLL.PLLState));
 633              		.loc 1 463 3 is_stmt 1 view .LVU207
 464:Libraries/STM32F4xx_HAL_Driver/Src/stm32f4xx_hal_rcc.c ****   if ((RCC_OscInitStruct->PLL.PLLState) != RCC_PLL_NONE)
 634              		.loc 1 464 3 view .LVU208
 635              		.loc 1 464 30 is_stmt 0 view .LVU209
 636 02c2 A369     		ldr	r3, [r4, #24]
 637              		.loc 1 464 6 view .LVU210
 638 02c4 002B     		cmp	r3, #0
 639 02c6 7DD0     		beq	.L65
 465:Libraries/STM32F4xx_HAL_Driver/Src/stm32f4xx_hal_rcc.c ****   {
 466:Libraries/STM32F4xx_HAL_Driver/Src/stm32f4xx_hal_rcc.c ****     /* Check if the PLL is used as system clock or not */
 467:Libraries/STM32F4xx_HAL_Driver/Src/stm32f4xx_hal_rcc.c ****     if(__HAL_RCC_GET_SYSCLK_SOURCE() != RCC_CFGR_SWS_PLL)
 640              		.loc 1 467 5 is_stmt 1 view .LVU211
 641              		.loc 1 467 8 is_stmt 0 view .LVU212
 642 02c8 464A     		ldr	r2, .L95
 643 02ca 9268     		ldr	r2, [r2, #8]
 644 02cc 02F00C02 		and	r2, r2, #12
 645              		.loc 1 467 7 view .LVU213
 646 02d0 082A     		cmp	r2, #8
 647 02d2 51D0     		beq	.L44
 468:Libraries/STM32F4xx_HAL_Driver/Src/stm32f4xx_hal_rcc.c ****     {
 469:Libraries/STM32F4xx_HAL_Driver/Src/stm32f4xx_hal_rcc.c ****       if((RCC_OscInitStruct->PLL.PLLState) == RCC_PLL_ON)
 648              		.loc 1 469 7 is_stmt 1 view .LVU214
 649              		.loc 1 469 9 is_stmt 0 view .LVU215
 650 02d4 022B     		cmp	r3, #2
 651 02d6 17D0     		beq	.L89
 470:Libraries/STM32F4xx_HAL_Driver/Src/stm32f4xx_hal_rcc.c ****       {
 471:Libraries/STM32F4xx_HAL_Driver/Src/stm32f4xx_hal_rcc.c ****         /* Check the parameters */
 472:Libraries/STM32F4xx_HAL_Driver/Src/stm32f4xx_hal_rcc.c ****         assert_param(IS_RCC_PLLSOURCE(RCC_OscInitStruct->PLL.PLLSource));
 473:Libraries/STM32F4xx_HAL_Driver/Src/stm32f4xx_hal_rcc.c ****         assert_param(IS_RCC_PLLM_VALUE(RCC_OscInitStruct->PLL.PLLM));
 474:Libraries/STM32F4xx_HAL_Driver/Src/stm32f4xx_hal_rcc.c ****         assert_param(IS_RCC_PLLN_VALUE(RCC_OscInitStruct->PLL.PLLN));
 475:Libraries/STM32F4xx_HAL_Driver/Src/stm32f4xx_hal_rcc.c ****         assert_param(IS_RCC_PLLP_VALUE(RCC_OscInitStruct->PLL.PLLP));
 476:Libraries/STM32F4xx_HAL_Driver/Src/stm32f4xx_hal_rcc.c ****         assert_param(IS_RCC_PLLQ_VALUE(RCC_OscInitStruct->PLL.PLLQ));
 477:Libraries/STM32F4xx_HAL_Driver/Src/stm32f4xx_hal_rcc.c **** 
 478:Libraries/STM32F4xx_HAL_Driver/Src/stm32f4xx_hal_rcc.c ****         /* Disable the main PLL. */
 479:Libraries/STM32F4xx_HAL_Driver/Src/stm32f4xx_hal_rcc.c ****         __HAL_RCC_PLL_DISABLE();
 480:Libraries/STM32F4xx_HAL_Driver/Src/stm32f4xx_hal_rcc.c **** 
 481:Libraries/STM32F4xx_HAL_Driver/Src/stm32f4xx_hal_rcc.c ****         /* Get Start Tick */
 482:Libraries/STM32F4xx_HAL_Driver/Src/stm32f4xx_hal_rcc.c ****         tickstart = HAL_GetTick();
 483:Libraries/STM32F4xx_HAL_Driver/Src/stm32f4xx_hal_rcc.c **** 
 484:Libraries/STM32F4xx_HAL_Driver/Src/stm32f4xx_hal_rcc.c ****         /* Wait till PLL is ready */
 485:Libraries/STM32F4xx_HAL_Driver/Src/stm32f4xx_hal_rcc.c ****         while(__HAL_RCC_GET_FLAG(RCC_FLAG_PLLRDY) != RESET)
 486:Libraries/STM32F4xx_HAL_Driver/Src/stm32f4xx_hal_rcc.c ****         {
 487:Libraries/STM32F4xx_HAL_Driver/Src/stm32f4xx_hal_rcc.c ****           if((HAL_GetTick() - tickstart ) > PLL_TIMEOUT_VALUE)
ARM GAS  C:\Users\yzy\AppData\Local\Temp\ccHOwreO.s 			page 22


 488:Libraries/STM32F4xx_HAL_Driver/Src/stm32f4xx_hal_rcc.c ****           {
 489:Libraries/STM32F4xx_HAL_Driver/Src/stm32f4xx_hal_rcc.c ****             return HAL_TIMEOUT;
 490:Libraries/STM32F4xx_HAL_Driver/Src/stm32f4xx_hal_rcc.c ****           }
 491:Libraries/STM32F4xx_HAL_Driver/Src/stm32f4xx_hal_rcc.c ****         }
 492:Libraries/STM32F4xx_HAL_Driver/Src/stm32f4xx_hal_rcc.c **** 
 493:Libraries/STM32F4xx_HAL_Driver/Src/stm32f4xx_hal_rcc.c ****         /* Configure the main PLL clock source, multiplication and division factors. */
 494:Libraries/STM32F4xx_HAL_Driver/Src/stm32f4xx_hal_rcc.c ****         WRITE_REG(RCC->PLLCFGR, (RCC_OscInitStruct->PLL.PLLSource                                  
 495:Libraries/STM32F4xx_HAL_Driver/Src/stm32f4xx_hal_rcc.c ****                                  RCC_OscInitStruct->PLL.PLLM                                       
 496:Libraries/STM32F4xx_HAL_Driver/Src/stm32f4xx_hal_rcc.c ****                                  (RCC_OscInitStruct->PLL.PLLN << RCC_PLLCFGR_PLLN_Pos)             
 497:Libraries/STM32F4xx_HAL_Driver/Src/stm32f4xx_hal_rcc.c ****                                  (((RCC_OscInitStruct->PLL.PLLP >> 1U) - 1U) << RCC_PLLCFGR_PLLP_Po
 498:Libraries/STM32F4xx_HAL_Driver/Src/stm32f4xx_hal_rcc.c ****                                  (RCC_OscInitStruct->PLL.PLLQ << RCC_PLLCFGR_PLLQ_Pos)));
 499:Libraries/STM32F4xx_HAL_Driver/Src/stm32f4xx_hal_rcc.c ****         /* Enable the main PLL. */
 500:Libraries/STM32F4xx_HAL_Driver/Src/stm32f4xx_hal_rcc.c ****         __HAL_RCC_PLL_ENABLE();
 501:Libraries/STM32F4xx_HAL_Driver/Src/stm32f4xx_hal_rcc.c **** 
 502:Libraries/STM32F4xx_HAL_Driver/Src/stm32f4xx_hal_rcc.c ****         /* Get Start Tick */
 503:Libraries/STM32F4xx_HAL_Driver/Src/stm32f4xx_hal_rcc.c ****         tickstart = HAL_GetTick();
 504:Libraries/STM32F4xx_HAL_Driver/Src/stm32f4xx_hal_rcc.c **** 
 505:Libraries/STM32F4xx_HAL_Driver/Src/stm32f4xx_hal_rcc.c ****         /* Wait till PLL is ready */
 506:Libraries/STM32F4xx_HAL_Driver/Src/stm32f4xx_hal_rcc.c ****         while(__HAL_RCC_GET_FLAG(RCC_FLAG_PLLRDY) == RESET)
 507:Libraries/STM32F4xx_HAL_Driver/Src/stm32f4xx_hal_rcc.c ****         {
 508:Libraries/STM32F4xx_HAL_Driver/Src/stm32f4xx_hal_rcc.c ****           if((HAL_GetTick() - tickstart ) > PLL_TIMEOUT_VALUE)
 509:Libraries/STM32F4xx_HAL_Driver/Src/stm32f4xx_hal_rcc.c ****           {
 510:Libraries/STM32F4xx_HAL_Driver/Src/stm32f4xx_hal_rcc.c ****             return HAL_TIMEOUT;
 511:Libraries/STM32F4xx_HAL_Driver/Src/stm32f4xx_hal_rcc.c ****           }
 512:Libraries/STM32F4xx_HAL_Driver/Src/stm32f4xx_hal_rcc.c ****         }
 513:Libraries/STM32F4xx_HAL_Driver/Src/stm32f4xx_hal_rcc.c ****       }
 514:Libraries/STM32F4xx_HAL_Driver/Src/stm32f4xx_hal_rcc.c ****       else
 515:Libraries/STM32F4xx_HAL_Driver/Src/stm32f4xx_hal_rcc.c ****       {
 516:Libraries/STM32F4xx_HAL_Driver/Src/stm32f4xx_hal_rcc.c ****         /* Disable the main PLL. */
 517:Libraries/STM32F4xx_HAL_Driver/Src/stm32f4xx_hal_rcc.c ****         __HAL_RCC_PLL_DISABLE();
 652              		.loc 1 517 9 is_stmt 1 view .LVU216
 653 02d8 434B     		ldr	r3, .L95+4
 654 02da 0022     		movs	r2, #0
 655 02dc 1A60     		str	r2, [r3]
 518:Libraries/STM32F4xx_HAL_Driver/Src/stm32f4xx_hal_rcc.c **** 
 519:Libraries/STM32F4xx_HAL_Driver/Src/stm32f4xx_hal_rcc.c ****         /* Get Start Tick */
 520:Libraries/STM32F4xx_HAL_Driver/Src/stm32f4xx_hal_rcc.c ****         tickstart = HAL_GetTick();
 656              		.loc 1 520 9 view .LVU217
 657              		.loc 1 520 21 is_stmt 0 view .LVU218
 658 02de FFF7FEFF 		bl	HAL_GetTick
 659              	.LVL42:
 660 02e2 0446     		mov	r4, r0
 661              	.LVL43:
 521:Libraries/STM32F4xx_HAL_Driver/Src/stm32f4xx_hal_rcc.c **** 
 522:Libraries/STM32F4xx_HAL_Driver/Src/stm32f4xx_hal_rcc.c ****         /* Wait till PLL is ready */
 523:Libraries/STM32F4xx_HAL_Driver/Src/stm32f4xx_hal_rcc.c ****         while(__HAL_RCC_GET_FLAG(RCC_FLAG_PLLRDY) != RESET)
 662              		.loc 1 523 9 is_stmt 1 view .LVU219
 663              	.L50:
 664              		.loc 1 523 14 view .LVU220
 665              		.loc 1 523 15 is_stmt 0 view .LVU221
 666 02e4 3F4B     		ldr	r3, .L95
 667 02e6 1B68     		ldr	r3, [r3]
 668              		.loc 1 523 14 view .LVU222
 669 02e8 13F0007F 		tst	r3, #33554432
 670 02ec 42D0     		beq	.L90
 524:Libraries/STM32F4xx_HAL_Driver/Src/stm32f4xx_hal_rcc.c ****         {
 525:Libraries/STM32F4xx_HAL_Driver/Src/stm32f4xx_hal_rcc.c ****           if((HAL_GetTick() - tickstart ) > PLL_TIMEOUT_VALUE)
ARM GAS  C:\Users\yzy\AppData\Local\Temp\ccHOwreO.s 			page 23


 671              		.loc 1 525 11 is_stmt 1 view .LVU223
 672              		.loc 1 525 15 is_stmt 0 view .LVU224
 673 02ee FFF7FEFF 		bl	HAL_GetTick
 674              	.LVL44:
 675              		.loc 1 525 29 view .LVU225
 676 02f2 001B     		subs	r0, r0, r4
 677              		.loc 1 525 13 view .LVU226
 678 02f4 0228     		cmp	r0, #2
 679 02f6 F5D9     		bls	.L50
 526:Libraries/STM32F4xx_HAL_Driver/Src/stm32f4xx_hal_rcc.c ****           {
 527:Libraries/STM32F4xx_HAL_Driver/Src/stm32f4xx_hal_rcc.c ****             return HAL_TIMEOUT;
 680              		.loc 1 527 20 view .LVU227
 681 02f8 0320     		movs	r0, #3
 682 02fa 64E0     		b	.L3
 683              	.LVL45:
 684              	.L88:
 685              	.LBB4:
 458:Libraries/STM32F4xx_HAL_Driver/Src/stm32f4xx_hal_rcc.c ****     }
 686              		.loc 1 458 7 is_stmt 1 view .LVU228
 687 02fc 394A     		ldr	r2, .L95
 688 02fe 136C     		ldr	r3, [r2, #64]
 689 0300 23F08053 		bic	r3, r3, #268435456
 690 0304 1364     		str	r3, [r2, #64]
 691 0306 DCE7     		b	.L30
 692              	.LVL46:
 693              	.L89:
 458:Libraries/STM32F4xx_HAL_Driver/Src/stm32f4xx_hal_rcc.c ****     }
 694              		.loc 1 458 7 is_stmt 0 view .LVU229
 695              	.LBE4:
 472:Libraries/STM32F4xx_HAL_Driver/Src/stm32f4xx_hal_rcc.c ****         assert_param(IS_RCC_PLLM_VALUE(RCC_OscInitStruct->PLL.PLLM));
 696              		.loc 1 472 9 is_stmt 1 view .LVU230
 473:Libraries/STM32F4xx_HAL_Driver/Src/stm32f4xx_hal_rcc.c ****         assert_param(IS_RCC_PLLN_VALUE(RCC_OscInitStruct->PLL.PLLN));
 697              		.loc 1 473 9 view .LVU231
 474:Libraries/STM32F4xx_HAL_Driver/Src/stm32f4xx_hal_rcc.c ****         assert_param(IS_RCC_PLLP_VALUE(RCC_OscInitStruct->PLL.PLLP));
 698              		.loc 1 474 9 view .LVU232
 475:Libraries/STM32F4xx_HAL_Driver/Src/stm32f4xx_hal_rcc.c ****         assert_param(IS_RCC_PLLQ_VALUE(RCC_OscInitStruct->PLL.PLLQ));
 699              		.loc 1 475 9 view .LVU233
 476:Libraries/STM32F4xx_HAL_Driver/Src/stm32f4xx_hal_rcc.c **** 
 700              		.loc 1 476 9 view .LVU234
 479:Libraries/STM32F4xx_HAL_Driver/Src/stm32f4xx_hal_rcc.c **** 
 701              		.loc 1 479 9 view .LVU235
 702 0308 374B     		ldr	r3, .L95+4
 703 030a 0022     		movs	r2, #0
 704 030c 1A60     		str	r2, [r3]
 482:Libraries/STM32F4xx_HAL_Driver/Src/stm32f4xx_hal_rcc.c **** 
 705              		.loc 1 482 9 view .LVU236
 482:Libraries/STM32F4xx_HAL_Driver/Src/stm32f4xx_hal_rcc.c **** 
 706              		.loc 1 482 21 is_stmt 0 view .LVU237
 707 030e FFF7FEFF 		bl	HAL_GetTick
 708              	.LVL47:
 709 0312 0546     		mov	r5, r0
 710              	.LVL48:
 485:Libraries/STM32F4xx_HAL_Driver/Src/stm32f4xx_hal_rcc.c ****         {
 711              		.loc 1 485 9 is_stmt 1 view .LVU238
 712              	.L46:
 485:Libraries/STM32F4xx_HAL_Driver/Src/stm32f4xx_hal_rcc.c ****         {
 713              		.loc 1 485 14 view .LVU239
ARM GAS  C:\Users\yzy\AppData\Local\Temp\ccHOwreO.s 			page 24


 485:Libraries/STM32F4xx_HAL_Driver/Src/stm32f4xx_hal_rcc.c ****         {
 714              		.loc 1 485 15 is_stmt 0 view .LVU240
 715 0314 334B     		ldr	r3, .L95
 716 0316 1B68     		ldr	r3, [r3]
 485:Libraries/STM32F4xx_HAL_Driver/Src/stm32f4xx_hal_rcc.c ****         {
 717              		.loc 1 485 14 view .LVU241
 718 0318 13F0007F 		tst	r3, #33554432
 719 031c 06D0     		beq	.L91
 487:Libraries/STM32F4xx_HAL_Driver/Src/stm32f4xx_hal_rcc.c ****           {
 720              		.loc 1 487 11 is_stmt 1 view .LVU242
 487:Libraries/STM32F4xx_HAL_Driver/Src/stm32f4xx_hal_rcc.c ****           {
 721              		.loc 1 487 15 is_stmt 0 view .LVU243
 722 031e FFF7FEFF 		bl	HAL_GetTick
 723              	.LVL49:
 487:Libraries/STM32F4xx_HAL_Driver/Src/stm32f4xx_hal_rcc.c ****           {
 724              		.loc 1 487 29 view .LVU244
 725 0322 401B     		subs	r0, r0, r5
 487:Libraries/STM32F4xx_HAL_Driver/Src/stm32f4xx_hal_rcc.c ****           {
 726              		.loc 1 487 13 view .LVU245
 727 0324 0228     		cmp	r0, #2
 728 0326 F5D9     		bls	.L46
 489:Libraries/STM32F4xx_HAL_Driver/Src/stm32f4xx_hal_rcc.c ****           }
 729              		.loc 1 489 20 view .LVU246
 730 0328 0320     		movs	r0, #3
 731 032a 4CE0     		b	.L3
 732              	.L91:
 494:Libraries/STM32F4xx_HAL_Driver/Src/stm32f4xx_hal_rcc.c ****                                  RCC_OscInitStruct->PLL.PLLM                                       
 733              		.loc 1 494 9 is_stmt 1 view .LVU247
 734 032c E369     		ldr	r3, [r4, #28]
 735 032e 226A     		ldr	r2, [r4, #32]
 736 0330 1343     		orrs	r3, r3, r2
 737 0332 626A     		ldr	r2, [r4, #36]
 738 0334 43EA8213 		orr	r3, r3, r2, lsl #6
 739 0338 A26A     		ldr	r2, [r4, #40]
 740 033a 5208     		lsrs	r2, r2, #1
 741 033c 013A     		subs	r2, r2, #1
 742 033e 43EA0243 		orr	r3, r3, r2, lsl #16
 743 0342 E26A     		ldr	r2, [r4, #44]
 744 0344 43EA0263 		orr	r3, r3, r2, lsl #24
 745 0348 264A     		ldr	r2, .L95
 746 034a 5360     		str	r3, [r2, #4]
 500:Libraries/STM32F4xx_HAL_Driver/Src/stm32f4xx_hal_rcc.c **** 
 747              		.loc 1 500 9 view .LVU248
 748 034c 264B     		ldr	r3, .L95+4
 749 034e 0122     		movs	r2, #1
 750 0350 1A60     		str	r2, [r3]
 503:Libraries/STM32F4xx_HAL_Driver/Src/stm32f4xx_hal_rcc.c **** 
 751              		.loc 1 503 9 view .LVU249
 503:Libraries/STM32F4xx_HAL_Driver/Src/stm32f4xx_hal_rcc.c **** 
 752              		.loc 1 503 21 is_stmt 0 view .LVU250
 753 0352 FFF7FEFF 		bl	HAL_GetTick
 754              	.LVL50:
 755 0356 0446     		mov	r4, r0
 756              	.LVL51:
 506:Libraries/STM32F4xx_HAL_Driver/Src/stm32f4xx_hal_rcc.c ****         {
 757              		.loc 1 506 9 is_stmt 1 view .LVU251
 758              	.L48:
ARM GAS  C:\Users\yzy\AppData\Local\Temp\ccHOwreO.s 			page 25


 506:Libraries/STM32F4xx_HAL_Driver/Src/stm32f4xx_hal_rcc.c ****         {
 759              		.loc 1 506 14 view .LVU252
 506:Libraries/STM32F4xx_HAL_Driver/Src/stm32f4xx_hal_rcc.c ****         {
 760              		.loc 1 506 15 is_stmt 0 view .LVU253
 761 0358 224B     		ldr	r3, .L95
 762 035a 1B68     		ldr	r3, [r3]
 506:Libraries/STM32F4xx_HAL_Driver/Src/stm32f4xx_hal_rcc.c ****         {
 763              		.loc 1 506 14 view .LVU254
 764 035c 13F0007F 		tst	r3, #33554432
 765 0360 06D1     		bne	.L92
 508:Libraries/STM32F4xx_HAL_Driver/Src/stm32f4xx_hal_rcc.c ****           {
 766              		.loc 1 508 11 is_stmt 1 view .LVU255
 508:Libraries/STM32F4xx_HAL_Driver/Src/stm32f4xx_hal_rcc.c ****           {
 767              		.loc 1 508 15 is_stmt 0 view .LVU256
 768 0362 FFF7FEFF 		bl	HAL_GetTick
 769              	.LVL52:
 508:Libraries/STM32F4xx_HAL_Driver/Src/stm32f4xx_hal_rcc.c ****           {
 770              		.loc 1 508 29 view .LVU257
 771 0366 001B     		subs	r0, r0, r4
 508:Libraries/STM32F4xx_HAL_Driver/Src/stm32f4xx_hal_rcc.c ****           {
 772              		.loc 1 508 13 view .LVU258
 773 0368 0228     		cmp	r0, #2
 774 036a F5D9     		bls	.L48
 510:Libraries/STM32F4xx_HAL_Driver/Src/stm32f4xx_hal_rcc.c ****           }
 775              		.loc 1 510 20 view .LVU259
 776 036c 0320     		movs	r0, #3
 777 036e 2AE0     		b	.L3
 778              	.L92:
 528:Libraries/STM32F4xx_HAL_Driver/Src/stm32f4xx_hal_rcc.c ****           }
 529:Libraries/STM32F4xx_HAL_Driver/Src/stm32f4xx_hal_rcc.c ****         }
 530:Libraries/STM32F4xx_HAL_Driver/Src/stm32f4xx_hal_rcc.c ****       }
 531:Libraries/STM32F4xx_HAL_Driver/Src/stm32f4xx_hal_rcc.c ****     }
 532:Libraries/STM32F4xx_HAL_Driver/Src/stm32f4xx_hal_rcc.c ****     else
 533:Libraries/STM32F4xx_HAL_Driver/Src/stm32f4xx_hal_rcc.c ****     {
 534:Libraries/STM32F4xx_HAL_Driver/Src/stm32f4xx_hal_rcc.c ****       /* Check if there is a request to disable the PLL used as System clock source */
 535:Libraries/STM32F4xx_HAL_Driver/Src/stm32f4xx_hal_rcc.c ****       if((RCC_OscInitStruct->PLL.PLLState) == RCC_PLL_OFF)
 536:Libraries/STM32F4xx_HAL_Driver/Src/stm32f4xx_hal_rcc.c ****       {
 537:Libraries/STM32F4xx_HAL_Driver/Src/stm32f4xx_hal_rcc.c ****         return HAL_ERROR;
 538:Libraries/STM32F4xx_HAL_Driver/Src/stm32f4xx_hal_rcc.c ****       }
 539:Libraries/STM32F4xx_HAL_Driver/Src/stm32f4xx_hal_rcc.c ****       else
 540:Libraries/STM32F4xx_HAL_Driver/Src/stm32f4xx_hal_rcc.c ****       {
 541:Libraries/STM32F4xx_HAL_Driver/Src/stm32f4xx_hal_rcc.c ****         /* Do not return HAL_ERROR if request repeats the current configuration */
 542:Libraries/STM32F4xx_HAL_Driver/Src/stm32f4xx_hal_rcc.c ****         pll_config = RCC->PLLCFGR;
 543:Libraries/STM32F4xx_HAL_Driver/Src/stm32f4xx_hal_rcc.c ****         if((READ_BIT(pll_config, RCC_PLLCFGR_PLLSRC) != RCC_OscInitStruct->PLL.PLLSource) ||
 544:Libraries/STM32F4xx_HAL_Driver/Src/stm32f4xx_hal_rcc.c ****            (READ_BIT(pll_config, RCC_PLLCFGR_PLLM) != RCC_OscInitStruct->PLL.PLLM) ||
 545:Libraries/STM32F4xx_HAL_Driver/Src/stm32f4xx_hal_rcc.c ****            (READ_BIT(pll_config, RCC_PLLCFGR_PLLN) != RCC_OscInitStruct->PLL.PLLN) ||
 546:Libraries/STM32F4xx_HAL_Driver/Src/stm32f4xx_hal_rcc.c ****            (READ_BIT(pll_config, RCC_PLLCFGR_PLLP) != RCC_OscInitStruct->PLL.PLLP) ||
 547:Libraries/STM32F4xx_HAL_Driver/Src/stm32f4xx_hal_rcc.c ****            (READ_BIT(pll_config, RCC_PLLCFGR_PLLQ) != RCC_OscInitStruct->PLL.PLLQ))
 548:Libraries/STM32F4xx_HAL_Driver/Src/stm32f4xx_hal_rcc.c ****         {
 549:Libraries/STM32F4xx_HAL_Driver/Src/stm32f4xx_hal_rcc.c ****           return HAL_ERROR;
 550:Libraries/STM32F4xx_HAL_Driver/Src/stm32f4xx_hal_rcc.c ****         }
 551:Libraries/STM32F4xx_HAL_Driver/Src/stm32f4xx_hal_rcc.c ****       }
 552:Libraries/STM32F4xx_HAL_Driver/Src/stm32f4xx_hal_rcc.c ****     }
 553:Libraries/STM32F4xx_HAL_Driver/Src/stm32f4xx_hal_rcc.c ****   }
 554:Libraries/STM32F4xx_HAL_Driver/Src/stm32f4xx_hal_rcc.c ****   return HAL_OK;
 779              		.loc 1 554 10 view .LVU260
 780 0370 0020     		movs	r0, #0
ARM GAS  C:\Users\yzy\AppData\Local\Temp\ccHOwreO.s 			page 26


 781 0372 28E0     		b	.L3
 782              	.L90:
 783              		.loc 1 554 10 view .LVU261
 784 0374 0020     		movs	r0, #0
 785 0376 26E0     		b	.L3
 786              	.LVL53:
 787              	.L44:
 535:Libraries/STM32F4xx_HAL_Driver/Src/stm32f4xx_hal_rcc.c ****       {
 788              		.loc 1 535 7 is_stmt 1 view .LVU262
 535:Libraries/STM32F4xx_HAL_Driver/Src/stm32f4xx_hal_rcc.c ****       {
 789              		.loc 1 535 9 is_stmt 0 view .LVU263
 790 0378 012B     		cmp	r3, #1
 791 037a 26D0     		beq	.L69
 542:Libraries/STM32F4xx_HAL_Driver/Src/stm32f4xx_hal_rcc.c ****         if((READ_BIT(pll_config, RCC_PLLCFGR_PLLSRC) != RCC_OscInitStruct->PLL.PLLSource) ||
 792              		.loc 1 542 9 is_stmt 1 view .LVU264
 542:Libraries/STM32F4xx_HAL_Driver/Src/stm32f4xx_hal_rcc.c ****         if((READ_BIT(pll_config, RCC_PLLCFGR_PLLSRC) != RCC_OscInitStruct->PLL.PLLSource) ||
 793              		.loc 1 542 20 is_stmt 0 view .LVU265
 794 037c 194B     		ldr	r3, .L95
 795 037e 5B68     		ldr	r3, [r3, #4]
 796              	.LVL54:
 543:Libraries/STM32F4xx_HAL_Driver/Src/stm32f4xx_hal_rcc.c ****            (READ_BIT(pll_config, RCC_PLLCFGR_PLLM) != RCC_OscInitStruct->PLL.PLLM) ||
 797              		.loc 1 543 9 is_stmt 1 view .LVU266
 543:Libraries/STM32F4xx_HAL_Driver/Src/stm32f4xx_hal_rcc.c ****            (READ_BIT(pll_config, RCC_PLLCFGR_PLLM) != RCC_OscInitStruct->PLL.PLLM) ||
 798              		.loc 1 543 13 is_stmt 0 view .LVU267
 799 0380 03F48001 		and	r1, r3, #4194304
 543:Libraries/STM32F4xx_HAL_Driver/Src/stm32f4xx_hal_rcc.c ****            (READ_BIT(pll_config, RCC_PLLCFGR_PLLM) != RCC_OscInitStruct->PLL.PLLM) ||
 800              		.loc 1 543 79 view .LVU268
 801 0384 E269     		ldr	r2, [r4, #28]
 543:Libraries/STM32F4xx_HAL_Driver/Src/stm32f4xx_hal_rcc.c ****            (READ_BIT(pll_config, RCC_PLLCFGR_PLLM) != RCC_OscInitStruct->PLL.PLLM) ||
 802              		.loc 1 543 11 view .LVU269
 803 0386 9142     		cmp	r1, r2
 804 0388 21D1     		bne	.L70
 544:Libraries/STM32F4xx_HAL_Driver/Src/stm32f4xx_hal_rcc.c ****            (READ_BIT(pll_config, RCC_PLLCFGR_PLLN) != RCC_OscInitStruct->PLL.PLLN) ||
 805              		.loc 1 544 13 discriminator 1 view .LVU270
 806 038a 03F03F02 		and	r2, r3, #63
 544:Libraries/STM32F4xx_HAL_Driver/Src/stm32f4xx_hal_rcc.c ****            (READ_BIT(pll_config, RCC_PLLCFGR_PLLN) != RCC_OscInitStruct->PLL.PLLN) ||
 807              		.loc 1 544 77 discriminator 1 view .LVU271
 808 038e 216A     		ldr	r1, [r4, #32]
 543:Libraries/STM32F4xx_HAL_Driver/Src/stm32f4xx_hal_rcc.c ****            (READ_BIT(pll_config, RCC_PLLCFGR_PLLM) != RCC_OscInitStruct->PLL.PLLM) ||
 809              		.loc 1 543 91 discriminator 1 view .LVU272
 810 0390 8A42     		cmp	r2, r1
 811 0392 1ED1     		bne	.L71
 545:Libraries/STM32F4xx_HAL_Driver/Src/stm32f4xx_hal_rcc.c ****            (READ_BIT(pll_config, RCC_PLLCFGR_PLLP) != RCC_OscInitStruct->PLL.PLLP) ||
 812              		.loc 1 545 77 view .LVU273
 813 0394 616A     		ldr	r1, [r4, #36]
 544:Libraries/STM32F4xx_HAL_Driver/Src/stm32f4xx_hal_rcc.c ****            (READ_BIT(pll_config, RCC_PLLCFGR_PLLN) != RCC_OscInitStruct->PLL.PLLN) ||
 814              		.loc 1 544 84 view .LVU274
 815 0396 47F6C072 		movw	r2, #32704
 816 039a 1A40     		ands	r2, r2, r3
 817 039c 8A42     		cmp	r2, r1
 818 039e 1AD1     		bne	.L72
 546:Libraries/STM32F4xx_HAL_Driver/Src/stm32f4xx_hal_rcc.c ****            (READ_BIT(pll_config, RCC_PLLCFGR_PLLQ) != RCC_OscInitStruct->PLL.PLLQ))
 819              		.loc 1 546 13 view .LVU275
 820 03a0 03F44032 		and	r2, r3, #196608
 546:Libraries/STM32F4xx_HAL_Driver/Src/stm32f4xx_hal_rcc.c ****            (READ_BIT(pll_config, RCC_PLLCFGR_PLLQ) != RCC_OscInitStruct->PLL.PLLQ))
 821              		.loc 1 546 77 view .LVU276
 822 03a4 A16A     		ldr	r1, [r4, #40]
ARM GAS  C:\Users\yzy\AppData\Local\Temp\ccHOwreO.s 			page 27


 545:Libraries/STM32F4xx_HAL_Driver/Src/stm32f4xx_hal_rcc.c ****            (READ_BIT(pll_config, RCC_PLLCFGR_PLLP) != RCC_OscInitStruct->PLL.PLLP) ||
 823              		.loc 1 545 84 view .LVU277
 824 03a6 8A42     		cmp	r2, r1
 825 03a8 17D1     		bne	.L73
 547:Libraries/STM32F4xx_HAL_Driver/Src/stm32f4xx_hal_rcc.c ****         {
 826              		.loc 1 547 13 view .LVU278
 827 03aa 03F07063 		and	r3, r3, #251658240
 828              	.LVL55:
 547:Libraries/STM32F4xx_HAL_Driver/Src/stm32f4xx_hal_rcc.c ****         {
 829              		.loc 1 547 77 view .LVU279
 830 03ae E26A     		ldr	r2, [r4, #44]
 546:Libraries/STM32F4xx_HAL_Driver/Src/stm32f4xx_hal_rcc.c ****            (READ_BIT(pll_config, RCC_PLLCFGR_PLLQ) != RCC_OscInitStruct->PLL.PLLQ))
 831              		.loc 1 546 84 view .LVU280
 832 03b0 9342     		cmp	r3, r2
 833 03b2 14D1     		bne	.L74
 834              		.loc 1 554 10 view .LVU281
 835 03b4 0020     		movs	r0, #0
 836 03b6 06E0     		b	.L3
 837              	.LVL56:
 838              	.L52:
 839              	.LCFI2:
 840              		.cfi_def_cfa_offset 0
 841              		.cfi_restore 4
 842              		.cfi_restore 5
 843              		.cfi_restore 6
 844              		.cfi_restore 14
 228:Libraries/STM32F4xx_HAL_Driver/Src/stm32f4xx_hal_rcc.c ****   }
 845              		.loc 1 228 12 view .LVU282
 846 03b8 0120     		movs	r0, #1
 847              	.LVL57:
 555:Libraries/STM32F4xx_HAL_Driver/Src/stm32f4xx_hal_rcc.c **** }
 848              		.loc 1 555 1 view .LVU283
 849 03ba 7047     		bx	lr
 850              	.LVL58:
 851              	.L82:
 852              	.LCFI3:
 853              		.cfi_def_cfa_offset 24
 854              		.cfi_offset 4, -16
 855              		.cfi_offset 5, -12
 856              		.cfi_offset 6, -8
 857              		.cfi_offset 14, -4
 244:Libraries/STM32F4xx_HAL_Driver/Src/stm32f4xx_hal_rcc.c ****       }
 858              		.loc 1 244 16 view .LVU284
 859 03bc 0120     		movs	r0, #1
 860              	.LVL59:
 244:Libraries/STM32F4xx_HAL_Driver/Src/stm32f4xx_hal_rcc.c ****       }
 861              		.loc 1 244 16 view .LVU285
 862 03be 02E0     		b	.L3
 863              	.L56:
 297:Libraries/STM32F4xx_HAL_Driver/Src/stm32f4xx_hal_rcc.c ****       }
 864              		.loc 1 297 16 view .LVU286
 865 03c0 0120     		movs	r0, #1
 866 03c2 00E0     		b	.L3
 867              	.L65:
 554:Libraries/STM32F4xx_HAL_Driver/Src/stm32f4xx_hal_rcc.c **** }
 868              		.loc 1 554 10 view .LVU287
 869 03c4 0020     		movs	r0, #0
ARM GAS  C:\Users\yzy\AppData\Local\Temp\ccHOwreO.s 			page 28


 870              	.LVL60:
 871              	.L3:
 872              		.loc 1 555 1 view .LVU288
 873 03c6 02B0     		add	sp, sp, #8
 874              	.LCFI4:
 875              		.cfi_remember_state
 876              		.cfi_def_cfa_offset 16
 877              		@ sp needed
 878 03c8 70BD     		pop	{r4, r5, r6, pc}
 879              	.LVL61:
 880              	.L69:
 881              	.LCFI5:
 882              		.cfi_restore_state
 537:Libraries/STM32F4xx_HAL_Driver/Src/stm32f4xx_hal_rcc.c ****       }
 883              		.loc 1 537 16 view .LVU289
 884 03ca 0120     		movs	r0, #1
 885 03cc FBE7     		b	.L3
 886              	.LVL62:
 887              	.L70:
 549:Libraries/STM32F4xx_HAL_Driver/Src/stm32f4xx_hal_rcc.c ****         }
 888              		.loc 1 549 18 view .LVU290
 889 03ce 0120     		movs	r0, #1
 890 03d0 F9E7     		b	.L3
 891              	.L71:
 892 03d2 0120     		movs	r0, #1
 893 03d4 F7E7     		b	.L3
 894              	.L72:
 895 03d6 0120     		movs	r0, #1
 896 03d8 F5E7     		b	.L3
 897              	.L73:
 898 03da 0120     		movs	r0, #1
 899 03dc F3E7     		b	.L3
 900              	.LVL63:
 901              	.L74:
 549:Libraries/STM32F4xx_HAL_Driver/Src/stm32f4xx_hal_rcc.c ****         }
 902              		.loc 1 549 18 view .LVU291
 903 03de 0120     		movs	r0, #1
 904 03e0 F1E7     		b	.L3
 905              	.L96:
 906 03e2 00BF     		.align	2
 907              	.L95:
 908 03e4 00380240 		.word	1073887232
 909 03e8 60004742 		.word	1111949408
 910              		.cfi_endproc
 911              	.LFE131:
 913              		.section	.text.HAL_RCC_MCOConfig,"ax",%progbits
 914              		.align	1
 915              		.global	HAL_RCC_MCOConfig
 916              		.syntax unified
 917              		.thumb
 918              		.thumb_func
 919              		.fpu softvfp
 921              	HAL_RCC_MCOConfig:
 922              	.LVL64:
 923              	.LFB133:
 556:Libraries/STM32F4xx_HAL_Driver/Src/stm32f4xx_hal_rcc.c **** 
 557:Libraries/STM32F4xx_HAL_Driver/Src/stm32f4xx_hal_rcc.c **** /**
ARM GAS  C:\Users\yzy\AppData\Local\Temp\ccHOwreO.s 			page 29


 558:Libraries/STM32F4xx_HAL_Driver/Src/stm32f4xx_hal_rcc.c ****   * @brief  Initializes the CPU, AHB and APB busses clocks according to the specified
 559:Libraries/STM32F4xx_HAL_Driver/Src/stm32f4xx_hal_rcc.c ****   *         parameters in the RCC_ClkInitStruct.
 560:Libraries/STM32F4xx_HAL_Driver/Src/stm32f4xx_hal_rcc.c ****   * @param  RCC_ClkInitStruct pointer to an RCC_OscInitTypeDef structure that
 561:Libraries/STM32F4xx_HAL_Driver/Src/stm32f4xx_hal_rcc.c ****   *         contains the configuration information for the RCC peripheral.
 562:Libraries/STM32F4xx_HAL_Driver/Src/stm32f4xx_hal_rcc.c ****   * @param  FLatency FLASH Latency, this parameter depend on device selected
 563:Libraries/STM32F4xx_HAL_Driver/Src/stm32f4xx_hal_rcc.c ****   *
 564:Libraries/STM32F4xx_HAL_Driver/Src/stm32f4xx_hal_rcc.c ****   * @note   The SystemCoreClock CMSIS variable is used to store System Clock Frequency
 565:Libraries/STM32F4xx_HAL_Driver/Src/stm32f4xx_hal_rcc.c ****   *         and updated by HAL_RCC_GetHCLKFreq() function called within this function
 566:Libraries/STM32F4xx_HAL_Driver/Src/stm32f4xx_hal_rcc.c ****   *
 567:Libraries/STM32F4xx_HAL_Driver/Src/stm32f4xx_hal_rcc.c ****   * @note   The HSI is used (enabled by hardware) as system clock source after
 568:Libraries/STM32F4xx_HAL_Driver/Src/stm32f4xx_hal_rcc.c ****   *         startup from Reset, wake-up from STOP and STANDBY mode, or in case
 569:Libraries/STM32F4xx_HAL_Driver/Src/stm32f4xx_hal_rcc.c ****   *         of failure of the HSE used directly or indirectly as system clock
 570:Libraries/STM32F4xx_HAL_Driver/Src/stm32f4xx_hal_rcc.c ****   *         (if the Clock Security System CSS is enabled).
 571:Libraries/STM32F4xx_HAL_Driver/Src/stm32f4xx_hal_rcc.c ****   *
 572:Libraries/STM32F4xx_HAL_Driver/Src/stm32f4xx_hal_rcc.c ****   * @note   A switch from one clock source to another occurs only if the target
 573:Libraries/STM32F4xx_HAL_Driver/Src/stm32f4xx_hal_rcc.c ****   *         clock source is ready (clock stable after startup delay or PLL locked).
 574:Libraries/STM32F4xx_HAL_Driver/Src/stm32f4xx_hal_rcc.c ****   *         If a clock source which is not yet ready is selected, the switch will
 575:Libraries/STM32F4xx_HAL_Driver/Src/stm32f4xx_hal_rcc.c ****   *         occur when the clock source will be ready.
 576:Libraries/STM32F4xx_HAL_Driver/Src/stm32f4xx_hal_rcc.c ****   *
 577:Libraries/STM32F4xx_HAL_Driver/Src/stm32f4xx_hal_rcc.c ****   * @note   Depending on the device voltage range, the software has to set correctly
 578:Libraries/STM32F4xx_HAL_Driver/Src/stm32f4xx_hal_rcc.c ****   *         HPRE[3:0] bits to ensure that HCLK not exceed the maximum allowed frequency
 579:Libraries/STM32F4xx_HAL_Driver/Src/stm32f4xx_hal_rcc.c ****   *         (for more details refer to section above "Initialization/de-initialization functions")
 580:Libraries/STM32F4xx_HAL_Driver/Src/stm32f4xx_hal_rcc.c ****   * @retval None
 581:Libraries/STM32F4xx_HAL_Driver/Src/stm32f4xx_hal_rcc.c ****   */
 582:Libraries/STM32F4xx_HAL_Driver/Src/stm32f4xx_hal_rcc.c **** HAL_StatusTypeDef HAL_RCC_ClockConfig(RCC_ClkInitTypeDef  *RCC_ClkInitStruct, uint32_t FLatency)
 583:Libraries/STM32F4xx_HAL_Driver/Src/stm32f4xx_hal_rcc.c **** {
 584:Libraries/STM32F4xx_HAL_Driver/Src/stm32f4xx_hal_rcc.c ****   uint32_t tickstart;
 585:Libraries/STM32F4xx_HAL_Driver/Src/stm32f4xx_hal_rcc.c **** 
 586:Libraries/STM32F4xx_HAL_Driver/Src/stm32f4xx_hal_rcc.c ****   /* Check Null pointer */
 587:Libraries/STM32F4xx_HAL_Driver/Src/stm32f4xx_hal_rcc.c ****   if(RCC_ClkInitStruct == NULL)
 588:Libraries/STM32F4xx_HAL_Driver/Src/stm32f4xx_hal_rcc.c ****   {
 589:Libraries/STM32F4xx_HAL_Driver/Src/stm32f4xx_hal_rcc.c ****     return HAL_ERROR;
 590:Libraries/STM32F4xx_HAL_Driver/Src/stm32f4xx_hal_rcc.c ****   }
 591:Libraries/STM32F4xx_HAL_Driver/Src/stm32f4xx_hal_rcc.c **** 
 592:Libraries/STM32F4xx_HAL_Driver/Src/stm32f4xx_hal_rcc.c ****   /* Check the parameters */
 593:Libraries/STM32F4xx_HAL_Driver/Src/stm32f4xx_hal_rcc.c ****   assert_param(IS_RCC_CLOCKTYPE(RCC_ClkInitStruct->ClockType));
 594:Libraries/STM32F4xx_HAL_Driver/Src/stm32f4xx_hal_rcc.c ****   assert_param(IS_FLASH_LATENCY(FLatency));
 595:Libraries/STM32F4xx_HAL_Driver/Src/stm32f4xx_hal_rcc.c **** 
 596:Libraries/STM32F4xx_HAL_Driver/Src/stm32f4xx_hal_rcc.c ****   /* To correctly read data from FLASH memory, the number of wait states (LATENCY)
 597:Libraries/STM32F4xx_HAL_Driver/Src/stm32f4xx_hal_rcc.c ****     must be correctly programmed according to the frequency of the CPU clock
 598:Libraries/STM32F4xx_HAL_Driver/Src/stm32f4xx_hal_rcc.c ****     (HCLK) and the supply voltage of the device. */
 599:Libraries/STM32F4xx_HAL_Driver/Src/stm32f4xx_hal_rcc.c **** 
 600:Libraries/STM32F4xx_HAL_Driver/Src/stm32f4xx_hal_rcc.c ****   /* Increasing the number of wait states because of higher CPU frequency */
 601:Libraries/STM32F4xx_HAL_Driver/Src/stm32f4xx_hal_rcc.c ****   if(FLatency > __HAL_FLASH_GET_LATENCY())
 602:Libraries/STM32F4xx_HAL_Driver/Src/stm32f4xx_hal_rcc.c ****   {
 603:Libraries/STM32F4xx_HAL_Driver/Src/stm32f4xx_hal_rcc.c ****     /* Program the new number of wait states to the LATENCY bits in the FLASH_ACR register */
 604:Libraries/STM32F4xx_HAL_Driver/Src/stm32f4xx_hal_rcc.c ****     __HAL_FLASH_SET_LATENCY(FLatency);
 605:Libraries/STM32F4xx_HAL_Driver/Src/stm32f4xx_hal_rcc.c **** 
 606:Libraries/STM32F4xx_HAL_Driver/Src/stm32f4xx_hal_rcc.c ****     /* Check that the new number of wait states is taken into account to access the Flash
 607:Libraries/STM32F4xx_HAL_Driver/Src/stm32f4xx_hal_rcc.c ****     memory by reading the FLASH_ACR register */
 608:Libraries/STM32F4xx_HAL_Driver/Src/stm32f4xx_hal_rcc.c ****     if(__HAL_FLASH_GET_LATENCY() != FLatency)
 609:Libraries/STM32F4xx_HAL_Driver/Src/stm32f4xx_hal_rcc.c ****     {
 610:Libraries/STM32F4xx_HAL_Driver/Src/stm32f4xx_hal_rcc.c ****       return HAL_ERROR;
 611:Libraries/STM32F4xx_HAL_Driver/Src/stm32f4xx_hal_rcc.c ****     }
 612:Libraries/STM32F4xx_HAL_Driver/Src/stm32f4xx_hal_rcc.c ****   }
 613:Libraries/STM32F4xx_HAL_Driver/Src/stm32f4xx_hal_rcc.c **** 
 614:Libraries/STM32F4xx_HAL_Driver/Src/stm32f4xx_hal_rcc.c ****   /*-------------------------- HCLK Configuration --------------------------*/
ARM GAS  C:\Users\yzy\AppData\Local\Temp\ccHOwreO.s 			page 30


 615:Libraries/STM32F4xx_HAL_Driver/Src/stm32f4xx_hal_rcc.c ****   if(((RCC_ClkInitStruct->ClockType) & RCC_CLOCKTYPE_HCLK) == RCC_CLOCKTYPE_HCLK)
 616:Libraries/STM32F4xx_HAL_Driver/Src/stm32f4xx_hal_rcc.c ****   {
 617:Libraries/STM32F4xx_HAL_Driver/Src/stm32f4xx_hal_rcc.c ****     /* Set the highest APBx dividers in order to ensure that we do not go through
 618:Libraries/STM32F4xx_HAL_Driver/Src/stm32f4xx_hal_rcc.c ****        a non-spec phase whatever we decrease or increase HCLK. */
 619:Libraries/STM32F4xx_HAL_Driver/Src/stm32f4xx_hal_rcc.c ****     if(((RCC_ClkInitStruct->ClockType) & RCC_CLOCKTYPE_PCLK1) == RCC_CLOCKTYPE_PCLK1)
 620:Libraries/STM32F4xx_HAL_Driver/Src/stm32f4xx_hal_rcc.c ****     {
 621:Libraries/STM32F4xx_HAL_Driver/Src/stm32f4xx_hal_rcc.c ****       MODIFY_REG(RCC->CFGR, RCC_CFGR_PPRE1, RCC_HCLK_DIV16);
 622:Libraries/STM32F4xx_HAL_Driver/Src/stm32f4xx_hal_rcc.c ****     }
 623:Libraries/STM32F4xx_HAL_Driver/Src/stm32f4xx_hal_rcc.c **** 
 624:Libraries/STM32F4xx_HAL_Driver/Src/stm32f4xx_hal_rcc.c ****     if(((RCC_ClkInitStruct->ClockType) & RCC_CLOCKTYPE_PCLK2) == RCC_CLOCKTYPE_PCLK2)
 625:Libraries/STM32F4xx_HAL_Driver/Src/stm32f4xx_hal_rcc.c ****     {
 626:Libraries/STM32F4xx_HAL_Driver/Src/stm32f4xx_hal_rcc.c ****       MODIFY_REG(RCC->CFGR, RCC_CFGR_PPRE2, (RCC_HCLK_DIV16 << 3));
 627:Libraries/STM32F4xx_HAL_Driver/Src/stm32f4xx_hal_rcc.c ****     }
 628:Libraries/STM32F4xx_HAL_Driver/Src/stm32f4xx_hal_rcc.c **** 
 629:Libraries/STM32F4xx_HAL_Driver/Src/stm32f4xx_hal_rcc.c ****     assert_param(IS_RCC_HCLK(RCC_ClkInitStruct->AHBCLKDivider));
 630:Libraries/STM32F4xx_HAL_Driver/Src/stm32f4xx_hal_rcc.c ****     MODIFY_REG(RCC->CFGR, RCC_CFGR_HPRE, RCC_ClkInitStruct->AHBCLKDivider);
 631:Libraries/STM32F4xx_HAL_Driver/Src/stm32f4xx_hal_rcc.c ****   }
 632:Libraries/STM32F4xx_HAL_Driver/Src/stm32f4xx_hal_rcc.c **** 
 633:Libraries/STM32F4xx_HAL_Driver/Src/stm32f4xx_hal_rcc.c ****   /*------------------------- SYSCLK Configuration ---------------------------*/
 634:Libraries/STM32F4xx_HAL_Driver/Src/stm32f4xx_hal_rcc.c ****   if(((RCC_ClkInitStruct->ClockType) & RCC_CLOCKTYPE_SYSCLK) == RCC_CLOCKTYPE_SYSCLK)
 635:Libraries/STM32F4xx_HAL_Driver/Src/stm32f4xx_hal_rcc.c ****   {
 636:Libraries/STM32F4xx_HAL_Driver/Src/stm32f4xx_hal_rcc.c ****     assert_param(IS_RCC_SYSCLKSOURCE(RCC_ClkInitStruct->SYSCLKSource));
 637:Libraries/STM32F4xx_HAL_Driver/Src/stm32f4xx_hal_rcc.c **** 
 638:Libraries/STM32F4xx_HAL_Driver/Src/stm32f4xx_hal_rcc.c ****     /* HSE is selected as System Clock Source */
 639:Libraries/STM32F4xx_HAL_Driver/Src/stm32f4xx_hal_rcc.c ****     if(RCC_ClkInitStruct->SYSCLKSource == RCC_SYSCLKSOURCE_HSE)
 640:Libraries/STM32F4xx_HAL_Driver/Src/stm32f4xx_hal_rcc.c ****     {
 641:Libraries/STM32F4xx_HAL_Driver/Src/stm32f4xx_hal_rcc.c ****       /* Check the HSE ready flag */
 642:Libraries/STM32F4xx_HAL_Driver/Src/stm32f4xx_hal_rcc.c ****       if(__HAL_RCC_GET_FLAG(RCC_FLAG_HSERDY) == RESET)
 643:Libraries/STM32F4xx_HAL_Driver/Src/stm32f4xx_hal_rcc.c ****       {
 644:Libraries/STM32F4xx_HAL_Driver/Src/stm32f4xx_hal_rcc.c ****         return HAL_ERROR;
 645:Libraries/STM32F4xx_HAL_Driver/Src/stm32f4xx_hal_rcc.c ****       }
 646:Libraries/STM32F4xx_HAL_Driver/Src/stm32f4xx_hal_rcc.c ****     }
 647:Libraries/STM32F4xx_HAL_Driver/Src/stm32f4xx_hal_rcc.c ****     /* PLL is selected as System Clock Source */
 648:Libraries/STM32F4xx_HAL_Driver/Src/stm32f4xx_hal_rcc.c ****     else if((RCC_ClkInitStruct->SYSCLKSource == RCC_SYSCLKSOURCE_PLLCLK)   ||
 649:Libraries/STM32F4xx_HAL_Driver/Src/stm32f4xx_hal_rcc.c ****             (RCC_ClkInitStruct->SYSCLKSource == RCC_SYSCLKSOURCE_PLLRCLK))
 650:Libraries/STM32F4xx_HAL_Driver/Src/stm32f4xx_hal_rcc.c ****     {
 651:Libraries/STM32F4xx_HAL_Driver/Src/stm32f4xx_hal_rcc.c ****       /* Check the PLL ready flag */
 652:Libraries/STM32F4xx_HAL_Driver/Src/stm32f4xx_hal_rcc.c ****       if(__HAL_RCC_GET_FLAG(RCC_FLAG_PLLRDY) == RESET)
 653:Libraries/STM32F4xx_HAL_Driver/Src/stm32f4xx_hal_rcc.c ****       {
 654:Libraries/STM32F4xx_HAL_Driver/Src/stm32f4xx_hal_rcc.c ****         return HAL_ERROR;
 655:Libraries/STM32F4xx_HAL_Driver/Src/stm32f4xx_hal_rcc.c ****       }
 656:Libraries/STM32F4xx_HAL_Driver/Src/stm32f4xx_hal_rcc.c ****     }
 657:Libraries/STM32F4xx_HAL_Driver/Src/stm32f4xx_hal_rcc.c ****     /* HSI is selected as System Clock Source */
 658:Libraries/STM32F4xx_HAL_Driver/Src/stm32f4xx_hal_rcc.c ****     else
 659:Libraries/STM32F4xx_HAL_Driver/Src/stm32f4xx_hal_rcc.c ****     {
 660:Libraries/STM32F4xx_HAL_Driver/Src/stm32f4xx_hal_rcc.c ****       /* Check the HSI ready flag */
 661:Libraries/STM32F4xx_HAL_Driver/Src/stm32f4xx_hal_rcc.c ****       if(__HAL_RCC_GET_FLAG(RCC_FLAG_HSIRDY) == RESET)
 662:Libraries/STM32F4xx_HAL_Driver/Src/stm32f4xx_hal_rcc.c ****       {
 663:Libraries/STM32F4xx_HAL_Driver/Src/stm32f4xx_hal_rcc.c ****         return HAL_ERROR;
 664:Libraries/STM32F4xx_HAL_Driver/Src/stm32f4xx_hal_rcc.c ****       }
 665:Libraries/STM32F4xx_HAL_Driver/Src/stm32f4xx_hal_rcc.c ****     }
 666:Libraries/STM32F4xx_HAL_Driver/Src/stm32f4xx_hal_rcc.c **** 
 667:Libraries/STM32F4xx_HAL_Driver/Src/stm32f4xx_hal_rcc.c ****     __HAL_RCC_SYSCLK_CONFIG(RCC_ClkInitStruct->SYSCLKSource);
 668:Libraries/STM32F4xx_HAL_Driver/Src/stm32f4xx_hal_rcc.c **** 
 669:Libraries/STM32F4xx_HAL_Driver/Src/stm32f4xx_hal_rcc.c ****     /* Get Start Tick */
 670:Libraries/STM32F4xx_HAL_Driver/Src/stm32f4xx_hal_rcc.c ****     tickstart = HAL_GetTick();
 671:Libraries/STM32F4xx_HAL_Driver/Src/stm32f4xx_hal_rcc.c **** 
ARM GAS  C:\Users\yzy\AppData\Local\Temp\ccHOwreO.s 			page 31


 672:Libraries/STM32F4xx_HAL_Driver/Src/stm32f4xx_hal_rcc.c ****     while (__HAL_RCC_GET_SYSCLK_SOURCE() != (RCC_ClkInitStruct->SYSCLKSource << RCC_CFGR_SWS_Pos))
 673:Libraries/STM32F4xx_HAL_Driver/Src/stm32f4xx_hal_rcc.c ****     {
 674:Libraries/STM32F4xx_HAL_Driver/Src/stm32f4xx_hal_rcc.c ****       if ((HAL_GetTick() - tickstart) > CLOCKSWITCH_TIMEOUT_VALUE)
 675:Libraries/STM32F4xx_HAL_Driver/Src/stm32f4xx_hal_rcc.c ****       {
 676:Libraries/STM32F4xx_HAL_Driver/Src/stm32f4xx_hal_rcc.c ****         return HAL_TIMEOUT;
 677:Libraries/STM32F4xx_HAL_Driver/Src/stm32f4xx_hal_rcc.c ****       }
 678:Libraries/STM32F4xx_HAL_Driver/Src/stm32f4xx_hal_rcc.c ****     }
 679:Libraries/STM32F4xx_HAL_Driver/Src/stm32f4xx_hal_rcc.c ****   }
 680:Libraries/STM32F4xx_HAL_Driver/Src/stm32f4xx_hal_rcc.c **** 
 681:Libraries/STM32F4xx_HAL_Driver/Src/stm32f4xx_hal_rcc.c ****   /* Decreasing the number of wait states because of lower CPU frequency */
 682:Libraries/STM32F4xx_HAL_Driver/Src/stm32f4xx_hal_rcc.c ****   if(FLatency < __HAL_FLASH_GET_LATENCY())
 683:Libraries/STM32F4xx_HAL_Driver/Src/stm32f4xx_hal_rcc.c ****   {
 684:Libraries/STM32F4xx_HAL_Driver/Src/stm32f4xx_hal_rcc.c ****      /* Program the new number of wait states to the LATENCY bits in the FLASH_ACR register */
 685:Libraries/STM32F4xx_HAL_Driver/Src/stm32f4xx_hal_rcc.c ****     __HAL_FLASH_SET_LATENCY(FLatency);
 686:Libraries/STM32F4xx_HAL_Driver/Src/stm32f4xx_hal_rcc.c **** 
 687:Libraries/STM32F4xx_HAL_Driver/Src/stm32f4xx_hal_rcc.c ****     /* Check that the new number of wait states is taken into account to access the Flash
 688:Libraries/STM32F4xx_HAL_Driver/Src/stm32f4xx_hal_rcc.c ****     memory by reading the FLASH_ACR register */
 689:Libraries/STM32F4xx_HAL_Driver/Src/stm32f4xx_hal_rcc.c ****     if(__HAL_FLASH_GET_LATENCY() != FLatency)
 690:Libraries/STM32F4xx_HAL_Driver/Src/stm32f4xx_hal_rcc.c ****     {
 691:Libraries/STM32F4xx_HAL_Driver/Src/stm32f4xx_hal_rcc.c ****       return HAL_ERROR;
 692:Libraries/STM32F4xx_HAL_Driver/Src/stm32f4xx_hal_rcc.c ****     }
 693:Libraries/STM32F4xx_HAL_Driver/Src/stm32f4xx_hal_rcc.c ****   }
 694:Libraries/STM32F4xx_HAL_Driver/Src/stm32f4xx_hal_rcc.c **** 
 695:Libraries/STM32F4xx_HAL_Driver/Src/stm32f4xx_hal_rcc.c ****   /*-------------------------- PCLK1 Configuration ---------------------------*/
 696:Libraries/STM32F4xx_HAL_Driver/Src/stm32f4xx_hal_rcc.c ****   if(((RCC_ClkInitStruct->ClockType) & RCC_CLOCKTYPE_PCLK1) == RCC_CLOCKTYPE_PCLK1)
 697:Libraries/STM32F4xx_HAL_Driver/Src/stm32f4xx_hal_rcc.c ****   {
 698:Libraries/STM32F4xx_HAL_Driver/Src/stm32f4xx_hal_rcc.c ****     assert_param(IS_RCC_PCLK(RCC_ClkInitStruct->APB1CLKDivider));
 699:Libraries/STM32F4xx_HAL_Driver/Src/stm32f4xx_hal_rcc.c ****     MODIFY_REG(RCC->CFGR, RCC_CFGR_PPRE1, RCC_ClkInitStruct->APB1CLKDivider);
 700:Libraries/STM32F4xx_HAL_Driver/Src/stm32f4xx_hal_rcc.c ****   }
 701:Libraries/STM32F4xx_HAL_Driver/Src/stm32f4xx_hal_rcc.c **** 
 702:Libraries/STM32F4xx_HAL_Driver/Src/stm32f4xx_hal_rcc.c ****   /*-------------------------- PCLK2 Configuration ---------------------------*/
 703:Libraries/STM32F4xx_HAL_Driver/Src/stm32f4xx_hal_rcc.c ****   if(((RCC_ClkInitStruct->ClockType) & RCC_CLOCKTYPE_PCLK2) == RCC_CLOCKTYPE_PCLK2)
 704:Libraries/STM32F4xx_HAL_Driver/Src/stm32f4xx_hal_rcc.c ****   {
 705:Libraries/STM32F4xx_HAL_Driver/Src/stm32f4xx_hal_rcc.c ****     assert_param(IS_RCC_PCLK(RCC_ClkInitStruct->APB2CLKDivider));
 706:Libraries/STM32F4xx_HAL_Driver/Src/stm32f4xx_hal_rcc.c ****     MODIFY_REG(RCC->CFGR, RCC_CFGR_PPRE2, ((RCC_ClkInitStruct->APB2CLKDivider) << 3U));
 707:Libraries/STM32F4xx_HAL_Driver/Src/stm32f4xx_hal_rcc.c ****   }
 708:Libraries/STM32F4xx_HAL_Driver/Src/stm32f4xx_hal_rcc.c **** 
 709:Libraries/STM32F4xx_HAL_Driver/Src/stm32f4xx_hal_rcc.c ****   /* Update the SystemCoreClock global variable */
 710:Libraries/STM32F4xx_HAL_Driver/Src/stm32f4xx_hal_rcc.c ****   SystemCoreClock = HAL_RCC_GetSysClockFreq() >> AHBPrescTable[(RCC->CFGR & RCC_CFGR_HPRE)>> RCC_CF
 711:Libraries/STM32F4xx_HAL_Driver/Src/stm32f4xx_hal_rcc.c **** 
 712:Libraries/STM32F4xx_HAL_Driver/Src/stm32f4xx_hal_rcc.c ****   /* Configure the source of time base considering new system clocks settings */
 713:Libraries/STM32F4xx_HAL_Driver/Src/stm32f4xx_hal_rcc.c ****   HAL_InitTick (uwTickPrio);
 714:Libraries/STM32F4xx_HAL_Driver/Src/stm32f4xx_hal_rcc.c **** 
 715:Libraries/STM32F4xx_HAL_Driver/Src/stm32f4xx_hal_rcc.c ****   return HAL_OK;
 716:Libraries/STM32F4xx_HAL_Driver/Src/stm32f4xx_hal_rcc.c **** }
 717:Libraries/STM32F4xx_HAL_Driver/Src/stm32f4xx_hal_rcc.c **** 
 718:Libraries/STM32F4xx_HAL_Driver/Src/stm32f4xx_hal_rcc.c **** /**
 719:Libraries/STM32F4xx_HAL_Driver/Src/stm32f4xx_hal_rcc.c ****   * @}
 720:Libraries/STM32F4xx_HAL_Driver/Src/stm32f4xx_hal_rcc.c ****   */
 721:Libraries/STM32F4xx_HAL_Driver/Src/stm32f4xx_hal_rcc.c **** 
 722:Libraries/STM32F4xx_HAL_Driver/Src/stm32f4xx_hal_rcc.c **** /** @defgroup RCC_Exported_Functions_Group2 Peripheral Control functions
 723:Libraries/STM32F4xx_HAL_Driver/Src/stm32f4xx_hal_rcc.c ****  *  @brief   RCC clocks control functions
 724:Libraries/STM32F4xx_HAL_Driver/Src/stm32f4xx_hal_rcc.c ****  *
 725:Libraries/STM32F4xx_HAL_Driver/Src/stm32f4xx_hal_rcc.c **** @verbatim
 726:Libraries/STM32F4xx_HAL_Driver/Src/stm32f4xx_hal_rcc.c ****  ===============================================================================
 727:Libraries/STM32F4xx_HAL_Driver/Src/stm32f4xx_hal_rcc.c ****                       ##### Peripheral Control functions #####
 728:Libraries/STM32F4xx_HAL_Driver/Src/stm32f4xx_hal_rcc.c ****  ===============================================================================
ARM GAS  C:\Users\yzy\AppData\Local\Temp\ccHOwreO.s 			page 32


 729:Libraries/STM32F4xx_HAL_Driver/Src/stm32f4xx_hal_rcc.c ****     [..]
 730:Libraries/STM32F4xx_HAL_Driver/Src/stm32f4xx_hal_rcc.c ****     This subsection provides a set of functions allowing to control the RCC Clocks
 731:Libraries/STM32F4xx_HAL_Driver/Src/stm32f4xx_hal_rcc.c ****     frequencies.
 732:Libraries/STM32F4xx_HAL_Driver/Src/stm32f4xx_hal_rcc.c **** 
 733:Libraries/STM32F4xx_HAL_Driver/Src/stm32f4xx_hal_rcc.c **** @endverbatim
 734:Libraries/STM32F4xx_HAL_Driver/Src/stm32f4xx_hal_rcc.c ****   * @{
 735:Libraries/STM32F4xx_HAL_Driver/Src/stm32f4xx_hal_rcc.c ****   */
 736:Libraries/STM32F4xx_HAL_Driver/Src/stm32f4xx_hal_rcc.c **** 
 737:Libraries/STM32F4xx_HAL_Driver/Src/stm32f4xx_hal_rcc.c **** /**
 738:Libraries/STM32F4xx_HAL_Driver/Src/stm32f4xx_hal_rcc.c ****   * @brief  Selects the clock source to output on MCO1 pin(PA8) or on MCO2 pin(PC9).
 739:Libraries/STM32F4xx_HAL_Driver/Src/stm32f4xx_hal_rcc.c ****   * @note   PA8/PC9 should be configured in alternate function mode.
 740:Libraries/STM32F4xx_HAL_Driver/Src/stm32f4xx_hal_rcc.c ****   * @param  RCC_MCOx specifies the output direction for the clock source.
 741:Libraries/STM32F4xx_HAL_Driver/Src/stm32f4xx_hal_rcc.c ****   *          This parameter can be one of the following values:
 742:Libraries/STM32F4xx_HAL_Driver/Src/stm32f4xx_hal_rcc.c ****   *            @arg RCC_MCO1: Clock source to output on MCO1 pin(PA8).
 743:Libraries/STM32F4xx_HAL_Driver/Src/stm32f4xx_hal_rcc.c ****   *            @arg RCC_MCO2: Clock source to output on MCO2 pin(PC9).
 744:Libraries/STM32F4xx_HAL_Driver/Src/stm32f4xx_hal_rcc.c ****   * @param  RCC_MCOSource specifies the clock source to output.
 745:Libraries/STM32F4xx_HAL_Driver/Src/stm32f4xx_hal_rcc.c ****   *          This parameter can be one of the following values:
 746:Libraries/STM32F4xx_HAL_Driver/Src/stm32f4xx_hal_rcc.c ****   *            @arg RCC_MCO1SOURCE_HSI: HSI clock selected as MCO1 source
 747:Libraries/STM32F4xx_HAL_Driver/Src/stm32f4xx_hal_rcc.c ****   *            @arg RCC_MCO1SOURCE_LSE: LSE clock selected as MCO1 source
 748:Libraries/STM32F4xx_HAL_Driver/Src/stm32f4xx_hal_rcc.c ****   *            @arg RCC_MCO1SOURCE_HSE: HSE clock selected as MCO1 source
 749:Libraries/STM32F4xx_HAL_Driver/Src/stm32f4xx_hal_rcc.c ****   *            @arg RCC_MCO1SOURCE_PLLCLK: main PLL clock selected as MCO1 source
 750:Libraries/STM32F4xx_HAL_Driver/Src/stm32f4xx_hal_rcc.c ****   *            @arg RCC_MCO2SOURCE_SYSCLK: System clock (SYSCLK) selected as MCO2 source
 751:Libraries/STM32F4xx_HAL_Driver/Src/stm32f4xx_hal_rcc.c ****   *            @arg RCC_MCO2SOURCE_PLLI2SCLK: PLLI2S clock selected as MCO2 source, available for a
 752:Libraries/STM32F4xx_HAL_Driver/Src/stm32f4xx_hal_rcc.c ****   *            @arg RCC_MCO2SOURCE_I2SCLK: I2SCLK clock selected as MCO2 source, available only for
 753:Libraries/STM32F4xx_HAL_Driver/Src/stm32f4xx_hal_rcc.c ****   *            @arg RCC_MCO2SOURCE_HSE: HSE clock selected as MCO2 source
 754:Libraries/STM32F4xx_HAL_Driver/Src/stm32f4xx_hal_rcc.c ****   *            @arg RCC_MCO2SOURCE_PLLCLK: main PLL clock selected as MCO2 source
 755:Libraries/STM32F4xx_HAL_Driver/Src/stm32f4xx_hal_rcc.c ****   * @param  RCC_MCODiv specifies the MCOx prescaler.
 756:Libraries/STM32F4xx_HAL_Driver/Src/stm32f4xx_hal_rcc.c ****   *          This parameter can be one of the following values:
 757:Libraries/STM32F4xx_HAL_Driver/Src/stm32f4xx_hal_rcc.c ****   *            @arg RCC_MCODIV_1: no division applied to MCOx clock
 758:Libraries/STM32F4xx_HAL_Driver/Src/stm32f4xx_hal_rcc.c ****   *            @arg RCC_MCODIV_2: division by 2 applied to MCOx clock
 759:Libraries/STM32F4xx_HAL_Driver/Src/stm32f4xx_hal_rcc.c ****   *            @arg RCC_MCODIV_3: division by 3 applied to MCOx clock
 760:Libraries/STM32F4xx_HAL_Driver/Src/stm32f4xx_hal_rcc.c ****   *            @arg RCC_MCODIV_4: division by 4 applied to MCOx clock
 761:Libraries/STM32F4xx_HAL_Driver/Src/stm32f4xx_hal_rcc.c ****   *            @arg RCC_MCODIV_5: division by 5 applied to MCOx clock
 762:Libraries/STM32F4xx_HAL_Driver/Src/stm32f4xx_hal_rcc.c ****   * @note  For STM32F410Rx devices to output I2SCLK clock on MCO2 you should have
 763:Libraries/STM32F4xx_HAL_Driver/Src/stm32f4xx_hal_rcc.c ****   *        at last one of the SPI clocks enabled (SPI1, SPI2 or SPI5).
 764:Libraries/STM32F4xx_HAL_Driver/Src/stm32f4xx_hal_rcc.c ****   * @retval None
 765:Libraries/STM32F4xx_HAL_Driver/Src/stm32f4xx_hal_rcc.c ****   */
 766:Libraries/STM32F4xx_HAL_Driver/Src/stm32f4xx_hal_rcc.c **** void HAL_RCC_MCOConfig(uint32_t RCC_MCOx, uint32_t RCC_MCOSource, uint32_t RCC_MCODiv)
 767:Libraries/STM32F4xx_HAL_Driver/Src/stm32f4xx_hal_rcc.c **** {
 924              		.loc 1 767 1 is_stmt 1 view -0
 925              		.cfi_startproc
 926              		@ args = 0, pretend = 0, frame = 32
 927              		@ frame_needed = 0, uses_anonymous_args = 0
 928              		.loc 1 767 1 is_stmt 0 view .LVU293
 929 0000 70B5     		push	{r4, r5, r6, lr}
 930              	.LCFI6:
 931              		.cfi_def_cfa_offset 16
 932              		.cfi_offset 4, -16
 933              		.cfi_offset 5, -12
 934              		.cfi_offset 6, -8
 935              		.cfi_offset 14, -4
 936 0002 88B0     		sub	sp, sp, #32
 937              	.LCFI7:
 938              		.cfi_def_cfa_offset 48
 939 0004 0C46     		mov	r4, r1
 940 0006 1546     		mov	r5, r2
 768:Libraries/STM32F4xx_HAL_Driver/Src/stm32f4xx_hal_rcc.c ****   GPIO_InitTypeDef GPIO_InitStruct;
ARM GAS  C:\Users\yzy\AppData\Local\Temp\ccHOwreO.s 			page 33


 941              		.loc 1 768 3 is_stmt 1 view .LVU294
 769:Libraries/STM32F4xx_HAL_Driver/Src/stm32f4xx_hal_rcc.c ****   /* Check the parameters */
 770:Libraries/STM32F4xx_HAL_Driver/Src/stm32f4xx_hal_rcc.c ****   assert_param(IS_RCC_MCO(RCC_MCOx));
 942              		.loc 1 770 3 view .LVU295
 771:Libraries/STM32F4xx_HAL_Driver/Src/stm32f4xx_hal_rcc.c ****   assert_param(IS_RCC_MCODIV(RCC_MCODiv));
 943              		.loc 1 771 3 view .LVU296
 772:Libraries/STM32F4xx_HAL_Driver/Src/stm32f4xx_hal_rcc.c ****   /* RCC_MCO1 */
 773:Libraries/STM32F4xx_HAL_Driver/Src/stm32f4xx_hal_rcc.c ****   if(RCC_MCOx == RCC_MCO1)
 944              		.loc 1 773 3 view .LVU297
 945              		.loc 1 773 5 is_stmt 0 view .LVU298
 946 0008 00BB     		cbnz	r0, .L98
 774:Libraries/STM32F4xx_HAL_Driver/Src/stm32f4xx_hal_rcc.c ****   {
 775:Libraries/STM32F4xx_HAL_Driver/Src/stm32f4xx_hal_rcc.c ****     assert_param(IS_RCC_MCO1SOURCE(RCC_MCOSource));
 947              		.loc 1 775 5 is_stmt 1 view .LVU299
 776:Libraries/STM32F4xx_HAL_Driver/Src/stm32f4xx_hal_rcc.c **** 
 777:Libraries/STM32F4xx_HAL_Driver/Src/stm32f4xx_hal_rcc.c ****     /* MCO1 Clock Enable */
 778:Libraries/STM32F4xx_HAL_Driver/Src/stm32f4xx_hal_rcc.c ****     __MCO1_CLK_ENABLE();
 948              		.loc 1 778 5 view .LVU300
 949              	.LBB5:
 950              		.loc 1 778 5 view .LVU301
 951 000a 0023     		movs	r3, #0
 952 000c 0193     		str	r3, [sp, #4]
 953              		.loc 1 778 5 view .LVU302
 954 000e 204E     		ldr	r6, .L101
 955 0010 326B     		ldr	r2, [r6, #48]
 956              	.LVL65:
 957              		.loc 1 778 5 is_stmt 0 view .LVU303
 958 0012 42F00102 		orr	r2, r2, #1
 959 0016 3263     		str	r2, [r6, #48]
 960              		.loc 1 778 5 is_stmt 1 view .LVU304
 961 0018 326B     		ldr	r2, [r6, #48]
 962 001a 02F00102 		and	r2, r2, #1
 963 001e 0192     		str	r2, [sp, #4]
 964              		.loc 1 778 5 view .LVU305
 965 0020 019A     		ldr	r2, [sp, #4]
 966              	.LBE5:
 967              		.loc 1 778 5 view .LVU306
 779:Libraries/STM32F4xx_HAL_Driver/Src/stm32f4xx_hal_rcc.c **** 
 780:Libraries/STM32F4xx_HAL_Driver/Src/stm32f4xx_hal_rcc.c ****     /* Configure the MCO1 pin in alternate function mode */
 781:Libraries/STM32F4xx_HAL_Driver/Src/stm32f4xx_hal_rcc.c ****     GPIO_InitStruct.Pin = MCO1_PIN;
 968              		.loc 1 781 5 view .LVU307
 969              		.loc 1 781 25 is_stmt 0 view .LVU308
 970 0022 4FF48072 		mov	r2, #256
 971 0026 0392     		str	r2, [sp, #12]
 782:Libraries/STM32F4xx_HAL_Driver/Src/stm32f4xx_hal_rcc.c ****     GPIO_InitStruct.Mode = GPIO_MODE_AF_PP;
 972              		.loc 1 782 5 is_stmt 1 view .LVU309
 973              		.loc 1 782 26 is_stmt 0 view .LVU310
 974 0028 0222     		movs	r2, #2
 975 002a 0492     		str	r2, [sp, #16]
 783:Libraries/STM32F4xx_HAL_Driver/Src/stm32f4xx_hal_rcc.c ****     GPIO_InitStruct.Speed = GPIO_SPEED_FREQ_VERY_HIGH;
 976              		.loc 1 783 5 is_stmt 1 view .LVU311
 977              		.loc 1 783 27 is_stmt 0 view .LVU312
 978 002c 0322     		movs	r2, #3
 979 002e 0692     		str	r2, [sp, #24]
 784:Libraries/STM32F4xx_HAL_Driver/Src/stm32f4xx_hal_rcc.c ****     GPIO_InitStruct.Pull = GPIO_NOPULL;
 980              		.loc 1 784 5 is_stmt 1 view .LVU313
 981              		.loc 1 784 26 is_stmt 0 view .LVU314
ARM GAS  C:\Users\yzy\AppData\Local\Temp\ccHOwreO.s 			page 34


 982 0030 0593     		str	r3, [sp, #20]
 785:Libraries/STM32F4xx_HAL_Driver/Src/stm32f4xx_hal_rcc.c ****     GPIO_InitStruct.Alternate = GPIO_AF0_MCO;
 983              		.loc 1 785 5 is_stmt 1 view .LVU315
 984              		.loc 1 785 31 is_stmt 0 view .LVU316
 985 0032 0793     		str	r3, [sp, #28]
 786:Libraries/STM32F4xx_HAL_Driver/Src/stm32f4xx_hal_rcc.c ****     HAL_GPIO_Init(MCO1_GPIO_PORT, &GPIO_InitStruct);
 986              		.loc 1 786 5 is_stmt 1 view .LVU317
 987 0034 03A9     		add	r1, sp, #12
 988              	.LVL66:
 989              		.loc 1 786 5 is_stmt 0 view .LVU318
 990 0036 1748     		ldr	r0, .L101+4
 991              	.LVL67:
 992              		.loc 1 786 5 view .LVU319
 993 0038 FFF7FEFF 		bl	HAL_GPIO_Init
 994              	.LVL68:
 787:Libraries/STM32F4xx_HAL_Driver/Src/stm32f4xx_hal_rcc.c **** 
 788:Libraries/STM32F4xx_HAL_Driver/Src/stm32f4xx_hal_rcc.c ****     /* Mask MCO1 and MCO1PRE[2:0] bits then Select MCO1 clock source and prescaler */
 789:Libraries/STM32F4xx_HAL_Driver/Src/stm32f4xx_hal_rcc.c ****     MODIFY_REG(RCC->CFGR, (RCC_CFGR_MCO1 | RCC_CFGR_MCO1PRE), (RCC_MCOSource | RCC_MCODiv));
 995              		.loc 1 789 5 is_stmt 1 view .LVU320
 996 003c B368     		ldr	r3, [r6, #8]
 997 003e 23F0EC63 		bic	r3, r3, #123731968
 998 0042 2C43     		orrs	r4, r4, r5
 999              	.LVL69:
 1000              		.loc 1 789 5 is_stmt 0 view .LVU321
 1001 0044 1C43     		orrs	r4, r4, r3
 1002 0046 B460     		str	r4, [r6, #8]
 1003              	.L97:
 790:Libraries/STM32F4xx_HAL_Driver/Src/stm32f4xx_hal_rcc.c **** 
 791:Libraries/STM32F4xx_HAL_Driver/Src/stm32f4xx_hal_rcc.c ****    /* This RCC MCO1 enable feature is available only on STM32F410xx devices */
 792:Libraries/STM32F4xx_HAL_Driver/Src/stm32f4xx_hal_rcc.c **** #if defined(RCC_CFGR_MCO1EN)
 793:Libraries/STM32F4xx_HAL_Driver/Src/stm32f4xx_hal_rcc.c ****     __HAL_RCC_MCO1_ENABLE();
 794:Libraries/STM32F4xx_HAL_Driver/Src/stm32f4xx_hal_rcc.c **** #endif /* RCC_CFGR_MCO1EN */
 795:Libraries/STM32F4xx_HAL_Driver/Src/stm32f4xx_hal_rcc.c ****   }
 796:Libraries/STM32F4xx_HAL_Driver/Src/stm32f4xx_hal_rcc.c **** #if defined(RCC_CFGR_MCO2)
 797:Libraries/STM32F4xx_HAL_Driver/Src/stm32f4xx_hal_rcc.c ****   else
 798:Libraries/STM32F4xx_HAL_Driver/Src/stm32f4xx_hal_rcc.c ****   {
 799:Libraries/STM32F4xx_HAL_Driver/Src/stm32f4xx_hal_rcc.c ****     assert_param(IS_RCC_MCO2SOURCE(RCC_MCOSource));
 800:Libraries/STM32F4xx_HAL_Driver/Src/stm32f4xx_hal_rcc.c **** 
 801:Libraries/STM32F4xx_HAL_Driver/Src/stm32f4xx_hal_rcc.c ****     /* MCO2 Clock Enable */
 802:Libraries/STM32F4xx_HAL_Driver/Src/stm32f4xx_hal_rcc.c ****     __MCO2_CLK_ENABLE();
 803:Libraries/STM32F4xx_HAL_Driver/Src/stm32f4xx_hal_rcc.c **** 
 804:Libraries/STM32F4xx_HAL_Driver/Src/stm32f4xx_hal_rcc.c ****     /* Configure the MCO2 pin in alternate function mode */
 805:Libraries/STM32F4xx_HAL_Driver/Src/stm32f4xx_hal_rcc.c ****     GPIO_InitStruct.Pin = MCO2_PIN;
 806:Libraries/STM32F4xx_HAL_Driver/Src/stm32f4xx_hal_rcc.c ****     GPIO_InitStruct.Mode = GPIO_MODE_AF_PP;
 807:Libraries/STM32F4xx_HAL_Driver/Src/stm32f4xx_hal_rcc.c ****     GPIO_InitStruct.Speed = GPIO_SPEED_FREQ_VERY_HIGH;
 808:Libraries/STM32F4xx_HAL_Driver/Src/stm32f4xx_hal_rcc.c ****     GPIO_InitStruct.Pull = GPIO_NOPULL;
 809:Libraries/STM32F4xx_HAL_Driver/Src/stm32f4xx_hal_rcc.c ****     GPIO_InitStruct.Alternate = GPIO_AF0_MCO;
 810:Libraries/STM32F4xx_HAL_Driver/Src/stm32f4xx_hal_rcc.c ****     HAL_GPIO_Init(MCO2_GPIO_PORT, &GPIO_InitStruct);
 811:Libraries/STM32F4xx_HAL_Driver/Src/stm32f4xx_hal_rcc.c **** 
 812:Libraries/STM32F4xx_HAL_Driver/Src/stm32f4xx_hal_rcc.c ****     /* Mask MCO2 and MCO2PRE[2:0] bits then Select MCO2 clock source and prescaler */
 813:Libraries/STM32F4xx_HAL_Driver/Src/stm32f4xx_hal_rcc.c ****     MODIFY_REG(RCC->CFGR, (RCC_CFGR_MCO2 | RCC_CFGR_MCO2PRE), (RCC_MCOSource | (RCC_MCODiv << 3U)))
 814:Libraries/STM32F4xx_HAL_Driver/Src/stm32f4xx_hal_rcc.c **** 
 815:Libraries/STM32F4xx_HAL_Driver/Src/stm32f4xx_hal_rcc.c ****    /* This RCC MCO2 enable feature is available only on STM32F410Rx devices */
 816:Libraries/STM32F4xx_HAL_Driver/Src/stm32f4xx_hal_rcc.c **** #if defined(RCC_CFGR_MCO2EN)
 817:Libraries/STM32F4xx_HAL_Driver/Src/stm32f4xx_hal_rcc.c ****     __HAL_RCC_MCO2_ENABLE();
 818:Libraries/STM32F4xx_HAL_Driver/Src/stm32f4xx_hal_rcc.c **** #endif /* RCC_CFGR_MCO2EN */
 819:Libraries/STM32F4xx_HAL_Driver/Src/stm32f4xx_hal_rcc.c ****   }
ARM GAS  C:\Users\yzy\AppData\Local\Temp\ccHOwreO.s 			page 35


 820:Libraries/STM32F4xx_HAL_Driver/Src/stm32f4xx_hal_rcc.c **** #endif /* RCC_CFGR_MCO2 */
 821:Libraries/STM32F4xx_HAL_Driver/Src/stm32f4xx_hal_rcc.c **** }
 1004              		.loc 1 821 1 view .LVU322
 1005 0048 08B0     		add	sp, sp, #32
 1006              	.LCFI8:
 1007              		.cfi_remember_state
 1008              		.cfi_def_cfa_offset 16
 1009              		@ sp needed
 1010 004a 70BD     		pop	{r4, r5, r6, pc}
 1011              	.LVL70:
 1012              	.L98:
 1013              	.LCFI9:
 1014              		.cfi_restore_state
 799:Libraries/STM32F4xx_HAL_Driver/Src/stm32f4xx_hal_rcc.c **** 
 1015              		.loc 1 799 5 is_stmt 1 view .LVU323
 802:Libraries/STM32F4xx_HAL_Driver/Src/stm32f4xx_hal_rcc.c **** 
 1016              		.loc 1 802 5 view .LVU324
 1017              	.LBB6:
 802:Libraries/STM32F4xx_HAL_Driver/Src/stm32f4xx_hal_rcc.c **** 
 1018              		.loc 1 802 5 view .LVU325
 1019 004c 0023     		movs	r3, #0
 1020 004e 0293     		str	r3, [sp, #8]
 802:Libraries/STM32F4xx_HAL_Driver/Src/stm32f4xx_hal_rcc.c **** 
 1021              		.loc 1 802 5 view .LVU326
 1022 0050 0F4E     		ldr	r6, .L101
 1023 0052 326B     		ldr	r2, [r6, #48]
 1024              	.LVL71:
 802:Libraries/STM32F4xx_HAL_Driver/Src/stm32f4xx_hal_rcc.c **** 
 1025              		.loc 1 802 5 is_stmt 0 view .LVU327
 1026 0054 42F00402 		orr	r2, r2, #4
 1027 0058 3263     		str	r2, [r6, #48]
 802:Libraries/STM32F4xx_HAL_Driver/Src/stm32f4xx_hal_rcc.c **** 
 1028              		.loc 1 802 5 is_stmt 1 view .LVU328
 1029 005a 326B     		ldr	r2, [r6, #48]
 1030 005c 02F00402 		and	r2, r2, #4
 1031 0060 0292     		str	r2, [sp, #8]
 802:Libraries/STM32F4xx_HAL_Driver/Src/stm32f4xx_hal_rcc.c **** 
 1032              		.loc 1 802 5 view .LVU329
 1033 0062 029A     		ldr	r2, [sp, #8]
 1034              	.LBE6:
 802:Libraries/STM32F4xx_HAL_Driver/Src/stm32f4xx_hal_rcc.c **** 
 1035              		.loc 1 802 5 view .LVU330
 805:Libraries/STM32F4xx_HAL_Driver/Src/stm32f4xx_hal_rcc.c ****     GPIO_InitStruct.Mode = GPIO_MODE_AF_PP;
 1036              		.loc 1 805 5 view .LVU331
 805:Libraries/STM32F4xx_HAL_Driver/Src/stm32f4xx_hal_rcc.c ****     GPIO_InitStruct.Mode = GPIO_MODE_AF_PP;
 1037              		.loc 1 805 25 is_stmt 0 view .LVU332
 1038 0064 4FF40072 		mov	r2, #512
 1039 0068 0392     		str	r2, [sp, #12]
 806:Libraries/STM32F4xx_HAL_Driver/Src/stm32f4xx_hal_rcc.c ****     GPIO_InitStruct.Speed = GPIO_SPEED_FREQ_VERY_HIGH;
 1040              		.loc 1 806 5 is_stmt 1 view .LVU333
 806:Libraries/STM32F4xx_HAL_Driver/Src/stm32f4xx_hal_rcc.c ****     GPIO_InitStruct.Speed = GPIO_SPEED_FREQ_VERY_HIGH;
 1041              		.loc 1 806 26 is_stmt 0 view .LVU334
 1042 006a 0222     		movs	r2, #2
 1043 006c 0492     		str	r2, [sp, #16]
 807:Libraries/STM32F4xx_HAL_Driver/Src/stm32f4xx_hal_rcc.c ****     GPIO_InitStruct.Pull = GPIO_NOPULL;
 1044              		.loc 1 807 5 is_stmt 1 view .LVU335
 807:Libraries/STM32F4xx_HAL_Driver/Src/stm32f4xx_hal_rcc.c ****     GPIO_InitStruct.Pull = GPIO_NOPULL;
ARM GAS  C:\Users\yzy\AppData\Local\Temp\ccHOwreO.s 			page 36


 1045              		.loc 1 807 27 is_stmt 0 view .LVU336
 1046 006e 0322     		movs	r2, #3
 1047 0070 0692     		str	r2, [sp, #24]
 808:Libraries/STM32F4xx_HAL_Driver/Src/stm32f4xx_hal_rcc.c ****     GPIO_InitStruct.Alternate = GPIO_AF0_MCO;
 1048              		.loc 1 808 5 is_stmt 1 view .LVU337
 808:Libraries/STM32F4xx_HAL_Driver/Src/stm32f4xx_hal_rcc.c ****     GPIO_InitStruct.Alternate = GPIO_AF0_MCO;
 1049              		.loc 1 808 26 is_stmt 0 view .LVU338
 1050 0072 0593     		str	r3, [sp, #20]
 809:Libraries/STM32F4xx_HAL_Driver/Src/stm32f4xx_hal_rcc.c ****     HAL_GPIO_Init(MCO2_GPIO_PORT, &GPIO_InitStruct);
 1051              		.loc 1 809 5 is_stmt 1 view .LVU339
 809:Libraries/STM32F4xx_HAL_Driver/Src/stm32f4xx_hal_rcc.c ****     HAL_GPIO_Init(MCO2_GPIO_PORT, &GPIO_InitStruct);
 1052              		.loc 1 809 31 is_stmt 0 view .LVU340
 1053 0074 0793     		str	r3, [sp, #28]
 810:Libraries/STM32F4xx_HAL_Driver/Src/stm32f4xx_hal_rcc.c **** 
 1054              		.loc 1 810 5 is_stmt 1 view .LVU341
 1055 0076 03A9     		add	r1, sp, #12
 1056              	.LVL72:
 810:Libraries/STM32F4xx_HAL_Driver/Src/stm32f4xx_hal_rcc.c **** 
 1057              		.loc 1 810 5 is_stmt 0 view .LVU342
 1058 0078 0748     		ldr	r0, .L101+8
 1059              	.LVL73:
 810:Libraries/STM32F4xx_HAL_Driver/Src/stm32f4xx_hal_rcc.c **** 
 1060              		.loc 1 810 5 view .LVU343
 1061 007a FFF7FEFF 		bl	HAL_GPIO_Init
 1062              	.LVL74:
 813:Libraries/STM32F4xx_HAL_Driver/Src/stm32f4xx_hal_rcc.c **** 
 1063              		.loc 1 813 5 is_stmt 1 view .LVU344
 1064 007e B368     		ldr	r3, [r6, #8]
 1065 0080 23F07843 		bic	r3, r3, #-134217728
 1066 0084 44EAC504 		orr	r4, r4, r5, lsl #3
 1067              	.LVL75:
 813:Libraries/STM32F4xx_HAL_Driver/Src/stm32f4xx_hal_rcc.c **** 
 1068              		.loc 1 813 5 is_stmt 0 view .LVU345
 1069 0088 1C43     		orrs	r4, r4, r3
 1070 008a B460     		str	r4, [r6, #8]
 1071              		.loc 1 821 1 view .LVU346
 1072 008c DCE7     		b	.L97
 1073              	.L102:
 1074 008e 00BF     		.align	2
 1075              	.L101:
 1076 0090 00380240 		.word	1073887232
 1077 0094 00000240 		.word	1073872896
 1078 0098 00080240 		.word	1073874944
 1079              		.cfi_endproc
 1080              	.LFE133:
 1082              		.section	.text.HAL_RCC_EnableCSS,"ax",%progbits
 1083              		.align	1
 1084              		.global	HAL_RCC_EnableCSS
 1085              		.syntax unified
 1086              		.thumb
 1087              		.thumb_func
 1088              		.fpu softvfp
 1090              	HAL_RCC_EnableCSS:
 1091              	.LFB134:
 822:Libraries/STM32F4xx_HAL_Driver/Src/stm32f4xx_hal_rcc.c **** 
 823:Libraries/STM32F4xx_HAL_Driver/Src/stm32f4xx_hal_rcc.c **** /**
 824:Libraries/STM32F4xx_HAL_Driver/Src/stm32f4xx_hal_rcc.c ****   * @brief  Enables the Clock Security System.
ARM GAS  C:\Users\yzy\AppData\Local\Temp\ccHOwreO.s 			page 37


 825:Libraries/STM32F4xx_HAL_Driver/Src/stm32f4xx_hal_rcc.c ****   * @note   If a failure is detected on the HSE oscillator clock, this oscillator
 826:Libraries/STM32F4xx_HAL_Driver/Src/stm32f4xx_hal_rcc.c ****   *         is automatically disabled and an interrupt is generated to inform the
 827:Libraries/STM32F4xx_HAL_Driver/Src/stm32f4xx_hal_rcc.c ****   *         software about the failure (Clock Security System Interrupt, CSSI),
 828:Libraries/STM32F4xx_HAL_Driver/Src/stm32f4xx_hal_rcc.c ****   *         allowing the MCU to perform rescue operations. The CSSI is linked to
 829:Libraries/STM32F4xx_HAL_Driver/Src/stm32f4xx_hal_rcc.c ****   *         the Cortex-M4 NMI (Non-Maskable Interrupt) exception vector.
 830:Libraries/STM32F4xx_HAL_Driver/Src/stm32f4xx_hal_rcc.c ****   * @retval None
 831:Libraries/STM32F4xx_HAL_Driver/Src/stm32f4xx_hal_rcc.c ****   */
 832:Libraries/STM32F4xx_HAL_Driver/Src/stm32f4xx_hal_rcc.c **** void HAL_RCC_EnableCSS(void)
 833:Libraries/STM32F4xx_HAL_Driver/Src/stm32f4xx_hal_rcc.c **** {
 1092              		.loc 1 833 1 is_stmt 1 view -0
 1093              		.cfi_startproc
 1094              		@ args = 0, pretend = 0, frame = 0
 1095              		@ frame_needed = 0, uses_anonymous_args = 0
 1096              		@ link register save eliminated.
 834:Libraries/STM32F4xx_HAL_Driver/Src/stm32f4xx_hal_rcc.c ****   *(__IO uint32_t *) RCC_CR_CSSON_BB = (uint32_t)ENABLE;
 1097              		.loc 1 834 3 view .LVU348
 1098              		.loc 1 834 38 is_stmt 0 view .LVU349
 1099 0000 014B     		ldr	r3, .L104
 1100 0002 0122     		movs	r2, #1
 1101 0004 1A60     		str	r2, [r3]
 835:Libraries/STM32F4xx_HAL_Driver/Src/stm32f4xx_hal_rcc.c **** }
 1102              		.loc 1 835 1 view .LVU350
 1103 0006 7047     		bx	lr
 1104              	.L105:
 1105              		.align	2
 1106              	.L104:
 1107 0008 4C004742 		.word	1111949388
 1108              		.cfi_endproc
 1109              	.LFE134:
 1111              		.section	.text.HAL_RCC_DisableCSS,"ax",%progbits
 1112              		.align	1
 1113              		.global	HAL_RCC_DisableCSS
 1114              		.syntax unified
 1115              		.thumb
 1116              		.thumb_func
 1117              		.fpu softvfp
 1119              	HAL_RCC_DisableCSS:
 1120              	.LFB135:
 836:Libraries/STM32F4xx_HAL_Driver/Src/stm32f4xx_hal_rcc.c **** 
 837:Libraries/STM32F4xx_HAL_Driver/Src/stm32f4xx_hal_rcc.c **** /**
 838:Libraries/STM32F4xx_HAL_Driver/Src/stm32f4xx_hal_rcc.c ****   * @brief  Disables the Clock Security System.
 839:Libraries/STM32F4xx_HAL_Driver/Src/stm32f4xx_hal_rcc.c ****   * @retval None
 840:Libraries/STM32F4xx_HAL_Driver/Src/stm32f4xx_hal_rcc.c ****   */
 841:Libraries/STM32F4xx_HAL_Driver/Src/stm32f4xx_hal_rcc.c **** void HAL_RCC_DisableCSS(void)
 842:Libraries/STM32F4xx_HAL_Driver/Src/stm32f4xx_hal_rcc.c **** {
 1121              		.loc 1 842 1 is_stmt 1 view -0
 1122              		.cfi_startproc
 1123              		@ args = 0, pretend = 0, frame = 0
 1124              		@ frame_needed = 0, uses_anonymous_args = 0
 1125              		@ link register save eliminated.
 843:Libraries/STM32F4xx_HAL_Driver/Src/stm32f4xx_hal_rcc.c ****   *(__IO uint32_t *) RCC_CR_CSSON_BB = (uint32_t)DISABLE;
 1126              		.loc 1 843 3 view .LVU352
 1127              		.loc 1 843 38 is_stmt 0 view .LVU353
 1128 0000 014B     		ldr	r3, .L107
 1129 0002 0022     		movs	r2, #0
 1130 0004 1A60     		str	r2, [r3]
 844:Libraries/STM32F4xx_HAL_Driver/Src/stm32f4xx_hal_rcc.c **** }
ARM GAS  C:\Users\yzy\AppData\Local\Temp\ccHOwreO.s 			page 38


 1131              		.loc 1 844 1 view .LVU354
 1132 0006 7047     		bx	lr
 1133              	.L108:
 1134              		.align	2
 1135              	.L107:
 1136 0008 4C004742 		.word	1111949388
 1137              		.cfi_endproc
 1138              	.LFE135:
 1140              		.global	__aeabi_uldivmod
 1141              		.section	.text.HAL_RCC_GetSysClockFreq,"ax",%progbits
 1142              		.align	1
 1143              		.weak	HAL_RCC_GetSysClockFreq
 1144              		.syntax unified
 1145              		.thumb
 1146              		.thumb_func
 1147              		.fpu softvfp
 1149              	HAL_RCC_GetSysClockFreq:
 1150              	.LFB136:
 845:Libraries/STM32F4xx_HAL_Driver/Src/stm32f4xx_hal_rcc.c **** 
 846:Libraries/STM32F4xx_HAL_Driver/Src/stm32f4xx_hal_rcc.c **** /**
 847:Libraries/STM32F4xx_HAL_Driver/Src/stm32f4xx_hal_rcc.c ****   * @brief  Returns the SYSCLK frequency
 848:Libraries/STM32F4xx_HAL_Driver/Src/stm32f4xx_hal_rcc.c ****   *
 849:Libraries/STM32F4xx_HAL_Driver/Src/stm32f4xx_hal_rcc.c ****   * @note   The system frequency computed by this function is not the real
 850:Libraries/STM32F4xx_HAL_Driver/Src/stm32f4xx_hal_rcc.c ****   *         frequency in the chip. It is calculated based on the predefined
 851:Libraries/STM32F4xx_HAL_Driver/Src/stm32f4xx_hal_rcc.c ****   *         constant and the selected clock source:
 852:Libraries/STM32F4xx_HAL_Driver/Src/stm32f4xx_hal_rcc.c ****   * @note     If SYSCLK source is HSI, function returns values based on HSI_VALUE(*)
 853:Libraries/STM32F4xx_HAL_Driver/Src/stm32f4xx_hal_rcc.c ****   * @note     If SYSCLK source is HSE, function returns values based on HSE_VALUE(**)
 854:Libraries/STM32F4xx_HAL_Driver/Src/stm32f4xx_hal_rcc.c ****   * @note     If SYSCLK source is PLL, function returns values based on HSE_VALUE(**)
 855:Libraries/STM32F4xx_HAL_Driver/Src/stm32f4xx_hal_rcc.c ****   *           or HSI_VALUE(*) multiplied/divided by the PLL factors.
 856:Libraries/STM32F4xx_HAL_Driver/Src/stm32f4xx_hal_rcc.c ****   * @note     (*) HSI_VALUE is a constant defined in stm32f4xx_hal_conf.h file (default value
 857:Libraries/STM32F4xx_HAL_Driver/Src/stm32f4xx_hal_rcc.c ****   *               16 MHz) but the real value may vary depending on the variations
 858:Libraries/STM32F4xx_HAL_Driver/Src/stm32f4xx_hal_rcc.c ****   *               in voltage and temperature.
 859:Libraries/STM32F4xx_HAL_Driver/Src/stm32f4xx_hal_rcc.c ****   * @note     (**) HSE_VALUE is a constant defined in stm32f4xx_hal_conf.h file (default value
 860:Libraries/STM32F4xx_HAL_Driver/Src/stm32f4xx_hal_rcc.c ****   *                25 MHz), user has to ensure that HSE_VALUE is same as the real
 861:Libraries/STM32F4xx_HAL_Driver/Src/stm32f4xx_hal_rcc.c ****   *                frequency of the crystal used. Otherwise, this function may
 862:Libraries/STM32F4xx_HAL_Driver/Src/stm32f4xx_hal_rcc.c ****   *                have wrong result.
 863:Libraries/STM32F4xx_HAL_Driver/Src/stm32f4xx_hal_rcc.c ****   *
 864:Libraries/STM32F4xx_HAL_Driver/Src/stm32f4xx_hal_rcc.c ****   * @note   The result of this function could be not correct when using fractional
 865:Libraries/STM32F4xx_HAL_Driver/Src/stm32f4xx_hal_rcc.c ****   *         value for HSE crystal.
 866:Libraries/STM32F4xx_HAL_Driver/Src/stm32f4xx_hal_rcc.c ****   *
 867:Libraries/STM32F4xx_HAL_Driver/Src/stm32f4xx_hal_rcc.c ****   * @note   This function can be used by the user application to compute the
 868:Libraries/STM32F4xx_HAL_Driver/Src/stm32f4xx_hal_rcc.c ****   *         baudrate for the communication peripherals or configure other parameters.
 869:Libraries/STM32F4xx_HAL_Driver/Src/stm32f4xx_hal_rcc.c ****   *
 870:Libraries/STM32F4xx_HAL_Driver/Src/stm32f4xx_hal_rcc.c ****   * @note   Each time SYSCLK changes, this function must be called to update the
 871:Libraries/STM32F4xx_HAL_Driver/Src/stm32f4xx_hal_rcc.c ****   *         right SYSCLK value. Otherwise, any configuration based on this function will be incorre
 872:Libraries/STM32F4xx_HAL_Driver/Src/stm32f4xx_hal_rcc.c ****   *
 873:Libraries/STM32F4xx_HAL_Driver/Src/stm32f4xx_hal_rcc.c ****   *
 874:Libraries/STM32F4xx_HAL_Driver/Src/stm32f4xx_hal_rcc.c ****   * @retval SYSCLK frequency
 875:Libraries/STM32F4xx_HAL_Driver/Src/stm32f4xx_hal_rcc.c ****   */
 876:Libraries/STM32F4xx_HAL_Driver/Src/stm32f4xx_hal_rcc.c **** __weak uint32_t HAL_RCC_GetSysClockFreq(void)
 877:Libraries/STM32F4xx_HAL_Driver/Src/stm32f4xx_hal_rcc.c **** {
 1151              		.loc 1 877 1 is_stmt 1 view -0
 1152              		.cfi_startproc
 1153              		@ args = 0, pretend = 0, frame = 0
 1154              		@ frame_needed = 0, uses_anonymous_args = 0
 1155 0000 F8B5     		push	{r3, r4, r5, r6, r7, lr}
 1156              	.LCFI10:
ARM GAS  C:\Users\yzy\AppData\Local\Temp\ccHOwreO.s 			page 39


 1157              		.cfi_def_cfa_offset 24
 1158              		.cfi_offset 3, -24
 1159              		.cfi_offset 4, -20
 1160              		.cfi_offset 5, -16
 1161              		.cfi_offset 6, -12
 1162              		.cfi_offset 7, -8
 1163              		.cfi_offset 14, -4
 878:Libraries/STM32F4xx_HAL_Driver/Src/stm32f4xx_hal_rcc.c ****   uint32_t pllm = 0U, pllvco = 0U, pllp = 0U;
 1164              		.loc 1 878 3 view .LVU356
 1165              	.LVL76:
 879:Libraries/STM32F4xx_HAL_Driver/Src/stm32f4xx_hal_rcc.c ****   uint32_t sysclockfreq = 0U;
 1166              		.loc 1 879 3 view .LVU357
 880:Libraries/STM32F4xx_HAL_Driver/Src/stm32f4xx_hal_rcc.c **** 
 881:Libraries/STM32F4xx_HAL_Driver/Src/stm32f4xx_hal_rcc.c ****   /* Get SYSCLK source -------------------------------------------------------*/
 882:Libraries/STM32F4xx_HAL_Driver/Src/stm32f4xx_hal_rcc.c ****   switch (RCC->CFGR & RCC_CFGR_SWS)
 1167              		.loc 1 882 3 view .LVU358
 1168              		.loc 1 882 14 is_stmt 0 view .LVU359
 1169 0002 2F4B     		ldr	r3, .L116
 1170 0004 9B68     		ldr	r3, [r3, #8]
 1171              		.loc 1 882 21 view .LVU360
 1172 0006 03F00C03 		and	r3, r3, #12
 1173              		.loc 1 882 3 view .LVU361
 1174 000a 042B     		cmp	r3, #4
 1175 000c 53D0     		beq	.L113
 1176 000e 082B     		cmp	r3, #8
 1177 0010 53D1     		bne	.L114
 883:Libraries/STM32F4xx_HAL_Driver/Src/stm32f4xx_hal_rcc.c ****   {
 884:Libraries/STM32F4xx_HAL_Driver/Src/stm32f4xx_hal_rcc.c ****     case RCC_CFGR_SWS_HSI:  /* HSI used as system clock source */
 885:Libraries/STM32F4xx_HAL_Driver/Src/stm32f4xx_hal_rcc.c ****     {
 886:Libraries/STM32F4xx_HAL_Driver/Src/stm32f4xx_hal_rcc.c ****       sysclockfreq = HSI_VALUE;
 887:Libraries/STM32F4xx_HAL_Driver/Src/stm32f4xx_hal_rcc.c ****        break;
 888:Libraries/STM32F4xx_HAL_Driver/Src/stm32f4xx_hal_rcc.c ****     }
 889:Libraries/STM32F4xx_HAL_Driver/Src/stm32f4xx_hal_rcc.c ****     case RCC_CFGR_SWS_HSE:  /* HSE used as system clock  source */
 890:Libraries/STM32F4xx_HAL_Driver/Src/stm32f4xx_hal_rcc.c ****     {
 891:Libraries/STM32F4xx_HAL_Driver/Src/stm32f4xx_hal_rcc.c ****       sysclockfreq = HSE_VALUE;
 892:Libraries/STM32F4xx_HAL_Driver/Src/stm32f4xx_hal_rcc.c ****       break;
 893:Libraries/STM32F4xx_HAL_Driver/Src/stm32f4xx_hal_rcc.c ****     }
 894:Libraries/STM32F4xx_HAL_Driver/Src/stm32f4xx_hal_rcc.c ****     case RCC_CFGR_SWS_PLL:  /* PLL used as system clock  source */
 895:Libraries/STM32F4xx_HAL_Driver/Src/stm32f4xx_hal_rcc.c ****     {
 896:Libraries/STM32F4xx_HAL_Driver/Src/stm32f4xx_hal_rcc.c ****       /* PLL_VCO = (HSE_VALUE or HSI_VALUE / PLLM) * PLLN
 897:Libraries/STM32F4xx_HAL_Driver/Src/stm32f4xx_hal_rcc.c ****       SYSCLK = PLL_VCO / PLLP */
 898:Libraries/STM32F4xx_HAL_Driver/Src/stm32f4xx_hal_rcc.c ****       pllm = RCC->PLLCFGR & RCC_PLLCFGR_PLLM;
 1178              		.loc 1 898 7 is_stmt 1 view .LVU362
 1179              		.loc 1 898 17 is_stmt 0 view .LVU363
 1180 0012 2B4B     		ldr	r3, .L116
 1181 0014 5A68     		ldr	r2, [r3, #4]
 1182              		.loc 1 898 12 view .LVU364
 1183 0016 02F03F02 		and	r2, r2, #63
 1184              	.LVL77:
 899:Libraries/STM32F4xx_HAL_Driver/Src/stm32f4xx_hal_rcc.c ****       if(__HAL_RCC_GET_PLL_OSCSOURCE() != RCC_PLLSOURCE_HSI)
 1185              		.loc 1 899 7 is_stmt 1 view .LVU365
 1186              		.loc 1 899 10 is_stmt 0 view .LVU366
 1187 001a 5B68     		ldr	r3, [r3, #4]
 1188              		.loc 1 899 9 view .LVU367
 1189 001c 13F4800F 		tst	r3, #4194304
 1190 0020 28D0     		beq	.L111
 900:Libraries/STM32F4xx_HAL_Driver/Src/stm32f4xx_hal_rcc.c ****       {
ARM GAS  C:\Users\yzy\AppData\Local\Temp\ccHOwreO.s 			page 40


 901:Libraries/STM32F4xx_HAL_Driver/Src/stm32f4xx_hal_rcc.c ****         /* HSE used as PLL clock source */
 902:Libraries/STM32F4xx_HAL_Driver/Src/stm32f4xx_hal_rcc.c ****         pllvco = (uint32_t) ((((uint64_t) HSE_VALUE * ((uint64_t) ((RCC->PLLCFGR & RCC_PLLCFGR_PLLN
 1191              		.loc 1 902 9 is_stmt 1 view .LVU368
 1192              		.loc 1 902 72 is_stmt 0 view .LVU369
 1193 0022 274B     		ldr	r3, .L116
 1194 0024 5B68     		ldr	r3, [r3, #4]
 1195              		.loc 1 902 56 view .LVU370
 1196 0026 C3F38813 		ubfx	r3, r3, #6, #9
 1197              		.loc 1 902 53 view .LVU371
 1198 002a 5801     		lsls	r0, r3, #5
 1199 002c 0021     		movs	r1, #0
 1200 002e C01A     		subs	r0, r0, r3
 1201 0030 61F10001 		sbc	r1, r1, #0
 1202 0034 8E01     		lsls	r6, r1, #6
 1203 0036 46EA9066 		orr	r6, r6, r0, lsr #26
 1204 003a 8701     		lsls	r7, r0, #6
 1205 003c 3C1A     		subs	r4, r7, r0
 1206 003e 66EB0105 		sbc	r5, r6, r1
 1207 0042 E900     		lsls	r1, r5, #3
 1208 0044 41EA5471 		orr	r1, r1, r4, lsr #29
 1209 0048 E000     		lsls	r0, r4, #3
 1210 004a C018     		adds	r0, r0, r3
 1211 004c 41F10001 		adc	r1, r1, #0
 1212 0050 4B02     		lsls	r3, r1, #9
 1213 0052 43EAD053 		orr	r3, r3, r0, lsr #23
 1214 0056 4402     		lsls	r4, r0, #9
 1215 0058 2046     		mov	r0, r4
 1216 005a 1946     		mov	r1, r3
 1217              		.loc 1 902 130 view .LVU372
 1218 005c 0023     		movs	r3, #0
 1219 005e FFF7FEFF 		bl	__aeabi_uldivmod
 1220              	.LVL78:
 1221              	.L112:
 903:Libraries/STM32F4xx_HAL_Driver/Src/stm32f4xx_hal_rcc.c ****       }
 904:Libraries/STM32F4xx_HAL_Driver/Src/stm32f4xx_hal_rcc.c ****       else
 905:Libraries/STM32F4xx_HAL_Driver/Src/stm32f4xx_hal_rcc.c ****       {
 906:Libraries/STM32F4xx_HAL_Driver/Src/stm32f4xx_hal_rcc.c ****         /* HSI used as PLL clock source */
 907:Libraries/STM32F4xx_HAL_Driver/Src/stm32f4xx_hal_rcc.c ****         pllvco = (uint32_t) ((((uint64_t) HSI_VALUE * ((uint64_t) ((RCC->PLLCFGR & RCC_PLLCFGR_PLLN
 908:Libraries/STM32F4xx_HAL_Driver/Src/stm32f4xx_hal_rcc.c ****       }
 909:Libraries/STM32F4xx_HAL_Driver/Src/stm32f4xx_hal_rcc.c ****       pllp = ((((RCC->PLLCFGR & RCC_PLLCFGR_PLLP) >> RCC_PLLCFGR_PLLP_Pos) + 1U) *2U);
 1222              		.loc 1 909 7 is_stmt 1 view .LVU373
 1223              		.loc 1 909 21 is_stmt 0 view .LVU374
 1224 0062 174B     		ldr	r3, .L116
 1225 0064 5B68     		ldr	r3, [r3, #4]
 1226              		.loc 1 909 51 view .LVU375
 1227 0066 C3F30143 		ubfx	r3, r3, #16, #2
 1228              		.loc 1 909 76 view .LVU376
 1229 006a 0133     		adds	r3, r3, #1
 1230              		.loc 1 909 12 view .LVU377
 1231 006c 5B00     		lsls	r3, r3, #1
 1232              	.LVL79:
 910:Libraries/STM32F4xx_HAL_Driver/Src/stm32f4xx_hal_rcc.c **** 
 911:Libraries/STM32F4xx_HAL_Driver/Src/stm32f4xx_hal_rcc.c ****       sysclockfreq = pllvco/pllp;
 1233              		.loc 1 911 7 is_stmt 1 view .LVU378
 1234              		.loc 1 911 20 is_stmt 0 view .LVU379
 1235 006e B0FBF3F0 		udiv	r0, r0, r3
 1236              	.LVL80:
ARM GAS  C:\Users\yzy\AppData\Local\Temp\ccHOwreO.s 			page 41


 912:Libraries/STM32F4xx_HAL_Driver/Src/stm32f4xx_hal_rcc.c ****       break;
 1237              		.loc 1 912 7 is_stmt 1 view .LVU380
 1238 0072 23E0     		b	.L109
 1239              	.LVL81:
 1240              	.L111:
 907:Libraries/STM32F4xx_HAL_Driver/Src/stm32f4xx_hal_rcc.c ****       }
 1241              		.loc 1 907 9 view .LVU381
 907:Libraries/STM32F4xx_HAL_Driver/Src/stm32f4xx_hal_rcc.c ****       }
 1242              		.loc 1 907 72 is_stmt 0 view .LVU382
 1243 0074 124B     		ldr	r3, .L116
 1244 0076 5B68     		ldr	r3, [r3, #4]
 907:Libraries/STM32F4xx_HAL_Driver/Src/stm32f4xx_hal_rcc.c ****       }
 1245              		.loc 1 907 56 view .LVU383
 1246 0078 C3F38813 		ubfx	r3, r3, #6, #9
 907:Libraries/STM32F4xx_HAL_Driver/Src/stm32f4xx_hal_rcc.c ****       }
 1247              		.loc 1 907 53 view .LVU384
 1248 007c 5C01     		lsls	r4, r3, #5
 1249 007e 0025     		movs	r5, #0
 1250 0080 E41A     		subs	r4, r4, r3
 1251 0082 65F10005 		sbc	r5, r5, #0
 1252 0086 AE01     		lsls	r6, r5, #6
 1253 0088 46EA9466 		orr	r6, r6, r4, lsr #26
 1254 008c A701     		lsls	r7, r4, #6
 1255 008e 381B     		subs	r0, r7, r4
 1256 0090 66EB0501 		sbc	r1, r6, r5
 1257 0094 CC00     		lsls	r4, r1, #3
 1258 0096 44EA5074 		orr	r4, r4, r0, lsr #29
 1259 009a C500     		lsls	r5, r0, #3
 1260 009c E818     		adds	r0, r5, r3
 1261 009e 44F10001 		adc	r1, r4, #0
 1262 00a2 8B02     		lsls	r3, r1, #10
 1263 00a4 43EA9053 		orr	r3, r3, r0, lsr #22
 1264 00a8 8402     		lsls	r4, r0, #10
 1265 00aa 2046     		mov	r0, r4
 1266 00ac 1946     		mov	r1, r3
 907:Libraries/STM32F4xx_HAL_Driver/Src/stm32f4xx_hal_rcc.c ****       }
 1267              		.loc 1 907 130 view .LVU385
 1268 00ae 0023     		movs	r3, #0
 1269 00b0 FFF7FEFF 		bl	__aeabi_uldivmod
 1270              	.LVL82:
 907:Libraries/STM32F4xx_HAL_Driver/Src/stm32f4xx_hal_rcc.c ****       }
 1271              		.loc 1 907 130 view .LVU386
 1272 00b4 D5E7     		b	.L112
 1273              	.LVL83:
 1274              	.L113:
 891:Libraries/STM32F4xx_HAL_Driver/Src/stm32f4xx_hal_rcc.c ****       break;
 1275              		.loc 1 891 20 view .LVU387
 1276 00b6 0348     		ldr	r0, .L116+4
 1277 00b8 00E0     		b	.L109
 1278              	.L114:
 882:Libraries/STM32F4xx_HAL_Driver/Src/stm32f4xx_hal_rcc.c ****   {
 1279              		.loc 1 882 3 view .LVU388
 1280 00ba 0348     		ldr	r0, .L116+8
 1281              	.LVL84:
 913:Libraries/STM32F4xx_HAL_Driver/Src/stm32f4xx_hal_rcc.c ****     }
 914:Libraries/STM32F4xx_HAL_Driver/Src/stm32f4xx_hal_rcc.c ****     default:
 915:Libraries/STM32F4xx_HAL_Driver/Src/stm32f4xx_hal_rcc.c ****     {
ARM GAS  C:\Users\yzy\AppData\Local\Temp\ccHOwreO.s 			page 42


 916:Libraries/STM32F4xx_HAL_Driver/Src/stm32f4xx_hal_rcc.c ****       sysclockfreq = HSI_VALUE;
 917:Libraries/STM32F4xx_HAL_Driver/Src/stm32f4xx_hal_rcc.c ****       break;
 918:Libraries/STM32F4xx_HAL_Driver/Src/stm32f4xx_hal_rcc.c ****     }
 919:Libraries/STM32F4xx_HAL_Driver/Src/stm32f4xx_hal_rcc.c ****   }
 920:Libraries/STM32F4xx_HAL_Driver/Src/stm32f4xx_hal_rcc.c ****   return sysclockfreq;
 1282              		.loc 1 920 3 is_stmt 1 view .LVU389
 1283              	.L109:
 921:Libraries/STM32F4xx_HAL_Driver/Src/stm32f4xx_hal_rcc.c **** }
 1284              		.loc 1 921 1 is_stmt 0 view .LVU390
 1285 00bc F8BD     		pop	{r3, r4, r5, r6, r7, pc}
 1286              	.L117:
 1287 00be 00BF     		.align	2
 1288              	.L116:
 1289 00c0 00380240 		.word	1073887232
 1290 00c4 00127A00 		.word	8000000
 1291 00c8 0024F400 		.word	16000000
 1292              		.cfi_endproc
 1293              	.LFE136:
 1295              		.section	.text.HAL_RCC_ClockConfig,"ax",%progbits
 1296              		.align	1
 1297              		.global	HAL_RCC_ClockConfig
 1298              		.syntax unified
 1299              		.thumb
 1300              		.thumb_func
 1301              		.fpu softvfp
 1303              	HAL_RCC_ClockConfig:
 1304              	.LVL85:
 1305              	.LFB132:
 583:Libraries/STM32F4xx_HAL_Driver/Src/stm32f4xx_hal_rcc.c ****   uint32_t tickstart;
 1306              		.loc 1 583 1 is_stmt 1 view -0
 1307              		.cfi_startproc
 1308              		@ args = 0, pretend = 0, frame = 0
 1309              		@ frame_needed = 0, uses_anonymous_args = 0
 584:Libraries/STM32F4xx_HAL_Driver/Src/stm32f4xx_hal_rcc.c **** 
 1310              		.loc 1 584 3 view .LVU392
 587:Libraries/STM32F4xx_HAL_Driver/Src/stm32f4xx_hal_rcc.c ****   {
 1311              		.loc 1 587 3 view .LVU393
 587:Libraries/STM32F4xx_HAL_Driver/Src/stm32f4xx_hal_rcc.c ****   {
 1312              		.loc 1 587 5 is_stmt 0 view .LVU394
 1313 0000 0028     		cmp	r0, #0
 1314 0002 00F09B80 		beq	.L133
 583:Libraries/STM32F4xx_HAL_Driver/Src/stm32f4xx_hal_rcc.c ****   uint32_t tickstart;
 1315              		.loc 1 583 1 view .LVU395
 1316 0006 70B5     		push	{r4, r5, r6, lr}
 1317              	.LCFI11:
 1318              		.cfi_def_cfa_offset 16
 1319              		.cfi_offset 4, -16
 1320              		.cfi_offset 5, -12
 1321              		.cfi_offset 6, -8
 1322              		.cfi_offset 14, -4
 1323 0008 0D46     		mov	r5, r1
 1324 000a 0446     		mov	r4, r0
 593:Libraries/STM32F4xx_HAL_Driver/Src/stm32f4xx_hal_rcc.c ****   assert_param(IS_FLASH_LATENCY(FLatency));
 1325              		.loc 1 593 3 is_stmt 1 view .LVU396
 594:Libraries/STM32F4xx_HAL_Driver/Src/stm32f4xx_hal_rcc.c **** 
 1326              		.loc 1 594 3 view .LVU397
 601:Libraries/STM32F4xx_HAL_Driver/Src/stm32f4xx_hal_rcc.c ****   {
ARM GAS  C:\Users\yzy\AppData\Local\Temp\ccHOwreO.s 			page 43


 1327              		.loc 1 601 3 view .LVU398
 601:Libraries/STM32F4xx_HAL_Driver/Src/stm32f4xx_hal_rcc.c ****   {
 1328              		.loc 1 601 17 is_stmt 0 view .LVU399
 1329 000c 4F4B     		ldr	r3, .L146
 1330 000e 1B68     		ldr	r3, [r3]
 1331 0010 03F00F03 		and	r3, r3, #15
 601:Libraries/STM32F4xx_HAL_Driver/Src/stm32f4xx_hal_rcc.c ****   {
 1332              		.loc 1 601 5 view .LVU400
 1333 0014 8B42     		cmp	r3, r1
 1334 0016 08D2     		bcs	.L120
 604:Libraries/STM32F4xx_HAL_Driver/Src/stm32f4xx_hal_rcc.c **** 
 1335              		.loc 1 604 5 is_stmt 1 view .LVU401
 1336 0018 CBB2     		uxtb	r3, r1
 1337 001a 4C4A     		ldr	r2, .L146
 1338 001c 1370     		strb	r3, [r2]
 608:Libraries/STM32F4xx_HAL_Driver/Src/stm32f4xx_hal_rcc.c ****     {
 1339              		.loc 1 608 5 view .LVU402
 608:Libraries/STM32F4xx_HAL_Driver/Src/stm32f4xx_hal_rcc.c ****     {
 1340              		.loc 1 608 8 is_stmt 0 view .LVU403
 1341 001e 1368     		ldr	r3, [r2]
 1342 0020 03F00F03 		and	r3, r3, #15
 608:Libraries/STM32F4xx_HAL_Driver/Src/stm32f4xx_hal_rcc.c ****     {
 1343              		.loc 1 608 7 view .LVU404
 1344 0024 8B42     		cmp	r3, r1
 1345 0026 40F08B80 		bne	.L134
 1346              	.L120:
 615:Libraries/STM32F4xx_HAL_Driver/Src/stm32f4xx_hal_rcc.c ****   {
 1347              		.loc 1 615 3 is_stmt 1 view .LVU405
 615:Libraries/STM32F4xx_HAL_Driver/Src/stm32f4xx_hal_rcc.c ****   {
 1348              		.loc 1 615 25 is_stmt 0 view .LVU406
 1349 002a 2368     		ldr	r3, [r4]
 615:Libraries/STM32F4xx_HAL_Driver/Src/stm32f4xx_hal_rcc.c ****   {
 1350              		.loc 1 615 5 view .LVU407
 1351 002c 13F0020F 		tst	r3, #2
 1352 0030 17D0     		beq	.L121
 619:Libraries/STM32F4xx_HAL_Driver/Src/stm32f4xx_hal_rcc.c ****     {
 1353              		.loc 1 619 5 is_stmt 1 view .LVU408
 619:Libraries/STM32F4xx_HAL_Driver/Src/stm32f4xx_hal_rcc.c ****     {
 1354              		.loc 1 619 7 is_stmt 0 view .LVU409
 1355 0032 13F0040F 		tst	r3, #4
 1356 0036 04D0     		beq	.L122
 621:Libraries/STM32F4xx_HAL_Driver/Src/stm32f4xx_hal_rcc.c ****     }
 1357              		.loc 1 621 7 is_stmt 1 view .LVU410
 1358 0038 454A     		ldr	r2, .L146+4
 1359 003a 9368     		ldr	r3, [r2, #8]
 1360 003c 43F4E053 		orr	r3, r3, #7168
 1361 0040 9360     		str	r3, [r2, #8]
 1362              	.L122:
 624:Libraries/STM32F4xx_HAL_Driver/Src/stm32f4xx_hal_rcc.c ****     {
 1363              		.loc 1 624 5 view .LVU411
 624:Libraries/STM32F4xx_HAL_Driver/Src/stm32f4xx_hal_rcc.c ****     {
 1364              		.loc 1 624 27 is_stmt 0 view .LVU412
 1365 0042 2368     		ldr	r3, [r4]
 624:Libraries/STM32F4xx_HAL_Driver/Src/stm32f4xx_hal_rcc.c ****     {
 1366              		.loc 1 624 7 view .LVU413
 1367 0044 13F0080F 		tst	r3, #8
 1368 0048 04D0     		beq	.L123
ARM GAS  C:\Users\yzy\AppData\Local\Temp\ccHOwreO.s 			page 44


 626:Libraries/STM32F4xx_HAL_Driver/Src/stm32f4xx_hal_rcc.c ****     }
 1369              		.loc 1 626 7 is_stmt 1 view .LVU414
 1370 004a 414A     		ldr	r2, .L146+4
 1371 004c 9368     		ldr	r3, [r2, #8]
 1372 004e 43F46043 		orr	r3, r3, #57344
 1373 0052 9360     		str	r3, [r2, #8]
 1374              	.L123:
 629:Libraries/STM32F4xx_HAL_Driver/Src/stm32f4xx_hal_rcc.c ****     MODIFY_REG(RCC->CFGR, RCC_CFGR_HPRE, RCC_ClkInitStruct->AHBCLKDivider);
 1375              		.loc 1 629 5 view .LVU415
 630:Libraries/STM32F4xx_HAL_Driver/Src/stm32f4xx_hal_rcc.c ****   }
 1376              		.loc 1 630 5 view .LVU416
 1377 0054 3E4A     		ldr	r2, .L146+4
 1378 0056 9368     		ldr	r3, [r2, #8]
 1379 0058 23F0F003 		bic	r3, r3, #240
 1380 005c A168     		ldr	r1, [r4, #8]
 1381              	.LVL86:
 630:Libraries/STM32F4xx_HAL_Driver/Src/stm32f4xx_hal_rcc.c ****   }
 1382              		.loc 1 630 5 is_stmt 0 view .LVU417
 1383 005e 0B43     		orrs	r3, r3, r1
 1384 0060 9360     		str	r3, [r2, #8]
 1385              	.L121:
 634:Libraries/STM32F4xx_HAL_Driver/Src/stm32f4xx_hal_rcc.c ****   {
 1386              		.loc 1 634 3 is_stmt 1 view .LVU418
 634:Libraries/STM32F4xx_HAL_Driver/Src/stm32f4xx_hal_rcc.c ****   {
 1387              		.loc 1 634 25 is_stmt 0 view .LVU419
 1388 0062 2368     		ldr	r3, [r4]
 634:Libraries/STM32F4xx_HAL_Driver/Src/stm32f4xx_hal_rcc.c ****   {
 1389              		.loc 1 634 5 view .LVU420
 1390 0064 13F0010F 		tst	r3, #1
 1391 0068 32D0     		beq	.L124
 636:Libraries/STM32F4xx_HAL_Driver/Src/stm32f4xx_hal_rcc.c **** 
 1392              		.loc 1 636 5 is_stmt 1 view .LVU421
 639:Libraries/STM32F4xx_HAL_Driver/Src/stm32f4xx_hal_rcc.c ****     {
 1393              		.loc 1 639 5 view .LVU422
 639:Libraries/STM32F4xx_HAL_Driver/Src/stm32f4xx_hal_rcc.c ****     {
 1394              		.loc 1 639 25 is_stmt 0 view .LVU423
 1395 006a 6368     		ldr	r3, [r4, #4]
 639:Libraries/STM32F4xx_HAL_Driver/Src/stm32f4xx_hal_rcc.c ****     {
 1396              		.loc 1 639 7 view .LVU424
 1397 006c 012B     		cmp	r3, #1
 1398 006e 21D0     		beq	.L144
 648:Libraries/STM32F4xx_HAL_Driver/Src/stm32f4xx_hal_rcc.c ****             (RCC_ClkInitStruct->SYSCLKSource == RCC_SYSCLKSOURCE_PLLRCLK))
 1399              		.loc 1 648 10 is_stmt 1 view .LVU425
 648:Libraries/STM32F4xx_HAL_Driver/Src/stm32f4xx_hal_rcc.c ****             (RCC_ClkInitStruct->SYSCLKSource == RCC_SYSCLKSOURCE_PLLRCLK))
 1400              		.loc 1 648 76 is_stmt 0 view .LVU426
 1401 0070 9A1E     		subs	r2, r3, #2
 648:Libraries/STM32F4xx_HAL_Driver/Src/stm32f4xx_hal_rcc.c ****             (RCC_ClkInitStruct->SYSCLKSource == RCC_SYSCLKSOURCE_PLLRCLK))
 1402              		.loc 1 648 12 view .LVU427
 1403 0072 012A     		cmp	r2, #1
 1404 0074 25D9     		bls	.L145
 661:Libraries/STM32F4xx_HAL_Driver/Src/stm32f4xx_hal_rcc.c ****       {
 1405              		.loc 1 661 7 is_stmt 1 view .LVU428
 661:Libraries/STM32F4xx_HAL_Driver/Src/stm32f4xx_hal_rcc.c ****       {
 1406              		.loc 1 661 10 is_stmt 0 view .LVU429
 1407 0076 364A     		ldr	r2, .L146+4
 1408 0078 1268     		ldr	r2, [r2]
 661:Libraries/STM32F4xx_HAL_Driver/Src/stm32f4xx_hal_rcc.c ****       {
ARM GAS  C:\Users\yzy\AppData\Local\Temp\ccHOwreO.s 			page 45


 1409              		.loc 1 661 9 view .LVU430
 1410 007a 12F0020F 		tst	r2, #2
 1411 007e 61D0     		beq	.L137
 1412              	.L126:
 667:Libraries/STM32F4xx_HAL_Driver/Src/stm32f4xx_hal_rcc.c **** 
 1413              		.loc 1 667 5 is_stmt 1 view .LVU431
 1414 0080 3349     		ldr	r1, .L146+4
 1415 0082 8A68     		ldr	r2, [r1, #8]
 1416 0084 22F00302 		bic	r2, r2, #3
 1417 0088 1343     		orrs	r3, r3, r2
 1418 008a 8B60     		str	r3, [r1, #8]
 670:Libraries/STM32F4xx_HAL_Driver/Src/stm32f4xx_hal_rcc.c **** 
 1419              		.loc 1 670 5 view .LVU432
 670:Libraries/STM32F4xx_HAL_Driver/Src/stm32f4xx_hal_rcc.c **** 
 1420              		.loc 1 670 17 is_stmt 0 view .LVU433
 1421 008c FFF7FEFF 		bl	HAL_GetTick
 1422              	.LVL87:
 670:Libraries/STM32F4xx_HAL_Driver/Src/stm32f4xx_hal_rcc.c **** 
 1423              		.loc 1 670 17 view .LVU434
 1424 0090 0646     		mov	r6, r0
 1425              	.LVL88:
 672:Libraries/STM32F4xx_HAL_Driver/Src/stm32f4xx_hal_rcc.c ****     {
 1426              		.loc 1 672 5 is_stmt 1 view .LVU435
 1427              	.L128:
 672:Libraries/STM32F4xx_HAL_Driver/Src/stm32f4xx_hal_rcc.c ****     {
 1428              		.loc 1 672 11 view .LVU436
 672:Libraries/STM32F4xx_HAL_Driver/Src/stm32f4xx_hal_rcc.c ****     {
 1429              		.loc 1 672 12 is_stmt 0 view .LVU437
 1430 0092 2F4B     		ldr	r3, .L146+4
 1431 0094 9B68     		ldr	r3, [r3, #8]
 1432 0096 03F00C03 		and	r3, r3, #12
 672:Libraries/STM32F4xx_HAL_Driver/Src/stm32f4xx_hal_rcc.c ****     {
 1433              		.loc 1 672 63 view .LVU438
 1434 009a 6268     		ldr	r2, [r4, #4]
 672:Libraries/STM32F4xx_HAL_Driver/Src/stm32f4xx_hal_rcc.c ****     {
 1435              		.loc 1 672 11 view .LVU439
 1436 009c B3EB820F 		cmp	r3, r2, lsl #2
 1437 00a0 16D0     		beq	.L124
 674:Libraries/STM32F4xx_HAL_Driver/Src/stm32f4xx_hal_rcc.c ****       {
 1438              		.loc 1 674 7 is_stmt 1 view .LVU440
 674:Libraries/STM32F4xx_HAL_Driver/Src/stm32f4xx_hal_rcc.c ****       {
 1439              		.loc 1 674 12 is_stmt 0 view .LVU441
 1440 00a2 FFF7FEFF 		bl	HAL_GetTick
 1441              	.LVL89:
 674:Libraries/STM32F4xx_HAL_Driver/Src/stm32f4xx_hal_rcc.c ****       {
 1442              		.loc 1 674 26 view .LVU442
 1443 00a6 801B     		subs	r0, r0, r6
 674:Libraries/STM32F4xx_HAL_Driver/Src/stm32f4xx_hal_rcc.c ****       {
 1444              		.loc 1 674 10 view .LVU443
 1445 00a8 41F28833 		movw	r3, #5000
 1446 00ac 9842     		cmp	r0, r3
 1447 00ae F0D9     		bls	.L128
 676:Libraries/STM32F4xx_HAL_Driver/Src/stm32f4xx_hal_rcc.c ****       }
 1448              		.loc 1 676 16 view .LVU444
 1449 00b0 0320     		movs	r0, #3
 1450 00b2 42E0     		b	.L119
 1451              	.LVL90:
ARM GAS  C:\Users\yzy\AppData\Local\Temp\ccHOwreO.s 			page 46


 1452              	.L144:
 642:Libraries/STM32F4xx_HAL_Driver/Src/stm32f4xx_hal_rcc.c ****       {
 1453              		.loc 1 642 7 is_stmt 1 view .LVU445
 642:Libraries/STM32F4xx_HAL_Driver/Src/stm32f4xx_hal_rcc.c ****       {
 1454              		.loc 1 642 10 is_stmt 0 view .LVU446
 1455 00b4 264A     		ldr	r2, .L146+4
 1456 00b6 1268     		ldr	r2, [r2]
 642:Libraries/STM32F4xx_HAL_Driver/Src/stm32f4xx_hal_rcc.c ****       {
 1457              		.loc 1 642 9 view .LVU447
 1458 00b8 12F4003F 		tst	r2, #131072
 1459 00bc E0D1     		bne	.L126
 644:Libraries/STM32F4xx_HAL_Driver/Src/stm32f4xx_hal_rcc.c ****       }
 1460              		.loc 1 644 16 view .LVU448
 1461 00be 0120     		movs	r0, #1
 1462              	.LVL91:
 644:Libraries/STM32F4xx_HAL_Driver/Src/stm32f4xx_hal_rcc.c ****       }
 1463              		.loc 1 644 16 view .LVU449
 1464 00c0 3BE0     		b	.L119
 1465              	.LVL92:
 1466              	.L145:
 652:Libraries/STM32F4xx_HAL_Driver/Src/stm32f4xx_hal_rcc.c ****       {
 1467              		.loc 1 652 7 is_stmt 1 view .LVU450
 652:Libraries/STM32F4xx_HAL_Driver/Src/stm32f4xx_hal_rcc.c ****       {
 1468              		.loc 1 652 10 is_stmt 0 view .LVU451
 1469 00c2 234A     		ldr	r2, .L146+4
 1470 00c4 1268     		ldr	r2, [r2]
 652:Libraries/STM32F4xx_HAL_Driver/Src/stm32f4xx_hal_rcc.c ****       {
 1471              		.loc 1 652 9 view .LVU452
 1472 00c6 12F0007F 		tst	r2, #33554432
 1473 00ca D9D1     		bne	.L126
 654:Libraries/STM32F4xx_HAL_Driver/Src/stm32f4xx_hal_rcc.c ****       }
 1474              		.loc 1 654 16 view .LVU453
 1475 00cc 0120     		movs	r0, #1
 1476              	.LVL93:
 654:Libraries/STM32F4xx_HAL_Driver/Src/stm32f4xx_hal_rcc.c ****       }
 1477              		.loc 1 654 16 view .LVU454
 1478 00ce 34E0     		b	.L119
 1479              	.L124:
 682:Libraries/STM32F4xx_HAL_Driver/Src/stm32f4xx_hal_rcc.c ****   {
 1480              		.loc 1 682 3 is_stmt 1 view .LVU455
 682:Libraries/STM32F4xx_HAL_Driver/Src/stm32f4xx_hal_rcc.c ****   {
 1481              		.loc 1 682 17 is_stmt 0 view .LVU456
 1482 00d0 1E4B     		ldr	r3, .L146
 1483 00d2 1B68     		ldr	r3, [r3]
 1484 00d4 03F00F03 		and	r3, r3, #15
 682:Libraries/STM32F4xx_HAL_Driver/Src/stm32f4xx_hal_rcc.c ****   {
 1485              		.loc 1 682 5 view .LVU457
 1486 00d8 AB42     		cmp	r3, r5
 1487 00da 07D9     		bls	.L130
 685:Libraries/STM32F4xx_HAL_Driver/Src/stm32f4xx_hal_rcc.c **** 
 1488              		.loc 1 685 5 is_stmt 1 view .LVU458
 1489 00dc EAB2     		uxtb	r2, r5
 1490 00de 1B4B     		ldr	r3, .L146
 1491 00e0 1A70     		strb	r2, [r3]
 689:Libraries/STM32F4xx_HAL_Driver/Src/stm32f4xx_hal_rcc.c ****     {
 1492              		.loc 1 689 5 view .LVU459
 689:Libraries/STM32F4xx_HAL_Driver/Src/stm32f4xx_hal_rcc.c ****     {
ARM GAS  C:\Users\yzy\AppData\Local\Temp\ccHOwreO.s 			page 47


 1493              		.loc 1 689 8 is_stmt 0 view .LVU460
 1494 00e2 1B68     		ldr	r3, [r3]
 1495 00e4 03F00F03 		and	r3, r3, #15
 689:Libraries/STM32F4xx_HAL_Driver/Src/stm32f4xx_hal_rcc.c ****     {
 1496              		.loc 1 689 7 view .LVU461
 1497 00e8 AB42     		cmp	r3, r5
 1498 00ea 2DD1     		bne	.L139
 1499              	.L130:
 696:Libraries/STM32F4xx_HAL_Driver/Src/stm32f4xx_hal_rcc.c ****   {
 1500              		.loc 1 696 3 is_stmt 1 view .LVU462
 696:Libraries/STM32F4xx_HAL_Driver/Src/stm32f4xx_hal_rcc.c ****   {
 1501              		.loc 1 696 25 is_stmt 0 view .LVU463
 1502 00ec 2368     		ldr	r3, [r4]
 696:Libraries/STM32F4xx_HAL_Driver/Src/stm32f4xx_hal_rcc.c ****   {
 1503              		.loc 1 696 5 view .LVU464
 1504 00ee 13F0040F 		tst	r3, #4
 1505 00f2 06D0     		beq	.L131
 698:Libraries/STM32F4xx_HAL_Driver/Src/stm32f4xx_hal_rcc.c ****     MODIFY_REG(RCC->CFGR, RCC_CFGR_PPRE1, RCC_ClkInitStruct->APB1CLKDivider);
 1506              		.loc 1 698 5 is_stmt 1 view .LVU465
 699:Libraries/STM32F4xx_HAL_Driver/Src/stm32f4xx_hal_rcc.c ****   }
 1507              		.loc 1 699 5 view .LVU466
 1508 00f4 164A     		ldr	r2, .L146+4
 1509 00f6 9368     		ldr	r3, [r2, #8]
 1510 00f8 23F4E053 		bic	r3, r3, #7168
 1511 00fc E168     		ldr	r1, [r4, #12]
 1512 00fe 0B43     		orrs	r3, r3, r1
 1513 0100 9360     		str	r3, [r2, #8]
 1514              	.L131:
 703:Libraries/STM32F4xx_HAL_Driver/Src/stm32f4xx_hal_rcc.c ****   {
 1515              		.loc 1 703 3 view .LVU467
 703:Libraries/STM32F4xx_HAL_Driver/Src/stm32f4xx_hal_rcc.c ****   {
 1516              		.loc 1 703 25 is_stmt 0 view .LVU468
 1517 0102 2368     		ldr	r3, [r4]
 703:Libraries/STM32F4xx_HAL_Driver/Src/stm32f4xx_hal_rcc.c ****   {
 1518              		.loc 1 703 5 view .LVU469
 1519 0104 13F0080F 		tst	r3, #8
 1520 0108 07D0     		beq	.L132
 705:Libraries/STM32F4xx_HAL_Driver/Src/stm32f4xx_hal_rcc.c ****     MODIFY_REG(RCC->CFGR, RCC_CFGR_PPRE2, ((RCC_ClkInitStruct->APB2CLKDivider) << 3U));
 1521              		.loc 1 705 5 is_stmt 1 view .LVU470
 706:Libraries/STM32F4xx_HAL_Driver/Src/stm32f4xx_hal_rcc.c ****   }
 1522              		.loc 1 706 5 view .LVU471
 1523 010a 114A     		ldr	r2, .L146+4
 1524 010c 9368     		ldr	r3, [r2, #8]
 1525 010e 23F46043 		bic	r3, r3, #57344
 1526 0112 2169     		ldr	r1, [r4, #16]
 1527 0114 43EAC103 		orr	r3, r3, r1, lsl #3
 1528 0118 9360     		str	r3, [r2, #8]
 1529              	.L132:
 710:Libraries/STM32F4xx_HAL_Driver/Src/stm32f4xx_hal_rcc.c **** 
 1530              		.loc 1 710 3 view .LVU472
 710:Libraries/STM32F4xx_HAL_Driver/Src/stm32f4xx_hal_rcc.c **** 
 1531              		.loc 1 710 21 is_stmt 0 view .LVU473
 1532 011a FFF7FEFF 		bl	HAL_RCC_GetSysClockFreq
 1533              	.LVL94:
 710:Libraries/STM32F4xx_HAL_Driver/Src/stm32f4xx_hal_rcc.c **** 
 1534              		.loc 1 710 68 view .LVU474
 1535 011e 0C4B     		ldr	r3, .L146+4
ARM GAS  C:\Users\yzy\AppData\Local\Temp\ccHOwreO.s 			page 48


 1536 0120 9B68     		ldr	r3, [r3, #8]
 710:Libraries/STM32F4xx_HAL_Driver/Src/stm32f4xx_hal_rcc.c **** 
 1537              		.loc 1 710 91 view .LVU475
 1538 0122 C3F30313 		ubfx	r3, r3, #4, #4
 710:Libraries/STM32F4xx_HAL_Driver/Src/stm32f4xx_hal_rcc.c **** 
 1539              		.loc 1 710 63 view .LVU476
 1540 0126 0B4A     		ldr	r2, .L146+8
 1541 0128 D35C     		ldrb	r3, [r2, r3]	@ zero_extendqisi2
 710:Libraries/STM32F4xx_HAL_Driver/Src/stm32f4xx_hal_rcc.c **** 
 1542              		.loc 1 710 47 view .LVU477
 1543 012a D840     		lsrs	r0, r0, r3
 710:Libraries/STM32F4xx_HAL_Driver/Src/stm32f4xx_hal_rcc.c **** 
 1544              		.loc 1 710 19 view .LVU478
 1545 012c 0A4B     		ldr	r3, .L146+12
 1546 012e 1860     		str	r0, [r3]
 713:Libraries/STM32F4xx_HAL_Driver/Src/stm32f4xx_hal_rcc.c **** 
 1547              		.loc 1 713 3 is_stmt 1 view .LVU479
 1548 0130 0A4B     		ldr	r3, .L146+16
 1549 0132 1868     		ldr	r0, [r3]
 1550 0134 FFF7FEFF 		bl	HAL_InitTick
 1551              	.LVL95:
 715:Libraries/STM32F4xx_HAL_Driver/Src/stm32f4xx_hal_rcc.c **** }
 1552              		.loc 1 715 3 view .LVU480
 715:Libraries/STM32F4xx_HAL_Driver/Src/stm32f4xx_hal_rcc.c **** }
 1553              		.loc 1 715 10 is_stmt 0 view .LVU481
 1554 0138 0020     		movs	r0, #0
 1555              	.L119:
 716:Libraries/STM32F4xx_HAL_Driver/Src/stm32f4xx_hal_rcc.c **** 
 1556              		.loc 1 716 1 view .LVU482
 1557 013a 70BD     		pop	{r4, r5, r6, pc}
 1558              	.LVL96:
 1559              	.L133:
 1560              	.LCFI12:
 1561              		.cfi_def_cfa_offset 0
 1562              		.cfi_restore 4
 1563              		.cfi_restore 5
 1564              		.cfi_restore 6
 1565              		.cfi_restore 14
 589:Libraries/STM32F4xx_HAL_Driver/Src/stm32f4xx_hal_rcc.c ****   }
 1566              		.loc 1 589 12 view .LVU483
 1567 013c 0120     		movs	r0, #1
 1568              	.LVL97:
 716:Libraries/STM32F4xx_HAL_Driver/Src/stm32f4xx_hal_rcc.c **** 
 1569              		.loc 1 716 1 view .LVU484
 1570 013e 7047     		bx	lr
 1571              	.LVL98:
 1572              	.L134:
 1573              	.LCFI13:
 1574              		.cfi_def_cfa_offset 16
 1575              		.cfi_offset 4, -16
 1576              		.cfi_offset 5, -12
 1577              		.cfi_offset 6, -8
 1578              		.cfi_offset 14, -4
 610:Libraries/STM32F4xx_HAL_Driver/Src/stm32f4xx_hal_rcc.c ****     }
 1579              		.loc 1 610 14 view .LVU485
 1580 0140 0120     		movs	r0, #1
 1581              	.LVL99:
ARM GAS  C:\Users\yzy\AppData\Local\Temp\ccHOwreO.s 			page 49


 610:Libraries/STM32F4xx_HAL_Driver/Src/stm32f4xx_hal_rcc.c ****     }
 1582              		.loc 1 610 14 view .LVU486
 1583 0142 FAE7     		b	.L119
 1584              	.LVL100:
 1585              	.L137:
 663:Libraries/STM32F4xx_HAL_Driver/Src/stm32f4xx_hal_rcc.c ****       }
 1586              		.loc 1 663 16 view .LVU487
 1587 0144 0120     		movs	r0, #1
 1588              	.LVL101:
 663:Libraries/STM32F4xx_HAL_Driver/Src/stm32f4xx_hal_rcc.c ****       }
 1589              		.loc 1 663 16 view .LVU488
 1590 0146 F8E7     		b	.L119
 1591              	.L139:
 691:Libraries/STM32F4xx_HAL_Driver/Src/stm32f4xx_hal_rcc.c ****     }
 1592              		.loc 1 691 14 view .LVU489
 1593 0148 0120     		movs	r0, #1
 1594 014a F6E7     		b	.L119
 1595              	.L147:
 1596              		.align	2
 1597              	.L146:
 1598 014c 003C0240 		.word	1073888256
 1599 0150 00380240 		.word	1073887232
 1600 0154 00000000 		.word	AHBPrescTable
 1601 0158 00000000 		.word	SystemCoreClock
 1602 015c 00000000 		.word	uwTickPrio
 1603              		.cfi_endproc
 1604              	.LFE132:
 1606              		.section	.text.HAL_RCC_GetHCLKFreq,"ax",%progbits
 1607              		.align	1
 1608              		.global	HAL_RCC_GetHCLKFreq
 1609              		.syntax unified
 1610              		.thumb
 1611              		.thumb_func
 1612              		.fpu softvfp
 1614              	HAL_RCC_GetHCLKFreq:
 1615              	.LFB137:
 922:Libraries/STM32F4xx_HAL_Driver/Src/stm32f4xx_hal_rcc.c **** 
 923:Libraries/STM32F4xx_HAL_Driver/Src/stm32f4xx_hal_rcc.c **** /**
 924:Libraries/STM32F4xx_HAL_Driver/Src/stm32f4xx_hal_rcc.c ****   * @brief  Returns the HCLK frequency
 925:Libraries/STM32F4xx_HAL_Driver/Src/stm32f4xx_hal_rcc.c ****   * @note   Each time HCLK changes, this function must be called to update the
 926:Libraries/STM32F4xx_HAL_Driver/Src/stm32f4xx_hal_rcc.c ****   *         right HCLK value. Otherwise, any configuration based on this function will be incorrect
 927:Libraries/STM32F4xx_HAL_Driver/Src/stm32f4xx_hal_rcc.c ****   *
 928:Libraries/STM32F4xx_HAL_Driver/Src/stm32f4xx_hal_rcc.c ****   * @note   The SystemCoreClock CMSIS variable is used to store System Clock Frequency
 929:Libraries/STM32F4xx_HAL_Driver/Src/stm32f4xx_hal_rcc.c ****   *         and updated within this function
 930:Libraries/STM32F4xx_HAL_Driver/Src/stm32f4xx_hal_rcc.c ****   * @retval HCLK frequency
 931:Libraries/STM32F4xx_HAL_Driver/Src/stm32f4xx_hal_rcc.c ****   */
 932:Libraries/STM32F4xx_HAL_Driver/Src/stm32f4xx_hal_rcc.c **** uint32_t HAL_RCC_GetHCLKFreq(void)
 933:Libraries/STM32F4xx_HAL_Driver/Src/stm32f4xx_hal_rcc.c **** {
 1616              		.loc 1 933 1 is_stmt 1 view -0
 1617              		.cfi_startproc
 1618              		@ args = 0, pretend = 0, frame = 0
 1619              		@ frame_needed = 0, uses_anonymous_args = 0
 1620              		@ link register save eliminated.
 934:Libraries/STM32F4xx_HAL_Driver/Src/stm32f4xx_hal_rcc.c ****   return SystemCoreClock;
 1621              		.loc 1 934 3 view .LVU491
 935:Libraries/STM32F4xx_HAL_Driver/Src/stm32f4xx_hal_rcc.c **** }
 1622              		.loc 1 935 1 is_stmt 0 view .LVU492
ARM GAS  C:\Users\yzy\AppData\Local\Temp\ccHOwreO.s 			page 50


 1623 0000 014B     		ldr	r3, .L149
 1624 0002 1868     		ldr	r0, [r3]
 1625 0004 7047     		bx	lr
 1626              	.L150:
 1627 0006 00BF     		.align	2
 1628              	.L149:
 1629 0008 00000000 		.word	SystemCoreClock
 1630              		.cfi_endproc
 1631              	.LFE137:
 1633              		.section	.text.HAL_RCC_GetPCLK1Freq,"ax",%progbits
 1634              		.align	1
 1635              		.global	HAL_RCC_GetPCLK1Freq
 1636              		.syntax unified
 1637              		.thumb
 1638              		.thumb_func
 1639              		.fpu softvfp
 1641              	HAL_RCC_GetPCLK1Freq:
 1642              	.LFB138:
 936:Libraries/STM32F4xx_HAL_Driver/Src/stm32f4xx_hal_rcc.c **** 
 937:Libraries/STM32F4xx_HAL_Driver/Src/stm32f4xx_hal_rcc.c **** /**
 938:Libraries/STM32F4xx_HAL_Driver/Src/stm32f4xx_hal_rcc.c ****   * @brief  Returns the PCLK1 frequency
 939:Libraries/STM32F4xx_HAL_Driver/Src/stm32f4xx_hal_rcc.c ****   * @note   Each time PCLK1 changes, this function must be called to update the
 940:Libraries/STM32F4xx_HAL_Driver/Src/stm32f4xx_hal_rcc.c ****   *         right PCLK1 value. Otherwise, any configuration based on this function will be incorrec
 941:Libraries/STM32F4xx_HAL_Driver/Src/stm32f4xx_hal_rcc.c ****   * @retval PCLK1 frequency
 942:Libraries/STM32F4xx_HAL_Driver/Src/stm32f4xx_hal_rcc.c ****   */
 943:Libraries/STM32F4xx_HAL_Driver/Src/stm32f4xx_hal_rcc.c **** uint32_t HAL_RCC_GetPCLK1Freq(void)
 944:Libraries/STM32F4xx_HAL_Driver/Src/stm32f4xx_hal_rcc.c **** {
 1643              		.loc 1 944 1 is_stmt 1 view -0
 1644              		.cfi_startproc
 1645              		@ args = 0, pretend = 0, frame = 0
 1646              		@ frame_needed = 0, uses_anonymous_args = 0
 1647 0000 08B5     		push	{r3, lr}
 1648              	.LCFI14:
 1649              		.cfi_def_cfa_offset 8
 1650              		.cfi_offset 3, -8
 1651              		.cfi_offset 14, -4
 945:Libraries/STM32F4xx_HAL_Driver/Src/stm32f4xx_hal_rcc.c ****   /* Get HCLK source and Compute PCLK1 frequency ---------------------------*/
 946:Libraries/STM32F4xx_HAL_Driver/Src/stm32f4xx_hal_rcc.c ****   return (HAL_RCC_GetHCLKFreq() >> APBPrescTable[(RCC->CFGR & RCC_CFGR_PPRE1)>> RCC_CFGR_PPRE1_Pos]
 1652              		.loc 1 946 3 view .LVU494
 1653              		.loc 1 946 11 is_stmt 0 view .LVU495
 1654 0002 FFF7FEFF 		bl	HAL_RCC_GetHCLKFreq
 1655              	.LVL102:
 1656              		.loc 1 946 54 view .LVU496
 1657 0006 044B     		ldr	r3, .L153
 1658 0008 9B68     		ldr	r3, [r3, #8]
 1659              		.loc 1 946 78 view .LVU497
 1660 000a C3F38223 		ubfx	r3, r3, #10, #3
 1661              		.loc 1 946 49 view .LVU498
 1662 000e 034A     		ldr	r2, .L153+4
 1663 0010 D35C     		ldrb	r3, [r2, r3]	@ zero_extendqisi2
 947:Libraries/STM32F4xx_HAL_Driver/Src/stm32f4xx_hal_rcc.c **** }
 1664              		.loc 1 947 1 view .LVU499
 1665 0012 D840     		lsrs	r0, r0, r3
 1666 0014 08BD     		pop	{r3, pc}
 1667              	.L154:
 1668 0016 00BF     		.align	2
 1669              	.L153:
ARM GAS  C:\Users\yzy\AppData\Local\Temp\ccHOwreO.s 			page 51


 1670 0018 00380240 		.word	1073887232
 1671 001c 00000000 		.word	APBPrescTable
 1672              		.cfi_endproc
 1673              	.LFE138:
 1675              		.section	.text.HAL_RCC_GetPCLK2Freq,"ax",%progbits
 1676              		.align	1
 1677              		.global	HAL_RCC_GetPCLK2Freq
 1678              		.syntax unified
 1679              		.thumb
 1680              		.thumb_func
 1681              		.fpu softvfp
 1683              	HAL_RCC_GetPCLK2Freq:
 1684              	.LFB139:
 948:Libraries/STM32F4xx_HAL_Driver/Src/stm32f4xx_hal_rcc.c **** 
 949:Libraries/STM32F4xx_HAL_Driver/Src/stm32f4xx_hal_rcc.c **** /**
 950:Libraries/STM32F4xx_HAL_Driver/Src/stm32f4xx_hal_rcc.c ****   * @brief  Returns the PCLK2 frequency
 951:Libraries/STM32F4xx_HAL_Driver/Src/stm32f4xx_hal_rcc.c ****   * @note   Each time PCLK2 changes, this function must be called to update the
 952:Libraries/STM32F4xx_HAL_Driver/Src/stm32f4xx_hal_rcc.c ****   *         right PCLK2 value. Otherwise, any configuration based on this function will be incorrec
 953:Libraries/STM32F4xx_HAL_Driver/Src/stm32f4xx_hal_rcc.c ****   * @retval PCLK2 frequency
 954:Libraries/STM32F4xx_HAL_Driver/Src/stm32f4xx_hal_rcc.c ****   */
 955:Libraries/STM32F4xx_HAL_Driver/Src/stm32f4xx_hal_rcc.c **** uint32_t HAL_RCC_GetPCLK2Freq(void)
 956:Libraries/STM32F4xx_HAL_Driver/Src/stm32f4xx_hal_rcc.c **** {
 1685              		.loc 1 956 1 is_stmt 1 view -0
 1686              		.cfi_startproc
 1687              		@ args = 0, pretend = 0, frame = 0
 1688              		@ frame_needed = 0, uses_anonymous_args = 0
 1689 0000 08B5     		push	{r3, lr}
 1690              	.LCFI15:
 1691              		.cfi_def_cfa_offset 8
 1692              		.cfi_offset 3, -8
 1693              		.cfi_offset 14, -4
 957:Libraries/STM32F4xx_HAL_Driver/Src/stm32f4xx_hal_rcc.c ****   /* Get HCLK source and Compute PCLK2 frequency ---------------------------*/
 958:Libraries/STM32F4xx_HAL_Driver/Src/stm32f4xx_hal_rcc.c ****   return (HAL_RCC_GetHCLKFreq()>> APBPrescTable[(RCC->CFGR & RCC_CFGR_PPRE2)>> RCC_CFGR_PPRE2_Pos])
 1694              		.loc 1 958 3 view .LVU501
 1695              		.loc 1 958 11 is_stmt 0 view .LVU502
 1696 0002 FFF7FEFF 		bl	HAL_RCC_GetHCLKFreq
 1697              	.LVL103:
 1698              		.loc 1 958 53 view .LVU503
 1699 0006 044B     		ldr	r3, .L157
 1700 0008 9B68     		ldr	r3, [r3, #8]
 1701              		.loc 1 958 77 view .LVU504
 1702 000a C3F34233 		ubfx	r3, r3, #13, #3
 1703              		.loc 1 958 48 view .LVU505
 1704 000e 034A     		ldr	r2, .L157+4
 1705 0010 D35C     		ldrb	r3, [r2, r3]	@ zero_extendqisi2
 959:Libraries/STM32F4xx_HAL_Driver/Src/stm32f4xx_hal_rcc.c **** }
 1706              		.loc 1 959 1 view .LVU506
 1707 0012 D840     		lsrs	r0, r0, r3
 1708 0014 08BD     		pop	{r3, pc}
 1709              	.L158:
 1710 0016 00BF     		.align	2
 1711              	.L157:
 1712 0018 00380240 		.word	1073887232
 1713 001c 00000000 		.word	APBPrescTable
 1714              		.cfi_endproc
 1715              	.LFE139:
 1717              		.section	.text.HAL_RCC_GetOscConfig,"ax",%progbits
ARM GAS  C:\Users\yzy\AppData\Local\Temp\ccHOwreO.s 			page 52


 1718              		.align	1
 1719              		.weak	HAL_RCC_GetOscConfig
 1720              		.syntax unified
 1721              		.thumb
 1722              		.thumb_func
 1723              		.fpu softvfp
 1725              	HAL_RCC_GetOscConfig:
 1726              	.LVL104:
 1727              	.LFB140:
 960:Libraries/STM32F4xx_HAL_Driver/Src/stm32f4xx_hal_rcc.c **** 
 961:Libraries/STM32F4xx_HAL_Driver/Src/stm32f4xx_hal_rcc.c **** /**
 962:Libraries/STM32F4xx_HAL_Driver/Src/stm32f4xx_hal_rcc.c ****   * @brief  Configures the RCC_OscInitStruct according to the internal
 963:Libraries/STM32F4xx_HAL_Driver/Src/stm32f4xx_hal_rcc.c ****   * RCC configuration registers.
 964:Libraries/STM32F4xx_HAL_Driver/Src/stm32f4xx_hal_rcc.c ****   * @param  RCC_OscInitStruct pointer to an RCC_OscInitTypeDef structure that
 965:Libraries/STM32F4xx_HAL_Driver/Src/stm32f4xx_hal_rcc.c ****   * will be configured.
 966:Libraries/STM32F4xx_HAL_Driver/Src/stm32f4xx_hal_rcc.c ****   * @retval None
 967:Libraries/STM32F4xx_HAL_Driver/Src/stm32f4xx_hal_rcc.c ****   */
 968:Libraries/STM32F4xx_HAL_Driver/Src/stm32f4xx_hal_rcc.c **** __weak void HAL_RCC_GetOscConfig(RCC_OscInitTypeDef  *RCC_OscInitStruct)
 969:Libraries/STM32F4xx_HAL_Driver/Src/stm32f4xx_hal_rcc.c **** {
 1728              		.loc 1 969 1 is_stmt 1 view -0
 1729              		.cfi_startproc
 1730              		@ args = 0, pretend = 0, frame = 0
 1731              		@ frame_needed = 0, uses_anonymous_args = 0
 1732              		@ link register save eliminated.
 970:Libraries/STM32F4xx_HAL_Driver/Src/stm32f4xx_hal_rcc.c ****   /* Set all possible values for the Oscillator type parameter ---------------*/
 971:Libraries/STM32F4xx_HAL_Driver/Src/stm32f4xx_hal_rcc.c ****   RCC_OscInitStruct->OscillatorType = RCC_OSCILLATORTYPE_HSE | RCC_OSCILLATORTYPE_HSI | RCC_OSCILLA
 1733              		.loc 1 971 3 view .LVU508
 1734              		.loc 1 971 37 is_stmt 0 view .LVU509
 1735 0000 0F23     		movs	r3, #15
 1736 0002 0360     		str	r3, [r0]
 972:Libraries/STM32F4xx_HAL_Driver/Src/stm32f4xx_hal_rcc.c **** 
 973:Libraries/STM32F4xx_HAL_Driver/Src/stm32f4xx_hal_rcc.c ****   /* Get the HSE configuration -----------------------------------------------*/
 974:Libraries/STM32F4xx_HAL_Driver/Src/stm32f4xx_hal_rcc.c ****   if((RCC->CR &RCC_CR_HSEBYP) == RCC_CR_HSEBYP)
 1737              		.loc 1 974 3 is_stmt 1 view .LVU510
 1738              		.loc 1 974 10 is_stmt 0 view .LVU511
 1739 0004 304B     		ldr	r3, .L172
 1740 0006 1B68     		ldr	r3, [r3]
 1741              		.loc 1 974 5 view .LVU512
 1742 0008 13F4802F 		tst	r3, #262144
 1743 000c 3BD0     		beq	.L160
 975:Libraries/STM32F4xx_HAL_Driver/Src/stm32f4xx_hal_rcc.c ****   {
 976:Libraries/STM32F4xx_HAL_Driver/Src/stm32f4xx_hal_rcc.c ****     RCC_OscInitStruct->HSEState = RCC_HSE_BYPASS;
 1744              		.loc 1 976 5 is_stmt 1 view .LVU513
 1745              		.loc 1 976 33 is_stmt 0 view .LVU514
 1746 000e 4FF4A023 		mov	r3, #327680
 1747 0012 4360     		str	r3, [r0, #4]
 1748              	.L161:
 977:Libraries/STM32F4xx_HAL_Driver/Src/stm32f4xx_hal_rcc.c ****   }
 978:Libraries/STM32F4xx_HAL_Driver/Src/stm32f4xx_hal_rcc.c ****   else if((RCC->CR &RCC_CR_HSEON) == RCC_CR_HSEON)
 979:Libraries/STM32F4xx_HAL_Driver/Src/stm32f4xx_hal_rcc.c ****   {
 980:Libraries/STM32F4xx_HAL_Driver/Src/stm32f4xx_hal_rcc.c ****     RCC_OscInitStruct->HSEState = RCC_HSE_ON;
 981:Libraries/STM32F4xx_HAL_Driver/Src/stm32f4xx_hal_rcc.c ****   }
 982:Libraries/STM32F4xx_HAL_Driver/Src/stm32f4xx_hal_rcc.c ****   else
 983:Libraries/STM32F4xx_HAL_Driver/Src/stm32f4xx_hal_rcc.c ****   {
 984:Libraries/STM32F4xx_HAL_Driver/Src/stm32f4xx_hal_rcc.c ****     RCC_OscInitStruct->HSEState = RCC_HSE_OFF;
 985:Libraries/STM32F4xx_HAL_Driver/Src/stm32f4xx_hal_rcc.c ****   }
 986:Libraries/STM32F4xx_HAL_Driver/Src/stm32f4xx_hal_rcc.c **** 
ARM GAS  C:\Users\yzy\AppData\Local\Temp\ccHOwreO.s 			page 53


 987:Libraries/STM32F4xx_HAL_Driver/Src/stm32f4xx_hal_rcc.c ****   /* Get the HSI configuration -----------------------------------------------*/
 988:Libraries/STM32F4xx_HAL_Driver/Src/stm32f4xx_hal_rcc.c ****   if((RCC->CR &RCC_CR_HSION) == RCC_CR_HSION)
 1749              		.loc 1 988 3 is_stmt 1 view .LVU515
 1750              		.loc 1 988 10 is_stmt 0 view .LVU516
 1751 0014 2C4B     		ldr	r3, .L172
 1752 0016 1B68     		ldr	r3, [r3]
 1753              		.loc 1 988 5 view .LVU517
 1754 0018 13F0010F 		tst	r3, #1
 1755 001c 3FD0     		beq	.L163
 989:Libraries/STM32F4xx_HAL_Driver/Src/stm32f4xx_hal_rcc.c ****   {
 990:Libraries/STM32F4xx_HAL_Driver/Src/stm32f4xx_hal_rcc.c ****     RCC_OscInitStruct->HSIState = RCC_HSI_ON;
 1756              		.loc 1 990 5 is_stmt 1 view .LVU518
 1757              		.loc 1 990 33 is_stmt 0 view .LVU519
 1758 001e 0123     		movs	r3, #1
 1759 0020 C360     		str	r3, [r0, #12]
 1760              	.L164:
 991:Libraries/STM32F4xx_HAL_Driver/Src/stm32f4xx_hal_rcc.c ****   }
 992:Libraries/STM32F4xx_HAL_Driver/Src/stm32f4xx_hal_rcc.c ****   else
 993:Libraries/STM32F4xx_HAL_Driver/Src/stm32f4xx_hal_rcc.c ****   {
 994:Libraries/STM32F4xx_HAL_Driver/Src/stm32f4xx_hal_rcc.c ****     RCC_OscInitStruct->HSIState = RCC_HSI_OFF;
 995:Libraries/STM32F4xx_HAL_Driver/Src/stm32f4xx_hal_rcc.c ****   }
 996:Libraries/STM32F4xx_HAL_Driver/Src/stm32f4xx_hal_rcc.c **** 
 997:Libraries/STM32F4xx_HAL_Driver/Src/stm32f4xx_hal_rcc.c ****   RCC_OscInitStruct->HSICalibrationValue = (uint32_t)((RCC->CR &RCC_CR_HSITRIM) >> RCC_CR_HSITRIM_P
 1761              		.loc 1 997 3 is_stmt 1 view .LVU520
 1762              		.loc 1 997 59 is_stmt 0 view .LVU521
 1763 0022 294A     		ldr	r2, .L172
 1764 0024 1368     		ldr	r3, [r2]
 1765              		.loc 1 997 44 view .LVU522
 1766 0026 C3F3C403 		ubfx	r3, r3, #3, #5
 1767              		.loc 1 997 42 view .LVU523
 1768 002a 0361     		str	r3, [r0, #16]
 998:Libraries/STM32F4xx_HAL_Driver/Src/stm32f4xx_hal_rcc.c **** 
 999:Libraries/STM32F4xx_HAL_Driver/Src/stm32f4xx_hal_rcc.c ****   /* Get the LSE configuration -----------------------------------------------*/
1000:Libraries/STM32F4xx_HAL_Driver/Src/stm32f4xx_hal_rcc.c ****   if((RCC->BDCR &RCC_BDCR_LSEBYP) == RCC_BDCR_LSEBYP)
 1769              		.loc 1 1000 3 is_stmt 1 view .LVU524
 1770              		.loc 1 1000 10 is_stmt 0 view .LVU525
 1771 002c 136F     		ldr	r3, [r2, #112]
 1772              		.loc 1 1000 5 view .LVU526
 1773 002e 13F0040F 		tst	r3, #4
 1774 0032 37D0     		beq	.L165
1001:Libraries/STM32F4xx_HAL_Driver/Src/stm32f4xx_hal_rcc.c ****   {
1002:Libraries/STM32F4xx_HAL_Driver/Src/stm32f4xx_hal_rcc.c ****     RCC_OscInitStruct->LSEState = RCC_LSE_BYPASS;
 1775              		.loc 1 1002 5 is_stmt 1 view .LVU527
 1776              		.loc 1 1002 33 is_stmt 0 view .LVU528
 1777 0034 0523     		movs	r3, #5
 1778 0036 8360     		str	r3, [r0, #8]
 1779              	.L166:
1003:Libraries/STM32F4xx_HAL_Driver/Src/stm32f4xx_hal_rcc.c ****   }
1004:Libraries/STM32F4xx_HAL_Driver/Src/stm32f4xx_hal_rcc.c ****   else if((RCC->BDCR &RCC_BDCR_LSEON) == RCC_BDCR_LSEON)
1005:Libraries/STM32F4xx_HAL_Driver/Src/stm32f4xx_hal_rcc.c ****   {
1006:Libraries/STM32F4xx_HAL_Driver/Src/stm32f4xx_hal_rcc.c ****     RCC_OscInitStruct->LSEState = RCC_LSE_ON;
1007:Libraries/STM32F4xx_HAL_Driver/Src/stm32f4xx_hal_rcc.c ****   }
1008:Libraries/STM32F4xx_HAL_Driver/Src/stm32f4xx_hal_rcc.c ****   else
1009:Libraries/STM32F4xx_HAL_Driver/Src/stm32f4xx_hal_rcc.c ****   {
1010:Libraries/STM32F4xx_HAL_Driver/Src/stm32f4xx_hal_rcc.c ****     RCC_OscInitStruct->LSEState = RCC_LSE_OFF;
1011:Libraries/STM32F4xx_HAL_Driver/Src/stm32f4xx_hal_rcc.c ****   }
1012:Libraries/STM32F4xx_HAL_Driver/Src/stm32f4xx_hal_rcc.c **** 
ARM GAS  C:\Users\yzy\AppData\Local\Temp\ccHOwreO.s 			page 54


1013:Libraries/STM32F4xx_HAL_Driver/Src/stm32f4xx_hal_rcc.c ****   /* Get the LSI configuration -----------------------------------------------*/
1014:Libraries/STM32F4xx_HAL_Driver/Src/stm32f4xx_hal_rcc.c ****   if((RCC->CSR &RCC_CSR_LSION) == RCC_CSR_LSION)
 1780              		.loc 1 1014 3 is_stmt 1 view .LVU529
 1781              		.loc 1 1014 10 is_stmt 0 view .LVU530
 1782 0038 234B     		ldr	r3, .L172
 1783 003a 5B6F     		ldr	r3, [r3, #116]
 1784              		.loc 1 1014 5 view .LVU531
 1785 003c 13F0010F 		tst	r3, #1
 1786 0040 3BD0     		beq	.L168
1015:Libraries/STM32F4xx_HAL_Driver/Src/stm32f4xx_hal_rcc.c ****   {
1016:Libraries/STM32F4xx_HAL_Driver/Src/stm32f4xx_hal_rcc.c ****     RCC_OscInitStruct->LSIState = RCC_LSI_ON;
 1787              		.loc 1 1016 5 is_stmt 1 view .LVU532
 1788              		.loc 1 1016 33 is_stmt 0 view .LVU533
 1789 0042 0123     		movs	r3, #1
 1790 0044 4361     		str	r3, [r0, #20]
 1791              	.L169:
1017:Libraries/STM32F4xx_HAL_Driver/Src/stm32f4xx_hal_rcc.c ****   }
1018:Libraries/STM32F4xx_HAL_Driver/Src/stm32f4xx_hal_rcc.c ****   else
1019:Libraries/STM32F4xx_HAL_Driver/Src/stm32f4xx_hal_rcc.c ****   {
1020:Libraries/STM32F4xx_HAL_Driver/Src/stm32f4xx_hal_rcc.c ****     RCC_OscInitStruct->LSIState = RCC_LSI_OFF;
1021:Libraries/STM32F4xx_HAL_Driver/Src/stm32f4xx_hal_rcc.c ****   }
1022:Libraries/STM32F4xx_HAL_Driver/Src/stm32f4xx_hal_rcc.c **** 
1023:Libraries/STM32F4xx_HAL_Driver/Src/stm32f4xx_hal_rcc.c ****   /* Get the PLL configuration -----------------------------------------------*/
1024:Libraries/STM32F4xx_HAL_Driver/Src/stm32f4xx_hal_rcc.c ****   if((RCC->CR &RCC_CR_PLLON) == RCC_CR_PLLON)
 1792              		.loc 1 1024 3 is_stmt 1 view .LVU534
 1793              		.loc 1 1024 10 is_stmt 0 view .LVU535
 1794 0046 204B     		ldr	r3, .L172
 1795 0048 1B68     		ldr	r3, [r3]
 1796              		.loc 1 1024 5 view .LVU536
 1797 004a 13F0807F 		tst	r3, #16777216
 1798 004e 37D0     		beq	.L170
1025:Libraries/STM32F4xx_HAL_Driver/Src/stm32f4xx_hal_rcc.c ****   {
1026:Libraries/STM32F4xx_HAL_Driver/Src/stm32f4xx_hal_rcc.c ****     RCC_OscInitStruct->PLL.PLLState = RCC_PLL_ON;
 1799              		.loc 1 1026 5 is_stmt 1 view .LVU537
 1800              		.loc 1 1026 37 is_stmt 0 view .LVU538
 1801 0050 0223     		movs	r3, #2
 1802 0052 8361     		str	r3, [r0, #24]
 1803              	.L171:
1027:Libraries/STM32F4xx_HAL_Driver/Src/stm32f4xx_hal_rcc.c ****   }
1028:Libraries/STM32F4xx_HAL_Driver/Src/stm32f4xx_hal_rcc.c ****   else
1029:Libraries/STM32F4xx_HAL_Driver/Src/stm32f4xx_hal_rcc.c ****   {
1030:Libraries/STM32F4xx_HAL_Driver/Src/stm32f4xx_hal_rcc.c ****     RCC_OscInitStruct->PLL.PLLState = RCC_PLL_OFF;
1031:Libraries/STM32F4xx_HAL_Driver/Src/stm32f4xx_hal_rcc.c ****   }
1032:Libraries/STM32F4xx_HAL_Driver/Src/stm32f4xx_hal_rcc.c ****   RCC_OscInitStruct->PLL.PLLSource = (uint32_t)(RCC->PLLCFGR & RCC_PLLCFGR_PLLSRC);
 1804              		.loc 1 1032 3 is_stmt 1 view .LVU539
 1805              		.loc 1 1032 52 is_stmt 0 view .LVU540
 1806 0054 1C4A     		ldr	r2, .L172
 1807 0056 5368     		ldr	r3, [r2, #4]
 1808              		.loc 1 1032 38 view .LVU541
 1809 0058 03F48003 		and	r3, r3, #4194304
 1810              		.loc 1 1032 36 view .LVU542
 1811 005c C361     		str	r3, [r0, #28]
1033:Libraries/STM32F4xx_HAL_Driver/Src/stm32f4xx_hal_rcc.c ****   RCC_OscInitStruct->PLL.PLLM = (uint32_t)(RCC->PLLCFGR & RCC_PLLCFGR_PLLM);
 1812              		.loc 1 1033 3 is_stmt 1 view .LVU543
 1813              		.loc 1 1033 47 is_stmt 0 view .LVU544
 1814 005e 5368     		ldr	r3, [r2, #4]
 1815              		.loc 1 1033 33 view .LVU545
ARM GAS  C:\Users\yzy\AppData\Local\Temp\ccHOwreO.s 			page 55


 1816 0060 03F03F03 		and	r3, r3, #63
 1817              		.loc 1 1033 31 view .LVU546
 1818 0064 0362     		str	r3, [r0, #32]
1034:Libraries/STM32F4xx_HAL_Driver/Src/stm32f4xx_hal_rcc.c ****   RCC_OscInitStruct->PLL.PLLN = (uint32_t)((RCC->PLLCFGR & RCC_PLLCFGR_PLLN) >> RCC_PLLCFGR_PLLN_Po
 1819              		.loc 1 1034 3 is_stmt 1 view .LVU547
 1820              		.loc 1 1034 48 is_stmt 0 view .LVU548
 1821 0066 5368     		ldr	r3, [r2, #4]
 1822              		.loc 1 1034 33 view .LVU549
 1823 0068 C3F38813 		ubfx	r3, r3, #6, #9
 1824              		.loc 1 1034 31 view .LVU550
 1825 006c 4362     		str	r3, [r0, #36]
1035:Libraries/STM32F4xx_HAL_Driver/Src/stm32f4xx_hal_rcc.c ****   RCC_OscInitStruct->PLL.PLLP = (uint32_t)((((RCC->PLLCFGR & RCC_PLLCFGR_PLLP) + RCC_PLLCFGR_PLLP_0
 1826              		.loc 1 1035 3 is_stmt 1 view .LVU551
 1827              		.loc 1 1035 50 is_stmt 0 view .LVU552
 1828 006e 5368     		ldr	r3, [r2, #4]
 1829              		.loc 1 1035 60 view .LVU553
 1830 0070 03F44033 		and	r3, r3, #196608
 1831              		.loc 1 1035 80 view .LVU554
 1832 0074 03F58033 		add	r3, r3, #65536
 1833              		.loc 1 1035 33 view .LVU555
 1834 0078 DB0B     		lsrs	r3, r3, #15
 1835              		.loc 1 1035 31 view .LVU556
 1836 007a 8362     		str	r3, [r0, #40]
1036:Libraries/STM32F4xx_HAL_Driver/Src/stm32f4xx_hal_rcc.c ****   RCC_OscInitStruct->PLL.PLLQ = (uint32_t)((RCC->PLLCFGR & RCC_PLLCFGR_PLLQ) >> RCC_PLLCFGR_PLLQ_Po
 1837              		.loc 1 1036 3 is_stmt 1 view .LVU557
 1838              		.loc 1 1036 48 is_stmt 0 view .LVU558
 1839 007c 5368     		ldr	r3, [r2, #4]
 1840              		.loc 1 1036 33 view .LVU559
 1841 007e C3F30363 		ubfx	r3, r3, #24, #4
 1842              		.loc 1 1036 31 view .LVU560
 1843 0082 C362     		str	r3, [r0, #44]
1037:Libraries/STM32F4xx_HAL_Driver/Src/stm32f4xx_hal_rcc.c **** }
 1844              		.loc 1 1037 1 view .LVU561
 1845 0084 7047     		bx	lr
 1846              	.L160:
 978:Libraries/STM32F4xx_HAL_Driver/Src/stm32f4xx_hal_rcc.c ****   {
 1847              		.loc 1 978 8 is_stmt 1 view .LVU562
 978:Libraries/STM32F4xx_HAL_Driver/Src/stm32f4xx_hal_rcc.c ****   {
 1848              		.loc 1 978 15 is_stmt 0 view .LVU563
 1849 0086 104B     		ldr	r3, .L172
 1850 0088 1B68     		ldr	r3, [r3]
 978:Libraries/STM32F4xx_HAL_Driver/Src/stm32f4xx_hal_rcc.c ****   {
 1851              		.loc 1 978 10 view .LVU564
 1852 008a 13F4803F 		tst	r3, #65536
 1853 008e 03D0     		beq	.L162
 980:Libraries/STM32F4xx_HAL_Driver/Src/stm32f4xx_hal_rcc.c ****   }
 1854              		.loc 1 980 5 is_stmt 1 view .LVU565
 980:Libraries/STM32F4xx_HAL_Driver/Src/stm32f4xx_hal_rcc.c ****   }
 1855              		.loc 1 980 33 is_stmt 0 view .LVU566
 1856 0090 4FF48033 		mov	r3, #65536
 1857 0094 4360     		str	r3, [r0, #4]
 1858 0096 BDE7     		b	.L161
 1859              	.L162:
 984:Libraries/STM32F4xx_HAL_Driver/Src/stm32f4xx_hal_rcc.c ****   }
 1860              		.loc 1 984 5 is_stmt 1 view .LVU567
 984:Libraries/STM32F4xx_HAL_Driver/Src/stm32f4xx_hal_rcc.c ****   }
 1861              		.loc 1 984 33 is_stmt 0 view .LVU568
ARM GAS  C:\Users\yzy\AppData\Local\Temp\ccHOwreO.s 			page 56


 1862 0098 0023     		movs	r3, #0
 1863 009a 4360     		str	r3, [r0, #4]
 1864 009c BAE7     		b	.L161
 1865              	.L163:
 994:Libraries/STM32F4xx_HAL_Driver/Src/stm32f4xx_hal_rcc.c ****   }
 1866              		.loc 1 994 5 is_stmt 1 view .LVU569
 994:Libraries/STM32F4xx_HAL_Driver/Src/stm32f4xx_hal_rcc.c ****   }
 1867              		.loc 1 994 33 is_stmt 0 view .LVU570
 1868 009e 0023     		movs	r3, #0
 1869 00a0 C360     		str	r3, [r0, #12]
 1870 00a2 BEE7     		b	.L164
 1871              	.L165:
1004:Libraries/STM32F4xx_HAL_Driver/Src/stm32f4xx_hal_rcc.c ****   {
 1872              		.loc 1 1004 8 is_stmt 1 view .LVU571
1004:Libraries/STM32F4xx_HAL_Driver/Src/stm32f4xx_hal_rcc.c ****   {
 1873              		.loc 1 1004 15 is_stmt 0 view .LVU572
 1874 00a4 084B     		ldr	r3, .L172
 1875 00a6 1B6F     		ldr	r3, [r3, #112]
1004:Libraries/STM32F4xx_HAL_Driver/Src/stm32f4xx_hal_rcc.c ****   {
 1876              		.loc 1 1004 10 view .LVU573
 1877 00a8 13F0010F 		tst	r3, #1
 1878 00ac 02D0     		beq	.L167
1006:Libraries/STM32F4xx_HAL_Driver/Src/stm32f4xx_hal_rcc.c ****   }
 1879              		.loc 1 1006 5 is_stmt 1 view .LVU574
1006:Libraries/STM32F4xx_HAL_Driver/Src/stm32f4xx_hal_rcc.c ****   }
 1880              		.loc 1 1006 33 is_stmt 0 view .LVU575
 1881 00ae 0123     		movs	r3, #1
 1882 00b0 8360     		str	r3, [r0, #8]
 1883 00b2 C1E7     		b	.L166
 1884              	.L167:
1010:Libraries/STM32F4xx_HAL_Driver/Src/stm32f4xx_hal_rcc.c ****   }
 1885              		.loc 1 1010 5 is_stmt 1 view .LVU576
1010:Libraries/STM32F4xx_HAL_Driver/Src/stm32f4xx_hal_rcc.c ****   }
 1886              		.loc 1 1010 33 is_stmt 0 view .LVU577
 1887 00b4 0023     		movs	r3, #0
 1888 00b6 8360     		str	r3, [r0, #8]
 1889 00b8 BEE7     		b	.L166
 1890              	.L168:
1020:Libraries/STM32F4xx_HAL_Driver/Src/stm32f4xx_hal_rcc.c ****   }
 1891              		.loc 1 1020 5 is_stmt 1 view .LVU578
1020:Libraries/STM32F4xx_HAL_Driver/Src/stm32f4xx_hal_rcc.c ****   }
 1892              		.loc 1 1020 33 is_stmt 0 view .LVU579
 1893 00ba 0023     		movs	r3, #0
 1894 00bc 4361     		str	r3, [r0, #20]
 1895 00be C2E7     		b	.L169
 1896              	.L170:
1030:Libraries/STM32F4xx_HAL_Driver/Src/stm32f4xx_hal_rcc.c ****   }
 1897              		.loc 1 1030 5 is_stmt 1 view .LVU580
1030:Libraries/STM32F4xx_HAL_Driver/Src/stm32f4xx_hal_rcc.c ****   }
 1898              		.loc 1 1030 37 is_stmt 0 view .LVU581
 1899 00c0 0123     		movs	r3, #1
 1900 00c2 8361     		str	r3, [r0, #24]
 1901 00c4 C6E7     		b	.L171
 1902              	.L173:
 1903 00c6 00BF     		.align	2
 1904              	.L172:
 1905 00c8 00380240 		.word	1073887232
ARM GAS  C:\Users\yzy\AppData\Local\Temp\ccHOwreO.s 			page 57


 1906              		.cfi_endproc
 1907              	.LFE140:
 1909              		.section	.text.HAL_RCC_GetClockConfig,"ax",%progbits
 1910              		.align	1
 1911              		.global	HAL_RCC_GetClockConfig
 1912              		.syntax unified
 1913              		.thumb
 1914              		.thumb_func
 1915              		.fpu softvfp
 1917              	HAL_RCC_GetClockConfig:
 1918              	.LVL105:
 1919              	.LFB141:
1038:Libraries/STM32F4xx_HAL_Driver/Src/stm32f4xx_hal_rcc.c **** 
1039:Libraries/STM32F4xx_HAL_Driver/Src/stm32f4xx_hal_rcc.c **** /**
1040:Libraries/STM32F4xx_HAL_Driver/Src/stm32f4xx_hal_rcc.c ****   * @brief  Configures the RCC_ClkInitStruct according to the internal
1041:Libraries/STM32F4xx_HAL_Driver/Src/stm32f4xx_hal_rcc.c ****   * RCC configuration registers.
1042:Libraries/STM32F4xx_HAL_Driver/Src/stm32f4xx_hal_rcc.c ****   * @param  RCC_ClkInitStruct pointer to an RCC_ClkInitTypeDef structure that
1043:Libraries/STM32F4xx_HAL_Driver/Src/stm32f4xx_hal_rcc.c ****   * will be configured.
1044:Libraries/STM32F4xx_HAL_Driver/Src/stm32f4xx_hal_rcc.c ****   * @param  pFLatency Pointer on the Flash Latency.
1045:Libraries/STM32F4xx_HAL_Driver/Src/stm32f4xx_hal_rcc.c ****   * @retval None
1046:Libraries/STM32F4xx_HAL_Driver/Src/stm32f4xx_hal_rcc.c ****   */
1047:Libraries/STM32F4xx_HAL_Driver/Src/stm32f4xx_hal_rcc.c **** void HAL_RCC_GetClockConfig(RCC_ClkInitTypeDef  *RCC_ClkInitStruct, uint32_t *pFLatency)
1048:Libraries/STM32F4xx_HAL_Driver/Src/stm32f4xx_hal_rcc.c **** {
 1920              		.loc 1 1048 1 is_stmt 1 view -0
 1921              		.cfi_startproc
 1922              		@ args = 0, pretend = 0, frame = 0
 1923              		@ frame_needed = 0, uses_anonymous_args = 0
 1924              		@ link register save eliminated.
1049:Libraries/STM32F4xx_HAL_Driver/Src/stm32f4xx_hal_rcc.c ****   /* Set all possible values for the Clock type parameter --------------------*/
1050:Libraries/STM32F4xx_HAL_Driver/Src/stm32f4xx_hal_rcc.c ****   RCC_ClkInitStruct->ClockType = RCC_CLOCKTYPE_SYSCLK | RCC_CLOCKTYPE_HCLK | RCC_CLOCKTYPE_PCLK1 | 
 1925              		.loc 1 1050 3 view .LVU583
 1926              		.loc 1 1050 32 is_stmt 0 view .LVU584
 1927 0000 0F23     		movs	r3, #15
 1928 0002 0360     		str	r3, [r0]
1051:Libraries/STM32F4xx_HAL_Driver/Src/stm32f4xx_hal_rcc.c **** 
1052:Libraries/STM32F4xx_HAL_Driver/Src/stm32f4xx_hal_rcc.c ****   /* Get the SYSCLK configuration --------------------------------------------*/
1053:Libraries/STM32F4xx_HAL_Driver/Src/stm32f4xx_hal_rcc.c ****   RCC_ClkInitStruct->SYSCLKSource = (uint32_t)(RCC->CFGR & RCC_CFGR_SW);
 1929              		.loc 1 1053 3 is_stmt 1 view .LVU585
 1930              		.loc 1 1053 51 is_stmt 0 view .LVU586
 1931 0004 0B4B     		ldr	r3, .L175
 1932 0006 9A68     		ldr	r2, [r3, #8]
 1933              		.loc 1 1053 37 view .LVU587
 1934 0008 02F00302 		and	r2, r2, #3
 1935              		.loc 1 1053 35 view .LVU588
 1936 000c 4260     		str	r2, [r0, #4]
1054:Libraries/STM32F4xx_HAL_Driver/Src/stm32f4xx_hal_rcc.c **** 
1055:Libraries/STM32F4xx_HAL_Driver/Src/stm32f4xx_hal_rcc.c ****   /* Get the HCLK configuration ----------------------------------------------*/
1056:Libraries/STM32F4xx_HAL_Driver/Src/stm32f4xx_hal_rcc.c ****   RCC_ClkInitStruct->AHBCLKDivider = (uint32_t)(RCC->CFGR & RCC_CFGR_HPRE);
 1937              		.loc 1 1056 3 is_stmt 1 view .LVU589
 1938              		.loc 1 1056 52 is_stmt 0 view .LVU590
 1939 000e 9A68     		ldr	r2, [r3, #8]
 1940              		.loc 1 1056 38 view .LVU591
 1941 0010 02F0F002 		and	r2, r2, #240
 1942              		.loc 1 1056 36 view .LVU592
 1943 0014 8260     		str	r2, [r0, #8]
1057:Libraries/STM32F4xx_HAL_Driver/Src/stm32f4xx_hal_rcc.c **** 
1058:Libraries/STM32F4xx_HAL_Driver/Src/stm32f4xx_hal_rcc.c ****   /* Get the APB1 configuration ----------------------------------------------*/
ARM GAS  C:\Users\yzy\AppData\Local\Temp\ccHOwreO.s 			page 58


1059:Libraries/STM32F4xx_HAL_Driver/Src/stm32f4xx_hal_rcc.c ****   RCC_ClkInitStruct->APB1CLKDivider = (uint32_t)(RCC->CFGR & RCC_CFGR_PPRE1);
 1944              		.loc 1 1059 3 is_stmt 1 view .LVU593
 1945              		.loc 1 1059 53 is_stmt 0 view .LVU594
 1946 0016 9A68     		ldr	r2, [r3, #8]
 1947              		.loc 1 1059 39 view .LVU595
 1948 0018 02F4E052 		and	r2, r2, #7168
 1949              		.loc 1 1059 37 view .LVU596
 1950 001c C260     		str	r2, [r0, #12]
1060:Libraries/STM32F4xx_HAL_Driver/Src/stm32f4xx_hal_rcc.c **** 
1061:Libraries/STM32F4xx_HAL_Driver/Src/stm32f4xx_hal_rcc.c ****   /* Get the APB2 configuration ----------------------------------------------*/
1062:Libraries/STM32F4xx_HAL_Driver/Src/stm32f4xx_hal_rcc.c ****   RCC_ClkInitStruct->APB2CLKDivider = (uint32_t)((RCC->CFGR & RCC_CFGR_PPRE2) >> 3U);
 1951              		.loc 1 1062 3 is_stmt 1 view .LVU597
 1952              		.loc 1 1062 54 is_stmt 0 view .LVU598
 1953 001e 9B68     		ldr	r3, [r3, #8]
 1954              		.loc 1 1062 39 view .LVU599
 1955 0020 DB08     		lsrs	r3, r3, #3
 1956 0022 03F4E053 		and	r3, r3, #7168
 1957              		.loc 1 1062 37 view .LVU600
 1958 0026 0361     		str	r3, [r0, #16]
1063:Libraries/STM32F4xx_HAL_Driver/Src/stm32f4xx_hal_rcc.c **** 
1064:Libraries/STM32F4xx_HAL_Driver/Src/stm32f4xx_hal_rcc.c ****   /* Get the Flash Wait State (Latency) configuration ------------------------*/
1065:Libraries/STM32F4xx_HAL_Driver/Src/stm32f4xx_hal_rcc.c ****   *pFLatency = (uint32_t)(FLASH->ACR & FLASH_ACR_LATENCY);
 1959              		.loc 1 1065 3 is_stmt 1 view .LVU601
 1960              		.loc 1 1065 32 is_stmt 0 view .LVU602
 1961 0028 034B     		ldr	r3, .L175+4
 1962 002a 1B68     		ldr	r3, [r3]
 1963              		.loc 1 1065 16 view .LVU603
 1964 002c 03F00F03 		and	r3, r3, #15
 1965              		.loc 1 1065 14 view .LVU604
 1966 0030 0B60     		str	r3, [r1]
1066:Libraries/STM32F4xx_HAL_Driver/Src/stm32f4xx_hal_rcc.c **** }
 1967              		.loc 1 1066 1 view .LVU605
 1968 0032 7047     		bx	lr
 1969              	.L176:
 1970              		.align	2
 1971              	.L175:
 1972 0034 00380240 		.word	1073887232
 1973 0038 003C0240 		.word	1073888256
 1974              		.cfi_endproc
 1975              	.LFE141:
 1977              		.section	.text.HAL_RCC_CSSCallback,"ax",%progbits
 1978              		.align	1
 1979              		.weak	HAL_RCC_CSSCallback
 1980              		.syntax unified
 1981              		.thumb
 1982              		.thumb_func
 1983              		.fpu softvfp
 1985              	HAL_RCC_CSSCallback:
 1986              	.LFB143:
1067:Libraries/STM32F4xx_HAL_Driver/Src/stm32f4xx_hal_rcc.c **** 
1068:Libraries/STM32F4xx_HAL_Driver/Src/stm32f4xx_hal_rcc.c **** /**
1069:Libraries/STM32F4xx_HAL_Driver/Src/stm32f4xx_hal_rcc.c ****   * @brief This function handles the RCC CSS interrupt request.
1070:Libraries/STM32F4xx_HAL_Driver/Src/stm32f4xx_hal_rcc.c ****   * @note This API should be called under the NMI_Handler().
1071:Libraries/STM32F4xx_HAL_Driver/Src/stm32f4xx_hal_rcc.c ****   * @retval None
1072:Libraries/STM32F4xx_HAL_Driver/Src/stm32f4xx_hal_rcc.c ****   */
1073:Libraries/STM32F4xx_HAL_Driver/Src/stm32f4xx_hal_rcc.c **** void HAL_RCC_NMI_IRQHandler(void)
1074:Libraries/STM32F4xx_HAL_Driver/Src/stm32f4xx_hal_rcc.c **** {
ARM GAS  C:\Users\yzy\AppData\Local\Temp\ccHOwreO.s 			page 59


1075:Libraries/STM32F4xx_HAL_Driver/Src/stm32f4xx_hal_rcc.c ****   /* Check RCC CSSF flag  */
1076:Libraries/STM32F4xx_HAL_Driver/Src/stm32f4xx_hal_rcc.c ****   if(__HAL_RCC_GET_IT(RCC_IT_CSS))
1077:Libraries/STM32F4xx_HAL_Driver/Src/stm32f4xx_hal_rcc.c ****   {
1078:Libraries/STM32F4xx_HAL_Driver/Src/stm32f4xx_hal_rcc.c ****     /* RCC Clock Security System interrupt user callback */
1079:Libraries/STM32F4xx_HAL_Driver/Src/stm32f4xx_hal_rcc.c ****     HAL_RCC_CSSCallback();
1080:Libraries/STM32F4xx_HAL_Driver/Src/stm32f4xx_hal_rcc.c **** 
1081:Libraries/STM32F4xx_HAL_Driver/Src/stm32f4xx_hal_rcc.c ****     /* Clear RCC CSS pending bit */
1082:Libraries/STM32F4xx_HAL_Driver/Src/stm32f4xx_hal_rcc.c ****     __HAL_RCC_CLEAR_IT(RCC_IT_CSS);
1083:Libraries/STM32F4xx_HAL_Driver/Src/stm32f4xx_hal_rcc.c ****   }
1084:Libraries/STM32F4xx_HAL_Driver/Src/stm32f4xx_hal_rcc.c **** }
1085:Libraries/STM32F4xx_HAL_Driver/Src/stm32f4xx_hal_rcc.c **** 
1086:Libraries/STM32F4xx_HAL_Driver/Src/stm32f4xx_hal_rcc.c **** /**
1087:Libraries/STM32F4xx_HAL_Driver/Src/stm32f4xx_hal_rcc.c ****   * @brief  RCC Clock Security System interrupt callback
1088:Libraries/STM32F4xx_HAL_Driver/Src/stm32f4xx_hal_rcc.c ****   * @retval None
1089:Libraries/STM32F4xx_HAL_Driver/Src/stm32f4xx_hal_rcc.c ****   */
1090:Libraries/STM32F4xx_HAL_Driver/Src/stm32f4xx_hal_rcc.c **** __weak void HAL_RCC_CSSCallback(void)
1091:Libraries/STM32F4xx_HAL_Driver/Src/stm32f4xx_hal_rcc.c **** {
 1987              		.loc 1 1091 1 is_stmt 1 view -0
 1988              		.cfi_startproc
 1989              		@ args = 0, pretend = 0, frame = 0
 1990              		@ frame_needed = 0, uses_anonymous_args = 0
 1991              		@ link register save eliminated.
1092:Libraries/STM32F4xx_HAL_Driver/Src/stm32f4xx_hal_rcc.c ****   /* NOTE : This function Should not be modified, when the callback is needed,
1093:Libraries/STM32F4xx_HAL_Driver/Src/stm32f4xx_hal_rcc.c ****             the HAL_RCC_CSSCallback could be implemented in the user file
1094:Libraries/STM32F4xx_HAL_Driver/Src/stm32f4xx_hal_rcc.c ****    */
1095:Libraries/STM32F4xx_HAL_Driver/Src/stm32f4xx_hal_rcc.c **** }
 1992              		.loc 1 1095 1 view .LVU607
 1993 0000 7047     		bx	lr
 1994              		.cfi_endproc
 1995              	.LFE143:
 1997              		.section	.text.HAL_RCC_NMI_IRQHandler,"ax",%progbits
 1998              		.align	1
 1999              		.global	HAL_RCC_NMI_IRQHandler
 2000              		.syntax unified
 2001              		.thumb
 2002              		.thumb_func
 2003              		.fpu softvfp
 2005              	HAL_RCC_NMI_IRQHandler:
 2006              	.LFB142:
1074:Libraries/STM32F4xx_HAL_Driver/Src/stm32f4xx_hal_rcc.c ****   /* Check RCC CSSF flag  */
 2007              		.loc 1 1074 1 view -0
 2008              		.cfi_startproc
 2009              		@ args = 0, pretend = 0, frame = 0
 2010              		@ frame_needed = 0, uses_anonymous_args = 0
 2011 0000 08B5     		push	{r3, lr}
 2012              	.LCFI16:
 2013              		.cfi_def_cfa_offset 8
 2014              		.cfi_offset 3, -8
 2015              		.cfi_offset 14, -4
1076:Libraries/STM32F4xx_HAL_Driver/Src/stm32f4xx_hal_rcc.c ****   {
 2016              		.loc 1 1076 3 view .LVU609
1076:Libraries/STM32F4xx_HAL_Driver/Src/stm32f4xx_hal_rcc.c ****   {
 2017              		.loc 1 1076 6 is_stmt 0 view .LVU610
 2018 0002 064B     		ldr	r3, .L182
 2019 0004 DB68     		ldr	r3, [r3, #12]
1076:Libraries/STM32F4xx_HAL_Driver/Src/stm32f4xx_hal_rcc.c ****   {
 2020              		.loc 1 1076 5 view .LVU611
ARM GAS  C:\Users\yzy\AppData\Local\Temp\ccHOwreO.s 			page 60


 2021 0006 13F0800F 		tst	r3, #128
 2022 000a 00D1     		bne	.L181
 2023              	.L178:
1084:Libraries/STM32F4xx_HAL_Driver/Src/stm32f4xx_hal_rcc.c **** 
 2024              		.loc 1 1084 1 view .LVU612
 2025 000c 08BD     		pop	{r3, pc}
 2026              	.L181:
1079:Libraries/STM32F4xx_HAL_Driver/Src/stm32f4xx_hal_rcc.c **** 
 2027              		.loc 1 1079 5 is_stmt 1 view .LVU613
 2028 000e FFF7FEFF 		bl	HAL_RCC_CSSCallback
 2029              	.LVL106:
1082:Libraries/STM32F4xx_HAL_Driver/Src/stm32f4xx_hal_rcc.c ****   }
 2030              		.loc 1 1082 5 view .LVU614
 2031 0012 034B     		ldr	r3, .L182+4
 2032 0014 8022     		movs	r2, #128
 2033 0016 1A70     		strb	r2, [r3]
1084:Libraries/STM32F4xx_HAL_Driver/Src/stm32f4xx_hal_rcc.c **** 
 2034              		.loc 1 1084 1 is_stmt 0 view .LVU615
 2035 0018 F8E7     		b	.L178
 2036              	.L183:
 2037 001a 00BF     		.align	2
 2038              	.L182:
 2039 001c 00380240 		.word	1073887232
 2040 0020 0E380240 		.word	1073887246
 2041              		.cfi_endproc
 2042              	.LFE142:
 2044              		.text
 2045              	.Letext0:
 2046              		.file 2 "c:\\program files (x86)\\gnu arm embedded toolchain\\2020-q2-update\\arm-none-eabi\\inclu
 2047              		.file 3 "c:\\program files (x86)\\gnu arm embedded toolchain\\2020-q2-update\\arm-none-eabi\\inclu
 2048              		.file 4 "Libraries/CMSIS/Include/core_cm4.h"
 2049              		.file 5 "Libraries/CMSIS/Device/ST/STM32F4xx/Include/system_stm32f4xx.h"
 2050              		.file 6 "Libraries/CMSIS/Device/ST/STM32F4xx/Include/stm32f407xx.h"
 2051              		.file 7 "Libraries/CMSIS/Device/ST/STM32F4xx/Include/stm32f4xx.h"
 2052              		.file 8 "Libraries/STM32F4xx_HAL_Driver/Inc/stm32f4xx_hal_def.h"
 2053              		.file 9 "Libraries/STM32F4xx_HAL_Driver/Inc/stm32f4xx_hal_rcc_ex.h"
 2054              		.file 10 "Libraries/STM32F4xx_HAL_Driver/Inc/stm32f4xx_hal_rcc.h"
 2055              		.file 11 "Libraries/STM32F4xx_HAL_Driver/Inc/stm32f4xx_hal_gpio.h"
 2056              		.file 12 "Libraries/STM32F4xx_HAL_Driver/Inc/stm32f4xx_hal.h"
ARM GAS  C:\Users\yzy\AppData\Local\Temp\ccHOwreO.s 			page 61

