ARM GAS  C:\Users\yzy\AppData\Local\Temp\ccHYomBP.s 			page 1


   1              		.cpu cortex-m4
   2              		.eabi_attribute 20, 1
   3              		.eabi_attribute 21, 1
   4              		.eabi_attribute 23, 3
   5              		.eabi_attribute 24, 1
   6              		.eabi_attribute 25, 1
   7              		.eabi_attribute 26, 1
   8              		.eabi_attribute 30, 1
   9              		.eabi_attribute 34, 1
  10              		.eabi_attribute 18, 4
  11              		.file	"stm32f4xx_hal_dma_ex.c"
  12              		.text
  13              	.Ltext0:
  14              		.cfi_sections	.debug_frame
  15              		.section	.text.DMA_MultiBufferSetConfig,"ax",%progbits
  16              		.align	1
  17              		.arch armv7e-m
  18              		.syntax unified
  19              		.thumb
  20              		.thumb_func
  21              		.fpu softvfp
  23              	DMA_MultiBufferSetConfig:
  24              	.LVL0:
  25              	.LFB133:
  26              		.file 1 "Libraries/STM32F4xx_HAL_Driver/Src/stm32f4xx_hal_dma_ex.c"
   1:Libraries/STM32F4xx_HAL_Driver/Src/stm32f4xx_hal_dma_ex.c **** /**
   2:Libraries/STM32F4xx_HAL_Driver/Src/stm32f4xx_hal_dma_ex.c ****   ******************************************************************************
   3:Libraries/STM32F4xx_HAL_Driver/Src/stm32f4xx_hal_dma_ex.c ****   * @file    stm32f4xx_hal_dma_ex.c
   4:Libraries/STM32F4xx_HAL_Driver/Src/stm32f4xx_hal_dma_ex.c ****   * @author  MCD Application Team
   5:Libraries/STM32F4xx_HAL_Driver/Src/stm32f4xx_hal_dma_ex.c ****   * @brief   DMA Extension HAL module driver
   6:Libraries/STM32F4xx_HAL_Driver/Src/stm32f4xx_hal_dma_ex.c ****   *         This file provides firmware functions to manage the following 
   7:Libraries/STM32F4xx_HAL_Driver/Src/stm32f4xx_hal_dma_ex.c ****   *         functionalities of the DMA Extension peripheral:
   8:Libraries/STM32F4xx_HAL_Driver/Src/stm32f4xx_hal_dma_ex.c ****   *           + Extended features functions
   9:Libraries/STM32F4xx_HAL_Driver/Src/stm32f4xx_hal_dma_ex.c ****   *
  10:Libraries/STM32F4xx_HAL_Driver/Src/stm32f4xx_hal_dma_ex.c ****   @verbatim
  11:Libraries/STM32F4xx_HAL_Driver/Src/stm32f4xx_hal_dma_ex.c ****   ==============================================================================
  12:Libraries/STM32F4xx_HAL_Driver/Src/stm32f4xx_hal_dma_ex.c ****                         ##### How to use this driver #####
  13:Libraries/STM32F4xx_HAL_Driver/Src/stm32f4xx_hal_dma_ex.c ****   ==============================================================================
  14:Libraries/STM32F4xx_HAL_Driver/Src/stm32f4xx_hal_dma_ex.c ****   [..]
  15:Libraries/STM32F4xx_HAL_Driver/Src/stm32f4xx_hal_dma_ex.c ****   The DMA Extension HAL driver can be used as follows:
  16:Libraries/STM32F4xx_HAL_Driver/Src/stm32f4xx_hal_dma_ex.c ****    (#) Start a multi buffer transfer using the HAL_DMA_MultiBufferStart() function
  17:Libraries/STM32F4xx_HAL_Driver/Src/stm32f4xx_hal_dma_ex.c ****        for polling mode or HAL_DMA_MultiBufferStart_IT() for interrupt mode.
  18:Libraries/STM32F4xx_HAL_Driver/Src/stm32f4xx_hal_dma_ex.c ****                    
  19:Libraries/STM32F4xx_HAL_Driver/Src/stm32f4xx_hal_dma_ex.c ****      -@-  In Memory-to-Memory transfer mode, Multi (Double) Buffer mode is not allowed.
  20:Libraries/STM32F4xx_HAL_Driver/Src/stm32f4xx_hal_dma_ex.c ****      -@-  When Multi (Double) Buffer mode is enabled the, transfer is circular by default.
  21:Libraries/STM32F4xx_HAL_Driver/Src/stm32f4xx_hal_dma_ex.c ****      -@-  In Multi (Double) buffer mode, it is possible to update the base address for 
  22:Libraries/STM32F4xx_HAL_Driver/Src/stm32f4xx_hal_dma_ex.c ****           the AHB memory port on the fly (DMA_SxM0AR or DMA_SxM1AR) when the stream is enabled. 
  23:Libraries/STM32F4xx_HAL_Driver/Src/stm32f4xx_hal_dma_ex.c ****   
  24:Libraries/STM32F4xx_HAL_Driver/Src/stm32f4xx_hal_dma_ex.c ****   @endverbatim
  25:Libraries/STM32F4xx_HAL_Driver/Src/stm32f4xx_hal_dma_ex.c ****   ******************************************************************************
  26:Libraries/STM32F4xx_HAL_Driver/Src/stm32f4xx_hal_dma_ex.c ****   * @attention
  27:Libraries/STM32F4xx_HAL_Driver/Src/stm32f4xx_hal_dma_ex.c ****   *
  28:Libraries/STM32F4xx_HAL_Driver/Src/stm32f4xx_hal_dma_ex.c ****   * <h2><center>&copy; Copyright (c) 2017 STMicroelectronics.
  29:Libraries/STM32F4xx_HAL_Driver/Src/stm32f4xx_hal_dma_ex.c ****   * All rights reserved.</center></h2>
  30:Libraries/STM32F4xx_HAL_Driver/Src/stm32f4xx_hal_dma_ex.c ****   *
  31:Libraries/STM32F4xx_HAL_Driver/Src/stm32f4xx_hal_dma_ex.c ****   * This software component is licensed by ST under BSD 3-Clause license,
  32:Libraries/STM32F4xx_HAL_Driver/Src/stm32f4xx_hal_dma_ex.c ****   * the "License"; You may not use this file except in compliance with the
ARM GAS  C:\Users\yzy\AppData\Local\Temp\ccHYomBP.s 			page 2


  33:Libraries/STM32F4xx_HAL_Driver/Src/stm32f4xx_hal_dma_ex.c ****   * License. You may obtain a copy of the License at:
  34:Libraries/STM32F4xx_HAL_Driver/Src/stm32f4xx_hal_dma_ex.c ****   *                        opensource.org/licenses/BSD-3-Clause
  35:Libraries/STM32F4xx_HAL_Driver/Src/stm32f4xx_hal_dma_ex.c ****   *
  36:Libraries/STM32F4xx_HAL_Driver/Src/stm32f4xx_hal_dma_ex.c ****   ******************************************************************************
  37:Libraries/STM32F4xx_HAL_Driver/Src/stm32f4xx_hal_dma_ex.c ****   */
  38:Libraries/STM32F4xx_HAL_Driver/Src/stm32f4xx_hal_dma_ex.c **** 
  39:Libraries/STM32F4xx_HAL_Driver/Src/stm32f4xx_hal_dma_ex.c **** /* Includes ------------------------------------------------------------------*/
  40:Libraries/STM32F4xx_HAL_Driver/Src/stm32f4xx_hal_dma_ex.c **** #include "stm32f4xx_hal.h"
  41:Libraries/STM32F4xx_HAL_Driver/Src/stm32f4xx_hal_dma_ex.c **** 
  42:Libraries/STM32F4xx_HAL_Driver/Src/stm32f4xx_hal_dma_ex.c **** /** @addtogroup STM32F4xx_HAL_Driver
  43:Libraries/STM32F4xx_HAL_Driver/Src/stm32f4xx_hal_dma_ex.c ****   * @{
  44:Libraries/STM32F4xx_HAL_Driver/Src/stm32f4xx_hal_dma_ex.c ****   */
  45:Libraries/STM32F4xx_HAL_Driver/Src/stm32f4xx_hal_dma_ex.c **** 
  46:Libraries/STM32F4xx_HAL_Driver/Src/stm32f4xx_hal_dma_ex.c **** /** @defgroup DMAEx DMAEx
  47:Libraries/STM32F4xx_HAL_Driver/Src/stm32f4xx_hal_dma_ex.c ****   * @brief DMA Extended HAL module driver
  48:Libraries/STM32F4xx_HAL_Driver/Src/stm32f4xx_hal_dma_ex.c ****   * @{
  49:Libraries/STM32F4xx_HAL_Driver/Src/stm32f4xx_hal_dma_ex.c ****   */
  50:Libraries/STM32F4xx_HAL_Driver/Src/stm32f4xx_hal_dma_ex.c **** 
  51:Libraries/STM32F4xx_HAL_Driver/Src/stm32f4xx_hal_dma_ex.c **** #ifdef HAL_DMA_MODULE_ENABLED
  52:Libraries/STM32F4xx_HAL_Driver/Src/stm32f4xx_hal_dma_ex.c **** 
  53:Libraries/STM32F4xx_HAL_Driver/Src/stm32f4xx_hal_dma_ex.c **** /* Private types -------------------------------------------------------------*/
  54:Libraries/STM32F4xx_HAL_Driver/Src/stm32f4xx_hal_dma_ex.c **** /* Private variables ---------------------------------------------------------*/
  55:Libraries/STM32F4xx_HAL_Driver/Src/stm32f4xx_hal_dma_ex.c **** /* Private Constants ---------------------------------------------------------*/
  56:Libraries/STM32F4xx_HAL_Driver/Src/stm32f4xx_hal_dma_ex.c **** /* Private macros ------------------------------------------------------------*/
  57:Libraries/STM32F4xx_HAL_Driver/Src/stm32f4xx_hal_dma_ex.c **** /* Private functions ---------------------------------------------------------*/
  58:Libraries/STM32F4xx_HAL_Driver/Src/stm32f4xx_hal_dma_ex.c **** /** @addtogroup DMAEx_Private_Functions
  59:Libraries/STM32F4xx_HAL_Driver/Src/stm32f4xx_hal_dma_ex.c ****   * @{
  60:Libraries/STM32F4xx_HAL_Driver/Src/stm32f4xx_hal_dma_ex.c ****   */
  61:Libraries/STM32F4xx_HAL_Driver/Src/stm32f4xx_hal_dma_ex.c **** static void DMA_MultiBufferSetConfig(DMA_HandleTypeDef *hdma, uint32_t SrcAddress, uint32_t DstAddr
  62:Libraries/STM32F4xx_HAL_Driver/Src/stm32f4xx_hal_dma_ex.c **** /**
  63:Libraries/STM32F4xx_HAL_Driver/Src/stm32f4xx_hal_dma_ex.c ****   * @}
  64:Libraries/STM32F4xx_HAL_Driver/Src/stm32f4xx_hal_dma_ex.c ****   */
  65:Libraries/STM32F4xx_HAL_Driver/Src/stm32f4xx_hal_dma_ex.c **** 
  66:Libraries/STM32F4xx_HAL_Driver/Src/stm32f4xx_hal_dma_ex.c **** /* Exported functions ---------------------------------------------------------*/
  67:Libraries/STM32F4xx_HAL_Driver/Src/stm32f4xx_hal_dma_ex.c **** 
  68:Libraries/STM32F4xx_HAL_Driver/Src/stm32f4xx_hal_dma_ex.c **** /** @addtogroup DMAEx_Exported_Functions
  69:Libraries/STM32F4xx_HAL_Driver/Src/stm32f4xx_hal_dma_ex.c ****   * @{
  70:Libraries/STM32F4xx_HAL_Driver/Src/stm32f4xx_hal_dma_ex.c ****   */
  71:Libraries/STM32F4xx_HAL_Driver/Src/stm32f4xx_hal_dma_ex.c **** 
  72:Libraries/STM32F4xx_HAL_Driver/Src/stm32f4xx_hal_dma_ex.c **** 
  73:Libraries/STM32F4xx_HAL_Driver/Src/stm32f4xx_hal_dma_ex.c **** /** @addtogroup DMAEx_Exported_Functions_Group1
  74:Libraries/STM32F4xx_HAL_Driver/Src/stm32f4xx_hal_dma_ex.c ****   *
  75:Libraries/STM32F4xx_HAL_Driver/Src/stm32f4xx_hal_dma_ex.c **** @verbatim   
  76:Libraries/STM32F4xx_HAL_Driver/Src/stm32f4xx_hal_dma_ex.c ****  ===============================================================================
  77:Libraries/STM32F4xx_HAL_Driver/Src/stm32f4xx_hal_dma_ex.c ****                 #####  Extended features functions  #####
  78:Libraries/STM32F4xx_HAL_Driver/Src/stm32f4xx_hal_dma_ex.c ****  ===============================================================================  
  79:Libraries/STM32F4xx_HAL_Driver/Src/stm32f4xx_hal_dma_ex.c ****     [..]  This section provides functions allowing to:
  80:Libraries/STM32F4xx_HAL_Driver/Src/stm32f4xx_hal_dma_ex.c ****       (+) Configure the source, destination address and data length and 
  81:Libraries/STM32F4xx_HAL_Driver/Src/stm32f4xx_hal_dma_ex.c ****           Start MultiBuffer DMA transfer
  82:Libraries/STM32F4xx_HAL_Driver/Src/stm32f4xx_hal_dma_ex.c ****       (+) Configure the source, destination address and data length and 
  83:Libraries/STM32F4xx_HAL_Driver/Src/stm32f4xx_hal_dma_ex.c ****           Start MultiBuffer DMA transfer with interrupt
  84:Libraries/STM32F4xx_HAL_Driver/Src/stm32f4xx_hal_dma_ex.c ****       (+) Change on the fly the memory0 or memory1 address.
  85:Libraries/STM32F4xx_HAL_Driver/Src/stm32f4xx_hal_dma_ex.c ****       
  86:Libraries/STM32F4xx_HAL_Driver/Src/stm32f4xx_hal_dma_ex.c **** @endverbatim
  87:Libraries/STM32F4xx_HAL_Driver/Src/stm32f4xx_hal_dma_ex.c ****   * @{
  88:Libraries/STM32F4xx_HAL_Driver/Src/stm32f4xx_hal_dma_ex.c ****   */
  89:Libraries/STM32F4xx_HAL_Driver/Src/stm32f4xx_hal_dma_ex.c **** 
ARM GAS  C:\Users\yzy\AppData\Local\Temp\ccHYomBP.s 			page 3


  90:Libraries/STM32F4xx_HAL_Driver/Src/stm32f4xx_hal_dma_ex.c **** 
  91:Libraries/STM32F4xx_HAL_Driver/Src/stm32f4xx_hal_dma_ex.c **** /**
  92:Libraries/STM32F4xx_HAL_Driver/Src/stm32f4xx_hal_dma_ex.c ****   * @brief  Starts the multi_buffer DMA Transfer.
  93:Libraries/STM32F4xx_HAL_Driver/Src/stm32f4xx_hal_dma_ex.c ****   * @param  hdma       pointer to a DMA_HandleTypeDef structure that contains
  94:Libraries/STM32F4xx_HAL_Driver/Src/stm32f4xx_hal_dma_ex.c ****   *                     the configuration information for the specified DMA Stream.  
  95:Libraries/STM32F4xx_HAL_Driver/Src/stm32f4xx_hal_dma_ex.c ****   * @param  SrcAddress The source memory Buffer address
  96:Libraries/STM32F4xx_HAL_Driver/Src/stm32f4xx_hal_dma_ex.c ****   * @param  DstAddress The destination memory Buffer address
  97:Libraries/STM32F4xx_HAL_Driver/Src/stm32f4xx_hal_dma_ex.c ****   * @param  SecondMemAddress The second memory Buffer address in case of multi buffer Transfer  
  98:Libraries/STM32F4xx_HAL_Driver/Src/stm32f4xx_hal_dma_ex.c ****   * @param  DataLength The length of data to be transferred from source to destination
  99:Libraries/STM32F4xx_HAL_Driver/Src/stm32f4xx_hal_dma_ex.c ****   * @retval HAL status
 100:Libraries/STM32F4xx_HAL_Driver/Src/stm32f4xx_hal_dma_ex.c ****   */
 101:Libraries/STM32F4xx_HAL_Driver/Src/stm32f4xx_hal_dma_ex.c **** HAL_StatusTypeDef HAL_DMAEx_MultiBufferStart(DMA_HandleTypeDef *hdma, uint32_t SrcAddress, uint32_t
 102:Libraries/STM32F4xx_HAL_Driver/Src/stm32f4xx_hal_dma_ex.c **** {
 103:Libraries/STM32F4xx_HAL_Driver/Src/stm32f4xx_hal_dma_ex.c ****   HAL_StatusTypeDef status = HAL_OK;
 104:Libraries/STM32F4xx_HAL_Driver/Src/stm32f4xx_hal_dma_ex.c ****   
 105:Libraries/STM32F4xx_HAL_Driver/Src/stm32f4xx_hal_dma_ex.c ****   /* Check the parameters */
 106:Libraries/STM32F4xx_HAL_Driver/Src/stm32f4xx_hal_dma_ex.c ****   assert_param(IS_DMA_BUFFER_SIZE(DataLength));
 107:Libraries/STM32F4xx_HAL_Driver/Src/stm32f4xx_hal_dma_ex.c ****   
 108:Libraries/STM32F4xx_HAL_Driver/Src/stm32f4xx_hal_dma_ex.c ****   /* Memory-to-memory transfer not supported in double buffering mode */
 109:Libraries/STM32F4xx_HAL_Driver/Src/stm32f4xx_hal_dma_ex.c ****   if (hdma->Init.Direction == DMA_MEMORY_TO_MEMORY)
 110:Libraries/STM32F4xx_HAL_Driver/Src/stm32f4xx_hal_dma_ex.c ****   {
 111:Libraries/STM32F4xx_HAL_Driver/Src/stm32f4xx_hal_dma_ex.c ****     hdma->ErrorCode = HAL_DMA_ERROR_NOT_SUPPORTED;
 112:Libraries/STM32F4xx_HAL_Driver/Src/stm32f4xx_hal_dma_ex.c ****     status = HAL_ERROR;
 113:Libraries/STM32F4xx_HAL_Driver/Src/stm32f4xx_hal_dma_ex.c ****   }
 114:Libraries/STM32F4xx_HAL_Driver/Src/stm32f4xx_hal_dma_ex.c ****   else
 115:Libraries/STM32F4xx_HAL_Driver/Src/stm32f4xx_hal_dma_ex.c ****   {
 116:Libraries/STM32F4xx_HAL_Driver/Src/stm32f4xx_hal_dma_ex.c ****     /* Process Locked */
 117:Libraries/STM32F4xx_HAL_Driver/Src/stm32f4xx_hal_dma_ex.c ****     __HAL_LOCK(hdma);
 118:Libraries/STM32F4xx_HAL_Driver/Src/stm32f4xx_hal_dma_ex.c ****     
 119:Libraries/STM32F4xx_HAL_Driver/Src/stm32f4xx_hal_dma_ex.c ****     if(HAL_DMA_STATE_READY == hdma->State)
 120:Libraries/STM32F4xx_HAL_Driver/Src/stm32f4xx_hal_dma_ex.c ****     {
 121:Libraries/STM32F4xx_HAL_Driver/Src/stm32f4xx_hal_dma_ex.c ****       /* Change DMA peripheral state */
 122:Libraries/STM32F4xx_HAL_Driver/Src/stm32f4xx_hal_dma_ex.c ****       hdma->State = HAL_DMA_STATE_BUSY; 
 123:Libraries/STM32F4xx_HAL_Driver/Src/stm32f4xx_hal_dma_ex.c ****       
 124:Libraries/STM32F4xx_HAL_Driver/Src/stm32f4xx_hal_dma_ex.c ****       /* Enable the double buffer mode */
 125:Libraries/STM32F4xx_HAL_Driver/Src/stm32f4xx_hal_dma_ex.c ****       hdma->Instance->CR |= (uint32_t)DMA_SxCR_DBM;
 126:Libraries/STM32F4xx_HAL_Driver/Src/stm32f4xx_hal_dma_ex.c ****       
 127:Libraries/STM32F4xx_HAL_Driver/Src/stm32f4xx_hal_dma_ex.c ****       /* Configure DMA Stream destination address */
 128:Libraries/STM32F4xx_HAL_Driver/Src/stm32f4xx_hal_dma_ex.c ****       hdma->Instance->M1AR = SecondMemAddress;
 129:Libraries/STM32F4xx_HAL_Driver/Src/stm32f4xx_hal_dma_ex.c ****       
 130:Libraries/STM32F4xx_HAL_Driver/Src/stm32f4xx_hal_dma_ex.c ****       /* Configure the source, destination address and the data length */
 131:Libraries/STM32F4xx_HAL_Driver/Src/stm32f4xx_hal_dma_ex.c ****       DMA_MultiBufferSetConfig(hdma, SrcAddress, DstAddress, DataLength);
 132:Libraries/STM32F4xx_HAL_Driver/Src/stm32f4xx_hal_dma_ex.c ****       
 133:Libraries/STM32F4xx_HAL_Driver/Src/stm32f4xx_hal_dma_ex.c ****       /* Enable the peripheral */
 134:Libraries/STM32F4xx_HAL_Driver/Src/stm32f4xx_hal_dma_ex.c ****       __HAL_DMA_ENABLE(hdma);
 135:Libraries/STM32F4xx_HAL_Driver/Src/stm32f4xx_hal_dma_ex.c ****     }
 136:Libraries/STM32F4xx_HAL_Driver/Src/stm32f4xx_hal_dma_ex.c ****     else
 137:Libraries/STM32F4xx_HAL_Driver/Src/stm32f4xx_hal_dma_ex.c ****     {
 138:Libraries/STM32F4xx_HAL_Driver/Src/stm32f4xx_hal_dma_ex.c ****       /* Return error status */
 139:Libraries/STM32F4xx_HAL_Driver/Src/stm32f4xx_hal_dma_ex.c ****       status = HAL_BUSY;
 140:Libraries/STM32F4xx_HAL_Driver/Src/stm32f4xx_hal_dma_ex.c ****     }
 141:Libraries/STM32F4xx_HAL_Driver/Src/stm32f4xx_hal_dma_ex.c ****   }
 142:Libraries/STM32F4xx_HAL_Driver/Src/stm32f4xx_hal_dma_ex.c ****   return status;
 143:Libraries/STM32F4xx_HAL_Driver/Src/stm32f4xx_hal_dma_ex.c **** }
 144:Libraries/STM32F4xx_HAL_Driver/Src/stm32f4xx_hal_dma_ex.c **** 
 145:Libraries/STM32F4xx_HAL_Driver/Src/stm32f4xx_hal_dma_ex.c **** /**
 146:Libraries/STM32F4xx_HAL_Driver/Src/stm32f4xx_hal_dma_ex.c ****   * @brief  Starts the multi_buffer DMA Transfer with interrupt enabled.
ARM GAS  C:\Users\yzy\AppData\Local\Temp\ccHYomBP.s 			page 4


 147:Libraries/STM32F4xx_HAL_Driver/Src/stm32f4xx_hal_dma_ex.c ****   * @param  hdma       pointer to a DMA_HandleTypeDef structure that contains
 148:Libraries/STM32F4xx_HAL_Driver/Src/stm32f4xx_hal_dma_ex.c ****   *                     the configuration information for the specified DMA Stream.  
 149:Libraries/STM32F4xx_HAL_Driver/Src/stm32f4xx_hal_dma_ex.c ****   * @param  SrcAddress The source memory Buffer address
 150:Libraries/STM32F4xx_HAL_Driver/Src/stm32f4xx_hal_dma_ex.c ****   * @param  DstAddress The destination memory Buffer address
 151:Libraries/STM32F4xx_HAL_Driver/Src/stm32f4xx_hal_dma_ex.c ****   * @param  SecondMemAddress The second memory Buffer address in case of multi buffer Transfer  
 152:Libraries/STM32F4xx_HAL_Driver/Src/stm32f4xx_hal_dma_ex.c ****   * @param  DataLength The length of data to be transferred from source to destination
 153:Libraries/STM32F4xx_HAL_Driver/Src/stm32f4xx_hal_dma_ex.c ****   * @retval HAL status
 154:Libraries/STM32F4xx_HAL_Driver/Src/stm32f4xx_hal_dma_ex.c ****   */
 155:Libraries/STM32F4xx_HAL_Driver/Src/stm32f4xx_hal_dma_ex.c **** HAL_StatusTypeDef HAL_DMAEx_MultiBufferStart_IT(DMA_HandleTypeDef *hdma, uint32_t SrcAddress, uint3
 156:Libraries/STM32F4xx_HAL_Driver/Src/stm32f4xx_hal_dma_ex.c **** {
 157:Libraries/STM32F4xx_HAL_Driver/Src/stm32f4xx_hal_dma_ex.c ****   HAL_StatusTypeDef status = HAL_OK;
 158:Libraries/STM32F4xx_HAL_Driver/Src/stm32f4xx_hal_dma_ex.c ****   
 159:Libraries/STM32F4xx_HAL_Driver/Src/stm32f4xx_hal_dma_ex.c ****   /* Check the parameters */
 160:Libraries/STM32F4xx_HAL_Driver/Src/stm32f4xx_hal_dma_ex.c ****   assert_param(IS_DMA_BUFFER_SIZE(DataLength));
 161:Libraries/STM32F4xx_HAL_Driver/Src/stm32f4xx_hal_dma_ex.c ****   
 162:Libraries/STM32F4xx_HAL_Driver/Src/stm32f4xx_hal_dma_ex.c ****   /* Memory-to-memory transfer not supported in double buffering mode */
 163:Libraries/STM32F4xx_HAL_Driver/Src/stm32f4xx_hal_dma_ex.c ****   if (hdma->Init.Direction == DMA_MEMORY_TO_MEMORY)
 164:Libraries/STM32F4xx_HAL_Driver/Src/stm32f4xx_hal_dma_ex.c ****   {
 165:Libraries/STM32F4xx_HAL_Driver/Src/stm32f4xx_hal_dma_ex.c ****     hdma->ErrorCode = HAL_DMA_ERROR_NOT_SUPPORTED;
 166:Libraries/STM32F4xx_HAL_Driver/Src/stm32f4xx_hal_dma_ex.c ****     return HAL_ERROR;
 167:Libraries/STM32F4xx_HAL_Driver/Src/stm32f4xx_hal_dma_ex.c ****   }
 168:Libraries/STM32F4xx_HAL_Driver/Src/stm32f4xx_hal_dma_ex.c ****   
 169:Libraries/STM32F4xx_HAL_Driver/Src/stm32f4xx_hal_dma_ex.c ****   /* Check callback functions */
 170:Libraries/STM32F4xx_HAL_Driver/Src/stm32f4xx_hal_dma_ex.c ****   if ((NULL == hdma->XferCpltCallback) || (NULL == hdma->XferM1CpltCallback) || (NULL == hdma->Xfer
 171:Libraries/STM32F4xx_HAL_Driver/Src/stm32f4xx_hal_dma_ex.c ****   {
 172:Libraries/STM32F4xx_HAL_Driver/Src/stm32f4xx_hal_dma_ex.c ****     hdma->ErrorCode = HAL_DMA_ERROR_PARAM;
 173:Libraries/STM32F4xx_HAL_Driver/Src/stm32f4xx_hal_dma_ex.c ****     return HAL_ERROR;
 174:Libraries/STM32F4xx_HAL_Driver/Src/stm32f4xx_hal_dma_ex.c ****   }
 175:Libraries/STM32F4xx_HAL_Driver/Src/stm32f4xx_hal_dma_ex.c ****   
 176:Libraries/STM32F4xx_HAL_Driver/Src/stm32f4xx_hal_dma_ex.c ****   /* Process locked */
 177:Libraries/STM32F4xx_HAL_Driver/Src/stm32f4xx_hal_dma_ex.c ****   __HAL_LOCK(hdma);
 178:Libraries/STM32F4xx_HAL_Driver/Src/stm32f4xx_hal_dma_ex.c ****   
 179:Libraries/STM32F4xx_HAL_Driver/Src/stm32f4xx_hal_dma_ex.c ****   if(HAL_DMA_STATE_READY == hdma->State)
 180:Libraries/STM32F4xx_HAL_Driver/Src/stm32f4xx_hal_dma_ex.c ****   {
 181:Libraries/STM32F4xx_HAL_Driver/Src/stm32f4xx_hal_dma_ex.c ****     /* Change DMA peripheral state */
 182:Libraries/STM32F4xx_HAL_Driver/Src/stm32f4xx_hal_dma_ex.c ****     hdma->State = HAL_DMA_STATE_BUSY;
 183:Libraries/STM32F4xx_HAL_Driver/Src/stm32f4xx_hal_dma_ex.c ****     
 184:Libraries/STM32F4xx_HAL_Driver/Src/stm32f4xx_hal_dma_ex.c ****     /* Initialize the error code */
 185:Libraries/STM32F4xx_HAL_Driver/Src/stm32f4xx_hal_dma_ex.c ****     hdma->ErrorCode = HAL_DMA_ERROR_NONE;
 186:Libraries/STM32F4xx_HAL_Driver/Src/stm32f4xx_hal_dma_ex.c ****     
 187:Libraries/STM32F4xx_HAL_Driver/Src/stm32f4xx_hal_dma_ex.c ****     /* Enable the Double buffer mode */
 188:Libraries/STM32F4xx_HAL_Driver/Src/stm32f4xx_hal_dma_ex.c ****     hdma->Instance->CR |= (uint32_t)DMA_SxCR_DBM;
 189:Libraries/STM32F4xx_HAL_Driver/Src/stm32f4xx_hal_dma_ex.c ****     
 190:Libraries/STM32F4xx_HAL_Driver/Src/stm32f4xx_hal_dma_ex.c ****     /* Configure DMA Stream destination address */
 191:Libraries/STM32F4xx_HAL_Driver/Src/stm32f4xx_hal_dma_ex.c ****     hdma->Instance->M1AR = SecondMemAddress;
 192:Libraries/STM32F4xx_HAL_Driver/Src/stm32f4xx_hal_dma_ex.c ****     
 193:Libraries/STM32F4xx_HAL_Driver/Src/stm32f4xx_hal_dma_ex.c ****     /* Configure the source, destination address and the data length */
 194:Libraries/STM32F4xx_HAL_Driver/Src/stm32f4xx_hal_dma_ex.c ****     DMA_MultiBufferSetConfig(hdma, SrcAddress, DstAddress, DataLength); 
 195:Libraries/STM32F4xx_HAL_Driver/Src/stm32f4xx_hal_dma_ex.c ****     
 196:Libraries/STM32F4xx_HAL_Driver/Src/stm32f4xx_hal_dma_ex.c ****     /* Clear all flags */
 197:Libraries/STM32F4xx_HAL_Driver/Src/stm32f4xx_hal_dma_ex.c ****     __HAL_DMA_CLEAR_FLAG (hdma, __HAL_DMA_GET_TC_FLAG_INDEX(hdma));
 198:Libraries/STM32F4xx_HAL_Driver/Src/stm32f4xx_hal_dma_ex.c ****     __HAL_DMA_CLEAR_FLAG (hdma, __HAL_DMA_GET_HT_FLAG_INDEX(hdma));
 199:Libraries/STM32F4xx_HAL_Driver/Src/stm32f4xx_hal_dma_ex.c ****     __HAL_DMA_CLEAR_FLAG (hdma, __HAL_DMA_GET_TE_FLAG_INDEX(hdma));
 200:Libraries/STM32F4xx_HAL_Driver/Src/stm32f4xx_hal_dma_ex.c ****     __HAL_DMA_CLEAR_FLAG (hdma, __HAL_DMA_GET_DME_FLAG_INDEX(hdma));
 201:Libraries/STM32F4xx_HAL_Driver/Src/stm32f4xx_hal_dma_ex.c ****     __HAL_DMA_CLEAR_FLAG (hdma, __HAL_DMA_GET_FE_FLAG_INDEX(hdma));
 202:Libraries/STM32F4xx_HAL_Driver/Src/stm32f4xx_hal_dma_ex.c **** 
 203:Libraries/STM32F4xx_HAL_Driver/Src/stm32f4xx_hal_dma_ex.c ****     /* Enable Common interrupts*/
ARM GAS  C:\Users\yzy\AppData\Local\Temp\ccHYomBP.s 			page 5


 204:Libraries/STM32F4xx_HAL_Driver/Src/stm32f4xx_hal_dma_ex.c ****     hdma->Instance->CR  |= DMA_IT_TC | DMA_IT_TE | DMA_IT_DME;
 205:Libraries/STM32F4xx_HAL_Driver/Src/stm32f4xx_hal_dma_ex.c ****     hdma->Instance->FCR |= DMA_IT_FE;
 206:Libraries/STM32F4xx_HAL_Driver/Src/stm32f4xx_hal_dma_ex.c ****     
 207:Libraries/STM32F4xx_HAL_Driver/Src/stm32f4xx_hal_dma_ex.c ****     if((hdma->XferHalfCpltCallback != NULL) || (hdma->XferM1HalfCpltCallback != NULL))
 208:Libraries/STM32F4xx_HAL_Driver/Src/stm32f4xx_hal_dma_ex.c ****     {
 209:Libraries/STM32F4xx_HAL_Driver/Src/stm32f4xx_hal_dma_ex.c ****       hdma->Instance->CR  |= DMA_IT_HT;
 210:Libraries/STM32F4xx_HAL_Driver/Src/stm32f4xx_hal_dma_ex.c ****     }
 211:Libraries/STM32F4xx_HAL_Driver/Src/stm32f4xx_hal_dma_ex.c ****     
 212:Libraries/STM32F4xx_HAL_Driver/Src/stm32f4xx_hal_dma_ex.c ****     /* Enable the peripheral */
 213:Libraries/STM32F4xx_HAL_Driver/Src/stm32f4xx_hal_dma_ex.c ****     __HAL_DMA_ENABLE(hdma); 
 214:Libraries/STM32F4xx_HAL_Driver/Src/stm32f4xx_hal_dma_ex.c ****   }
 215:Libraries/STM32F4xx_HAL_Driver/Src/stm32f4xx_hal_dma_ex.c ****   else
 216:Libraries/STM32F4xx_HAL_Driver/Src/stm32f4xx_hal_dma_ex.c ****   {     
 217:Libraries/STM32F4xx_HAL_Driver/Src/stm32f4xx_hal_dma_ex.c ****     /* Process unlocked */
 218:Libraries/STM32F4xx_HAL_Driver/Src/stm32f4xx_hal_dma_ex.c ****     __HAL_UNLOCK(hdma);	  
 219:Libraries/STM32F4xx_HAL_Driver/Src/stm32f4xx_hal_dma_ex.c ****     
 220:Libraries/STM32F4xx_HAL_Driver/Src/stm32f4xx_hal_dma_ex.c ****     /* Return error status */
 221:Libraries/STM32F4xx_HAL_Driver/Src/stm32f4xx_hal_dma_ex.c ****     status = HAL_BUSY;
 222:Libraries/STM32F4xx_HAL_Driver/Src/stm32f4xx_hal_dma_ex.c ****   }  
 223:Libraries/STM32F4xx_HAL_Driver/Src/stm32f4xx_hal_dma_ex.c ****   return status; 
 224:Libraries/STM32F4xx_HAL_Driver/Src/stm32f4xx_hal_dma_ex.c **** }
 225:Libraries/STM32F4xx_HAL_Driver/Src/stm32f4xx_hal_dma_ex.c **** 
 226:Libraries/STM32F4xx_HAL_Driver/Src/stm32f4xx_hal_dma_ex.c **** /**
 227:Libraries/STM32F4xx_HAL_Driver/Src/stm32f4xx_hal_dma_ex.c ****   * @brief  Change the memory0 or memory1 address on the fly.
 228:Libraries/STM32F4xx_HAL_Driver/Src/stm32f4xx_hal_dma_ex.c ****   * @param  hdma       pointer to a DMA_HandleTypeDef structure that contains
 229:Libraries/STM32F4xx_HAL_Driver/Src/stm32f4xx_hal_dma_ex.c ****   *                     the configuration information for the specified DMA Stream.  
 230:Libraries/STM32F4xx_HAL_Driver/Src/stm32f4xx_hal_dma_ex.c ****   * @param  Address    The new address
 231:Libraries/STM32F4xx_HAL_Driver/Src/stm32f4xx_hal_dma_ex.c ****   * @param  memory     the memory to be changed, This parameter can be one of 
 232:Libraries/STM32F4xx_HAL_Driver/Src/stm32f4xx_hal_dma_ex.c ****   *                     the following values:
 233:Libraries/STM32F4xx_HAL_Driver/Src/stm32f4xx_hal_dma_ex.c ****   *                      MEMORY0 /
 234:Libraries/STM32F4xx_HAL_Driver/Src/stm32f4xx_hal_dma_ex.c ****   *                      MEMORY1
 235:Libraries/STM32F4xx_HAL_Driver/Src/stm32f4xx_hal_dma_ex.c ****   * @note   The MEMORY0 address can be changed only when the current transfer use
 236:Libraries/STM32F4xx_HAL_Driver/Src/stm32f4xx_hal_dma_ex.c ****   *         MEMORY1 and the MEMORY1 address can be changed only when the current 
 237:Libraries/STM32F4xx_HAL_Driver/Src/stm32f4xx_hal_dma_ex.c ****   *         transfer use MEMORY0.
 238:Libraries/STM32F4xx_HAL_Driver/Src/stm32f4xx_hal_dma_ex.c ****   * @retval HAL status
 239:Libraries/STM32F4xx_HAL_Driver/Src/stm32f4xx_hal_dma_ex.c ****   */
 240:Libraries/STM32F4xx_HAL_Driver/Src/stm32f4xx_hal_dma_ex.c **** HAL_StatusTypeDef HAL_DMAEx_ChangeMemory(DMA_HandleTypeDef *hdma, uint32_t Address, HAL_DMA_MemoryT
 241:Libraries/STM32F4xx_HAL_Driver/Src/stm32f4xx_hal_dma_ex.c **** {
 242:Libraries/STM32F4xx_HAL_Driver/Src/stm32f4xx_hal_dma_ex.c ****   if(memory == MEMORY0)
 243:Libraries/STM32F4xx_HAL_Driver/Src/stm32f4xx_hal_dma_ex.c ****   {
 244:Libraries/STM32F4xx_HAL_Driver/Src/stm32f4xx_hal_dma_ex.c ****     /* change the memory0 address */
 245:Libraries/STM32F4xx_HAL_Driver/Src/stm32f4xx_hal_dma_ex.c ****     hdma->Instance->M0AR = Address;
 246:Libraries/STM32F4xx_HAL_Driver/Src/stm32f4xx_hal_dma_ex.c ****   }
 247:Libraries/STM32F4xx_HAL_Driver/Src/stm32f4xx_hal_dma_ex.c ****   else
 248:Libraries/STM32F4xx_HAL_Driver/Src/stm32f4xx_hal_dma_ex.c ****   {
 249:Libraries/STM32F4xx_HAL_Driver/Src/stm32f4xx_hal_dma_ex.c ****     /* change the memory1 address */
 250:Libraries/STM32F4xx_HAL_Driver/Src/stm32f4xx_hal_dma_ex.c ****     hdma->Instance->M1AR = Address;
 251:Libraries/STM32F4xx_HAL_Driver/Src/stm32f4xx_hal_dma_ex.c ****   }
 252:Libraries/STM32F4xx_HAL_Driver/Src/stm32f4xx_hal_dma_ex.c **** 
 253:Libraries/STM32F4xx_HAL_Driver/Src/stm32f4xx_hal_dma_ex.c ****   return HAL_OK;
 254:Libraries/STM32F4xx_HAL_Driver/Src/stm32f4xx_hal_dma_ex.c **** }
 255:Libraries/STM32F4xx_HAL_Driver/Src/stm32f4xx_hal_dma_ex.c **** 
 256:Libraries/STM32F4xx_HAL_Driver/Src/stm32f4xx_hal_dma_ex.c **** /**
 257:Libraries/STM32F4xx_HAL_Driver/Src/stm32f4xx_hal_dma_ex.c ****   * @}
 258:Libraries/STM32F4xx_HAL_Driver/Src/stm32f4xx_hal_dma_ex.c ****   */
 259:Libraries/STM32F4xx_HAL_Driver/Src/stm32f4xx_hal_dma_ex.c **** 
 260:Libraries/STM32F4xx_HAL_Driver/Src/stm32f4xx_hal_dma_ex.c **** /**
ARM GAS  C:\Users\yzy\AppData\Local\Temp\ccHYomBP.s 			page 6


 261:Libraries/STM32F4xx_HAL_Driver/Src/stm32f4xx_hal_dma_ex.c ****   * @}
 262:Libraries/STM32F4xx_HAL_Driver/Src/stm32f4xx_hal_dma_ex.c ****   */
 263:Libraries/STM32F4xx_HAL_Driver/Src/stm32f4xx_hal_dma_ex.c **** 
 264:Libraries/STM32F4xx_HAL_Driver/Src/stm32f4xx_hal_dma_ex.c **** /** @addtogroup DMAEx_Private_Functions
 265:Libraries/STM32F4xx_HAL_Driver/Src/stm32f4xx_hal_dma_ex.c ****   * @{
 266:Libraries/STM32F4xx_HAL_Driver/Src/stm32f4xx_hal_dma_ex.c ****   */
 267:Libraries/STM32F4xx_HAL_Driver/Src/stm32f4xx_hal_dma_ex.c **** 
 268:Libraries/STM32F4xx_HAL_Driver/Src/stm32f4xx_hal_dma_ex.c **** /**
 269:Libraries/STM32F4xx_HAL_Driver/Src/stm32f4xx_hal_dma_ex.c ****   * @brief  Set the DMA Transfer parameter.
 270:Libraries/STM32F4xx_HAL_Driver/Src/stm32f4xx_hal_dma_ex.c ****   * @param  hdma       pointer to a DMA_HandleTypeDef structure that contains
 271:Libraries/STM32F4xx_HAL_Driver/Src/stm32f4xx_hal_dma_ex.c ****   *                     the configuration information for the specified DMA Stream.  
 272:Libraries/STM32F4xx_HAL_Driver/Src/stm32f4xx_hal_dma_ex.c ****   * @param  SrcAddress The source memory Buffer address
 273:Libraries/STM32F4xx_HAL_Driver/Src/stm32f4xx_hal_dma_ex.c ****   * @param  DstAddress The destination memory Buffer address
 274:Libraries/STM32F4xx_HAL_Driver/Src/stm32f4xx_hal_dma_ex.c ****   * @param  DataLength The length of data to be transferred from source to destination
 275:Libraries/STM32F4xx_HAL_Driver/Src/stm32f4xx_hal_dma_ex.c ****   * @retval HAL status
 276:Libraries/STM32F4xx_HAL_Driver/Src/stm32f4xx_hal_dma_ex.c ****   */
 277:Libraries/STM32F4xx_HAL_Driver/Src/stm32f4xx_hal_dma_ex.c **** static void DMA_MultiBufferSetConfig(DMA_HandleTypeDef *hdma, uint32_t SrcAddress, uint32_t DstAddr
 278:Libraries/STM32F4xx_HAL_Driver/Src/stm32f4xx_hal_dma_ex.c **** {  
  27              		.loc 1 278 1 view -0
  28              		.cfi_startproc
  29              		@ args = 0, pretend = 0, frame = 0
  30              		@ frame_needed = 0, uses_anonymous_args = 0
  31              		@ link register save eliminated.
  32              		.loc 1 278 1 is_stmt 0 view .LVU1
  33 0000 10B4     		push	{r4}
  34              	.LCFI0:
  35              		.cfi_def_cfa_offset 4
  36              		.cfi_offset 4, -4
 279:Libraries/STM32F4xx_HAL_Driver/Src/stm32f4xx_hal_dma_ex.c ****   /* Configure DMA Stream data length */
 280:Libraries/STM32F4xx_HAL_Driver/Src/stm32f4xx_hal_dma_ex.c ****   hdma->Instance->NDTR = DataLength;
  37              		.loc 1 280 3 is_stmt 1 view .LVU2
  38              		.loc 1 280 7 is_stmt 0 view .LVU3
  39 0002 0468     		ldr	r4, [r0]
  40              		.loc 1 280 24 view .LVU4
  41 0004 6360     		str	r3, [r4, #4]
 281:Libraries/STM32F4xx_HAL_Driver/Src/stm32f4xx_hal_dma_ex.c ****   
 282:Libraries/STM32F4xx_HAL_Driver/Src/stm32f4xx_hal_dma_ex.c ****   /* Peripheral to Memory */
 283:Libraries/STM32F4xx_HAL_Driver/Src/stm32f4xx_hal_dma_ex.c ****   if((hdma->Init.Direction) == DMA_MEMORY_TO_PERIPH)
  42              		.loc 1 283 3 is_stmt 1 view .LVU5
  43              		.loc 1 283 17 is_stmt 0 view .LVU6
  44 0006 8368     		ldr	r3, [r0, #8]
  45              	.LVL1:
  46              		.loc 1 283 5 view .LVU7
  47 0008 402B     		cmp	r3, #64
  48 000a 05D0     		beq	.L5
 284:Libraries/STM32F4xx_HAL_Driver/Src/stm32f4xx_hal_dma_ex.c ****   {   
 285:Libraries/STM32F4xx_HAL_Driver/Src/stm32f4xx_hal_dma_ex.c ****     /* Configure DMA Stream destination address */
 286:Libraries/STM32F4xx_HAL_Driver/Src/stm32f4xx_hal_dma_ex.c ****     hdma->Instance->PAR = DstAddress;
 287:Libraries/STM32F4xx_HAL_Driver/Src/stm32f4xx_hal_dma_ex.c ****     
 288:Libraries/STM32F4xx_HAL_Driver/Src/stm32f4xx_hal_dma_ex.c ****     /* Configure DMA Stream source address */
 289:Libraries/STM32F4xx_HAL_Driver/Src/stm32f4xx_hal_dma_ex.c ****     hdma->Instance->M0AR = SrcAddress;
 290:Libraries/STM32F4xx_HAL_Driver/Src/stm32f4xx_hal_dma_ex.c ****   }
 291:Libraries/STM32F4xx_HAL_Driver/Src/stm32f4xx_hal_dma_ex.c ****   /* Memory to Peripheral */
 292:Libraries/STM32F4xx_HAL_Driver/Src/stm32f4xx_hal_dma_ex.c ****   else
 293:Libraries/STM32F4xx_HAL_Driver/Src/stm32f4xx_hal_dma_ex.c ****   {
 294:Libraries/STM32F4xx_HAL_Driver/Src/stm32f4xx_hal_dma_ex.c ****     /* Configure DMA Stream source address */
 295:Libraries/STM32F4xx_HAL_Driver/Src/stm32f4xx_hal_dma_ex.c ****     hdma->Instance->PAR = SrcAddress;
ARM GAS  C:\Users\yzy\AppData\Local\Temp\ccHYomBP.s 			page 7


  49              		.loc 1 295 5 is_stmt 1 view .LVU8
  50              		.loc 1 295 9 is_stmt 0 view .LVU9
  51 000c 0368     		ldr	r3, [r0]
  52              		.loc 1 295 25 view .LVU10
  53 000e 9960     		str	r1, [r3, #8]
  54              	.LVL2:
 296:Libraries/STM32F4xx_HAL_Driver/Src/stm32f4xx_hal_dma_ex.c ****     
 297:Libraries/STM32F4xx_HAL_Driver/Src/stm32f4xx_hal_dma_ex.c ****     /* Configure DMA Stream destination address */
 298:Libraries/STM32F4xx_HAL_Driver/Src/stm32f4xx_hal_dma_ex.c ****     hdma->Instance->M0AR = DstAddress;
  55              		.loc 1 298 5 is_stmt 1 view .LVU11
  56              		.loc 1 298 9 is_stmt 0 view .LVU12
  57 0010 0368     		ldr	r3, [r0]
  58              		.loc 1 298 26 view .LVU13
  59 0012 DA60     		str	r2, [r3, #12]
  60              	.L1:
 299:Libraries/STM32F4xx_HAL_Driver/Src/stm32f4xx_hal_dma_ex.c ****   }
 300:Libraries/STM32F4xx_HAL_Driver/Src/stm32f4xx_hal_dma_ex.c **** }
  61              		.loc 1 300 1 view .LVU14
  62 0014 10BC     		pop	{r4}
  63              	.LCFI1:
  64              		.cfi_remember_state
  65              		.cfi_restore 4
  66              		.cfi_def_cfa_offset 0
  67 0016 7047     		bx	lr
  68              	.LVL3:
  69              	.L5:
  70              	.LCFI2:
  71              		.cfi_restore_state
 286:Libraries/STM32F4xx_HAL_Driver/Src/stm32f4xx_hal_dma_ex.c ****     
  72              		.loc 1 286 5 is_stmt 1 view .LVU15
 286:Libraries/STM32F4xx_HAL_Driver/Src/stm32f4xx_hal_dma_ex.c ****     
  73              		.loc 1 286 9 is_stmt 0 view .LVU16
  74 0018 0368     		ldr	r3, [r0]
 286:Libraries/STM32F4xx_HAL_Driver/Src/stm32f4xx_hal_dma_ex.c ****     
  75              		.loc 1 286 25 view .LVU17
  76 001a 9A60     		str	r2, [r3, #8]
  77              	.LVL4:
 289:Libraries/STM32F4xx_HAL_Driver/Src/stm32f4xx_hal_dma_ex.c ****   }
  78              		.loc 1 289 5 is_stmt 1 view .LVU18
 289:Libraries/STM32F4xx_HAL_Driver/Src/stm32f4xx_hal_dma_ex.c ****   }
  79              		.loc 1 289 9 is_stmt 0 view .LVU19
  80 001c 0368     		ldr	r3, [r0]
 289:Libraries/STM32F4xx_HAL_Driver/Src/stm32f4xx_hal_dma_ex.c ****   }
  81              		.loc 1 289 26 view .LVU20
  82 001e D960     		str	r1, [r3, #12]
  83 0020 F8E7     		b	.L1
  84              		.cfi_endproc
  85              	.LFE133:
  87              		.section	.text.HAL_DMAEx_MultiBufferStart,"ax",%progbits
  88              		.align	1
  89              		.global	HAL_DMAEx_MultiBufferStart
  90              		.syntax unified
  91              		.thumb
  92              		.thumb_func
  93              		.fpu softvfp
  95              	HAL_DMAEx_MultiBufferStart:
  96              	.LVL5:
ARM GAS  C:\Users\yzy\AppData\Local\Temp\ccHYomBP.s 			page 8


  97              	.LFB130:
 102:Libraries/STM32F4xx_HAL_Driver/Src/stm32f4xx_hal_dma_ex.c ****   HAL_StatusTypeDef status = HAL_OK;
  98              		.loc 1 102 1 is_stmt 1 view -0
  99              		.cfi_startproc
 100              		@ args = 4, pretend = 0, frame = 0
 101              		@ frame_needed = 0, uses_anonymous_args = 0
 102:Libraries/STM32F4xx_HAL_Driver/Src/stm32f4xx_hal_dma_ex.c ****   HAL_StatusTypeDef status = HAL_OK;
 102              		.loc 1 102 1 is_stmt 0 view .LVU22
 103 0000 38B5     		push	{r3, r4, r5, lr}
 104              	.LCFI3:
 105              		.cfi_def_cfa_offset 16
 106              		.cfi_offset 3, -16
 107              		.cfi_offset 4, -12
 108              		.cfi_offset 5, -8
 109              		.cfi_offset 14, -4
 110 0002 0446     		mov	r4, r0
 103:Libraries/STM32F4xx_HAL_Driver/Src/stm32f4xx_hal_dma_ex.c ****   
 111              		.loc 1 103 3 is_stmt 1 view .LVU23
 112              	.LVL6:
 106:Libraries/STM32F4xx_HAL_Driver/Src/stm32f4xx_hal_dma_ex.c ****   
 113              		.loc 1 106 3 view .LVU24
 109:Libraries/STM32F4xx_HAL_Driver/Src/stm32f4xx_hal_dma_ex.c ****   {
 114              		.loc 1 109 3 view .LVU25
 109:Libraries/STM32F4xx_HAL_Driver/Src/stm32f4xx_hal_dma_ex.c ****   {
 115              		.loc 1 109 17 is_stmt 0 view .LVU26
 116 0004 8068     		ldr	r0, [r0, #8]
 117              	.LVL7:
 109:Libraries/STM32F4xx_HAL_Driver/Src/stm32f4xx_hal_dma_ex.c ****   {
 118              		.loc 1 109 6 view .LVU27
 119 0006 8028     		cmp	r0, #128
 120 0008 0DD0     		beq	.L12
 117:Libraries/STM32F4xx_HAL_Driver/Src/stm32f4xx_hal_dma_ex.c ****     
 121              		.loc 1 117 5 is_stmt 1 view .LVU28
 117:Libraries/STM32F4xx_HAL_Driver/Src/stm32f4xx_hal_dma_ex.c ****     
 122              		.loc 1 117 5 view .LVU29
 123 000a 94F83400 		ldrb	r0, [r4, #52]	@ zero_extendqisi2
 124 000e 0128     		cmp	r0, #1
 125 0010 23D0     		beq	.L9
 117:Libraries/STM32F4xx_HAL_Driver/Src/stm32f4xx_hal_dma_ex.c ****     
 126              		.loc 1 117 5 discriminator 2 view .LVU30
 127 0012 0120     		movs	r0, #1
 128 0014 84F83400 		strb	r0, [r4, #52]
 117:Libraries/STM32F4xx_HAL_Driver/Src/stm32f4xx_hal_dma_ex.c ****     
 129              		.loc 1 117 5 discriminator 2 view .LVU31
 119:Libraries/STM32F4xx_HAL_Driver/Src/stm32f4xx_hal_dma_ex.c ****     {
 130              		.loc 1 119 5 discriminator 2 view .LVU32
 119:Libraries/STM32F4xx_HAL_Driver/Src/stm32f4xx_hal_dma_ex.c ****     {
 131              		.loc 1 119 35 is_stmt 0 discriminator 2 view .LVU33
 132 0018 94F83500 		ldrb	r0, [r4, #53]	@ zero_extendqisi2
 133 001c C0B2     		uxtb	r0, r0
 119:Libraries/STM32F4xx_HAL_Driver/Src/stm32f4xx_hal_dma_ex.c ****     {
 134              		.loc 1 119 7 discriminator 2 view .LVU34
 135 001e 0128     		cmp	r0, #1
 136 0020 06D0     		beq	.L13
 139:Libraries/STM32F4xx_HAL_Driver/Src/stm32f4xx_hal_dma_ex.c ****     }
 137              		.loc 1 139 14 view .LVU35
 138 0022 0220     		movs	r0, #2
ARM GAS  C:\Users\yzy\AppData\Local\Temp\ccHYomBP.s 			page 9


 139              	.LVL8:
 140              	.L8:
 143:Libraries/STM32F4xx_HAL_Driver/Src/stm32f4xx_hal_dma_ex.c **** 
 141              		.loc 1 143 1 view .LVU36
 142 0024 38BD     		pop	{r3, r4, r5, pc}
 143              	.LVL9:
 144              	.L12:
 111:Libraries/STM32F4xx_HAL_Driver/Src/stm32f4xx_hal_dma_ex.c ****     status = HAL_ERROR;
 145              		.loc 1 111 5 is_stmt 1 view .LVU37
 111:Libraries/STM32F4xx_HAL_Driver/Src/stm32f4xx_hal_dma_ex.c ****     status = HAL_ERROR;
 146              		.loc 1 111 21 is_stmt 0 view .LVU38
 147 0026 4FF48073 		mov	r3, #256
 148              	.LVL10:
 111:Libraries/STM32F4xx_HAL_Driver/Src/stm32f4xx_hal_dma_ex.c ****     status = HAL_ERROR;
 149              		.loc 1 111 21 view .LVU39
 150 002a 6365     		str	r3, [r4, #84]
 112:Libraries/STM32F4xx_HAL_Driver/Src/stm32f4xx_hal_dma_ex.c ****   }
 151              		.loc 1 112 5 is_stmt 1 view .LVU40
 152              	.LVL11:
 112:Libraries/STM32F4xx_HAL_Driver/Src/stm32f4xx_hal_dma_ex.c ****   }
 153              		.loc 1 112 12 is_stmt 0 view .LVU41
 154 002c 0120     		movs	r0, #1
 155 002e F9E7     		b	.L8
 156              	.LVL12:
 157              	.L13:
 122:Libraries/STM32F4xx_HAL_Driver/Src/stm32f4xx_hal_dma_ex.c ****       
 158              		.loc 1 122 7 is_stmt 1 view .LVU42
 122:Libraries/STM32F4xx_HAL_Driver/Src/stm32f4xx_hal_dma_ex.c ****       
 159              		.loc 1 122 19 is_stmt 0 view .LVU43
 160 0030 0220     		movs	r0, #2
 161 0032 84F83500 		strb	r0, [r4, #53]
 125:Libraries/STM32F4xx_HAL_Driver/Src/stm32f4xx_hal_dma_ex.c ****       
 162              		.loc 1 125 7 is_stmt 1 view .LVU44
 125:Libraries/STM32F4xx_HAL_Driver/Src/stm32f4xx_hal_dma_ex.c ****       
 163              		.loc 1 125 11 is_stmt 0 view .LVU45
 164 0036 2568     		ldr	r5, [r4]
 125:Libraries/STM32F4xx_HAL_Driver/Src/stm32f4xx_hal_dma_ex.c ****       
 165              		.loc 1 125 26 view .LVU46
 166 0038 2868     		ldr	r0, [r5]
 167 003a 40F48020 		orr	r0, r0, #262144
 168 003e 2860     		str	r0, [r5]
 128:Libraries/STM32F4xx_HAL_Driver/Src/stm32f4xx_hal_dma_ex.c ****       
 169              		.loc 1 128 7 is_stmt 1 view .LVU47
 128:Libraries/STM32F4xx_HAL_Driver/Src/stm32f4xx_hal_dma_ex.c ****       
 170              		.loc 1 128 11 is_stmt 0 view .LVU48
 171 0040 2068     		ldr	r0, [r4]
 128:Libraries/STM32F4xx_HAL_Driver/Src/stm32f4xx_hal_dma_ex.c ****       
 172              		.loc 1 128 28 view .LVU49
 173 0042 0361     		str	r3, [r0, #16]
 131:Libraries/STM32F4xx_HAL_Driver/Src/stm32f4xx_hal_dma_ex.c ****       
 174              		.loc 1 131 7 is_stmt 1 view .LVU50
 175 0044 049B     		ldr	r3, [sp, #16]
 176              	.LVL13:
 131:Libraries/STM32F4xx_HAL_Driver/Src/stm32f4xx_hal_dma_ex.c ****       
 177              		.loc 1 131 7 is_stmt 0 view .LVU51
 178 0046 2046     		mov	r0, r4
 179              	.LVL14:
ARM GAS  C:\Users\yzy\AppData\Local\Temp\ccHYomBP.s 			page 10


 131:Libraries/STM32F4xx_HAL_Driver/Src/stm32f4xx_hal_dma_ex.c ****       
 180              		.loc 1 131 7 view .LVU52
 181 0048 FFF7FEFF 		bl	DMA_MultiBufferSetConfig
 182              	.LVL15:
 134:Libraries/STM32F4xx_HAL_Driver/Src/stm32f4xx_hal_dma_ex.c ****     }
 183              		.loc 1 134 7 is_stmt 1 view .LVU53
 184 004c 2268     		ldr	r2, [r4]
 185 004e 1368     		ldr	r3, [r2]
 186 0050 43F00103 		orr	r3, r3, #1
 187 0054 1360     		str	r3, [r2]
 103:Libraries/STM32F4xx_HAL_Driver/Src/stm32f4xx_hal_dma_ex.c ****   
 188              		.loc 1 103 21 is_stmt 0 view .LVU54
 189 0056 0020     		movs	r0, #0
 190 0058 E4E7     		b	.L8
 191              	.LVL16:
 192              	.L9:
 117:Libraries/STM32F4xx_HAL_Driver/Src/stm32f4xx_hal_dma_ex.c ****     
 193              		.loc 1 117 5 view .LVU55
 194 005a 0220     		movs	r0, #2
 195 005c E2E7     		b	.L8
 196              		.cfi_endproc
 197              	.LFE130:
 199              		.section	.text.HAL_DMAEx_MultiBufferStart_IT,"ax",%progbits
 200              		.align	1
 201              		.global	HAL_DMAEx_MultiBufferStart_IT
 202              		.syntax unified
 203              		.thumb
 204              		.thumb_func
 205              		.fpu softvfp
 207              	HAL_DMAEx_MultiBufferStart_IT:
 208              	.LVL17:
 209              	.LFB131:
 156:Libraries/STM32F4xx_HAL_Driver/Src/stm32f4xx_hal_dma_ex.c ****   HAL_StatusTypeDef status = HAL_OK;
 210              		.loc 1 156 1 is_stmt 1 view -0
 211              		.cfi_startproc
 212              		@ args = 4, pretend = 0, frame = 0
 213              		@ frame_needed = 0, uses_anonymous_args = 0
 156:Libraries/STM32F4xx_HAL_Driver/Src/stm32f4xx_hal_dma_ex.c ****   HAL_StatusTypeDef status = HAL_OK;
 214              		.loc 1 156 1 is_stmt 0 view .LVU57
 215 0000 38B5     		push	{r3, r4, r5, lr}
 216              	.LCFI4:
 217              		.cfi_def_cfa_offset 16
 218              		.cfi_offset 3, -16
 219              		.cfi_offset 4, -12
 220              		.cfi_offset 5, -8
 221              		.cfi_offset 14, -4
 222 0002 0446     		mov	r4, r0
 157:Libraries/STM32F4xx_HAL_Driver/Src/stm32f4xx_hal_dma_ex.c ****   
 223              		.loc 1 157 3 is_stmt 1 view .LVU58
 224              	.LVL18:
 160:Libraries/STM32F4xx_HAL_Driver/Src/stm32f4xx_hal_dma_ex.c ****   
 225              		.loc 1 160 3 view .LVU59
 163:Libraries/STM32F4xx_HAL_Driver/Src/stm32f4xx_hal_dma_ex.c ****   {
 226              		.loc 1 163 3 view .LVU60
 163:Libraries/STM32F4xx_HAL_Driver/Src/stm32f4xx_hal_dma_ex.c ****   {
 227              		.loc 1 163 17 is_stmt 0 view .LVU61
 228 0004 8068     		ldr	r0, [r0, #8]
ARM GAS  C:\Users\yzy\AppData\Local\Temp\ccHYomBP.s 			page 11


 229              	.LVL19:
 163:Libraries/STM32F4xx_HAL_Driver/Src/stm32f4xx_hal_dma_ex.c ****   {
 230              		.loc 1 163 6 view .LVU62
 231 0006 8028     		cmp	r0, #128
 232 0008 17D0     		beq	.L304
 170:Libraries/STM32F4xx_HAL_Driver/Src/stm32f4xx_hal_dma_ex.c ****   {
 233              		.loc 1 170 3 is_stmt 1 view .LVU63
 170:Libraries/STM32F4xx_HAL_Driver/Src/stm32f4xx_hal_dma_ex.c ****   {
 234              		.loc 1 170 20 is_stmt 0 view .LVU64
 235 000a E06B     		ldr	r0, [r4, #60]
 170:Libraries/STM32F4xx_HAL_Driver/Src/stm32f4xx_hal_dma_ex.c ****   {
 236              		.loc 1 170 6 view .LVU65
 237 000c D0B1     		cbz	r0, .L17
 170:Libraries/STM32F4xx_HAL_Driver/Src/stm32f4xx_hal_dma_ex.c ****   {
 238              		.loc 1 170 56 discriminator 1 view .LVU66
 239 000e 606C     		ldr	r0, [r4, #68]
 170:Libraries/STM32F4xx_HAL_Driver/Src/stm32f4xx_hal_dma_ex.c ****   {
 240              		.loc 1 170 40 discriminator 1 view .LVU67
 241 0010 C0B1     		cbz	r0, .L17
 170:Libraries/STM32F4xx_HAL_Driver/Src/stm32f4xx_hal_dma_ex.c ****   {
 242              		.loc 1 170 94 discriminator 2 view .LVU68
 243 0012 E06C     		ldr	r0, [r4, #76]
 170:Libraries/STM32F4xx_HAL_Driver/Src/stm32f4xx_hal_dma_ex.c ****   {
 244              		.loc 1 170 78 discriminator 2 view .LVU69
 245 0014 B0B1     		cbz	r0, .L17
 177:Libraries/STM32F4xx_HAL_Driver/Src/stm32f4xx_hal_dma_ex.c ****   
 246              		.loc 1 177 3 is_stmt 1 view .LVU70
 177:Libraries/STM32F4xx_HAL_Driver/Src/stm32f4xx_hal_dma_ex.c ****   
 247              		.loc 1 177 3 view .LVU71
 248 0016 94F83400 		ldrb	r0, [r4, #52]	@ zero_extendqisi2
 249 001a 0128     		cmp	r0, #1
 250 001c 00F06087 		beq	.L62
 177:Libraries/STM32F4xx_HAL_Driver/Src/stm32f4xx_hal_dma_ex.c ****   
 251              		.loc 1 177 3 discriminator 2 view .LVU72
 252 0020 0120     		movs	r0, #1
 253 0022 84F83400 		strb	r0, [r4, #52]
 177:Libraries/STM32F4xx_HAL_Driver/Src/stm32f4xx_hal_dma_ex.c ****   
 254              		.loc 1 177 3 discriminator 2 view .LVU73
 179:Libraries/STM32F4xx_HAL_Driver/Src/stm32f4xx_hal_dma_ex.c ****   {
 255              		.loc 1 179 3 discriminator 2 view .LVU74
 179:Libraries/STM32F4xx_HAL_Driver/Src/stm32f4xx_hal_dma_ex.c ****   {
 256              		.loc 1 179 33 is_stmt 0 discriminator 2 view .LVU75
 257 0026 94F83500 		ldrb	r0, [r4, #53]	@ zero_extendqisi2
 258 002a C0B2     		uxtb	r0, r0
 179:Libraries/STM32F4xx_HAL_Driver/Src/stm32f4xx_hal_dma_ex.c ****   {
 259              		.loc 1 179 5 discriminator 2 view .LVU76
 260 002c 0128     		cmp	r0, #1
 261 002e 0DD0     		beq	.L305
 218:Libraries/STM32F4xx_HAL_Driver/Src/stm32f4xx_hal_dma_ex.c ****     
 262              		.loc 1 218 5 is_stmt 1 view .LVU77
 218:Libraries/STM32F4xx_HAL_Driver/Src/stm32f4xx_hal_dma_ex.c ****     
 263              		.loc 1 218 5 view .LVU78
 264 0030 0023     		movs	r3, #0
 265              	.LVL20:
 218:Libraries/STM32F4xx_HAL_Driver/Src/stm32f4xx_hal_dma_ex.c ****     
 266              		.loc 1 218 5 is_stmt 0 view .LVU79
 267 0032 84F83430 		strb	r3, [r4, #52]
ARM GAS  C:\Users\yzy\AppData\Local\Temp\ccHYomBP.s 			page 12


 218:Libraries/STM32F4xx_HAL_Driver/Src/stm32f4xx_hal_dma_ex.c ****     
 268              		.loc 1 218 5 is_stmt 1 view .LVU80
 221:Libraries/STM32F4xx_HAL_Driver/Src/stm32f4xx_hal_dma_ex.c ****   }  
 269              		.loc 1 221 5 view .LVU81
 270              	.LVL21:
 221:Libraries/STM32F4xx_HAL_Driver/Src/stm32f4xx_hal_dma_ex.c ****   }  
 271              		.loc 1 221 12 is_stmt 0 view .LVU82
 272 0036 0220     		movs	r0, #2
 273 0038 07E0     		b	.L16
 274              	.LVL22:
 275              	.L304:
 165:Libraries/STM32F4xx_HAL_Driver/Src/stm32f4xx_hal_dma_ex.c ****     return HAL_ERROR;
 276              		.loc 1 165 5 is_stmt 1 view .LVU83
 165:Libraries/STM32F4xx_HAL_Driver/Src/stm32f4xx_hal_dma_ex.c ****     return HAL_ERROR;
 277              		.loc 1 165 21 is_stmt 0 view .LVU84
 278 003a 4FF48073 		mov	r3, #256
 279              	.LVL23:
 165:Libraries/STM32F4xx_HAL_Driver/Src/stm32f4xx_hal_dma_ex.c ****     return HAL_ERROR;
 280              		.loc 1 165 21 view .LVU85
 281 003e 6365     		str	r3, [r4, #84]
 166:Libraries/STM32F4xx_HAL_Driver/Src/stm32f4xx_hal_dma_ex.c ****   }
 282              		.loc 1 166 5 is_stmt 1 view .LVU86
 166:Libraries/STM32F4xx_HAL_Driver/Src/stm32f4xx_hal_dma_ex.c ****   }
 283              		.loc 1 166 12 is_stmt 0 view .LVU87
 284 0040 0120     		movs	r0, #1
 285 0042 02E0     		b	.L16
 286              	.LVL24:
 287              	.L17:
 172:Libraries/STM32F4xx_HAL_Driver/Src/stm32f4xx_hal_dma_ex.c ****     return HAL_ERROR;
 288              		.loc 1 172 5 is_stmt 1 view .LVU88
 172:Libraries/STM32F4xx_HAL_Driver/Src/stm32f4xx_hal_dma_ex.c ****     return HAL_ERROR;
 289              		.loc 1 172 21 is_stmt 0 view .LVU89
 290 0044 4023     		movs	r3, #64
 291              	.LVL25:
 172:Libraries/STM32F4xx_HAL_Driver/Src/stm32f4xx_hal_dma_ex.c ****     return HAL_ERROR;
 292              		.loc 1 172 21 view .LVU90
 293 0046 6365     		str	r3, [r4, #84]
 173:Libraries/STM32F4xx_HAL_Driver/Src/stm32f4xx_hal_dma_ex.c ****   }
 294              		.loc 1 173 5 is_stmt 1 view .LVU91
 173:Libraries/STM32F4xx_HAL_Driver/Src/stm32f4xx_hal_dma_ex.c ****   }
 295              		.loc 1 173 12 is_stmt 0 view .LVU92
 296 0048 0120     		movs	r0, #1
 297              	.LVL26:
 298              	.L16:
 224:Libraries/STM32F4xx_HAL_Driver/Src/stm32f4xx_hal_dma_ex.c **** 
 299              		.loc 1 224 1 view .LVU93
 300 004a 38BD     		pop	{r3, r4, r5, pc}
 301              	.LVL27:
 302              	.L305:
 182:Libraries/STM32F4xx_HAL_Driver/Src/stm32f4xx_hal_dma_ex.c ****     
 303              		.loc 1 182 5 is_stmt 1 view .LVU94
 182:Libraries/STM32F4xx_HAL_Driver/Src/stm32f4xx_hal_dma_ex.c ****     
 304              		.loc 1 182 17 is_stmt 0 view .LVU95
 305 004c 0220     		movs	r0, #2
 306 004e 84F83500 		strb	r0, [r4, #53]
 185:Libraries/STM32F4xx_HAL_Driver/Src/stm32f4xx_hal_dma_ex.c ****     
 307              		.loc 1 185 5 is_stmt 1 view .LVU96
ARM GAS  C:\Users\yzy\AppData\Local\Temp\ccHYomBP.s 			page 13


 185:Libraries/STM32F4xx_HAL_Driver/Src/stm32f4xx_hal_dma_ex.c ****     
 308              		.loc 1 185 21 is_stmt 0 view .LVU97
 309 0052 0020     		movs	r0, #0
 310 0054 6065     		str	r0, [r4, #84]
 188:Libraries/STM32F4xx_HAL_Driver/Src/stm32f4xx_hal_dma_ex.c ****     
 311              		.loc 1 188 5 is_stmt 1 view .LVU98
 188:Libraries/STM32F4xx_HAL_Driver/Src/stm32f4xx_hal_dma_ex.c ****     
 312              		.loc 1 188 9 is_stmt 0 view .LVU99
 313 0056 2568     		ldr	r5, [r4]
 188:Libraries/STM32F4xx_HAL_Driver/Src/stm32f4xx_hal_dma_ex.c ****     
 314              		.loc 1 188 24 view .LVU100
 315 0058 2868     		ldr	r0, [r5]
 316 005a 40F48020 		orr	r0, r0, #262144
 317 005e 2860     		str	r0, [r5]
 191:Libraries/STM32F4xx_HAL_Driver/Src/stm32f4xx_hal_dma_ex.c ****     
 318              		.loc 1 191 5 is_stmt 1 view .LVU101
 191:Libraries/STM32F4xx_HAL_Driver/Src/stm32f4xx_hal_dma_ex.c ****     
 319              		.loc 1 191 9 is_stmt 0 view .LVU102
 320 0060 2068     		ldr	r0, [r4]
 191:Libraries/STM32F4xx_HAL_Driver/Src/stm32f4xx_hal_dma_ex.c ****     
 321              		.loc 1 191 26 view .LVU103
 322 0062 0361     		str	r3, [r0, #16]
 194:Libraries/STM32F4xx_HAL_Driver/Src/stm32f4xx_hal_dma_ex.c ****     
 323              		.loc 1 194 5 is_stmt 1 view .LVU104
 324 0064 049B     		ldr	r3, [sp, #16]
 325              	.LVL28:
 194:Libraries/STM32F4xx_HAL_Driver/Src/stm32f4xx_hal_dma_ex.c ****     
 326              		.loc 1 194 5 is_stmt 0 view .LVU105
 327 0066 2046     		mov	r0, r4
 328              	.LVL29:
 194:Libraries/STM32F4xx_HAL_Driver/Src/stm32f4xx_hal_dma_ex.c ****     
 329              		.loc 1 194 5 view .LVU106
 330 0068 FFF7FEFF 		bl	DMA_MultiBufferSetConfig
 331              	.LVL30:
 197:Libraries/STM32F4xx_HAL_Driver/Src/stm32f4xx_hal_dma_ex.c ****     __HAL_DMA_CLEAR_FLAG (hdma, __HAL_DMA_GET_HT_FLAG_INDEX(hdma));
 332              		.loc 1 197 5 is_stmt 1 view .LVU107
 333 006c 2368     		ldr	r3, [r4]
 334 006e C64A     		ldr	r2, .L327
 335 0070 9342     		cmp	r3, r2
 336 0072 40F29880 		bls	.L20
 197:Libraries/STM32F4xx_HAL_Driver/Src/stm32f4xx_hal_dma_ex.c ****     __HAL_DMA_CLEAR_FLAG (hdma, __HAL_DMA_GET_HT_FLAG_INDEX(hdma));
 337              		.loc 1 197 5 is_stmt 0 discriminator 1 view .LVU108
 338 0076 A2F58962 		sub	r2, r2, #1096
 339 007a 9342     		cmp	r3, r2
 340 007c 31D0     		beq	.L63
 197:Libraries/STM32F4xx_HAL_Driver/Src/stm32f4xx_hal_dma_ex.c ****     __HAL_DMA_CLEAR_FLAG (hdma, __HAL_DMA_GET_HT_FLAG_INDEX(hdma));
 341              		.loc 1 197 5 discriminator 3 view .LVU109
 342 007e 02F58062 		add	r2, r2, #1024
 343 0082 9342     		cmp	r3, r2
 344 0084 74D0     		beq	.L64
 197:Libraries/STM32F4xx_HAL_Driver/Src/stm32f4xx_hal_dma_ex.c ****     __HAL_DMA_CLEAR_FLAG (hdma, __HAL_DMA_GET_HT_FLAG_INDEX(hdma));
 345              		.loc 1 197 5 discriminator 5 view .LVU110
 346 0086 A2F56872 		sub	r2, r2, #928
 347 008a 9342     		cmp	r3, r2
 348 008c 72D0     		beq	.L65
 197:Libraries/STM32F4xx_HAL_Driver/Src/stm32f4xx_hal_dma_ex.c ****     __HAL_DMA_CLEAR_FLAG (hdma, __HAL_DMA_GET_HT_FLAG_INDEX(hdma));
 349              		.loc 1 197 5 discriminator 7 view .LVU111
ARM GAS  C:\Users\yzy\AppData\Local\Temp\ccHYomBP.s 			page 14


 350 008e 02F58062 		add	r2, r2, #1024
 351 0092 9342     		cmp	r3, r2
 352 0094 70D0     		beq	.L66
 197:Libraries/STM32F4xx_HAL_Driver/Src/stm32f4xx_hal_dma_ex.c ****     __HAL_DMA_CLEAR_FLAG (hdma, __HAL_DMA_GET_HT_FLAG_INDEX(hdma));
 353              		.loc 1 197 5 discriminator 9 view .LVU112
 354 0096 A2F58962 		sub	r2, r2, #1096
 355 009a 9342     		cmp	r3, r2
 356 009c 6ED0     		beq	.L67
 197:Libraries/STM32F4xx_HAL_Driver/Src/stm32f4xx_hal_dma_ex.c ****     __HAL_DMA_CLEAR_FLAG (hdma, __HAL_DMA_GET_HT_FLAG_INDEX(hdma));
 357              		.loc 1 197 5 discriminator 11 view .LVU113
 358 009e 02F58062 		add	r2, r2, #1024
 359 00a2 9342     		cmp	r3, r2
 360 00a4 6DD0     		beq	.L68
 197:Libraries/STM32F4xx_HAL_Driver/Src/stm32f4xx_hal_dma_ex.c ****     __HAL_DMA_CLEAR_FLAG (hdma, __HAL_DMA_GET_HT_FLAG_INDEX(hdma));
 361              		.loc 1 197 5 discriminator 13 view .LVU114
 362 00a6 A2F56872 		sub	r2, r2, #928
 363 00aa 9342     		cmp	r3, r2
 364 00ac 6CD0     		beq	.L69
 197:Libraries/STM32F4xx_HAL_Driver/Src/stm32f4xx_hal_dma_ex.c ****     __HAL_DMA_CLEAR_FLAG (hdma, __HAL_DMA_GET_HT_FLAG_INDEX(hdma));
 365              		.loc 1 197 5 discriminator 15 view .LVU115
 366 00ae 02F58062 		add	r2, r2, #1024
 367 00b2 9342     		cmp	r3, r2
 368 00b4 6BD0     		beq	.L70
 197:Libraries/STM32F4xx_HAL_Driver/Src/stm32f4xx_hal_dma_ex.c ****     __HAL_DMA_CLEAR_FLAG (hdma, __HAL_DMA_GET_HT_FLAG_INDEX(hdma));
 369              		.loc 1 197 5 discriminator 17 view .LVU116
 370 00b6 A2F58962 		sub	r2, r2, #1096
 371 00ba 9342     		cmp	r3, r2
 372 00bc 6AD0     		beq	.L71
 197:Libraries/STM32F4xx_HAL_Driver/Src/stm32f4xx_hal_dma_ex.c ****     __HAL_DMA_CLEAR_FLAG (hdma, __HAL_DMA_GET_HT_FLAG_INDEX(hdma));
 373              		.loc 1 197 5 discriminator 19 view .LVU117
 374 00be 02F58062 		add	r2, r2, #1024
 375 00c2 9342     		cmp	r3, r2
 376 00c4 69D0     		beq	.L72
 197:Libraries/STM32F4xx_HAL_Driver/Src/stm32f4xx_hal_dma_ex.c ****     __HAL_DMA_CLEAR_FLAG (hdma, __HAL_DMA_GET_HT_FLAG_INDEX(hdma));
 377              		.loc 1 197 5 discriminator 21 view .LVU118
 378 00c6 A2F56872 		sub	r2, r2, #928
 379 00ca 9342     		cmp	r3, r2
 380 00cc 68D0     		beq	.L73
 197:Libraries/STM32F4xx_HAL_Driver/Src/stm32f4xx_hal_dma_ex.c ****     __HAL_DMA_CLEAR_FLAG (hdma, __HAL_DMA_GET_HT_FLAG_INDEX(hdma));
 381              		.loc 1 197 5 discriminator 23 view .LVU119
 382 00ce 02F58062 		add	r2, r2, #1024
 383 00d2 9342     		cmp	r3, r2
 384 00d4 02D0     		beq	.L306
 197:Libraries/STM32F4xx_HAL_Driver/Src/stm32f4xx_hal_dma_ex.c ****     __HAL_DMA_CLEAR_FLAG (hdma, __HAL_DMA_GET_HT_FLAG_INDEX(hdma));
 385              		.loc 1 197 5 view .LVU120
 386 00d6 4FF00062 		mov	r2, #134217728
 387 00da 03E0     		b	.L21
 388              	.L306:
 389 00dc 4FF40012 		mov	r2, #2097152
 390 00e0 00E0     		b	.L21
 391              	.L63:
 392 00e2 2022     		movs	r2, #32
 393              	.L21:
 197:Libraries/STM32F4xx_HAL_Driver/Src/stm32f4xx_hal_dma_ex.c ****     __HAL_DMA_CLEAR_FLAG (hdma, __HAL_DMA_GET_HT_FLAG_INDEX(hdma));
 394              		.loc 1 197 5 discriminator 50 view .LVU121
 395 00e4 A94B     		ldr	r3, .L327+4
 396 00e6 DA60     		str	r2, [r3, #12]
ARM GAS  C:\Users\yzy\AppData\Local\Temp\ccHYomBP.s 			page 15


 397              	.LVL31:
 398              	.L22:
 198:Libraries/STM32F4xx_HAL_Driver/Src/stm32f4xx_hal_dma_ex.c ****     __HAL_DMA_CLEAR_FLAG (hdma, __HAL_DMA_GET_TE_FLAG_INDEX(hdma));
 399              		.loc 1 198 5 is_stmt 1 view .LVU122
 400 00e8 2368     		ldr	r3, [r4]
 401 00ea A74A     		ldr	r2, .L327
 402 00ec 9342     		cmp	r3, r2
 403 00ee 40F2CE81 		bls	.L28
 198:Libraries/STM32F4xx_HAL_Driver/Src/stm32f4xx_hal_dma_ex.c ****     __HAL_DMA_CLEAR_FLAG (hdma, __HAL_DMA_GET_TE_FLAG_INDEX(hdma));
 404              		.loc 1 198 5 is_stmt 0 discriminator 1 view .LVU123
 405 00f2 A2F58962 		sub	r2, r2, #1096
 406 00f6 9342     		cmp	r3, r2
 407 00f8 00F06781 		beq	.L111
 198:Libraries/STM32F4xx_HAL_Driver/Src/stm32f4xx_hal_dma_ex.c ****     __HAL_DMA_CLEAR_FLAG (hdma, __HAL_DMA_GET_TE_FLAG_INDEX(hdma));
 408              		.loc 1 198 5 discriminator 3 view .LVU124
 409 00fc 02F58062 		add	r2, r2, #1024
 410 0100 9342     		cmp	r3, r2
 411 0102 00F0A981 		beq	.L112
 198:Libraries/STM32F4xx_HAL_Driver/Src/stm32f4xx_hal_dma_ex.c ****     __HAL_DMA_CLEAR_FLAG (hdma, __HAL_DMA_GET_TE_FLAG_INDEX(hdma));
 412              		.loc 1 198 5 discriminator 5 view .LVU125
 413 0106 A2F56872 		sub	r2, r2, #928
 414 010a 9342     		cmp	r3, r2
 415 010c 00F0A681 		beq	.L113
 198:Libraries/STM32F4xx_HAL_Driver/Src/stm32f4xx_hal_dma_ex.c ****     __HAL_DMA_CLEAR_FLAG (hdma, __HAL_DMA_GET_TE_FLAG_INDEX(hdma));
 416              		.loc 1 198 5 discriminator 7 view .LVU126
 417 0110 02F58062 		add	r2, r2, #1024
 418 0114 9342     		cmp	r3, r2
 419 0116 00F0A381 		beq	.L114
 198:Libraries/STM32F4xx_HAL_Driver/Src/stm32f4xx_hal_dma_ex.c ****     __HAL_DMA_CLEAR_FLAG (hdma, __HAL_DMA_GET_TE_FLAG_INDEX(hdma));
 420              		.loc 1 198 5 discriminator 9 view .LVU127
 421 011a A2F58962 		sub	r2, r2, #1096
 422 011e 9342     		cmp	r3, r2
 423 0120 00F0A081 		beq	.L115
 198:Libraries/STM32F4xx_HAL_Driver/Src/stm32f4xx_hal_dma_ex.c ****     __HAL_DMA_CLEAR_FLAG (hdma, __HAL_DMA_GET_TE_FLAG_INDEX(hdma));
 424              		.loc 1 198 5 discriminator 11 view .LVU128
 425 0124 02F58062 		add	r2, r2, #1024
 426 0128 9342     		cmp	r3, r2
 427 012a 00F09E81 		beq	.L116
 198:Libraries/STM32F4xx_HAL_Driver/Src/stm32f4xx_hal_dma_ex.c ****     __HAL_DMA_CLEAR_FLAG (hdma, __HAL_DMA_GET_TE_FLAG_INDEX(hdma));
 428              		.loc 1 198 5 discriminator 13 view .LVU129
 429 012e A2F56872 		sub	r2, r2, #928
 430 0132 9342     		cmp	r3, r2
 431 0134 00F09C81 		beq	.L117
 198:Libraries/STM32F4xx_HAL_Driver/Src/stm32f4xx_hal_dma_ex.c ****     __HAL_DMA_CLEAR_FLAG (hdma, __HAL_DMA_GET_TE_FLAG_INDEX(hdma));
 432              		.loc 1 198 5 discriminator 15 view .LVU130
 433 0138 02F58062 		add	r2, r2, #1024
 434 013c 9342     		cmp	r3, r2
 435 013e 00F09A81 		beq	.L118
 198:Libraries/STM32F4xx_HAL_Driver/Src/stm32f4xx_hal_dma_ex.c ****     __HAL_DMA_CLEAR_FLAG (hdma, __HAL_DMA_GET_TE_FLAG_INDEX(hdma));
 436              		.loc 1 198 5 discriminator 17 view .LVU131
 437 0142 A2F58962 		sub	r2, r2, #1096
 438 0146 9342     		cmp	r3, r2
 439 0148 00F09881 		beq	.L119
 198:Libraries/STM32F4xx_HAL_Driver/Src/stm32f4xx_hal_dma_ex.c ****     __HAL_DMA_CLEAR_FLAG (hdma, __HAL_DMA_GET_TE_FLAG_INDEX(hdma));
 440              		.loc 1 198 5 discriminator 19 view .LVU132
 441 014c 02F58062 		add	r2, r2, #1024
 442 0150 9342     		cmp	r3, r2
ARM GAS  C:\Users\yzy\AppData\Local\Temp\ccHYomBP.s 			page 16


 443 0152 00F09681 		beq	.L120
 198:Libraries/STM32F4xx_HAL_Driver/Src/stm32f4xx_hal_dma_ex.c ****     __HAL_DMA_CLEAR_FLAG (hdma, __HAL_DMA_GET_TE_FLAG_INDEX(hdma));
 444              		.loc 1 198 5 discriminator 21 view .LVU133
 445 0156 A2F56872 		sub	r2, r2, #928
 446 015a 9342     		cmp	r3, r2
 447 015c 00F09481 		beq	.L121
 198:Libraries/STM32F4xx_HAL_Driver/Src/stm32f4xx_hal_dma_ex.c ****     __HAL_DMA_CLEAR_FLAG (hdma, __HAL_DMA_GET_TE_FLAG_INDEX(hdma));
 448              		.loc 1 198 5 discriminator 23 view .LVU134
 449 0160 02F58062 		add	r2, r2, #1024
 450 0164 9342     		cmp	r3, r2
 451 0166 00F02D81 		beq	.L307
 198:Libraries/STM32F4xx_HAL_Driver/Src/stm32f4xx_hal_dma_ex.c ****     __HAL_DMA_CLEAR_FLAG (hdma, __HAL_DMA_GET_TE_FLAG_INDEX(hdma));
 452              		.loc 1 198 5 view .LVU135
 453 016a 4FF08062 		mov	r2, #67108864
 454 016e 2DE1     		b	.L29
 455              	.LVL32:
 456              	.L64:
 197:Libraries/STM32F4xx_HAL_Driver/Src/stm32f4xx_hal_dma_ex.c ****     __HAL_DMA_CLEAR_FLAG (hdma, __HAL_DMA_GET_HT_FLAG_INDEX(hdma));
 457              		.loc 1 197 5 view .LVU136
 458 0170 2022     		movs	r2, #32
 459 0172 B7E7     		b	.L21
 460              	.L65:
 461 0174 2022     		movs	r2, #32
 462 0176 B5E7     		b	.L21
 463              	.L66:
 464 0178 2022     		movs	r2, #32
 465 017a B3E7     		b	.L21
 466              	.L67:
 467 017c 4FF40062 		mov	r2, #2048
 468 0180 B0E7     		b	.L21
 469              	.L68:
 470 0182 4FF40062 		mov	r2, #2048
 471 0186 ADE7     		b	.L21
 472              	.L69:
 473 0188 4FF40062 		mov	r2, #2048
 474 018c AAE7     		b	.L21
 475              	.L70:
 476 018e 4FF40062 		mov	r2, #2048
 477 0192 A7E7     		b	.L21
 478              	.L71:
 479 0194 4FF40012 		mov	r2, #2097152
 480 0198 A4E7     		b	.L21
 481              	.L72:
 482 019a 4FF40012 		mov	r2, #2097152
 483 019e A1E7     		b	.L21
 484              	.L73:
 485 01a0 4FF40012 		mov	r2, #2097152
 486 01a4 9EE7     		b	.L21
 487              	.L20:
 197:Libraries/STM32F4xx_HAL_Driver/Src/stm32f4xx_hal_dma_ex.c ****     __HAL_DMA_CLEAR_FLAG (hdma, __HAL_DMA_GET_HT_FLAG_INDEX(hdma));
 488              		.loc 1 197 5 discriminator 2 view .LVU137
 489 01a6 7A4A     		ldr	r2, .L327+8
 490 01a8 9342     		cmp	r3, r2
 491 01aa 53D9     		bls	.L23
 197:Libraries/STM32F4xx_HAL_Driver/Src/stm32f4xx_hal_dma_ex.c ****     __HAL_DMA_CLEAR_FLAG (hdma, __HAL_DMA_GET_HT_FLAG_INDEX(hdma));
 492              		.loc 1 197 5 discriminator 51 view .LVU138
 493 01ac A83A     		subs	r2, r2, #168
ARM GAS  C:\Users\yzy\AppData\Local\Temp\ccHYomBP.s 			page 17


 494 01ae 9342     		cmp	r3, r2
 495 01b0 31D0     		beq	.L75
 197:Libraries/STM32F4xx_HAL_Driver/Src/stm32f4xx_hal_dma_ex.c ****     __HAL_DMA_CLEAR_FLAG (hdma, __HAL_DMA_GET_HT_FLAG_INDEX(hdma));
 496              		.loc 1 197 5 discriminator 53 view .LVU139
 497 01b2 02F58062 		add	r2, r2, #1024
 498 01b6 9342     		cmp	r3, r2
 499 01b8 31D0     		beq	.L76
 197:Libraries/STM32F4xx_HAL_Driver/Src/stm32f4xx_hal_dma_ex.c ****     __HAL_DMA_CLEAR_FLAG (hdma, __HAL_DMA_GET_HT_FLAG_INDEX(hdma));
 500              		.loc 1 197 5 discriminator 55 view .LVU140
 501 01ba A2F56872 		sub	r2, r2, #928
 502 01be 9342     		cmp	r3, r2
 503 01c0 2FD0     		beq	.L77
 197:Libraries/STM32F4xx_HAL_Driver/Src/stm32f4xx_hal_dma_ex.c ****     __HAL_DMA_CLEAR_FLAG (hdma, __HAL_DMA_GET_HT_FLAG_INDEX(hdma));
 504              		.loc 1 197 5 discriminator 57 view .LVU141
 505 01c2 02F58062 		add	r2, r2, #1024
 506 01c6 9342     		cmp	r3, r2
 507 01c8 2DD0     		beq	.L78
 197:Libraries/STM32F4xx_HAL_Driver/Src/stm32f4xx_hal_dma_ex.c ****     __HAL_DMA_CLEAR_FLAG (hdma, __HAL_DMA_GET_HT_FLAG_INDEX(hdma));
 508              		.loc 1 197 5 discriminator 59 view .LVU142
 509 01ca A2F58962 		sub	r2, r2, #1096
 510 01ce 9342     		cmp	r3, r2
 511 01d0 2BD0     		beq	.L79
 197:Libraries/STM32F4xx_HAL_Driver/Src/stm32f4xx_hal_dma_ex.c ****     __HAL_DMA_CLEAR_FLAG (hdma, __HAL_DMA_GET_HT_FLAG_INDEX(hdma));
 512              		.loc 1 197 5 discriminator 61 view .LVU143
 513 01d2 02F58062 		add	r2, r2, #1024
 514 01d6 9342     		cmp	r3, r2
 515 01d8 2AD0     		beq	.L80
 197:Libraries/STM32F4xx_HAL_Driver/Src/stm32f4xx_hal_dma_ex.c ****     __HAL_DMA_CLEAR_FLAG (hdma, __HAL_DMA_GET_HT_FLAG_INDEX(hdma));
 516              		.loc 1 197 5 discriminator 63 view .LVU144
 517 01da A2F56872 		sub	r2, r2, #928
 518 01de 9342     		cmp	r3, r2
 519 01e0 29D0     		beq	.L81
 197:Libraries/STM32F4xx_HAL_Driver/Src/stm32f4xx_hal_dma_ex.c ****     __HAL_DMA_CLEAR_FLAG (hdma, __HAL_DMA_GET_HT_FLAG_INDEX(hdma));
 520              		.loc 1 197 5 discriminator 65 view .LVU145
 521 01e2 02F58062 		add	r2, r2, #1024
 522 01e6 9342     		cmp	r3, r2
 523 01e8 28D0     		beq	.L82
 197:Libraries/STM32F4xx_HAL_Driver/Src/stm32f4xx_hal_dma_ex.c ****     __HAL_DMA_CLEAR_FLAG (hdma, __HAL_DMA_GET_HT_FLAG_INDEX(hdma));
 524              		.loc 1 197 5 discriminator 67 view .LVU146
 525 01ea A2F58962 		sub	r2, r2, #1096
 526 01ee 9342     		cmp	r3, r2
 527 01f0 27D0     		beq	.L83
 197:Libraries/STM32F4xx_HAL_Driver/Src/stm32f4xx_hal_dma_ex.c ****     __HAL_DMA_CLEAR_FLAG (hdma, __HAL_DMA_GET_HT_FLAG_INDEX(hdma));
 528              		.loc 1 197 5 discriminator 69 view .LVU147
 529 01f2 02F58062 		add	r2, r2, #1024
 530 01f6 9342     		cmp	r3, r2
 531 01f8 26D0     		beq	.L84
 197:Libraries/STM32F4xx_HAL_Driver/Src/stm32f4xx_hal_dma_ex.c ****     __HAL_DMA_CLEAR_FLAG (hdma, __HAL_DMA_GET_HT_FLAG_INDEX(hdma));
 532              		.loc 1 197 5 discriminator 71 view .LVU148
 533 01fa A2F56872 		sub	r2, r2, #928
 534 01fe 9342     		cmp	r3, r2
 535 0200 25D0     		beq	.L85
 197:Libraries/STM32F4xx_HAL_Driver/Src/stm32f4xx_hal_dma_ex.c ****     __HAL_DMA_CLEAR_FLAG (hdma, __HAL_DMA_GET_HT_FLAG_INDEX(hdma));
 536              		.loc 1 197 5 discriminator 73 view .LVU149
 537 0202 02F58062 		add	r2, r2, #1024
 538 0206 9342     		cmp	r3, r2
 539 0208 02D0     		beq	.L308
ARM GAS  C:\Users\yzy\AppData\Local\Temp\ccHYomBP.s 			page 18


 197:Libraries/STM32F4xx_HAL_Driver/Src/stm32f4xx_hal_dma_ex.c ****     __HAL_DMA_CLEAR_FLAG (hdma, __HAL_DMA_GET_HT_FLAG_INDEX(hdma));
 540              		.loc 1 197 5 view .LVU150
 541 020a 4FF00063 		mov	r3, #134217728
 542 020e 03E0     		b	.L24
 543              	.L308:
 544 0210 4FF40013 		mov	r3, #2097152
 545 0214 00E0     		b	.L24
 546              	.L75:
 547 0216 2023     		movs	r3, #32
 548              	.L24:
 197:Libraries/STM32F4xx_HAL_Driver/Src/stm32f4xx_hal_dma_ex.c ****     __HAL_DMA_CLEAR_FLAG (hdma, __HAL_DMA_GET_HT_FLAG_INDEX(hdma));
 549              		.loc 1 197 5 discriminator 100 view .LVU151
 550 0218 5C4A     		ldr	r2, .L327+4
 551 021a 9360     		str	r3, [r2, #8]
 552              	.LVL33:
 197:Libraries/STM32F4xx_HAL_Driver/Src/stm32f4xx_hal_dma_ex.c ****     __HAL_DMA_CLEAR_FLAG (hdma, __HAL_DMA_GET_HT_FLAG_INDEX(hdma));
 553              		.loc 1 197 5 discriminator 100 view .LVU152
 554 021c 64E7     		b	.L22
 555              	.LVL34:
 556              	.L76:
 197:Libraries/STM32F4xx_HAL_Driver/Src/stm32f4xx_hal_dma_ex.c ****     __HAL_DMA_CLEAR_FLAG (hdma, __HAL_DMA_GET_HT_FLAG_INDEX(hdma));
 557              		.loc 1 197 5 view .LVU153
 558 021e 2023     		movs	r3, #32
 559 0220 FAE7     		b	.L24
 560              	.L77:
 561 0222 2023     		movs	r3, #32
 562 0224 F8E7     		b	.L24
 563              	.L78:
 564 0226 2023     		movs	r3, #32
 565 0228 F6E7     		b	.L24
 566              	.L79:
 567 022a 4FF40063 		mov	r3, #2048
 568 022e F3E7     		b	.L24
 569              	.L80:
 570 0230 4FF40063 		mov	r3, #2048
 571 0234 F0E7     		b	.L24
 572              	.L81:
 573 0236 4FF40063 		mov	r3, #2048
 574 023a EDE7     		b	.L24
 575              	.L82:
 576 023c 4FF40063 		mov	r3, #2048
 577 0240 EAE7     		b	.L24
 578              	.L83:
 579 0242 4FF40013 		mov	r3, #2097152
 580 0246 E7E7     		b	.L24
 581              	.L84:
 582 0248 4FF40013 		mov	r3, #2097152
 583 024c E4E7     		b	.L24
 584              	.L85:
 585 024e 4FF40013 		mov	r3, #2097152
 586 0252 E1E7     		b	.L24
 587              	.L23:
 197:Libraries/STM32F4xx_HAL_Driver/Src/stm32f4xx_hal_dma_ex.c ****     __HAL_DMA_CLEAR_FLAG (hdma, __HAL_DMA_GET_HT_FLAG_INDEX(hdma));
 588              		.loc 1 197 5 discriminator 52 view .LVU154
 589 0254 4F4A     		ldr	r2, .L327+12
 590 0256 9342     		cmp	r3, r2
 591 0258 53D9     		bls	.L25
ARM GAS  C:\Users\yzy\AppData\Local\Temp\ccHYomBP.s 			page 19


 197:Libraries/STM32F4xx_HAL_Driver/Src/stm32f4xx_hal_dma_ex.c ****     __HAL_DMA_CLEAR_FLAG (hdma, __HAL_DMA_GET_HT_FLAG_INDEX(hdma));
 592              		.loc 1 197 5 discriminator 102 view .LVU155
 593 025a 483A     		subs	r2, r2, #72
 594 025c 9342     		cmp	r3, r2
 595 025e 31D0     		beq	.L87
 197:Libraries/STM32F4xx_HAL_Driver/Src/stm32f4xx_hal_dma_ex.c ****     __HAL_DMA_CLEAR_FLAG (hdma, __HAL_DMA_GET_HT_FLAG_INDEX(hdma));
 596              		.loc 1 197 5 discriminator 104 view .LVU156
 597 0260 02F58062 		add	r2, r2, #1024
 598 0264 9342     		cmp	r3, r2
 599 0266 31D0     		beq	.L88
 197:Libraries/STM32F4xx_HAL_Driver/Src/stm32f4xx_hal_dma_ex.c ****     __HAL_DMA_CLEAR_FLAG (hdma, __HAL_DMA_GET_HT_FLAG_INDEX(hdma));
 600              		.loc 1 197 5 discriminator 106 view .LVU157
 601 0268 A2F56872 		sub	r2, r2, #928
 602 026c 9342     		cmp	r3, r2
 603 026e 2FD0     		beq	.L89
 197:Libraries/STM32F4xx_HAL_Driver/Src/stm32f4xx_hal_dma_ex.c ****     __HAL_DMA_CLEAR_FLAG (hdma, __HAL_DMA_GET_HT_FLAG_INDEX(hdma));
 604              		.loc 1 197 5 discriminator 108 view .LVU158
 605 0270 02F58062 		add	r2, r2, #1024
 606 0274 9342     		cmp	r3, r2
 607 0276 2DD0     		beq	.L90
 197:Libraries/STM32F4xx_HAL_Driver/Src/stm32f4xx_hal_dma_ex.c ****     __HAL_DMA_CLEAR_FLAG (hdma, __HAL_DMA_GET_HT_FLAG_INDEX(hdma));
 608              		.loc 1 197 5 discriminator 110 view .LVU159
 609 0278 A2F58962 		sub	r2, r2, #1096
 610 027c 9342     		cmp	r3, r2
 611 027e 2BD0     		beq	.L91
 197:Libraries/STM32F4xx_HAL_Driver/Src/stm32f4xx_hal_dma_ex.c ****     __HAL_DMA_CLEAR_FLAG (hdma, __HAL_DMA_GET_HT_FLAG_INDEX(hdma));
 612              		.loc 1 197 5 discriminator 112 view .LVU160
 613 0280 02F58062 		add	r2, r2, #1024
 614 0284 9342     		cmp	r3, r2
 615 0286 2AD0     		beq	.L92
 197:Libraries/STM32F4xx_HAL_Driver/Src/stm32f4xx_hal_dma_ex.c ****     __HAL_DMA_CLEAR_FLAG (hdma, __HAL_DMA_GET_HT_FLAG_INDEX(hdma));
 616              		.loc 1 197 5 discriminator 114 view .LVU161
 617 0288 A2F56872 		sub	r2, r2, #928
 618 028c 9342     		cmp	r3, r2
 619 028e 29D0     		beq	.L93
 197:Libraries/STM32F4xx_HAL_Driver/Src/stm32f4xx_hal_dma_ex.c ****     __HAL_DMA_CLEAR_FLAG (hdma, __HAL_DMA_GET_HT_FLAG_INDEX(hdma));
 620              		.loc 1 197 5 discriminator 116 view .LVU162
 621 0290 02F58062 		add	r2, r2, #1024
 622 0294 9342     		cmp	r3, r2
 623 0296 28D0     		beq	.L94
 197:Libraries/STM32F4xx_HAL_Driver/Src/stm32f4xx_hal_dma_ex.c ****     __HAL_DMA_CLEAR_FLAG (hdma, __HAL_DMA_GET_HT_FLAG_INDEX(hdma));
 624              		.loc 1 197 5 discriminator 118 view .LVU163
 625 0298 A2F58962 		sub	r2, r2, #1096
 626 029c 9342     		cmp	r3, r2
 627 029e 27D0     		beq	.L95
 197:Libraries/STM32F4xx_HAL_Driver/Src/stm32f4xx_hal_dma_ex.c ****     __HAL_DMA_CLEAR_FLAG (hdma, __HAL_DMA_GET_HT_FLAG_INDEX(hdma));
 628              		.loc 1 197 5 discriminator 120 view .LVU164
 629 02a0 02F58062 		add	r2, r2, #1024
 630 02a4 9342     		cmp	r3, r2
 631 02a6 26D0     		beq	.L96
 197:Libraries/STM32F4xx_HAL_Driver/Src/stm32f4xx_hal_dma_ex.c ****     __HAL_DMA_CLEAR_FLAG (hdma, __HAL_DMA_GET_HT_FLAG_INDEX(hdma));
 632              		.loc 1 197 5 discriminator 122 view .LVU165
 633 02a8 A2F56872 		sub	r2, r2, #928
 634 02ac 9342     		cmp	r3, r2
 635 02ae 25D0     		beq	.L97
 197:Libraries/STM32F4xx_HAL_Driver/Src/stm32f4xx_hal_dma_ex.c ****     __HAL_DMA_CLEAR_FLAG (hdma, __HAL_DMA_GET_HT_FLAG_INDEX(hdma));
 636              		.loc 1 197 5 discriminator 124 view .LVU166
ARM GAS  C:\Users\yzy\AppData\Local\Temp\ccHYomBP.s 			page 20


 637 02b0 02F58062 		add	r2, r2, #1024
 638 02b4 9342     		cmp	r3, r2
 639 02b6 02D0     		beq	.L309
 197:Libraries/STM32F4xx_HAL_Driver/Src/stm32f4xx_hal_dma_ex.c ****     __HAL_DMA_CLEAR_FLAG (hdma, __HAL_DMA_GET_HT_FLAG_INDEX(hdma));
 640              		.loc 1 197 5 view .LVU167
 641 02b8 4FF00063 		mov	r3, #134217728
 642 02bc 03E0     		b	.L26
 643              	.L309:
 644 02be 4FF40013 		mov	r3, #2097152
 645 02c2 00E0     		b	.L26
 646              	.L87:
 647 02c4 2023     		movs	r3, #32
 648              	.L26:
 197:Libraries/STM32F4xx_HAL_Driver/Src/stm32f4xx_hal_dma_ex.c ****     __HAL_DMA_CLEAR_FLAG (hdma, __HAL_DMA_GET_HT_FLAG_INDEX(hdma));
 649              		.loc 1 197 5 discriminator 151 view .LVU168
 650 02c6 344A     		ldr	r2, .L327+16
 651 02c8 D360     		str	r3, [r2, #12]
 652              	.LVL35:
 197:Libraries/STM32F4xx_HAL_Driver/Src/stm32f4xx_hal_dma_ex.c ****     __HAL_DMA_CLEAR_FLAG (hdma, __HAL_DMA_GET_HT_FLAG_INDEX(hdma));
 653              		.loc 1 197 5 discriminator 151 view .LVU169
 654 02ca 0DE7     		b	.L22
 655              	.LVL36:
 656              	.L88:
 197:Libraries/STM32F4xx_HAL_Driver/Src/stm32f4xx_hal_dma_ex.c ****     __HAL_DMA_CLEAR_FLAG (hdma, __HAL_DMA_GET_HT_FLAG_INDEX(hdma));
 657              		.loc 1 197 5 view .LVU170
 658 02cc 2023     		movs	r3, #32
 659 02ce FAE7     		b	.L26
 660              	.L89:
 661 02d0 2023     		movs	r3, #32
 662 02d2 F8E7     		b	.L26
 663              	.L90:
 664 02d4 2023     		movs	r3, #32
 665 02d6 F6E7     		b	.L26
 666              	.L91:
 667 02d8 4FF40063 		mov	r3, #2048
 668 02dc F3E7     		b	.L26
 669              	.L92:
 670 02de 4FF40063 		mov	r3, #2048
 671 02e2 F0E7     		b	.L26
 672              	.L93:
 673 02e4 4FF40063 		mov	r3, #2048
 674 02e8 EDE7     		b	.L26
 675              	.L94:
 676 02ea 4FF40063 		mov	r3, #2048
 677 02ee EAE7     		b	.L26
 678              	.L95:
 679 02f0 4FF40013 		mov	r3, #2097152
 680 02f4 E7E7     		b	.L26
 681              	.L96:
 682 02f6 4FF40013 		mov	r3, #2097152
 683 02fa E4E7     		b	.L26
 684              	.L97:
 685 02fc 4FF40013 		mov	r3, #2097152
 686 0300 E1E7     		b	.L26
 687              	.L25:
 197:Libraries/STM32F4xx_HAL_Driver/Src/stm32f4xx_hal_dma_ex.c ****     __HAL_DMA_CLEAR_FLAG (hdma, __HAL_DMA_GET_HT_FLAG_INDEX(hdma));
 688              		.loc 1 197 5 discriminator 103 view .LVU171
ARM GAS  C:\Users\yzy\AppData\Local\Temp\ccHYomBP.s 			page 21


 689 0302 264A     		ldr	r2, .L327+20
 690 0304 9342     		cmp	r3, r2
 691 0306 31D0     		beq	.L99
 197:Libraries/STM32F4xx_HAL_Driver/Src/stm32f4xx_hal_dma_ex.c ****     __HAL_DMA_CLEAR_FLAG (hdma, __HAL_DMA_GET_HT_FLAG_INDEX(hdma));
 692              		.loc 1 197 5 discriminator 153 view .LVU172
 693 0308 02F58062 		add	r2, r2, #1024
 694 030c 9342     		cmp	r3, r2
 695 030e 31D0     		beq	.L100
 197:Libraries/STM32F4xx_HAL_Driver/Src/stm32f4xx_hal_dma_ex.c ****     __HAL_DMA_CLEAR_FLAG (hdma, __HAL_DMA_GET_HT_FLAG_INDEX(hdma));
 696              		.loc 1 197 5 discriminator 155 view .LVU173
 697 0310 A2F56872 		sub	r2, r2, #928
 698 0314 9342     		cmp	r3, r2
 699 0316 2FD0     		beq	.L101
 197:Libraries/STM32F4xx_HAL_Driver/Src/stm32f4xx_hal_dma_ex.c ****     __HAL_DMA_CLEAR_FLAG (hdma, __HAL_DMA_GET_HT_FLAG_INDEX(hdma));
 700              		.loc 1 197 5 discriminator 157 view .LVU174
 701 0318 02F58062 		add	r2, r2, #1024
 702 031c 9342     		cmp	r3, r2
 703 031e 2DD0     		beq	.L102
 197:Libraries/STM32F4xx_HAL_Driver/Src/stm32f4xx_hal_dma_ex.c ****     __HAL_DMA_CLEAR_FLAG (hdma, __HAL_DMA_GET_HT_FLAG_INDEX(hdma));
 704              		.loc 1 197 5 discriminator 159 view .LVU175
 705 0320 A2F58962 		sub	r2, r2, #1096
 706 0324 9342     		cmp	r3, r2
 707 0326 2BD0     		beq	.L103
 197:Libraries/STM32F4xx_HAL_Driver/Src/stm32f4xx_hal_dma_ex.c ****     __HAL_DMA_CLEAR_FLAG (hdma, __HAL_DMA_GET_HT_FLAG_INDEX(hdma));
 708              		.loc 1 197 5 discriminator 161 view .LVU176
 709 0328 02F58062 		add	r2, r2, #1024
 710 032c 9342     		cmp	r3, r2
 711 032e 37D0     		beq	.L104
 197:Libraries/STM32F4xx_HAL_Driver/Src/stm32f4xx_hal_dma_ex.c ****     __HAL_DMA_CLEAR_FLAG (hdma, __HAL_DMA_GET_HT_FLAG_INDEX(hdma));
 712              		.loc 1 197 5 discriminator 163 view .LVU177
 713 0330 A2F56872 		sub	r2, r2, #928
 714 0334 9342     		cmp	r3, r2
 715 0336 36D0     		beq	.L105
 197:Libraries/STM32F4xx_HAL_Driver/Src/stm32f4xx_hal_dma_ex.c ****     __HAL_DMA_CLEAR_FLAG (hdma, __HAL_DMA_GET_HT_FLAG_INDEX(hdma));
 716              		.loc 1 197 5 discriminator 165 view .LVU178
 717 0338 02F58062 		add	r2, r2, #1024
 718 033c 9342     		cmp	r3, r2
 719 033e 35D0     		beq	.L106
 197:Libraries/STM32F4xx_HAL_Driver/Src/stm32f4xx_hal_dma_ex.c ****     __HAL_DMA_CLEAR_FLAG (hdma, __HAL_DMA_GET_HT_FLAG_INDEX(hdma));
 720              		.loc 1 197 5 discriminator 167 view .LVU179
 721 0340 A2F58962 		sub	r2, r2, #1096
 722 0344 9342     		cmp	r3, r2
 723 0346 34D0     		beq	.L107
 197:Libraries/STM32F4xx_HAL_Driver/Src/stm32f4xx_hal_dma_ex.c ****     __HAL_DMA_CLEAR_FLAG (hdma, __HAL_DMA_GET_HT_FLAG_INDEX(hdma));
 724              		.loc 1 197 5 discriminator 169 view .LVU180
 725 0348 02F58062 		add	r2, r2, #1024
 726 034c 9342     		cmp	r3, r2
 727 034e 33D0     		beq	.L108
 197:Libraries/STM32F4xx_HAL_Driver/Src/stm32f4xx_hal_dma_ex.c ****     __HAL_DMA_CLEAR_FLAG (hdma, __HAL_DMA_GET_HT_FLAG_INDEX(hdma));
 728              		.loc 1 197 5 discriminator 171 view .LVU181
 729 0350 A2F56872 		sub	r2, r2, #928
 730 0354 9342     		cmp	r3, r2
 731 0356 32D0     		beq	.L109
 197:Libraries/STM32F4xx_HAL_Driver/Src/stm32f4xx_hal_dma_ex.c ****     __HAL_DMA_CLEAR_FLAG (hdma, __HAL_DMA_GET_HT_FLAG_INDEX(hdma));
 732              		.loc 1 197 5 discriminator 173 view .LVU182
 733 0358 02F58062 		add	r2, r2, #1024
 734 035c 9342     		cmp	r3, r2
ARM GAS  C:\Users\yzy\AppData\Local\Temp\ccHYomBP.s 			page 22


 735 035e 02D0     		beq	.L310
 197:Libraries/STM32F4xx_HAL_Driver/Src/stm32f4xx_hal_dma_ex.c ****     __HAL_DMA_CLEAR_FLAG (hdma, __HAL_DMA_GET_HT_FLAG_INDEX(hdma));
 736              		.loc 1 197 5 view .LVU183
 737 0360 4FF00063 		mov	r3, #134217728
 738 0364 03E0     		b	.L27
 739              	.L310:
 740 0366 4FF40013 		mov	r3, #2097152
 741 036a 00E0     		b	.L27
 742              	.L99:
 743 036c 2023     		movs	r3, #32
 744              	.L27:
 197:Libraries/STM32F4xx_HAL_Driver/Src/stm32f4xx_hal_dma_ex.c ****     __HAL_DMA_CLEAR_FLAG (hdma, __HAL_DMA_GET_HT_FLAG_INDEX(hdma));
 745              		.loc 1 197 5 discriminator 200 view .LVU184
 746 036e 0A4A     		ldr	r2, .L327+16
 747 0370 9360     		str	r3, [r2, #8]
 748              	.LVL37:
 197:Libraries/STM32F4xx_HAL_Driver/Src/stm32f4xx_hal_dma_ex.c ****     __HAL_DMA_CLEAR_FLAG (hdma, __HAL_DMA_GET_HT_FLAG_INDEX(hdma));
 749              		.loc 1 197 5 discriminator 200 view .LVU185
 750 0372 B9E6     		b	.L22
 751              	.LVL38:
 752              	.L100:
 197:Libraries/STM32F4xx_HAL_Driver/Src/stm32f4xx_hal_dma_ex.c ****     __HAL_DMA_CLEAR_FLAG (hdma, __HAL_DMA_GET_HT_FLAG_INDEX(hdma));
 753              		.loc 1 197 5 view .LVU186
 754 0374 2023     		movs	r3, #32
 755 0376 FAE7     		b	.L27
 756              	.L101:
 757 0378 2023     		movs	r3, #32
 758 037a F8E7     		b	.L27
 759              	.L102:
 760 037c 2023     		movs	r3, #32
 761 037e F6E7     		b	.L27
 762              	.L103:
 763 0380 4FF40063 		mov	r3, #2048
 764 0384 F3E7     		b	.L27
 765              	.L328:
 766 0386 00BF     		.align	2
 767              	.L327:
 768 0388 58640240 		.word	1073898584
 769 038c 00640240 		.word	1073898496
 770 0390 B8600240 		.word	1073897656
 771 0394 58600240 		.word	1073897560
 772 0398 00600240 		.word	1073897472
 773 039c 10600240 		.word	1073897488
 774              	.L104:
 775 03a0 4FF40063 		mov	r3, #2048
 776 03a4 E3E7     		b	.L27
 777              	.L105:
 778 03a6 4FF40063 		mov	r3, #2048
 779 03aa E0E7     		b	.L27
 780              	.L106:
 781 03ac 4FF40063 		mov	r3, #2048
 782 03b0 DDE7     		b	.L27
 783              	.L107:
 784 03b2 4FF40013 		mov	r3, #2097152
 785 03b6 DAE7     		b	.L27
 786              	.L108:
 787 03b8 4FF40013 		mov	r3, #2097152
ARM GAS  C:\Users\yzy\AppData\Local\Temp\ccHYomBP.s 			page 23


 788 03bc D7E7     		b	.L27
 789              	.L109:
 790 03be 4FF40013 		mov	r3, #2097152
 791 03c2 D4E7     		b	.L27
 792              	.LVL39:
 793              	.L307:
 198:Libraries/STM32F4xx_HAL_Driver/Src/stm32f4xx_hal_dma_ex.c ****     __HAL_DMA_CLEAR_FLAG (hdma, __HAL_DMA_GET_TE_FLAG_INDEX(hdma));
 794              		.loc 1 198 5 view .LVU187
 795 03c4 4FF48012 		mov	r2, #1048576
 796 03c8 00E0     		b	.L29
 797              	.L111:
 798 03ca 1022     		movs	r2, #16
 799              	.L29:
 198:Libraries/STM32F4xx_HAL_Driver/Src/stm32f4xx_hal_dma_ex.c ****     __HAL_DMA_CLEAR_FLAG (hdma, __HAL_DMA_GET_TE_FLAG_INDEX(hdma));
 800              		.loc 1 198 5 discriminator 50 view .LVU188
 801 03cc B24B     		ldr	r3, .L329
 802 03ce DA60     		str	r2, [r3, #12]
 803              	.L30:
 199:Libraries/STM32F4xx_HAL_Driver/Src/stm32f4xx_hal_dma_ex.c ****     __HAL_DMA_CLEAR_FLAG (hdma, __HAL_DMA_GET_DME_FLAG_INDEX(hdma));
 804              		.loc 1 199 5 is_stmt 1 view .LVU189
 805 03d0 2368     		ldr	r3, [r4]
 806 03d2 B24A     		ldr	r2, .L329+4
 807 03d4 9342     		cmp	r3, r2
 808 03d6 40F2CD81 		bls	.L36
 199:Libraries/STM32F4xx_HAL_Driver/Src/stm32f4xx_hal_dma_ex.c ****     __HAL_DMA_CLEAR_FLAG (hdma, __HAL_DMA_GET_DME_FLAG_INDEX(hdma));
 809              		.loc 1 199 5 is_stmt 0 discriminator 1 view .LVU190
 810 03da A2F58962 		sub	r2, r2, #1096
 811 03de 9342     		cmp	r3, r2
 812 03e0 00F06681 		beq	.L159
 199:Libraries/STM32F4xx_HAL_Driver/Src/stm32f4xx_hal_dma_ex.c ****     __HAL_DMA_CLEAR_FLAG (hdma, __HAL_DMA_GET_DME_FLAG_INDEX(hdma));
 813              		.loc 1 199 5 discriminator 3 view .LVU191
 814 03e4 02F58062 		add	r2, r2, #1024
 815 03e8 9342     		cmp	r3, r2
 816 03ea 00F0A881 		beq	.L160
 199:Libraries/STM32F4xx_HAL_Driver/Src/stm32f4xx_hal_dma_ex.c ****     __HAL_DMA_CLEAR_FLAG (hdma, __HAL_DMA_GET_DME_FLAG_INDEX(hdma));
 817              		.loc 1 199 5 discriminator 5 view .LVU192
 818 03ee A2F56872 		sub	r2, r2, #928
 819 03f2 9342     		cmp	r3, r2
 820 03f4 00F0A581 		beq	.L161
 199:Libraries/STM32F4xx_HAL_Driver/Src/stm32f4xx_hal_dma_ex.c ****     __HAL_DMA_CLEAR_FLAG (hdma, __HAL_DMA_GET_DME_FLAG_INDEX(hdma));
 821              		.loc 1 199 5 discriminator 7 view .LVU193
 822 03f8 02F58062 		add	r2, r2, #1024
 823 03fc 9342     		cmp	r3, r2
 824 03fe 00F0A281 		beq	.L162
 199:Libraries/STM32F4xx_HAL_Driver/Src/stm32f4xx_hal_dma_ex.c ****     __HAL_DMA_CLEAR_FLAG (hdma, __HAL_DMA_GET_DME_FLAG_INDEX(hdma));
 825              		.loc 1 199 5 discriminator 9 view .LVU194
 826 0402 A2F58962 		sub	r2, r2, #1096
 827 0406 9342     		cmp	r3, r2
 828 0408 00F09F81 		beq	.L163
 199:Libraries/STM32F4xx_HAL_Driver/Src/stm32f4xx_hal_dma_ex.c ****     __HAL_DMA_CLEAR_FLAG (hdma, __HAL_DMA_GET_DME_FLAG_INDEX(hdma));
 829              		.loc 1 199 5 discriminator 11 view .LVU195
 830 040c 02F58062 		add	r2, r2, #1024
 831 0410 9342     		cmp	r3, r2
 832 0412 00F09D81 		beq	.L164
 199:Libraries/STM32F4xx_HAL_Driver/Src/stm32f4xx_hal_dma_ex.c ****     __HAL_DMA_CLEAR_FLAG (hdma, __HAL_DMA_GET_DME_FLAG_INDEX(hdma));
 833              		.loc 1 199 5 discriminator 13 view .LVU196
 834 0416 A2F56872 		sub	r2, r2, #928
ARM GAS  C:\Users\yzy\AppData\Local\Temp\ccHYomBP.s 			page 24


 835 041a 9342     		cmp	r3, r2
 836 041c 00F09B81 		beq	.L165
 199:Libraries/STM32F4xx_HAL_Driver/Src/stm32f4xx_hal_dma_ex.c ****     __HAL_DMA_CLEAR_FLAG (hdma, __HAL_DMA_GET_DME_FLAG_INDEX(hdma));
 837              		.loc 1 199 5 discriminator 15 view .LVU197
 838 0420 02F58062 		add	r2, r2, #1024
 839 0424 9342     		cmp	r3, r2
 840 0426 00F09981 		beq	.L166
 199:Libraries/STM32F4xx_HAL_Driver/Src/stm32f4xx_hal_dma_ex.c ****     __HAL_DMA_CLEAR_FLAG (hdma, __HAL_DMA_GET_DME_FLAG_INDEX(hdma));
 841              		.loc 1 199 5 discriminator 17 view .LVU198
 842 042a A2F58962 		sub	r2, r2, #1096
 843 042e 9342     		cmp	r3, r2
 844 0430 00F09781 		beq	.L167
 199:Libraries/STM32F4xx_HAL_Driver/Src/stm32f4xx_hal_dma_ex.c ****     __HAL_DMA_CLEAR_FLAG (hdma, __HAL_DMA_GET_DME_FLAG_INDEX(hdma));
 845              		.loc 1 199 5 discriminator 19 view .LVU199
 846 0434 02F58062 		add	r2, r2, #1024
 847 0438 9342     		cmp	r3, r2
 848 043a 00F09581 		beq	.L168
 199:Libraries/STM32F4xx_HAL_Driver/Src/stm32f4xx_hal_dma_ex.c ****     __HAL_DMA_CLEAR_FLAG (hdma, __HAL_DMA_GET_DME_FLAG_INDEX(hdma));
 849              		.loc 1 199 5 discriminator 21 view .LVU200
 850 043e A2F56872 		sub	r2, r2, #928
 851 0442 9342     		cmp	r3, r2
 852 0444 00F09381 		beq	.L169
 199:Libraries/STM32F4xx_HAL_Driver/Src/stm32f4xx_hal_dma_ex.c ****     __HAL_DMA_CLEAR_FLAG (hdma, __HAL_DMA_GET_DME_FLAG_INDEX(hdma));
 853              		.loc 1 199 5 discriminator 23 view .LVU201
 854 0448 02F58062 		add	r2, r2, #1024
 855 044c 9342     		cmp	r3, r2
 856 044e 00F02081 		beq	.L311
 199:Libraries/STM32F4xx_HAL_Driver/Src/stm32f4xx_hal_dma_ex.c ****     __HAL_DMA_CLEAR_FLAG (hdma, __HAL_DMA_GET_DME_FLAG_INDEX(hdma));
 857              		.loc 1 199 5 view .LVU202
 858 0452 4FF00072 		mov	r2, #33554432
 859 0456 2CE1     		b	.L37
 860              	.L112:
 198:Libraries/STM32F4xx_HAL_Driver/Src/stm32f4xx_hal_dma_ex.c ****     __HAL_DMA_CLEAR_FLAG (hdma, __HAL_DMA_GET_TE_FLAG_INDEX(hdma));
 861              		.loc 1 198 5 view .LVU203
 862 0458 1022     		movs	r2, #16
 863 045a B7E7     		b	.L29
 864              	.L113:
 865 045c 1022     		movs	r2, #16
 866 045e B5E7     		b	.L29
 867              	.L114:
 868 0460 1022     		movs	r2, #16
 869 0462 B3E7     		b	.L29
 870              	.L115:
 871 0464 4FF48062 		mov	r2, #1024
 872 0468 B0E7     		b	.L29
 873              	.L116:
 874 046a 4FF48062 		mov	r2, #1024
 875 046e ADE7     		b	.L29
 876              	.L117:
 877 0470 4FF48062 		mov	r2, #1024
 878 0474 AAE7     		b	.L29
 879              	.L118:
 880 0476 4FF48062 		mov	r2, #1024
 881 047a A7E7     		b	.L29
 882              	.L119:
 883 047c 4FF48012 		mov	r2, #1048576
 884 0480 A4E7     		b	.L29
ARM GAS  C:\Users\yzy\AppData\Local\Temp\ccHYomBP.s 			page 25


 885              	.L120:
 886 0482 4FF48012 		mov	r2, #1048576
 887 0486 A1E7     		b	.L29
 888              	.L121:
 889 0488 4FF48012 		mov	r2, #1048576
 890 048c 9EE7     		b	.L29
 891              	.L28:
 198:Libraries/STM32F4xx_HAL_Driver/Src/stm32f4xx_hal_dma_ex.c ****     __HAL_DMA_CLEAR_FLAG (hdma, __HAL_DMA_GET_TE_FLAG_INDEX(hdma));
 892              		.loc 1 198 5 discriminator 2 view .LVU204
 893 048e 844A     		ldr	r2, .L329+8
 894 0490 9342     		cmp	r3, r2
 895 0492 53D9     		bls	.L31
 198:Libraries/STM32F4xx_HAL_Driver/Src/stm32f4xx_hal_dma_ex.c ****     __HAL_DMA_CLEAR_FLAG (hdma, __HAL_DMA_GET_TE_FLAG_INDEX(hdma));
 896              		.loc 1 198 5 discriminator 51 view .LVU205
 897 0494 A83A     		subs	r2, r2, #168
 898 0496 9342     		cmp	r3, r2
 899 0498 31D0     		beq	.L123
 198:Libraries/STM32F4xx_HAL_Driver/Src/stm32f4xx_hal_dma_ex.c ****     __HAL_DMA_CLEAR_FLAG (hdma, __HAL_DMA_GET_TE_FLAG_INDEX(hdma));
 900              		.loc 1 198 5 discriminator 53 view .LVU206
 901 049a 02F58062 		add	r2, r2, #1024
 902 049e 9342     		cmp	r3, r2
 903 04a0 31D0     		beq	.L124
 198:Libraries/STM32F4xx_HAL_Driver/Src/stm32f4xx_hal_dma_ex.c ****     __HAL_DMA_CLEAR_FLAG (hdma, __HAL_DMA_GET_TE_FLAG_INDEX(hdma));
 904              		.loc 1 198 5 discriminator 55 view .LVU207
 905 04a2 A2F56872 		sub	r2, r2, #928
 906 04a6 9342     		cmp	r3, r2
 907 04a8 2FD0     		beq	.L125
 198:Libraries/STM32F4xx_HAL_Driver/Src/stm32f4xx_hal_dma_ex.c ****     __HAL_DMA_CLEAR_FLAG (hdma, __HAL_DMA_GET_TE_FLAG_INDEX(hdma));
 908              		.loc 1 198 5 discriminator 57 view .LVU208
 909 04aa 02F58062 		add	r2, r2, #1024
 910 04ae 9342     		cmp	r3, r2
 911 04b0 2DD0     		beq	.L126
 198:Libraries/STM32F4xx_HAL_Driver/Src/stm32f4xx_hal_dma_ex.c ****     __HAL_DMA_CLEAR_FLAG (hdma, __HAL_DMA_GET_TE_FLAG_INDEX(hdma));
 912              		.loc 1 198 5 discriminator 59 view .LVU209
 913 04b2 A2F58962 		sub	r2, r2, #1096
 914 04b6 9342     		cmp	r3, r2
 915 04b8 2BD0     		beq	.L127
 198:Libraries/STM32F4xx_HAL_Driver/Src/stm32f4xx_hal_dma_ex.c ****     __HAL_DMA_CLEAR_FLAG (hdma, __HAL_DMA_GET_TE_FLAG_INDEX(hdma));
 916              		.loc 1 198 5 discriminator 61 view .LVU210
 917 04ba 02F58062 		add	r2, r2, #1024
 918 04be 9342     		cmp	r3, r2
 919 04c0 2AD0     		beq	.L128
 198:Libraries/STM32F4xx_HAL_Driver/Src/stm32f4xx_hal_dma_ex.c ****     __HAL_DMA_CLEAR_FLAG (hdma, __HAL_DMA_GET_TE_FLAG_INDEX(hdma));
 920              		.loc 1 198 5 discriminator 63 view .LVU211
 921 04c2 A2F56872 		sub	r2, r2, #928
 922 04c6 9342     		cmp	r3, r2
 923 04c8 29D0     		beq	.L129
 198:Libraries/STM32F4xx_HAL_Driver/Src/stm32f4xx_hal_dma_ex.c ****     __HAL_DMA_CLEAR_FLAG (hdma, __HAL_DMA_GET_TE_FLAG_INDEX(hdma));
 924              		.loc 1 198 5 discriminator 65 view .LVU212
 925 04ca 02F58062 		add	r2, r2, #1024
 926 04ce 9342     		cmp	r3, r2
 927 04d0 28D0     		beq	.L130
 198:Libraries/STM32F4xx_HAL_Driver/Src/stm32f4xx_hal_dma_ex.c ****     __HAL_DMA_CLEAR_FLAG (hdma, __HAL_DMA_GET_TE_FLAG_INDEX(hdma));
 928              		.loc 1 198 5 discriminator 67 view .LVU213
 929 04d2 A2F58962 		sub	r2, r2, #1096
 930 04d6 9342     		cmp	r3, r2
 931 04d8 27D0     		beq	.L131
ARM GAS  C:\Users\yzy\AppData\Local\Temp\ccHYomBP.s 			page 26


 198:Libraries/STM32F4xx_HAL_Driver/Src/stm32f4xx_hal_dma_ex.c ****     __HAL_DMA_CLEAR_FLAG (hdma, __HAL_DMA_GET_TE_FLAG_INDEX(hdma));
 932              		.loc 1 198 5 discriminator 69 view .LVU214
 933 04da 02F58062 		add	r2, r2, #1024
 934 04de 9342     		cmp	r3, r2
 935 04e0 26D0     		beq	.L132
 198:Libraries/STM32F4xx_HAL_Driver/Src/stm32f4xx_hal_dma_ex.c ****     __HAL_DMA_CLEAR_FLAG (hdma, __HAL_DMA_GET_TE_FLAG_INDEX(hdma));
 936              		.loc 1 198 5 discriminator 71 view .LVU215
 937 04e2 A2F56872 		sub	r2, r2, #928
 938 04e6 9342     		cmp	r3, r2
 939 04e8 25D0     		beq	.L133
 198:Libraries/STM32F4xx_HAL_Driver/Src/stm32f4xx_hal_dma_ex.c ****     __HAL_DMA_CLEAR_FLAG (hdma, __HAL_DMA_GET_TE_FLAG_INDEX(hdma));
 940              		.loc 1 198 5 discriminator 73 view .LVU216
 941 04ea 02F58062 		add	r2, r2, #1024
 942 04ee 9342     		cmp	r3, r2
 943 04f0 02D0     		beq	.L312
 198:Libraries/STM32F4xx_HAL_Driver/Src/stm32f4xx_hal_dma_ex.c ****     __HAL_DMA_CLEAR_FLAG (hdma, __HAL_DMA_GET_TE_FLAG_INDEX(hdma));
 944              		.loc 1 198 5 view .LVU217
 945 04f2 4FF08063 		mov	r3, #67108864
 946 04f6 03E0     		b	.L32
 947              	.L312:
 948 04f8 4FF48013 		mov	r3, #1048576
 949 04fc 00E0     		b	.L32
 950              	.L123:
 951 04fe 1023     		movs	r3, #16
 952              	.L32:
 198:Libraries/STM32F4xx_HAL_Driver/Src/stm32f4xx_hal_dma_ex.c ****     __HAL_DMA_CLEAR_FLAG (hdma, __HAL_DMA_GET_TE_FLAG_INDEX(hdma));
 953              		.loc 1 198 5 discriminator 100 view .LVU218
 954 0500 654A     		ldr	r2, .L329
 955 0502 9360     		str	r3, [r2, #8]
 956 0504 64E7     		b	.L30
 957              	.L124:
 198:Libraries/STM32F4xx_HAL_Driver/Src/stm32f4xx_hal_dma_ex.c ****     __HAL_DMA_CLEAR_FLAG (hdma, __HAL_DMA_GET_TE_FLAG_INDEX(hdma));
 958              		.loc 1 198 5 view .LVU219
 959 0506 1023     		movs	r3, #16
 960 0508 FAE7     		b	.L32
 961              	.L125:
 962 050a 1023     		movs	r3, #16
 963 050c F8E7     		b	.L32
 964              	.L126:
 965 050e 1023     		movs	r3, #16
 966 0510 F6E7     		b	.L32
 967              	.L127:
 968 0512 4FF48063 		mov	r3, #1024
 969 0516 F3E7     		b	.L32
 970              	.L128:
 971 0518 4FF48063 		mov	r3, #1024
 972 051c F0E7     		b	.L32
 973              	.L129:
 974 051e 4FF48063 		mov	r3, #1024
 975 0522 EDE7     		b	.L32
 976              	.L130:
 977 0524 4FF48063 		mov	r3, #1024
 978 0528 EAE7     		b	.L32
 979              	.L131:
 980 052a 4FF48013 		mov	r3, #1048576
 981 052e E7E7     		b	.L32
 982              	.L132:
ARM GAS  C:\Users\yzy\AppData\Local\Temp\ccHYomBP.s 			page 27


 983 0530 4FF48013 		mov	r3, #1048576
 984 0534 E4E7     		b	.L32
 985              	.L133:
 986 0536 4FF48013 		mov	r3, #1048576
 987 053a E1E7     		b	.L32
 988              	.L31:
 198:Libraries/STM32F4xx_HAL_Driver/Src/stm32f4xx_hal_dma_ex.c ****     __HAL_DMA_CLEAR_FLAG (hdma, __HAL_DMA_GET_TE_FLAG_INDEX(hdma));
 989              		.loc 1 198 5 discriminator 52 view .LVU220
 990 053c 594A     		ldr	r2, .L329+12
 991 053e 9342     		cmp	r3, r2
 992 0540 53D9     		bls	.L33
 198:Libraries/STM32F4xx_HAL_Driver/Src/stm32f4xx_hal_dma_ex.c ****     __HAL_DMA_CLEAR_FLAG (hdma, __HAL_DMA_GET_TE_FLAG_INDEX(hdma));
 993              		.loc 1 198 5 discriminator 102 view .LVU221
 994 0542 483A     		subs	r2, r2, #72
 995 0544 9342     		cmp	r3, r2
 996 0546 31D0     		beq	.L135
 198:Libraries/STM32F4xx_HAL_Driver/Src/stm32f4xx_hal_dma_ex.c ****     __HAL_DMA_CLEAR_FLAG (hdma, __HAL_DMA_GET_TE_FLAG_INDEX(hdma));
 997              		.loc 1 198 5 discriminator 104 view .LVU222
 998 0548 02F58062 		add	r2, r2, #1024
 999 054c 9342     		cmp	r3, r2
 1000 054e 31D0     		beq	.L136
 198:Libraries/STM32F4xx_HAL_Driver/Src/stm32f4xx_hal_dma_ex.c ****     __HAL_DMA_CLEAR_FLAG (hdma, __HAL_DMA_GET_TE_FLAG_INDEX(hdma));
 1001              		.loc 1 198 5 discriminator 106 view .LVU223
 1002 0550 A2F56872 		sub	r2, r2, #928
 1003 0554 9342     		cmp	r3, r2
 1004 0556 2FD0     		beq	.L137
 198:Libraries/STM32F4xx_HAL_Driver/Src/stm32f4xx_hal_dma_ex.c ****     __HAL_DMA_CLEAR_FLAG (hdma, __HAL_DMA_GET_TE_FLAG_INDEX(hdma));
 1005              		.loc 1 198 5 discriminator 108 view .LVU224
 1006 0558 02F58062 		add	r2, r2, #1024
 1007 055c 9342     		cmp	r3, r2
 1008 055e 2DD0     		beq	.L138
 198:Libraries/STM32F4xx_HAL_Driver/Src/stm32f4xx_hal_dma_ex.c ****     __HAL_DMA_CLEAR_FLAG (hdma, __HAL_DMA_GET_TE_FLAG_INDEX(hdma));
 1009              		.loc 1 198 5 discriminator 110 view .LVU225
 1010 0560 A2F58962 		sub	r2, r2, #1096
 1011 0564 9342     		cmp	r3, r2
 1012 0566 2BD0     		beq	.L139
 198:Libraries/STM32F4xx_HAL_Driver/Src/stm32f4xx_hal_dma_ex.c ****     __HAL_DMA_CLEAR_FLAG (hdma, __HAL_DMA_GET_TE_FLAG_INDEX(hdma));
 1013              		.loc 1 198 5 discriminator 112 view .LVU226
 1014 0568 02F58062 		add	r2, r2, #1024
 1015 056c 9342     		cmp	r3, r2
 1016 056e 2AD0     		beq	.L140
 198:Libraries/STM32F4xx_HAL_Driver/Src/stm32f4xx_hal_dma_ex.c ****     __HAL_DMA_CLEAR_FLAG (hdma, __HAL_DMA_GET_TE_FLAG_INDEX(hdma));
 1017              		.loc 1 198 5 discriminator 114 view .LVU227
 1018 0570 A2F56872 		sub	r2, r2, #928
 1019 0574 9342     		cmp	r3, r2
 1020 0576 29D0     		beq	.L141
 198:Libraries/STM32F4xx_HAL_Driver/Src/stm32f4xx_hal_dma_ex.c ****     __HAL_DMA_CLEAR_FLAG (hdma, __HAL_DMA_GET_TE_FLAG_INDEX(hdma));
 1021              		.loc 1 198 5 discriminator 116 view .LVU228
 1022 0578 02F58062 		add	r2, r2, #1024
 1023 057c 9342     		cmp	r3, r2
 1024 057e 28D0     		beq	.L142
 198:Libraries/STM32F4xx_HAL_Driver/Src/stm32f4xx_hal_dma_ex.c ****     __HAL_DMA_CLEAR_FLAG (hdma, __HAL_DMA_GET_TE_FLAG_INDEX(hdma));
 1025              		.loc 1 198 5 discriminator 118 view .LVU229
 1026 0580 A2F58962 		sub	r2, r2, #1096
 1027 0584 9342     		cmp	r3, r2
 1028 0586 27D0     		beq	.L143
 198:Libraries/STM32F4xx_HAL_Driver/Src/stm32f4xx_hal_dma_ex.c ****     __HAL_DMA_CLEAR_FLAG (hdma, __HAL_DMA_GET_TE_FLAG_INDEX(hdma));
ARM GAS  C:\Users\yzy\AppData\Local\Temp\ccHYomBP.s 			page 28


 1029              		.loc 1 198 5 discriminator 120 view .LVU230
 1030 0588 02F58062 		add	r2, r2, #1024
 1031 058c 9342     		cmp	r3, r2
 1032 058e 26D0     		beq	.L144
 198:Libraries/STM32F4xx_HAL_Driver/Src/stm32f4xx_hal_dma_ex.c ****     __HAL_DMA_CLEAR_FLAG (hdma, __HAL_DMA_GET_TE_FLAG_INDEX(hdma));
 1033              		.loc 1 198 5 discriminator 122 view .LVU231
 1034 0590 A2F56872 		sub	r2, r2, #928
 1035 0594 9342     		cmp	r3, r2
 1036 0596 25D0     		beq	.L145
 198:Libraries/STM32F4xx_HAL_Driver/Src/stm32f4xx_hal_dma_ex.c ****     __HAL_DMA_CLEAR_FLAG (hdma, __HAL_DMA_GET_TE_FLAG_INDEX(hdma));
 1037              		.loc 1 198 5 discriminator 124 view .LVU232
 1038 0598 02F58062 		add	r2, r2, #1024
 1039 059c 9342     		cmp	r3, r2
 1040 059e 02D0     		beq	.L313
 198:Libraries/STM32F4xx_HAL_Driver/Src/stm32f4xx_hal_dma_ex.c ****     __HAL_DMA_CLEAR_FLAG (hdma, __HAL_DMA_GET_TE_FLAG_INDEX(hdma));
 1041              		.loc 1 198 5 view .LVU233
 1042 05a0 4FF08063 		mov	r3, #67108864
 1043 05a4 03E0     		b	.L34
 1044              	.L313:
 1045 05a6 4FF48013 		mov	r3, #1048576
 1046 05aa 00E0     		b	.L34
 1047              	.L135:
 1048 05ac 1023     		movs	r3, #16
 1049              	.L34:
 198:Libraries/STM32F4xx_HAL_Driver/Src/stm32f4xx_hal_dma_ex.c ****     __HAL_DMA_CLEAR_FLAG (hdma, __HAL_DMA_GET_TE_FLAG_INDEX(hdma));
 1050              		.loc 1 198 5 discriminator 151 view .LVU234
 1051 05ae 3E4A     		ldr	r2, .L329+16
 1052 05b0 D360     		str	r3, [r2, #12]
 1053 05b2 0DE7     		b	.L30
 1054              	.L136:
 198:Libraries/STM32F4xx_HAL_Driver/Src/stm32f4xx_hal_dma_ex.c ****     __HAL_DMA_CLEAR_FLAG (hdma, __HAL_DMA_GET_TE_FLAG_INDEX(hdma));
 1055              		.loc 1 198 5 view .LVU235
 1056 05b4 1023     		movs	r3, #16
 1057 05b6 FAE7     		b	.L34
 1058              	.L137:
 1059 05b8 1023     		movs	r3, #16
 1060 05ba F8E7     		b	.L34
 1061              	.L138:
 1062 05bc 1023     		movs	r3, #16
 1063 05be F6E7     		b	.L34
 1064              	.L139:
 1065 05c0 4FF48063 		mov	r3, #1024
 1066 05c4 F3E7     		b	.L34
 1067              	.L140:
 1068 05c6 4FF48063 		mov	r3, #1024
 1069 05ca F0E7     		b	.L34
 1070              	.L141:
 1071 05cc 4FF48063 		mov	r3, #1024
 1072 05d0 EDE7     		b	.L34
 1073              	.L142:
 1074 05d2 4FF48063 		mov	r3, #1024
 1075 05d6 EAE7     		b	.L34
 1076              	.L143:
 1077 05d8 4FF48013 		mov	r3, #1048576
 1078 05dc E7E7     		b	.L34
 1079              	.L144:
 1080 05de 4FF48013 		mov	r3, #1048576
ARM GAS  C:\Users\yzy\AppData\Local\Temp\ccHYomBP.s 			page 29


 1081 05e2 E4E7     		b	.L34
 1082              	.L145:
 1083 05e4 4FF48013 		mov	r3, #1048576
 1084 05e8 E1E7     		b	.L34
 1085              	.L33:
 198:Libraries/STM32F4xx_HAL_Driver/Src/stm32f4xx_hal_dma_ex.c ****     __HAL_DMA_CLEAR_FLAG (hdma, __HAL_DMA_GET_TE_FLAG_INDEX(hdma));
 1086              		.loc 1 198 5 discriminator 103 view .LVU236
 1087 05ea 304A     		ldr	r2, .L329+20
 1088 05ec 9342     		cmp	r3, r2
 1089 05ee 31D0     		beq	.L147
 198:Libraries/STM32F4xx_HAL_Driver/Src/stm32f4xx_hal_dma_ex.c ****     __HAL_DMA_CLEAR_FLAG (hdma, __HAL_DMA_GET_TE_FLAG_INDEX(hdma));
 1090              		.loc 1 198 5 discriminator 153 view .LVU237
 1091 05f0 02F58062 		add	r2, r2, #1024
 1092 05f4 9342     		cmp	r3, r2
 1093 05f6 31D0     		beq	.L148
 198:Libraries/STM32F4xx_HAL_Driver/Src/stm32f4xx_hal_dma_ex.c ****     __HAL_DMA_CLEAR_FLAG (hdma, __HAL_DMA_GET_TE_FLAG_INDEX(hdma));
 1094              		.loc 1 198 5 discriminator 155 view .LVU238
 1095 05f8 A2F56872 		sub	r2, r2, #928
 1096 05fc 9342     		cmp	r3, r2
 1097 05fe 2FD0     		beq	.L149
 198:Libraries/STM32F4xx_HAL_Driver/Src/stm32f4xx_hal_dma_ex.c ****     __HAL_DMA_CLEAR_FLAG (hdma, __HAL_DMA_GET_TE_FLAG_INDEX(hdma));
 1098              		.loc 1 198 5 discriminator 157 view .LVU239
 1099 0600 02F58062 		add	r2, r2, #1024
 1100 0604 9342     		cmp	r3, r2
 1101 0606 2DD0     		beq	.L150
 198:Libraries/STM32F4xx_HAL_Driver/Src/stm32f4xx_hal_dma_ex.c ****     __HAL_DMA_CLEAR_FLAG (hdma, __HAL_DMA_GET_TE_FLAG_INDEX(hdma));
 1102              		.loc 1 198 5 discriminator 159 view .LVU240
 1103 0608 A2F58962 		sub	r2, r2, #1096
 1104 060c 9342     		cmp	r3, r2
 1105 060e 2BD0     		beq	.L151
 198:Libraries/STM32F4xx_HAL_Driver/Src/stm32f4xx_hal_dma_ex.c ****     __HAL_DMA_CLEAR_FLAG (hdma, __HAL_DMA_GET_TE_FLAG_INDEX(hdma));
 1106              		.loc 1 198 5 discriminator 161 view .LVU241
 1107 0610 02F58062 		add	r2, r2, #1024
 1108 0614 9342     		cmp	r3, r2
 1109 0616 2AD0     		beq	.L152
 198:Libraries/STM32F4xx_HAL_Driver/Src/stm32f4xx_hal_dma_ex.c ****     __HAL_DMA_CLEAR_FLAG (hdma, __HAL_DMA_GET_TE_FLAG_INDEX(hdma));
 1110              		.loc 1 198 5 discriminator 163 view .LVU242
 1111 0618 A2F56872 		sub	r2, r2, #928
 1112 061c 9342     		cmp	r3, r2
 1113 061e 29D0     		beq	.L153
 198:Libraries/STM32F4xx_HAL_Driver/Src/stm32f4xx_hal_dma_ex.c ****     __HAL_DMA_CLEAR_FLAG (hdma, __HAL_DMA_GET_TE_FLAG_INDEX(hdma));
 1114              		.loc 1 198 5 discriminator 165 view .LVU243
 1115 0620 02F58062 		add	r2, r2, #1024
 1116 0624 9342     		cmp	r3, r2
 1117 0626 28D0     		beq	.L154
 198:Libraries/STM32F4xx_HAL_Driver/Src/stm32f4xx_hal_dma_ex.c ****     __HAL_DMA_CLEAR_FLAG (hdma, __HAL_DMA_GET_TE_FLAG_INDEX(hdma));
 1118              		.loc 1 198 5 discriminator 167 view .LVU244
 1119 0628 A2F58962 		sub	r2, r2, #1096
 1120 062c 9342     		cmp	r3, r2
 1121 062e 27D0     		beq	.L155
 198:Libraries/STM32F4xx_HAL_Driver/Src/stm32f4xx_hal_dma_ex.c ****     __HAL_DMA_CLEAR_FLAG (hdma, __HAL_DMA_GET_TE_FLAG_INDEX(hdma));
 1122              		.loc 1 198 5 discriminator 169 view .LVU245
 1123 0630 02F58062 		add	r2, r2, #1024
 1124 0634 9342     		cmp	r3, r2
 1125 0636 26D0     		beq	.L156
 198:Libraries/STM32F4xx_HAL_Driver/Src/stm32f4xx_hal_dma_ex.c ****     __HAL_DMA_CLEAR_FLAG (hdma, __HAL_DMA_GET_TE_FLAG_INDEX(hdma));
 1126              		.loc 1 198 5 discriminator 171 view .LVU246
ARM GAS  C:\Users\yzy\AppData\Local\Temp\ccHYomBP.s 			page 30


 1127 0638 A2F56872 		sub	r2, r2, #928
 1128 063c 9342     		cmp	r3, r2
 1129 063e 25D0     		beq	.L157
 198:Libraries/STM32F4xx_HAL_Driver/Src/stm32f4xx_hal_dma_ex.c ****     __HAL_DMA_CLEAR_FLAG (hdma, __HAL_DMA_GET_TE_FLAG_INDEX(hdma));
 1130              		.loc 1 198 5 discriminator 173 view .LVU247
 1131 0640 02F58062 		add	r2, r2, #1024
 1132 0644 9342     		cmp	r3, r2
 1133 0646 02D0     		beq	.L314
 198:Libraries/STM32F4xx_HAL_Driver/Src/stm32f4xx_hal_dma_ex.c ****     __HAL_DMA_CLEAR_FLAG (hdma, __HAL_DMA_GET_TE_FLAG_INDEX(hdma));
 1134              		.loc 1 198 5 view .LVU248
 1135 0648 4FF08063 		mov	r3, #67108864
 1136 064c 03E0     		b	.L35
 1137              	.L314:
 1138 064e 4FF48013 		mov	r3, #1048576
 1139 0652 00E0     		b	.L35
 1140              	.L147:
 1141 0654 1023     		movs	r3, #16
 1142              	.L35:
 198:Libraries/STM32F4xx_HAL_Driver/Src/stm32f4xx_hal_dma_ex.c ****     __HAL_DMA_CLEAR_FLAG (hdma, __HAL_DMA_GET_TE_FLAG_INDEX(hdma));
 1143              		.loc 1 198 5 discriminator 200 view .LVU249
 1144 0656 144A     		ldr	r2, .L329+16
 1145 0658 9360     		str	r3, [r2, #8]
 1146 065a B9E6     		b	.L30
 1147              	.L148:
 198:Libraries/STM32F4xx_HAL_Driver/Src/stm32f4xx_hal_dma_ex.c ****     __HAL_DMA_CLEAR_FLAG (hdma, __HAL_DMA_GET_TE_FLAG_INDEX(hdma));
 1148              		.loc 1 198 5 view .LVU250
 1149 065c 1023     		movs	r3, #16
 1150 065e FAE7     		b	.L35
 1151              	.L149:
 1152 0660 1023     		movs	r3, #16
 1153 0662 F8E7     		b	.L35
 1154              	.L150:
 1155 0664 1023     		movs	r3, #16
 1156 0666 F6E7     		b	.L35
 1157              	.L151:
 1158 0668 4FF48063 		mov	r3, #1024
 1159 066c F3E7     		b	.L35
 1160              	.L152:
 1161 066e 4FF48063 		mov	r3, #1024
 1162 0672 F0E7     		b	.L35
 1163              	.L153:
 1164 0674 4FF48063 		mov	r3, #1024
 1165 0678 EDE7     		b	.L35
 1166              	.L154:
 1167 067a 4FF48063 		mov	r3, #1024
 1168 067e EAE7     		b	.L35
 1169              	.L155:
 1170 0680 4FF48013 		mov	r3, #1048576
 1171 0684 E7E7     		b	.L35
 1172              	.L156:
 1173 0686 4FF48013 		mov	r3, #1048576
 1174 068a E4E7     		b	.L35
 1175              	.L157:
 1176 068c 4FF48013 		mov	r3, #1048576
 1177 0690 E1E7     		b	.L35
 1178              	.L311:
 199:Libraries/STM32F4xx_HAL_Driver/Src/stm32f4xx_hal_dma_ex.c ****     __HAL_DMA_CLEAR_FLAG (hdma, __HAL_DMA_GET_DME_FLAG_INDEX(hdma));
ARM GAS  C:\Users\yzy\AppData\Local\Temp\ccHYomBP.s 			page 31


 1179              		.loc 1 199 5 view .LVU251
 1180 0692 4FF40022 		mov	r2, #524288
 1181 0696 0CE0     		b	.L37
 1182              	.L330:
 1183              		.align	2
 1184              	.L329:
 1185 0698 00640240 		.word	1073898496
 1186 069c 58640240 		.word	1073898584
 1187 06a0 B8600240 		.word	1073897656
 1188 06a4 58600240 		.word	1073897560
 1189 06a8 00600240 		.word	1073897472
 1190 06ac 10600240 		.word	1073897488
 1191              	.L159:
 1192 06b0 0822     		movs	r2, #8
 1193              	.L37:
 199:Libraries/STM32F4xx_HAL_Driver/Src/stm32f4xx_hal_dma_ex.c ****     __HAL_DMA_CLEAR_FLAG (hdma, __HAL_DMA_GET_DME_FLAG_INDEX(hdma));
 1194              		.loc 1 199 5 discriminator 50 view .LVU252
 1195 06b2 B34B     		ldr	r3, .L331
 1196 06b4 DA60     		str	r2, [r3, #12]
 1197              	.L38:
 200:Libraries/STM32F4xx_HAL_Driver/Src/stm32f4xx_hal_dma_ex.c ****     __HAL_DMA_CLEAR_FLAG (hdma, __HAL_DMA_GET_FE_FLAG_INDEX(hdma));
 1198              		.loc 1 200 5 is_stmt 1 view .LVU253
 1199 06b6 2368     		ldr	r3, [r4]
 1200 06b8 B24A     		ldr	r2, .L331+4
 1201 06ba 9342     		cmp	r3, r2
 1202 06bc 40F2CE81 		bls	.L44
 200:Libraries/STM32F4xx_HAL_Driver/Src/stm32f4xx_hal_dma_ex.c ****     __HAL_DMA_CLEAR_FLAG (hdma, __HAL_DMA_GET_FE_FLAG_INDEX(hdma));
 1203              		.loc 1 200 5 is_stmt 0 discriminator 1 view .LVU254
 1204 06c0 A2F58962 		sub	r2, r2, #1096
 1205 06c4 9342     		cmp	r3, r2
 1206 06c6 00F06781 		beq	.L207
 200:Libraries/STM32F4xx_HAL_Driver/Src/stm32f4xx_hal_dma_ex.c ****     __HAL_DMA_CLEAR_FLAG (hdma, __HAL_DMA_GET_FE_FLAG_INDEX(hdma));
 1207              		.loc 1 200 5 discriminator 3 view .LVU255
 1208 06ca 02F58062 		add	r2, r2, #1024
 1209 06ce 9342     		cmp	r3, r2
 1210 06d0 00F0A981 		beq	.L208
 200:Libraries/STM32F4xx_HAL_Driver/Src/stm32f4xx_hal_dma_ex.c ****     __HAL_DMA_CLEAR_FLAG (hdma, __HAL_DMA_GET_FE_FLAG_INDEX(hdma));
 1211              		.loc 1 200 5 discriminator 5 view .LVU256
 1212 06d4 A2F56872 		sub	r2, r2, #928
 1213 06d8 9342     		cmp	r3, r2
 1214 06da 00F0A681 		beq	.L209
 200:Libraries/STM32F4xx_HAL_Driver/Src/stm32f4xx_hal_dma_ex.c ****     __HAL_DMA_CLEAR_FLAG (hdma, __HAL_DMA_GET_FE_FLAG_INDEX(hdma));
 1215              		.loc 1 200 5 discriminator 7 view .LVU257
 1216 06de 02F58062 		add	r2, r2, #1024
 1217 06e2 9342     		cmp	r3, r2
 1218 06e4 00F0A381 		beq	.L210
 200:Libraries/STM32F4xx_HAL_Driver/Src/stm32f4xx_hal_dma_ex.c ****     __HAL_DMA_CLEAR_FLAG (hdma, __HAL_DMA_GET_FE_FLAG_INDEX(hdma));
 1219              		.loc 1 200 5 discriminator 9 view .LVU258
 1220 06e8 A2F58962 		sub	r2, r2, #1096
 1221 06ec 9342     		cmp	r3, r2
 1222 06ee 00F0A081 		beq	.L211
 200:Libraries/STM32F4xx_HAL_Driver/Src/stm32f4xx_hal_dma_ex.c ****     __HAL_DMA_CLEAR_FLAG (hdma, __HAL_DMA_GET_FE_FLAG_INDEX(hdma));
 1223              		.loc 1 200 5 discriminator 11 view .LVU259
 1224 06f2 02F58062 		add	r2, r2, #1024
 1225 06f6 9342     		cmp	r3, r2
 1226 06f8 00F09E81 		beq	.L212
 200:Libraries/STM32F4xx_HAL_Driver/Src/stm32f4xx_hal_dma_ex.c ****     __HAL_DMA_CLEAR_FLAG (hdma, __HAL_DMA_GET_FE_FLAG_INDEX(hdma));
ARM GAS  C:\Users\yzy\AppData\Local\Temp\ccHYomBP.s 			page 32


 1227              		.loc 1 200 5 discriminator 13 view .LVU260
 1228 06fc A2F56872 		sub	r2, r2, #928
 1229 0700 9342     		cmp	r3, r2
 1230 0702 00F09C81 		beq	.L213
 200:Libraries/STM32F4xx_HAL_Driver/Src/stm32f4xx_hal_dma_ex.c ****     __HAL_DMA_CLEAR_FLAG (hdma, __HAL_DMA_GET_FE_FLAG_INDEX(hdma));
 1231              		.loc 1 200 5 discriminator 15 view .LVU261
 1232 0706 02F58062 		add	r2, r2, #1024
 1233 070a 9342     		cmp	r3, r2
 1234 070c 00F09A81 		beq	.L214
 200:Libraries/STM32F4xx_HAL_Driver/Src/stm32f4xx_hal_dma_ex.c ****     __HAL_DMA_CLEAR_FLAG (hdma, __HAL_DMA_GET_FE_FLAG_INDEX(hdma));
 1235              		.loc 1 200 5 discriminator 17 view .LVU262
 1236 0710 A2F58962 		sub	r2, r2, #1096
 1237 0714 9342     		cmp	r3, r2
 1238 0716 00F09881 		beq	.L215
 200:Libraries/STM32F4xx_HAL_Driver/Src/stm32f4xx_hal_dma_ex.c ****     __HAL_DMA_CLEAR_FLAG (hdma, __HAL_DMA_GET_FE_FLAG_INDEX(hdma));
 1239              		.loc 1 200 5 discriminator 19 view .LVU263
 1240 071a 02F58062 		add	r2, r2, #1024
 1241 071e 9342     		cmp	r3, r2
 1242 0720 00F09681 		beq	.L216
 200:Libraries/STM32F4xx_HAL_Driver/Src/stm32f4xx_hal_dma_ex.c ****     __HAL_DMA_CLEAR_FLAG (hdma, __HAL_DMA_GET_FE_FLAG_INDEX(hdma));
 1243              		.loc 1 200 5 discriminator 21 view .LVU264
 1244 0724 A2F56872 		sub	r2, r2, #928
 1245 0728 9342     		cmp	r3, r2
 1246 072a 00F09481 		beq	.L217
 200:Libraries/STM32F4xx_HAL_Driver/Src/stm32f4xx_hal_dma_ex.c ****     __HAL_DMA_CLEAR_FLAG (hdma, __HAL_DMA_GET_FE_FLAG_INDEX(hdma));
 1247              		.loc 1 200 5 discriminator 23 view .LVU265
 1248 072e 02F58062 		add	r2, r2, #1024
 1249 0732 9342     		cmp	r3, r2
 1250 0734 00F02081 		beq	.L315
 200:Libraries/STM32F4xx_HAL_Driver/Src/stm32f4xx_hal_dma_ex.c ****     __HAL_DMA_CLEAR_FLAG (hdma, __HAL_DMA_GET_FE_FLAG_INDEX(hdma));
 1251              		.loc 1 200 5 view .LVU266
 1252 0738 4FF08072 		mov	r2, #16777216
 1253 073c 2DE1     		b	.L45
 1254              	.L160:
 199:Libraries/STM32F4xx_HAL_Driver/Src/stm32f4xx_hal_dma_ex.c ****     __HAL_DMA_CLEAR_FLAG (hdma, __HAL_DMA_GET_DME_FLAG_INDEX(hdma));
 1255              		.loc 1 199 5 view .LVU267
 1256 073e 0822     		movs	r2, #8
 1257 0740 B7E7     		b	.L37
 1258              	.L161:
 1259 0742 0822     		movs	r2, #8
 1260 0744 B5E7     		b	.L37
 1261              	.L162:
 1262 0746 0822     		movs	r2, #8
 1263 0748 B3E7     		b	.L37
 1264              	.L163:
 1265 074a 4FF40072 		mov	r2, #512
 1266 074e B0E7     		b	.L37
 1267              	.L164:
 1268 0750 4FF40072 		mov	r2, #512
 1269 0754 ADE7     		b	.L37
 1270              	.L165:
 1271 0756 4FF40072 		mov	r2, #512
 1272 075a AAE7     		b	.L37
 1273              	.L166:
 1274 075c 4FF40072 		mov	r2, #512
 1275 0760 A7E7     		b	.L37
 1276              	.L167:
ARM GAS  C:\Users\yzy\AppData\Local\Temp\ccHYomBP.s 			page 33


 1277 0762 4FF40022 		mov	r2, #524288
 1278 0766 A4E7     		b	.L37
 1279              	.L168:
 1280 0768 4FF40022 		mov	r2, #524288
 1281 076c A1E7     		b	.L37
 1282              	.L169:
 1283 076e 4FF40022 		mov	r2, #524288
 1284 0772 9EE7     		b	.L37
 1285              	.L36:
 199:Libraries/STM32F4xx_HAL_Driver/Src/stm32f4xx_hal_dma_ex.c ****     __HAL_DMA_CLEAR_FLAG (hdma, __HAL_DMA_GET_DME_FLAG_INDEX(hdma));
 1286              		.loc 1 199 5 discriminator 2 view .LVU268
 1287 0774 844A     		ldr	r2, .L331+8
 1288 0776 9342     		cmp	r3, r2
 1289 0778 53D9     		bls	.L39
 199:Libraries/STM32F4xx_HAL_Driver/Src/stm32f4xx_hal_dma_ex.c ****     __HAL_DMA_CLEAR_FLAG (hdma, __HAL_DMA_GET_DME_FLAG_INDEX(hdma));
 1290              		.loc 1 199 5 discriminator 51 view .LVU269
 1291 077a A83A     		subs	r2, r2, #168
 1292 077c 9342     		cmp	r3, r2
 1293 077e 31D0     		beq	.L171
 199:Libraries/STM32F4xx_HAL_Driver/Src/stm32f4xx_hal_dma_ex.c ****     __HAL_DMA_CLEAR_FLAG (hdma, __HAL_DMA_GET_DME_FLAG_INDEX(hdma));
 1294              		.loc 1 199 5 discriminator 53 view .LVU270
 1295 0780 02F58062 		add	r2, r2, #1024
 1296 0784 9342     		cmp	r3, r2
 1297 0786 31D0     		beq	.L172
 199:Libraries/STM32F4xx_HAL_Driver/Src/stm32f4xx_hal_dma_ex.c ****     __HAL_DMA_CLEAR_FLAG (hdma, __HAL_DMA_GET_DME_FLAG_INDEX(hdma));
 1298              		.loc 1 199 5 discriminator 55 view .LVU271
 1299 0788 A2F56872 		sub	r2, r2, #928
 1300 078c 9342     		cmp	r3, r2
 1301 078e 2FD0     		beq	.L173
 199:Libraries/STM32F4xx_HAL_Driver/Src/stm32f4xx_hal_dma_ex.c ****     __HAL_DMA_CLEAR_FLAG (hdma, __HAL_DMA_GET_DME_FLAG_INDEX(hdma));
 1302              		.loc 1 199 5 discriminator 57 view .LVU272
 1303 0790 02F58062 		add	r2, r2, #1024
 1304 0794 9342     		cmp	r3, r2
 1305 0796 2DD0     		beq	.L174
 199:Libraries/STM32F4xx_HAL_Driver/Src/stm32f4xx_hal_dma_ex.c ****     __HAL_DMA_CLEAR_FLAG (hdma, __HAL_DMA_GET_DME_FLAG_INDEX(hdma));
 1306              		.loc 1 199 5 discriminator 59 view .LVU273
 1307 0798 A2F58962 		sub	r2, r2, #1096
 1308 079c 9342     		cmp	r3, r2
 1309 079e 2BD0     		beq	.L175
 199:Libraries/STM32F4xx_HAL_Driver/Src/stm32f4xx_hal_dma_ex.c ****     __HAL_DMA_CLEAR_FLAG (hdma, __HAL_DMA_GET_DME_FLAG_INDEX(hdma));
 1310              		.loc 1 199 5 discriminator 61 view .LVU274
 1311 07a0 02F58062 		add	r2, r2, #1024
 1312 07a4 9342     		cmp	r3, r2
 1313 07a6 2AD0     		beq	.L176
 199:Libraries/STM32F4xx_HAL_Driver/Src/stm32f4xx_hal_dma_ex.c ****     __HAL_DMA_CLEAR_FLAG (hdma, __HAL_DMA_GET_DME_FLAG_INDEX(hdma));
 1314              		.loc 1 199 5 discriminator 63 view .LVU275
 1315 07a8 A2F56872 		sub	r2, r2, #928
 1316 07ac 9342     		cmp	r3, r2
 1317 07ae 29D0     		beq	.L177
 199:Libraries/STM32F4xx_HAL_Driver/Src/stm32f4xx_hal_dma_ex.c ****     __HAL_DMA_CLEAR_FLAG (hdma, __HAL_DMA_GET_DME_FLAG_INDEX(hdma));
 1318              		.loc 1 199 5 discriminator 65 view .LVU276
 1319 07b0 02F58062 		add	r2, r2, #1024
 1320 07b4 9342     		cmp	r3, r2
 1321 07b6 28D0     		beq	.L178
 199:Libraries/STM32F4xx_HAL_Driver/Src/stm32f4xx_hal_dma_ex.c ****     __HAL_DMA_CLEAR_FLAG (hdma, __HAL_DMA_GET_DME_FLAG_INDEX(hdma));
 1322              		.loc 1 199 5 discriminator 67 view .LVU277
 1323 07b8 A2F58962 		sub	r2, r2, #1096
ARM GAS  C:\Users\yzy\AppData\Local\Temp\ccHYomBP.s 			page 34


 1324 07bc 9342     		cmp	r3, r2
 1325 07be 27D0     		beq	.L179
 199:Libraries/STM32F4xx_HAL_Driver/Src/stm32f4xx_hal_dma_ex.c ****     __HAL_DMA_CLEAR_FLAG (hdma, __HAL_DMA_GET_DME_FLAG_INDEX(hdma));
 1326              		.loc 1 199 5 discriminator 69 view .LVU278
 1327 07c0 02F58062 		add	r2, r2, #1024
 1328 07c4 9342     		cmp	r3, r2
 1329 07c6 26D0     		beq	.L180
 199:Libraries/STM32F4xx_HAL_Driver/Src/stm32f4xx_hal_dma_ex.c ****     __HAL_DMA_CLEAR_FLAG (hdma, __HAL_DMA_GET_DME_FLAG_INDEX(hdma));
 1330              		.loc 1 199 5 discriminator 71 view .LVU279
 1331 07c8 A2F56872 		sub	r2, r2, #928
 1332 07cc 9342     		cmp	r3, r2
 1333 07ce 25D0     		beq	.L181
 199:Libraries/STM32F4xx_HAL_Driver/Src/stm32f4xx_hal_dma_ex.c ****     __HAL_DMA_CLEAR_FLAG (hdma, __HAL_DMA_GET_DME_FLAG_INDEX(hdma));
 1334              		.loc 1 199 5 discriminator 73 view .LVU280
 1335 07d0 02F58062 		add	r2, r2, #1024
 1336 07d4 9342     		cmp	r3, r2
 1337 07d6 02D0     		beq	.L316
 199:Libraries/STM32F4xx_HAL_Driver/Src/stm32f4xx_hal_dma_ex.c ****     __HAL_DMA_CLEAR_FLAG (hdma, __HAL_DMA_GET_DME_FLAG_INDEX(hdma));
 1338              		.loc 1 199 5 view .LVU281
 1339 07d8 4FF00073 		mov	r3, #33554432
 1340 07dc 03E0     		b	.L40
 1341              	.L316:
 1342 07de 4FF40023 		mov	r3, #524288
 1343 07e2 00E0     		b	.L40
 1344              	.L171:
 1345 07e4 0823     		movs	r3, #8
 1346              	.L40:
 199:Libraries/STM32F4xx_HAL_Driver/Src/stm32f4xx_hal_dma_ex.c ****     __HAL_DMA_CLEAR_FLAG (hdma, __HAL_DMA_GET_DME_FLAG_INDEX(hdma));
 1347              		.loc 1 199 5 discriminator 100 view .LVU282
 1348 07e6 664A     		ldr	r2, .L331
 1349 07e8 9360     		str	r3, [r2, #8]
 1350 07ea 64E7     		b	.L38
 1351              	.L172:
 199:Libraries/STM32F4xx_HAL_Driver/Src/stm32f4xx_hal_dma_ex.c ****     __HAL_DMA_CLEAR_FLAG (hdma, __HAL_DMA_GET_DME_FLAG_INDEX(hdma));
 1352              		.loc 1 199 5 view .LVU283
 1353 07ec 0823     		movs	r3, #8
 1354 07ee FAE7     		b	.L40
 1355              	.L173:
 1356 07f0 0823     		movs	r3, #8
 1357 07f2 F8E7     		b	.L40
 1358              	.L174:
 1359 07f4 0823     		movs	r3, #8
 1360 07f6 F6E7     		b	.L40
 1361              	.L175:
 1362 07f8 4FF40073 		mov	r3, #512
 1363 07fc F3E7     		b	.L40
 1364              	.L176:
 1365 07fe 4FF40073 		mov	r3, #512
 1366 0802 F0E7     		b	.L40
 1367              	.L177:
 1368 0804 4FF40073 		mov	r3, #512
 1369 0808 EDE7     		b	.L40
 1370              	.L178:
 1371 080a 4FF40073 		mov	r3, #512
 1372 080e EAE7     		b	.L40
 1373              	.L179:
 1374 0810 4FF40023 		mov	r3, #524288
ARM GAS  C:\Users\yzy\AppData\Local\Temp\ccHYomBP.s 			page 35


 1375 0814 E7E7     		b	.L40
 1376              	.L180:
 1377 0816 4FF40023 		mov	r3, #524288
 1378 081a E4E7     		b	.L40
 1379              	.L181:
 1380 081c 4FF40023 		mov	r3, #524288
 1381 0820 E1E7     		b	.L40
 1382              	.L39:
 199:Libraries/STM32F4xx_HAL_Driver/Src/stm32f4xx_hal_dma_ex.c ****     __HAL_DMA_CLEAR_FLAG (hdma, __HAL_DMA_GET_DME_FLAG_INDEX(hdma));
 1383              		.loc 1 199 5 discriminator 52 view .LVU284
 1384 0822 5A4A     		ldr	r2, .L331+12
 1385 0824 9342     		cmp	r3, r2
 1386 0826 53D9     		bls	.L41
 199:Libraries/STM32F4xx_HAL_Driver/Src/stm32f4xx_hal_dma_ex.c ****     __HAL_DMA_CLEAR_FLAG (hdma, __HAL_DMA_GET_DME_FLAG_INDEX(hdma));
 1387              		.loc 1 199 5 discriminator 102 view .LVU285
 1388 0828 483A     		subs	r2, r2, #72
 1389 082a 9342     		cmp	r3, r2
 1390 082c 31D0     		beq	.L183
 199:Libraries/STM32F4xx_HAL_Driver/Src/stm32f4xx_hal_dma_ex.c ****     __HAL_DMA_CLEAR_FLAG (hdma, __HAL_DMA_GET_DME_FLAG_INDEX(hdma));
 1391              		.loc 1 199 5 discriminator 104 view .LVU286
 1392 082e 02F58062 		add	r2, r2, #1024
 1393 0832 9342     		cmp	r3, r2
 1394 0834 31D0     		beq	.L184
 199:Libraries/STM32F4xx_HAL_Driver/Src/stm32f4xx_hal_dma_ex.c ****     __HAL_DMA_CLEAR_FLAG (hdma, __HAL_DMA_GET_DME_FLAG_INDEX(hdma));
 1395              		.loc 1 199 5 discriminator 106 view .LVU287
 1396 0836 A2F56872 		sub	r2, r2, #928
 1397 083a 9342     		cmp	r3, r2
 1398 083c 2FD0     		beq	.L185
 199:Libraries/STM32F4xx_HAL_Driver/Src/stm32f4xx_hal_dma_ex.c ****     __HAL_DMA_CLEAR_FLAG (hdma, __HAL_DMA_GET_DME_FLAG_INDEX(hdma));
 1399              		.loc 1 199 5 discriminator 108 view .LVU288
 1400 083e 02F58062 		add	r2, r2, #1024
 1401 0842 9342     		cmp	r3, r2
 1402 0844 2DD0     		beq	.L186
 199:Libraries/STM32F4xx_HAL_Driver/Src/stm32f4xx_hal_dma_ex.c ****     __HAL_DMA_CLEAR_FLAG (hdma, __HAL_DMA_GET_DME_FLAG_INDEX(hdma));
 1403              		.loc 1 199 5 discriminator 110 view .LVU289
 1404 0846 A2F58962 		sub	r2, r2, #1096
 1405 084a 9342     		cmp	r3, r2
 1406 084c 2BD0     		beq	.L187
 199:Libraries/STM32F4xx_HAL_Driver/Src/stm32f4xx_hal_dma_ex.c ****     __HAL_DMA_CLEAR_FLAG (hdma, __HAL_DMA_GET_DME_FLAG_INDEX(hdma));
 1407              		.loc 1 199 5 discriminator 112 view .LVU290
 1408 084e 02F58062 		add	r2, r2, #1024
 1409 0852 9342     		cmp	r3, r2
 1410 0854 2AD0     		beq	.L188
 199:Libraries/STM32F4xx_HAL_Driver/Src/stm32f4xx_hal_dma_ex.c ****     __HAL_DMA_CLEAR_FLAG (hdma, __HAL_DMA_GET_DME_FLAG_INDEX(hdma));
 1411              		.loc 1 199 5 discriminator 114 view .LVU291
 1412 0856 A2F56872 		sub	r2, r2, #928
 1413 085a 9342     		cmp	r3, r2
 1414 085c 29D0     		beq	.L189
 199:Libraries/STM32F4xx_HAL_Driver/Src/stm32f4xx_hal_dma_ex.c ****     __HAL_DMA_CLEAR_FLAG (hdma, __HAL_DMA_GET_DME_FLAG_INDEX(hdma));
 1415              		.loc 1 199 5 discriminator 116 view .LVU292
 1416 085e 02F58062 		add	r2, r2, #1024
 1417 0862 9342     		cmp	r3, r2
 1418 0864 28D0     		beq	.L190
 199:Libraries/STM32F4xx_HAL_Driver/Src/stm32f4xx_hal_dma_ex.c ****     __HAL_DMA_CLEAR_FLAG (hdma, __HAL_DMA_GET_DME_FLAG_INDEX(hdma));
 1419              		.loc 1 199 5 discriminator 118 view .LVU293
 1420 0866 A2F58962 		sub	r2, r2, #1096
 1421 086a 9342     		cmp	r3, r2
ARM GAS  C:\Users\yzy\AppData\Local\Temp\ccHYomBP.s 			page 36


 1422 086c 27D0     		beq	.L191
 199:Libraries/STM32F4xx_HAL_Driver/Src/stm32f4xx_hal_dma_ex.c ****     __HAL_DMA_CLEAR_FLAG (hdma, __HAL_DMA_GET_DME_FLAG_INDEX(hdma));
 1423              		.loc 1 199 5 discriminator 120 view .LVU294
 1424 086e 02F58062 		add	r2, r2, #1024
 1425 0872 9342     		cmp	r3, r2
 1426 0874 26D0     		beq	.L192
 199:Libraries/STM32F4xx_HAL_Driver/Src/stm32f4xx_hal_dma_ex.c ****     __HAL_DMA_CLEAR_FLAG (hdma, __HAL_DMA_GET_DME_FLAG_INDEX(hdma));
 1427              		.loc 1 199 5 discriminator 122 view .LVU295
 1428 0876 A2F56872 		sub	r2, r2, #928
 1429 087a 9342     		cmp	r3, r2
 1430 087c 25D0     		beq	.L193
 199:Libraries/STM32F4xx_HAL_Driver/Src/stm32f4xx_hal_dma_ex.c ****     __HAL_DMA_CLEAR_FLAG (hdma, __HAL_DMA_GET_DME_FLAG_INDEX(hdma));
 1431              		.loc 1 199 5 discriminator 124 view .LVU296
 1432 087e 02F58062 		add	r2, r2, #1024
 1433 0882 9342     		cmp	r3, r2
 1434 0884 02D0     		beq	.L317
 199:Libraries/STM32F4xx_HAL_Driver/Src/stm32f4xx_hal_dma_ex.c ****     __HAL_DMA_CLEAR_FLAG (hdma, __HAL_DMA_GET_DME_FLAG_INDEX(hdma));
 1435              		.loc 1 199 5 view .LVU297
 1436 0886 4FF00073 		mov	r3, #33554432
 1437 088a 03E0     		b	.L42
 1438              	.L317:
 1439 088c 4FF40023 		mov	r3, #524288
 1440 0890 00E0     		b	.L42
 1441              	.L183:
 1442 0892 0823     		movs	r3, #8
 1443              	.L42:
 199:Libraries/STM32F4xx_HAL_Driver/Src/stm32f4xx_hal_dma_ex.c ****     __HAL_DMA_CLEAR_FLAG (hdma, __HAL_DMA_GET_DME_FLAG_INDEX(hdma));
 1444              		.loc 1 199 5 discriminator 151 view .LVU298
 1445 0894 3E4A     		ldr	r2, .L331+16
 1446 0896 D360     		str	r3, [r2, #12]
 1447 0898 0DE7     		b	.L38
 1448              	.L184:
 199:Libraries/STM32F4xx_HAL_Driver/Src/stm32f4xx_hal_dma_ex.c ****     __HAL_DMA_CLEAR_FLAG (hdma, __HAL_DMA_GET_DME_FLAG_INDEX(hdma));
 1449              		.loc 1 199 5 view .LVU299
 1450 089a 0823     		movs	r3, #8
 1451 089c FAE7     		b	.L42
 1452              	.L185:
 1453 089e 0823     		movs	r3, #8
 1454 08a0 F8E7     		b	.L42
 1455              	.L186:
 1456 08a2 0823     		movs	r3, #8
 1457 08a4 F6E7     		b	.L42
 1458              	.L187:
 1459 08a6 4FF40073 		mov	r3, #512
 1460 08aa F3E7     		b	.L42
 1461              	.L188:
 1462 08ac 4FF40073 		mov	r3, #512
 1463 08b0 F0E7     		b	.L42
 1464              	.L189:
 1465 08b2 4FF40073 		mov	r3, #512
 1466 08b6 EDE7     		b	.L42
 1467              	.L190:
 1468 08b8 4FF40073 		mov	r3, #512
 1469 08bc EAE7     		b	.L42
 1470              	.L191:
 1471 08be 4FF40023 		mov	r3, #524288
 1472 08c2 E7E7     		b	.L42
ARM GAS  C:\Users\yzy\AppData\Local\Temp\ccHYomBP.s 			page 37


 1473              	.L192:
 1474 08c4 4FF40023 		mov	r3, #524288
 1475 08c8 E4E7     		b	.L42
 1476              	.L193:
 1477 08ca 4FF40023 		mov	r3, #524288
 1478 08ce E1E7     		b	.L42
 1479              	.L41:
 199:Libraries/STM32F4xx_HAL_Driver/Src/stm32f4xx_hal_dma_ex.c ****     __HAL_DMA_CLEAR_FLAG (hdma, __HAL_DMA_GET_DME_FLAG_INDEX(hdma));
 1480              		.loc 1 199 5 discriminator 103 view .LVU300
 1481 08d0 304A     		ldr	r2, .L331+20
 1482 08d2 9342     		cmp	r3, r2
 1483 08d4 31D0     		beq	.L195
 199:Libraries/STM32F4xx_HAL_Driver/Src/stm32f4xx_hal_dma_ex.c ****     __HAL_DMA_CLEAR_FLAG (hdma, __HAL_DMA_GET_DME_FLAG_INDEX(hdma));
 1484              		.loc 1 199 5 discriminator 153 view .LVU301
 1485 08d6 02F58062 		add	r2, r2, #1024
 1486 08da 9342     		cmp	r3, r2
 1487 08dc 31D0     		beq	.L196
 199:Libraries/STM32F4xx_HAL_Driver/Src/stm32f4xx_hal_dma_ex.c ****     __HAL_DMA_CLEAR_FLAG (hdma, __HAL_DMA_GET_DME_FLAG_INDEX(hdma));
 1488              		.loc 1 199 5 discriminator 155 view .LVU302
 1489 08de A2F56872 		sub	r2, r2, #928
 1490 08e2 9342     		cmp	r3, r2
 1491 08e4 2FD0     		beq	.L197
 199:Libraries/STM32F4xx_HAL_Driver/Src/stm32f4xx_hal_dma_ex.c ****     __HAL_DMA_CLEAR_FLAG (hdma, __HAL_DMA_GET_DME_FLAG_INDEX(hdma));
 1492              		.loc 1 199 5 discriminator 157 view .LVU303
 1493 08e6 02F58062 		add	r2, r2, #1024
 1494 08ea 9342     		cmp	r3, r2
 1495 08ec 2DD0     		beq	.L198
 199:Libraries/STM32F4xx_HAL_Driver/Src/stm32f4xx_hal_dma_ex.c ****     __HAL_DMA_CLEAR_FLAG (hdma, __HAL_DMA_GET_DME_FLAG_INDEX(hdma));
 1496              		.loc 1 199 5 discriminator 159 view .LVU304
 1497 08ee A2F58962 		sub	r2, r2, #1096
 1498 08f2 9342     		cmp	r3, r2
 1499 08f4 2BD0     		beq	.L199
 199:Libraries/STM32F4xx_HAL_Driver/Src/stm32f4xx_hal_dma_ex.c ****     __HAL_DMA_CLEAR_FLAG (hdma, __HAL_DMA_GET_DME_FLAG_INDEX(hdma));
 1500              		.loc 1 199 5 discriminator 161 view .LVU305
 1501 08f6 02F58062 		add	r2, r2, #1024
 1502 08fa 9342     		cmp	r3, r2
 1503 08fc 2AD0     		beq	.L200
 199:Libraries/STM32F4xx_HAL_Driver/Src/stm32f4xx_hal_dma_ex.c ****     __HAL_DMA_CLEAR_FLAG (hdma, __HAL_DMA_GET_DME_FLAG_INDEX(hdma));
 1504              		.loc 1 199 5 discriminator 163 view .LVU306
 1505 08fe A2F56872 		sub	r2, r2, #928
 1506 0902 9342     		cmp	r3, r2
 1507 0904 29D0     		beq	.L201
 199:Libraries/STM32F4xx_HAL_Driver/Src/stm32f4xx_hal_dma_ex.c ****     __HAL_DMA_CLEAR_FLAG (hdma, __HAL_DMA_GET_DME_FLAG_INDEX(hdma));
 1508              		.loc 1 199 5 discriminator 165 view .LVU307
 1509 0906 02F58062 		add	r2, r2, #1024
 1510 090a 9342     		cmp	r3, r2
 1511 090c 28D0     		beq	.L202
 199:Libraries/STM32F4xx_HAL_Driver/Src/stm32f4xx_hal_dma_ex.c ****     __HAL_DMA_CLEAR_FLAG (hdma, __HAL_DMA_GET_DME_FLAG_INDEX(hdma));
 1512              		.loc 1 199 5 discriminator 167 view .LVU308
 1513 090e A2F58962 		sub	r2, r2, #1096
 1514 0912 9342     		cmp	r3, r2
 1515 0914 27D0     		beq	.L203
 199:Libraries/STM32F4xx_HAL_Driver/Src/stm32f4xx_hal_dma_ex.c ****     __HAL_DMA_CLEAR_FLAG (hdma, __HAL_DMA_GET_DME_FLAG_INDEX(hdma));
 1516              		.loc 1 199 5 discriminator 169 view .LVU309
 1517 0916 02F58062 		add	r2, r2, #1024
 1518 091a 9342     		cmp	r3, r2
 1519 091c 26D0     		beq	.L204
ARM GAS  C:\Users\yzy\AppData\Local\Temp\ccHYomBP.s 			page 38


 199:Libraries/STM32F4xx_HAL_Driver/Src/stm32f4xx_hal_dma_ex.c ****     __HAL_DMA_CLEAR_FLAG (hdma, __HAL_DMA_GET_DME_FLAG_INDEX(hdma));
 1520              		.loc 1 199 5 discriminator 171 view .LVU310
 1521 091e A2F56872 		sub	r2, r2, #928
 1522 0922 9342     		cmp	r3, r2
 1523 0924 25D0     		beq	.L205
 199:Libraries/STM32F4xx_HAL_Driver/Src/stm32f4xx_hal_dma_ex.c ****     __HAL_DMA_CLEAR_FLAG (hdma, __HAL_DMA_GET_DME_FLAG_INDEX(hdma));
 1524              		.loc 1 199 5 discriminator 173 view .LVU311
 1525 0926 02F58062 		add	r2, r2, #1024
 1526 092a 9342     		cmp	r3, r2
 1527 092c 02D0     		beq	.L318
 199:Libraries/STM32F4xx_HAL_Driver/Src/stm32f4xx_hal_dma_ex.c ****     __HAL_DMA_CLEAR_FLAG (hdma, __HAL_DMA_GET_DME_FLAG_INDEX(hdma));
 1528              		.loc 1 199 5 view .LVU312
 1529 092e 4FF00073 		mov	r3, #33554432
 1530 0932 03E0     		b	.L43
 1531              	.L318:
 1532 0934 4FF40023 		mov	r3, #524288
 1533 0938 00E0     		b	.L43
 1534              	.L195:
 1535 093a 0823     		movs	r3, #8
 1536              	.L43:
 199:Libraries/STM32F4xx_HAL_Driver/Src/stm32f4xx_hal_dma_ex.c ****     __HAL_DMA_CLEAR_FLAG (hdma, __HAL_DMA_GET_DME_FLAG_INDEX(hdma));
 1537              		.loc 1 199 5 discriminator 200 view .LVU313
 1538 093c 144A     		ldr	r2, .L331+16
 1539 093e 9360     		str	r3, [r2, #8]
 1540 0940 B9E6     		b	.L38
 1541              	.L196:
 199:Libraries/STM32F4xx_HAL_Driver/Src/stm32f4xx_hal_dma_ex.c ****     __HAL_DMA_CLEAR_FLAG (hdma, __HAL_DMA_GET_DME_FLAG_INDEX(hdma));
 1542              		.loc 1 199 5 view .LVU314
 1543 0942 0823     		movs	r3, #8
 1544 0944 FAE7     		b	.L43
 1545              	.L197:
 1546 0946 0823     		movs	r3, #8
 1547 0948 F8E7     		b	.L43
 1548              	.L198:
 1549 094a 0823     		movs	r3, #8
 1550 094c F6E7     		b	.L43
 1551              	.L199:
 1552 094e 4FF40073 		mov	r3, #512
 1553 0952 F3E7     		b	.L43
 1554              	.L200:
 1555 0954 4FF40073 		mov	r3, #512
 1556 0958 F0E7     		b	.L43
 1557              	.L201:
 1558 095a 4FF40073 		mov	r3, #512
 1559 095e EDE7     		b	.L43
 1560              	.L202:
 1561 0960 4FF40073 		mov	r3, #512
 1562 0964 EAE7     		b	.L43
 1563              	.L203:
 1564 0966 4FF40023 		mov	r3, #524288
 1565 096a E7E7     		b	.L43
 1566              	.L204:
 1567 096c 4FF40023 		mov	r3, #524288
 1568 0970 E4E7     		b	.L43
 1569              	.L205:
 1570 0972 4FF40023 		mov	r3, #524288
 1571 0976 E1E7     		b	.L43
ARM GAS  C:\Users\yzy\AppData\Local\Temp\ccHYomBP.s 			page 39


 1572              	.L315:
 200:Libraries/STM32F4xx_HAL_Driver/Src/stm32f4xx_hal_dma_ex.c ****     __HAL_DMA_CLEAR_FLAG (hdma, __HAL_DMA_GET_FE_FLAG_INDEX(hdma));
 1573              		.loc 1 200 5 view .LVU315
 1574 0978 4FF48022 		mov	r2, #262144
 1575 097c 0DE0     		b	.L45
 1576              	.L332:
 1577 097e 00BF     		.align	2
 1578              	.L331:
 1579 0980 00640240 		.word	1073898496
 1580 0984 58640240 		.word	1073898584
 1581 0988 B8600240 		.word	1073897656
 1582 098c 58600240 		.word	1073897560
 1583 0990 00600240 		.word	1073897472
 1584 0994 10600240 		.word	1073897488
 1585              	.L207:
 1586 0998 0422     		movs	r2, #4
 1587              	.L45:
 200:Libraries/STM32F4xx_HAL_Driver/Src/stm32f4xx_hal_dma_ex.c ****     __HAL_DMA_CLEAR_FLAG (hdma, __HAL_DMA_GET_FE_FLAG_INDEX(hdma));
 1588              		.loc 1 200 5 discriminator 50 view .LVU316
 1589 099a C24B     		ldr	r3, .L333
 1590 099c DA60     		str	r2, [r3, #12]
 1591              	.L46:
 201:Libraries/STM32F4xx_HAL_Driver/Src/stm32f4xx_hal_dma_ex.c **** 
 1592              		.loc 1 201 5 is_stmt 1 view .LVU317
 1593 099e 2368     		ldr	r3, [r4]
 1594 09a0 C14A     		ldr	r2, .L333+4
 1595 09a2 9342     		cmp	r3, r2
 1596 09a4 40F2A181 		bls	.L52
 201:Libraries/STM32F4xx_HAL_Driver/Src/stm32f4xx_hal_dma_ex.c **** 
 1597              		.loc 1 201 5 is_stmt 0 discriminator 1 view .LVU318
 1598 09a8 A2F58962 		sub	r2, r2, #1096
 1599 09ac 9342     		cmp	r3, r2
 1600 09ae 00F05A81 		beq	.L255
 201:Libraries/STM32F4xx_HAL_Driver/Src/stm32f4xx_hal_dma_ex.c **** 
 1601              		.loc 1 201 5 discriminator 3 view .LVU319
 1602 09b2 02F58062 		add	r2, r2, #1024
 1603 09b6 9342     		cmp	r3, r2
 1604 09b8 00F08081 		beq	.L256
 201:Libraries/STM32F4xx_HAL_Driver/Src/stm32f4xx_hal_dma_ex.c **** 
 1605              		.loc 1 201 5 discriminator 5 view .LVU320
 1606 09bc A2F56872 		sub	r2, r2, #928
 1607 09c0 9342     		cmp	r3, r2
 1608 09c2 00F07D81 		beq	.L257
 201:Libraries/STM32F4xx_HAL_Driver/Src/stm32f4xx_hal_dma_ex.c **** 
 1609              		.loc 1 201 5 discriminator 7 view .LVU321
 1610 09c6 02F58062 		add	r2, r2, #1024
 1611 09ca 9342     		cmp	r3, r2
 1612 09cc 00F07A81 		beq	.L258
 201:Libraries/STM32F4xx_HAL_Driver/Src/stm32f4xx_hal_dma_ex.c **** 
 1613              		.loc 1 201 5 discriminator 9 view .LVU322
 1614 09d0 A2F58962 		sub	r2, r2, #1096
 1615 09d4 9342     		cmp	r3, r2
 1616 09d6 00F07781 		beq	.L259
 201:Libraries/STM32F4xx_HAL_Driver/Src/stm32f4xx_hal_dma_ex.c **** 
 1617              		.loc 1 201 5 discriminator 11 view .LVU323
 1618 09da 02F58062 		add	r2, r2, #1024
 1619 09de 9342     		cmp	r3, r2
ARM GAS  C:\Users\yzy\AppData\Local\Temp\ccHYomBP.s 			page 40


 1620 09e0 00F07481 		beq	.L260
 201:Libraries/STM32F4xx_HAL_Driver/Src/stm32f4xx_hal_dma_ex.c **** 
 1621              		.loc 1 201 5 discriminator 13 view .LVU324
 1622 09e4 A2F56872 		sub	r2, r2, #928
 1623 09e8 9342     		cmp	r3, r2
 1624 09ea 00F07181 		beq	.L261
 201:Libraries/STM32F4xx_HAL_Driver/Src/stm32f4xx_hal_dma_ex.c **** 
 1625              		.loc 1 201 5 discriminator 15 view .LVU325
 1626 09ee 02F58062 		add	r2, r2, #1024
 1627 09f2 9342     		cmp	r3, r2
 1628 09f4 00F06E81 		beq	.L262
 201:Libraries/STM32F4xx_HAL_Driver/Src/stm32f4xx_hal_dma_ex.c **** 
 1629              		.loc 1 201 5 discriminator 17 view .LVU326
 1630 09f8 A2F58962 		sub	r2, r2, #1096
 1631 09fc 9342     		cmp	r3, r2
 1632 09fe 00F06B81 		beq	.L263
 201:Libraries/STM32F4xx_HAL_Driver/Src/stm32f4xx_hal_dma_ex.c **** 
 1633              		.loc 1 201 5 discriminator 19 view .LVU327
 1634 0a02 02F58062 		add	r2, r2, #1024
 1635 0a06 9342     		cmp	r3, r2
 1636 0a08 00F06981 		beq	.L264
 201:Libraries/STM32F4xx_HAL_Driver/Src/stm32f4xx_hal_dma_ex.c **** 
 1637              		.loc 1 201 5 discriminator 21 view .LVU328
 1638 0a0c A2F56872 		sub	r2, r2, #928
 1639 0a10 9342     		cmp	r3, r2
 1640 0a12 00F06781 		beq	.L265
 201:Libraries/STM32F4xx_HAL_Driver/Src/stm32f4xx_hal_dma_ex.c **** 
 1641              		.loc 1 201 5 discriminator 23 view .LVU329
 1642 0a16 02F58062 		add	r2, r2, #1024
 1643 0a1a 9342     		cmp	r3, r2
 1644 0a1c 00F02081 		beq	.L319
 201:Libraries/STM32F4xx_HAL_Driver/Src/stm32f4xx_hal_dma_ex.c **** 
 1645              		.loc 1 201 5 view .LVU330
 1646 0a20 4FF48002 		mov	r2, #4194304
 1647 0a24 20E1     		b	.L53
 1648              	.L208:
 200:Libraries/STM32F4xx_HAL_Driver/Src/stm32f4xx_hal_dma_ex.c ****     __HAL_DMA_CLEAR_FLAG (hdma, __HAL_DMA_GET_FE_FLAG_INDEX(hdma));
 1649              		.loc 1 200 5 view .LVU331
 1650 0a26 0422     		movs	r2, #4
 1651 0a28 B7E7     		b	.L45
 1652              	.L209:
 1653 0a2a 0422     		movs	r2, #4
 1654 0a2c B5E7     		b	.L45
 1655              	.L210:
 1656 0a2e 0422     		movs	r2, #4
 1657 0a30 B3E7     		b	.L45
 1658              	.L211:
 1659 0a32 4FF48072 		mov	r2, #256
 1660 0a36 B0E7     		b	.L45
 1661              	.L212:
 1662 0a38 4FF48072 		mov	r2, #256
 1663 0a3c ADE7     		b	.L45
 1664              	.L213:
 1665 0a3e 4FF48072 		mov	r2, #256
 1666 0a42 AAE7     		b	.L45
 1667              	.L214:
 1668 0a44 4FF48072 		mov	r2, #256
ARM GAS  C:\Users\yzy\AppData\Local\Temp\ccHYomBP.s 			page 41


 1669 0a48 A7E7     		b	.L45
 1670              	.L215:
 1671 0a4a 4FF48022 		mov	r2, #262144
 1672 0a4e A4E7     		b	.L45
 1673              	.L216:
 1674 0a50 4FF48022 		mov	r2, #262144
 1675 0a54 A1E7     		b	.L45
 1676              	.L217:
 1677 0a56 4FF48022 		mov	r2, #262144
 1678 0a5a 9EE7     		b	.L45
 1679              	.L44:
 200:Libraries/STM32F4xx_HAL_Driver/Src/stm32f4xx_hal_dma_ex.c ****     __HAL_DMA_CLEAR_FLAG (hdma, __HAL_DMA_GET_FE_FLAG_INDEX(hdma));
 1680              		.loc 1 200 5 discriminator 2 view .LVU332
 1681 0a5c 934A     		ldr	r2, .L333+8
 1682 0a5e 9342     		cmp	r3, r2
 1683 0a60 53D9     		bls	.L47
 200:Libraries/STM32F4xx_HAL_Driver/Src/stm32f4xx_hal_dma_ex.c ****     __HAL_DMA_CLEAR_FLAG (hdma, __HAL_DMA_GET_FE_FLAG_INDEX(hdma));
 1684              		.loc 1 200 5 discriminator 51 view .LVU333
 1685 0a62 A83A     		subs	r2, r2, #168
 1686 0a64 9342     		cmp	r3, r2
 1687 0a66 31D0     		beq	.L219
 200:Libraries/STM32F4xx_HAL_Driver/Src/stm32f4xx_hal_dma_ex.c ****     __HAL_DMA_CLEAR_FLAG (hdma, __HAL_DMA_GET_FE_FLAG_INDEX(hdma));
 1688              		.loc 1 200 5 discriminator 53 view .LVU334
 1689 0a68 02F58062 		add	r2, r2, #1024
 1690 0a6c 9342     		cmp	r3, r2
 1691 0a6e 31D0     		beq	.L220
 200:Libraries/STM32F4xx_HAL_Driver/Src/stm32f4xx_hal_dma_ex.c ****     __HAL_DMA_CLEAR_FLAG (hdma, __HAL_DMA_GET_FE_FLAG_INDEX(hdma));
 1692              		.loc 1 200 5 discriminator 55 view .LVU335
 1693 0a70 A2F56872 		sub	r2, r2, #928
 1694 0a74 9342     		cmp	r3, r2
 1695 0a76 2FD0     		beq	.L221
 200:Libraries/STM32F4xx_HAL_Driver/Src/stm32f4xx_hal_dma_ex.c ****     __HAL_DMA_CLEAR_FLAG (hdma, __HAL_DMA_GET_FE_FLAG_INDEX(hdma));
 1696              		.loc 1 200 5 discriminator 57 view .LVU336
 1697 0a78 02F58062 		add	r2, r2, #1024
 1698 0a7c 9342     		cmp	r3, r2
 1699 0a7e 2DD0     		beq	.L222
 200:Libraries/STM32F4xx_HAL_Driver/Src/stm32f4xx_hal_dma_ex.c ****     __HAL_DMA_CLEAR_FLAG (hdma, __HAL_DMA_GET_FE_FLAG_INDEX(hdma));
 1700              		.loc 1 200 5 discriminator 59 view .LVU337
 1701 0a80 A2F58962 		sub	r2, r2, #1096
 1702 0a84 9342     		cmp	r3, r2
 1703 0a86 2BD0     		beq	.L223
 200:Libraries/STM32F4xx_HAL_Driver/Src/stm32f4xx_hal_dma_ex.c ****     __HAL_DMA_CLEAR_FLAG (hdma, __HAL_DMA_GET_FE_FLAG_INDEX(hdma));
 1704              		.loc 1 200 5 discriminator 61 view .LVU338
 1705 0a88 02F58062 		add	r2, r2, #1024
 1706 0a8c 9342     		cmp	r3, r2
 1707 0a8e 2AD0     		beq	.L224
 200:Libraries/STM32F4xx_HAL_Driver/Src/stm32f4xx_hal_dma_ex.c ****     __HAL_DMA_CLEAR_FLAG (hdma, __HAL_DMA_GET_FE_FLAG_INDEX(hdma));
 1708              		.loc 1 200 5 discriminator 63 view .LVU339
 1709 0a90 A2F56872 		sub	r2, r2, #928
 1710 0a94 9342     		cmp	r3, r2
 1711 0a96 29D0     		beq	.L225
 200:Libraries/STM32F4xx_HAL_Driver/Src/stm32f4xx_hal_dma_ex.c ****     __HAL_DMA_CLEAR_FLAG (hdma, __HAL_DMA_GET_FE_FLAG_INDEX(hdma));
 1712              		.loc 1 200 5 discriminator 65 view .LVU340
 1713 0a98 02F58062 		add	r2, r2, #1024
 1714 0a9c 9342     		cmp	r3, r2
 1715 0a9e 28D0     		beq	.L226
 200:Libraries/STM32F4xx_HAL_Driver/Src/stm32f4xx_hal_dma_ex.c ****     __HAL_DMA_CLEAR_FLAG (hdma, __HAL_DMA_GET_FE_FLAG_INDEX(hdma));
ARM GAS  C:\Users\yzy\AppData\Local\Temp\ccHYomBP.s 			page 42


 1716              		.loc 1 200 5 discriminator 67 view .LVU341
 1717 0aa0 A2F58962 		sub	r2, r2, #1096
 1718 0aa4 9342     		cmp	r3, r2
 1719 0aa6 27D0     		beq	.L227
 200:Libraries/STM32F4xx_HAL_Driver/Src/stm32f4xx_hal_dma_ex.c ****     __HAL_DMA_CLEAR_FLAG (hdma, __HAL_DMA_GET_FE_FLAG_INDEX(hdma));
 1720              		.loc 1 200 5 discriminator 69 view .LVU342
 1721 0aa8 02F58062 		add	r2, r2, #1024
 1722 0aac 9342     		cmp	r3, r2
 1723 0aae 26D0     		beq	.L228
 200:Libraries/STM32F4xx_HAL_Driver/Src/stm32f4xx_hal_dma_ex.c ****     __HAL_DMA_CLEAR_FLAG (hdma, __HAL_DMA_GET_FE_FLAG_INDEX(hdma));
 1724              		.loc 1 200 5 discriminator 71 view .LVU343
 1725 0ab0 A2F56872 		sub	r2, r2, #928
 1726 0ab4 9342     		cmp	r3, r2
 1727 0ab6 25D0     		beq	.L229
 200:Libraries/STM32F4xx_HAL_Driver/Src/stm32f4xx_hal_dma_ex.c ****     __HAL_DMA_CLEAR_FLAG (hdma, __HAL_DMA_GET_FE_FLAG_INDEX(hdma));
 1728              		.loc 1 200 5 discriminator 73 view .LVU344
 1729 0ab8 02F58062 		add	r2, r2, #1024
 1730 0abc 9342     		cmp	r3, r2
 1731 0abe 02D0     		beq	.L320
 200:Libraries/STM32F4xx_HAL_Driver/Src/stm32f4xx_hal_dma_ex.c ****     __HAL_DMA_CLEAR_FLAG (hdma, __HAL_DMA_GET_FE_FLAG_INDEX(hdma));
 1732              		.loc 1 200 5 view .LVU345
 1733 0ac0 4FF08073 		mov	r3, #16777216
 1734 0ac4 03E0     		b	.L48
 1735              	.L320:
 1736 0ac6 4FF48023 		mov	r3, #262144
 1737 0aca 00E0     		b	.L48
 1738              	.L219:
 1739 0acc 0423     		movs	r3, #4
 1740              	.L48:
 200:Libraries/STM32F4xx_HAL_Driver/Src/stm32f4xx_hal_dma_ex.c ****     __HAL_DMA_CLEAR_FLAG (hdma, __HAL_DMA_GET_FE_FLAG_INDEX(hdma));
 1741              		.loc 1 200 5 discriminator 100 view .LVU346
 1742 0ace 754A     		ldr	r2, .L333
 1743 0ad0 9360     		str	r3, [r2, #8]
 1744 0ad2 64E7     		b	.L46
 1745              	.L220:
 200:Libraries/STM32F4xx_HAL_Driver/Src/stm32f4xx_hal_dma_ex.c ****     __HAL_DMA_CLEAR_FLAG (hdma, __HAL_DMA_GET_FE_FLAG_INDEX(hdma));
 1746              		.loc 1 200 5 view .LVU347
 1747 0ad4 0423     		movs	r3, #4
 1748 0ad6 FAE7     		b	.L48
 1749              	.L221:
 1750 0ad8 0423     		movs	r3, #4
 1751 0ada F8E7     		b	.L48
 1752              	.L222:
 1753 0adc 0423     		movs	r3, #4
 1754 0ade F6E7     		b	.L48
 1755              	.L223:
 1756 0ae0 4FF48073 		mov	r3, #256
 1757 0ae4 F3E7     		b	.L48
 1758              	.L224:
 1759 0ae6 4FF48073 		mov	r3, #256
 1760 0aea F0E7     		b	.L48
 1761              	.L225:
 1762 0aec 4FF48073 		mov	r3, #256
 1763 0af0 EDE7     		b	.L48
 1764              	.L226:
 1765 0af2 4FF48073 		mov	r3, #256
 1766 0af6 EAE7     		b	.L48
ARM GAS  C:\Users\yzy\AppData\Local\Temp\ccHYomBP.s 			page 43


 1767              	.L227:
 1768 0af8 4FF48023 		mov	r3, #262144
 1769 0afc E7E7     		b	.L48
 1770              	.L228:
 1771 0afe 4FF48023 		mov	r3, #262144
 1772 0b02 E4E7     		b	.L48
 1773              	.L229:
 1774 0b04 4FF48023 		mov	r3, #262144
 1775 0b08 E1E7     		b	.L48
 1776              	.L47:
 200:Libraries/STM32F4xx_HAL_Driver/Src/stm32f4xx_hal_dma_ex.c ****     __HAL_DMA_CLEAR_FLAG (hdma, __HAL_DMA_GET_FE_FLAG_INDEX(hdma));
 1777              		.loc 1 200 5 discriminator 52 view .LVU348
 1778 0b0a 694A     		ldr	r2, .L333+12
 1779 0b0c 9342     		cmp	r3, r2
 1780 0b0e 53D9     		bls	.L49
 200:Libraries/STM32F4xx_HAL_Driver/Src/stm32f4xx_hal_dma_ex.c ****     __HAL_DMA_CLEAR_FLAG (hdma, __HAL_DMA_GET_FE_FLAG_INDEX(hdma));
 1781              		.loc 1 200 5 discriminator 102 view .LVU349
 1782 0b10 483A     		subs	r2, r2, #72
 1783 0b12 9342     		cmp	r3, r2
 1784 0b14 31D0     		beq	.L231
 200:Libraries/STM32F4xx_HAL_Driver/Src/stm32f4xx_hal_dma_ex.c ****     __HAL_DMA_CLEAR_FLAG (hdma, __HAL_DMA_GET_FE_FLAG_INDEX(hdma));
 1785              		.loc 1 200 5 discriminator 104 view .LVU350
 1786 0b16 02F58062 		add	r2, r2, #1024
 1787 0b1a 9342     		cmp	r3, r2
 1788 0b1c 31D0     		beq	.L232
 200:Libraries/STM32F4xx_HAL_Driver/Src/stm32f4xx_hal_dma_ex.c ****     __HAL_DMA_CLEAR_FLAG (hdma, __HAL_DMA_GET_FE_FLAG_INDEX(hdma));
 1789              		.loc 1 200 5 discriminator 106 view .LVU351
 1790 0b1e A2F56872 		sub	r2, r2, #928
 1791 0b22 9342     		cmp	r3, r2
 1792 0b24 2FD0     		beq	.L233
 200:Libraries/STM32F4xx_HAL_Driver/Src/stm32f4xx_hal_dma_ex.c ****     __HAL_DMA_CLEAR_FLAG (hdma, __HAL_DMA_GET_FE_FLAG_INDEX(hdma));
 1793              		.loc 1 200 5 discriminator 108 view .LVU352
 1794 0b26 02F58062 		add	r2, r2, #1024
 1795 0b2a 9342     		cmp	r3, r2
 1796 0b2c 2DD0     		beq	.L234
 200:Libraries/STM32F4xx_HAL_Driver/Src/stm32f4xx_hal_dma_ex.c ****     __HAL_DMA_CLEAR_FLAG (hdma, __HAL_DMA_GET_FE_FLAG_INDEX(hdma));
 1797              		.loc 1 200 5 discriminator 110 view .LVU353
 1798 0b2e A2F58962 		sub	r2, r2, #1096
 1799 0b32 9342     		cmp	r3, r2
 1800 0b34 2BD0     		beq	.L235
 200:Libraries/STM32F4xx_HAL_Driver/Src/stm32f4xx_hal_dma_ex.c ****     __HAL_DMA_CLEAR_FLAG (hdma, __HAL_DMA_GET_FE_FLAG_INDEX(hdma));
 1801              		.loc 1 200 5 discriminator 112 view .LVU354
 1802 0b36 02F58062 		add	r2, r2, #1024
 1803 0b3a 9342     		cmp	r3, r2
 1804 0b3c 2AD0     		beq	.L236
 200:Libraries/STM32F4xx_HAL_Driver/Src/stm32f4xx_hal_dma_ex.c ****     __HAL_DMA_CLEAR_FLAG (hdma, __HAL_DMA_GET_FE_FLAG_INDEX(hdma));
 1805              		.loc 1 200 5 discriminator 114 view .LVU355
 1806 0b3e A2F56872 		sub	r2, r2, #928
 1807 0b42 9342     		cmp	r3, r2
 1808 0b44 29D0     		beq	.L237
 200:Libraries/STM32F4xx_HAL_Driver/Src/stm32f4xx_hal_dma_ex.c ****     __HAL_DMA_CLEAR_FLAG (hdma, __HAL_DMA_GET_FE_FLAG_INDEX(hdma));
 1809              		.loc 1 200 5 discriminator 116 view .LVU356
 1810 0b46 02F58062 		add	r2, r2, #1024
 1811 0b4a 9342     		cmp	r3, r2
 1812 0b4c 28D0     		beq	.L238
 200:Libraries/STM32F4xx_HAL_Driver/Src/stm32f4xx_hal_dma_ex.c ****     __HAL_DMA_CLEAR_FLAG (hdma, __HAL_DMA_GET_FE_FLAG_INDEX(hdma));
 1813              		.loc 1 200 5 discriminator 118 view .LVU357
ARM GAS  C:\Users\yzy\AppData\Local\Temp\ccHYomBP.s 			page 44


 1814 0b4e A2F58962 		sub	r2, r2, #1096
 1815 0b52 9342     		cmp	r3, r2
 1816 0b54 27D0     		beq	.L239
 200:Libraries/STM32F4xx_HAL_Driver/Src/stm32f4xx_hal_dma_ex.c ****     __HAL_DMA_CLEAR_FLAG (hdma, __HAL_DMA_GET_FE_FLAG_INDEX(hdma));
 1817              		.loc 1 200 5 discriminator 120 view .LVU358
 1818 0b56 02F58062 		add	r2, r2, #1024
 1819 0b5a 9342     		cmp	r3, r2
 1820 0b5c 26D0     		beq	.L240
 200:Libraries/STM32F4xx_HAL_Driver/Src/stm32f4xx_hal_dma_ex.c ****     __HAL_DMA_CLEAR_FLAG (hdma, __HAL_DMA_GET_FE_FLAG_INDEX(hdma));
 1821              		.loc 1 200 5 discriminator 122 view .LVU359
 1822 0b5e A2F56872 		sub	r2, r2, #928
 1823 0b62 9342     		cmp	r3, r2
 1824 0b64 25D0     		beq	.L241
 200:Libraries/STM32F4xx_HAL_Driver/Src/stm32f4xx_hal_dma_ex.c ****     __HAL_DMA_CLEAR_FLAG (hdma, __HAL_DMA_GET_FE_FLAG_INDEX(hdma));
 1825              		.loc 1 200 5 discriminator 124 view .LVU360
 1826 0b66 02F58062 		add	r2, r2, #1024
 1827 0b6a 9342     		cmp	r3, r2
 1828 0b6c 02D0     		beq	.L321
 200:Libraries/STM32F4xx_HAL_Driver/Src/stm32f4xx_hal_dma_ex.c ****     __HAL_DMA_CLEAR_FLAG (hdma, __HAL_DMA_GET_FE_FLAG_INDEX(hdma));
 1829              		.loc 1 200 5 view .LVU361
 1830 0b6e 4FF08073 		mov	r3, #16777216
 1831 0b72 03E0     		b	.L50
 1832              	.L321:
 1833 0b74 4FF48023 		mov	r3, #262144
 1834 0b78 00E0     		b	.L50
 1835              	.L231:
 1836 0b7a 0423     		movs	r3, #4
 1837              	.L50:
 200:Libraries/STM32F4xx_HAL_Driver/Src/stm32f4xx_hal_dma_ex.c ****     __HAL_DMA_CLEAR_FLAG (hdma, __HAL_DMA_GET_FE_FLAG_INDEX(hdma));
 1838              		.loc 1 200 5 discriminator 151 view .LVU362
 1839 0b7c 4D4A     		ldr	r2, .L333+16
 1840 0b7e D360     		str	r3, [r2, #12]
 1841 0b80 0DE7     		b	.L46
 1842              	.L232:
 200:Libraries/STM32F4xx_HAL_Driver/Src/stm32f4xx_hal_dma_ex.c ****     __HAL_DMA_CLEAR_FLAG (hdma, __HAL_DMA_GET_FE_FLAG_INDEX(hdma));
 1843              		.loc 1 200 5 view .LVU363
 1844 0b82 0423     		movs	r3, #4
 1845 0b84 FAE7     		b	.L50
 1846              	.L233:
 1847 0b86 0423     		movs	r3, #4
 1848 0b88 F8E7     		b	.L50
 1849              	.L234:
 1850 0b8a 0423     		movs	r3, #4
 1851 0b8c F6E7     		b	.L50
 1852              	.L235:
 1853 0b8e 4FF48073 		mov	r3, #256
 1854 0b92 F3E7     		b	.L50
 1855              	.L236:
 1856 0b94 4FF48073 		mov	r3, #256
 1857 0b98 F0E7     		b	.L50
 1858              	.L237:
 1859 0b9a 4FF48073 		mov	r3, #256
 1860 0b9e EDE7     		b	.L50
 1861              	.L238:
 1862 0ba0 4FF48073 		mov	r3, #256
 1863 0ba4 EAE7     		b	.L50
 1864              	.L239:
ARM GAS  C:\Users\yzy\AppData\Local\Temp\ccHYomBP.s 			page 45


 1865 0ba6 4FF48023 		mov	r3, #262144
 1866 0baa E7E7     		b	.L50
 1867              	.L240:
 1868 0bac 4FF48023 		mov	r3, #262144
 1869 0bb0 E4E7     		b	.L50
 1870              	.L241:
 1871 0bb2 4FF48023 		mov	r3, #262144
 1872 0bb6 E1E7     		b	.L50
 1873              	.L49:
 200:Libraries/STM32F4xx_HAL_Driver/Src/stm32f4xx_hal_dma_ex.c ****     __HAL_DMA_CLEAR_FLAG (hdma, __HAL_DMA_GET_FE_FLAG_INDEX(hdma));
 1874              		.loc 1 200 5 discriminator 103 view .LVU364
 1875 0bb8 3F4A     		ldr	r2, .L333+20
 1876 0bba 9342     		cmp	r3, r2
 1877 0bbc 31D0     		beq	.L243
 200:Libraries/STM32F4xx_HAL_Driver/Src/stm32f4xx_hal_dma_ex.c ****     __HAL_DMA_CLEAR_FLAG (hdma, __HAL_DMA_GET_FE_FLAG_INDEX(hdma));
 1878              		.loc 1 200 5 discriminator 153 view .LVU365
 1879 0bbe 02F58062 		add	r2, r2, #1024
 1880 0bc2 9342     		cmp	r3, r2
 1881 0bc4 31D0     		beq	.L244
 200:Libraries/STM32F4xx_HAL_Driver/Src/stm32f4xx_hal_dma_ex.c ****     __HAL_DMA_CLEAR_FLAG (hdma, __HAL_DMA_GET_FE_FLAG_INDEX(hdma));
 1882              		.loc 1 200 5 discriminator 155 view .LVU366
 1883 0bc6 A2F56872 		sub	r2, r2, #928
 1884 0bca 9342     		cmp	r3, r2
 1885 0bcc 2FD0     		beq	.L245
 200:Libraries/STM32F4xx_HAL_Driver/Src/stm32f4xx_hal_dma_ex.c ****     __HAL_DMA_CLEAR_FLAG (hdma, __HAL_DMA_GET_FE_FLAG_INDEX(hdma));
 1886              		.loc 1 200 5 discriminator 157 view .LVU367
 1887 0bce 02F58062 		add	r2, r2, #1024
 1888 0bd2 9342     		cmp	r3, r2
 1889 0bd4 2DD0     		beq	.L246
 200:Libraries/STM32F4xx_HAL_Driver/Src/stm32f4xx_hal_dma_ex.c ****     __HAL_DMA_CLEAR_FLAG (hdma, __HAL_DMA_GET_FE_FLAG_INDEX(hdma));
 1890              		.loc 1 200 5 discriminator 159 view .LVU368
 1891 0bd6 A2F58962 		sub	r2, r2, #1096
 1892 0bda 9342     		cmp	r3, r2
 1893 0bdc 2BD0     		beq	.L247
 200:Libraries/STM32F4xx_HAL_Driver/Src/stm32f4xx_hal_dma_ex.c ****     __HAL_DMA_CLEAR_FLAG (hdma, __HAL_DMA_GET_FE_FLAG_INDEX(hdma));
 1894              		.loc 1 200 5 discriminator 161 view .LVU369
 1895 0bde 02F58062 		add	r2, r2, #1024
 1896 0be2 9342     		cmp	r3, r2
 1897 0be4 2AD0     		beq	.L248
 200:Libraries/STM32F4xx_HAL_Driver/Src/stm32f4xx_hal_dma_ex.c ****     __HAL_DMA_CLEAR_FLAG (hdma, __HAL_DMA_GET_FE_FLAG_INDEX(hdma));
 1898              		.loc 1 200 5 discriminator 163 view .LVU370
 1899 0be6 A2F56872 		sub	r2, r2, #928
 1900 0bea 9342     		cmp	r3, r2
 1901 0bec 29D0     		beq	.L249
 200:Libraries/STM32F4xx_HAL_Driver/Src/stm32f4xx_hal_dma_ex.c ****     __HAL_DMA_CLEAR_FLAG (hdma, __HAL_DMA_GET_FE_FLAG_INDEX(hdma));
 1902              		.loc 1 200 5 discriminator 165 view .LVU371
 1903 0bee 02F58062 		add	r2, r2, #1024
 1904 0bf2 9342     		cmp	r3, r2
 1905 0bf4 28D0     		beq	.L250
 200:Libraries/STM32F4xx_HAL_Driver/Src/stm32f4xx_hal_dma_ex.c ****     __HAL_DMA_CLEAR_FLAG (hdma, __HAL_DMA_GET_FE_FLAG_INDEX(hdma));
 1906              		.loc 1 200 5 discriminator 167 view .LVU372
 1907 0bf6 A2F58962 		sub	r2, r2, #1096
 1908 0bfa 9342     		cmp	r3, r2
 1909 0bfc 27D0     		beq	.L251
 200:Libraries/STM32F4xx_HAL_Driver/Src/stm32f4xx_hal_dma_ex.c ****     __HAL_DMA_CLEAR_FLAG (hdma, __HAL_DMA_GET_FE_FLAG_INDEX(hdma));
 1910              		.loc 1 200 5 discriminator 169 view .LVU373
 1911 0bfe 02F58062 		add	r2, r2, #1024
ARM GAS  C:\Users\yzy\AppData\Local\Temp\ccHYomBP.s 			page 46


 1912 0c02 9342     		cmp	r3, r2
 1913 0c04 26D0     		beq	.L252
 200:Libraries/STM32F4xx_HAL_Driver/Src/stm32f4xx_hal_dma_ex.c ****     __HAL_DMA_CLEAR_FLAG (hdma, __HAL_DMA_GET_FE_FLAG_INDEX(hdma));
 1914              		.loc 1 200 5 discriminator 171 view .LVU374
 1915 0c06 A2F56872 		sub	r2, r2, #928
 1916 0c0a 9342     		cmp	r3, r2
 1917 0c0c 25D0     		beq	.L253
 200:Libraries/STM32F4xx_HAL_Driver/Src/stm32f4xx_hal_dma_ex.c ****     __HAL_DMA_CLEAR_FLAG (hdma, __HAL_DMA_GET_FE_FLAG_INDEX(hdma));
 1918              		.loc 1 200 5 discriminator 173 view .LVU375
 1919 0c0e 02F58062 		add	r2, r2, #1024
 1920 0c12 9342     		cmp	r3, r2
 1921 0c14 02D0     		beq	.L322
 200:Libraries/STM32F4xx_HAL_Driver/Src/stm32f4xx_hal_dma_ex.c ****     __HAL_DMA_CLEAR_FLAG (hdma, __HAL_DMA_GET_FE_FLAG_INDEX(hdma));
 1922              		.loc 1 200 5 view .LVU376
 1923 0c16 4FF08073 		mov	r3, #16777216
 1924 0c1a 03E0     		b	.L51
 1925              	.L322:
 1926 0c1c 4FF48023 		mov	r3, #262144
 1927 0c20 00E0     		b	.L51
 1928              	.L243:
 1929 0c22 0423     		movs	r3, #4
 1930              	.L51:
 200:Libraries/STM32F4xx_HAL_Driver/Src/stm32f4xx_hal_dma_ex.c ****     __HAL_DMA_CLEAR_FLAG (hdma, __HAL_DMA_GET_FE_FLAG_INDEX(hdma));
 1931              		.loc 1 200 5 discriminator 200 view .LVU377
 1932 0c24 234A     		ldr	r2, .L333+16
 1933 0c26 9360     		str	r3, [r2, #8]
 1934 0c28 B9E6     		b	.L46
 1935              	.L244:
 200:Libraries/STM32F4xx_HAL_Driver/Src/stm32f4xx_hal_dma_ex.c ****     __HAL_DMA_CLEAR_FLAG (hdma, __HAL_DMA_GET_FE_FLAG_INDEX(hdma));
 1936              		.loc 1 200 5 view .LVU378
 1937 0c2a 0423     		movs	r3, #4
 1938 0c2c FAE7     		b	.L51
 1939              	.L245:
 1940 0c2e 0423     		movs	r3, #4
 1941 0c30 F8E7     		b	.L51
 1942              	.L246:
 1943 0c32 0423     		movs	r3, #4
 1944 0c34 F6E7     		b	.L51
 1945              	.L247:
 1946 0c36 4FF48073 		mov	r3, #256
 1947 0c3a F3E7     		b	.L51
 1948              	.L248:
 1949 0c3c 4FF48073 		mov	r3, #256
 1950 0c40 F0E7     		b	.L51
 1951              	.L249:
 1952 0c42 4FF48073 		mov	r3, #256
 1953 0c46 EDE7     		b	.L51
 1954              	.L250:
 1955 0c48 4FF48073 		mov	r3, #256
 1956 0c4c EAE7     		b	.L51
 1957              	.L251:
 1958 0c4e 4FF48023 		mov	r3, #262144
 1959 0c52 E7E7     		b	.L51
 1960              	.L252:
 1961 0c54 4FF48023 		mov	r3, #262144
 1962 0c58 E4E7     		b	.L51
 1963              	.L253:
ARM GAS  C:\Users\yzy\AppData\Local\Temp\ccHYomBP.s 			page 47


 1964 0c5a 4FF48023 		mov	r3, #262144
 1965 0c5e E1E7     		b	.L51
 1966              	.L319:
 201:Libraries/STM32F4xx_HAL_Driver/Src/stm32f4xx_hal_dma_ex.c **** 
 1967              		.loc 1 201 5 view .LVU379
 1968 0c60 4FF48032 		mov	r2, #65536
 1969 0c64 00E0     		b	.L53
 1970              	.L255:
 1971 0c66 0122     		movs	r2, #1
 1972              	.L53:
 201:Libraries/STM32F4xx_HAL_Driver/Src/stm32f4xx_hal_dma_ex.c **** 
 1973              		.loc 1 201 5 discriminator 50 view .LVU380
 1974 0c68 0E4B     		ldr	r3, .L333
 1975 0c6a DA60     		str	r2, [r3, #12]
 1976              	.L54:
 204:Libraries/STM32F4xx_HAL_Driver/Src/stm32f4xx_hal_dma_ex.c ****     hdma->Instance->FCR |= DMA_IT_FE;
 1977              		.loc 1 204 5 is_stmt 1 view .LVU381
 204:Libraries/STM32F4xx_HAL_Driver/Src/stm32f4xx_hal_dma_ex.c ****     hdma->Instance->FCR |= DMA_IT_FE;
 1978              		.loc 1 204 9 is_stmt 0 view .LVU382
 1979 0c6c 2268     		ldr	r2, [r4]
 204:Libraries/STM32F4xx_HAL_Driver/Src/stm32f4xx_hal_dma_ex.c ****     hdma->Instance->FCR |= DMA_IT_FE;
 1980              		.loc 1 204 25 view .LVU383
 1981 0c6e 1368     		ldr	r3, [r2]
 1982 0c70 43F01603 		orr	r3, r3, #22
 1983 0c74 1360     		str	r3, [r2]
 205:Libraries/STM32F4xx_HAL_Driver/Src/stm32f4xx_hal_dma_ex.c ****     
 1984              		.loc 1 205 5 is_stmt 1 view .LVU384
 205:Libraries/STM32F4xx_HAL_Driver/Src/stm32f4xx_hal_dma_ex.c ****     
 1985              		.loc 1 205 9 is_stmt 0 view .LVU385
 1986 0c76 2268     		ldr	r2, [r4]
 205:Libraries/STM32F4xx_HAL_Driver/Src/stm32f4xx_hal_dma_ex.c ****     
 1987              		.loc 1 205 25 view .LVU386
 1988 0c78 5369     		ldr	r3, [r2, #20]
 1989 0c7a 43F08003 		orr	r3, r3, #128
 1990 0c7e 5361     		str	r3, [r2, #20]
 207:Libraries/STM32F4xx_HAL_Driver/Src/stm32f4xx_hal_dma_ex.c ****     {
 1991              		.loc 1 207 5 is_stmt 1 view .LVU387
 207:Libraries/STM32F4xx_HAL_Driver/Src/stm32f4xx_hal_dma_ex.c ****     {
 1992              		.loc 1 207 13 is_stmt 0 view .LVU388
 1993 0c80 236C     		ldr	r3, [r4, #64]
 207:Libraries/STM32F4xx_HAL_Driver/Src/stm32f4xx_hal_dma_ex.c ****     {
 1994              		.loc 1 207 7 view .LVU389
 1995 0c82 002B     		cmp	r3, #0
 1996 0c84 00F02781 		beq	.L323
 1997              	.L60:
 209:Libraries/STM32F4xx_HAL_Driver/Src/stm32f4xx_hal_dma_ex.c ****     }
 1998              		.loc 1 209 7 is_stmt 1 view .LVU390
 209:Libraries/STM32F4xx_HAL_Driver/Src/stm32f4xx_hal_dma_ex.c ****     }
 1999              		.loc 1 209 11 is_stmt 0 view .LVU391
 2000 0c88 2268     		ldr	r2, [r4]
 209:Libraries/STM32F4xx_HAL_Driver/Src/stm32f4xx_hal_dma_ex.c ****     }
 2001              		.loc 1 209 27 view .LVU392
 2002 0c8a 1368     		ldr	r3, [r2]
 2003 0c8c 43F00803 		orr	r3, r3, #8
 2004 0c90 1360     		str	r3, [r2]
 2005              	.L61:
 213:Libraries/STM32F4xx_HAL_Driver/Src/stm32f4xx_hal_dma_ex.c ****   }
ARM GAS  C:\Users\yzy\AppData\Local\Temp\ccHYomBP.s 			page 48


 2006              		.loc 1 213 5 is_stmt 1 view .LVU393
 2007 0c92 2268     		ldr	r2, [r4]
 2008 0c94 1368     		ldr	r3, [r2]
 2009 0c96 43F00103 		orr	r3, r3, #1
 2010 0c9a 1360     		str	r3, [r2]
 157:Libraries/STM32F4xx_HAL_Driver/Src/stm32f4xx_hal_dma_ex.c ****   
 2011              		.loc 1 157 21 is_stmt 0 view .LVU394
 2012 0c9c 0020     		movs	r0, #0
 2013 0c9e FFF7D4B9 		b	.L16
 2014              	.L334:
 2015 0ca2 00BF     		.align	2
 2016              	.L333:
 2017 0ca4 00640240 		.word	1073898496
 2018 0ca8 58640240 		.word	1073898584
 2019 0cac B8600240 		.word	1073897656
 2020 0cb0 58600240 		.word	1073897560
 2021 0cb4 00600240 		.word	1073897472
 2022 0cb8 10600240 		.word	1073897488
 2023              	.L256:
 201:Libraries/STM32F4xx_HAL_Driver/Src/stm32f4xx_hal_dma_ex.c **** 
 2024              		.loc 1 201 5 view .LVU395
 2025 0cbc 0122     		movs	r2, #1
 2026 0cbe D3E7     		b	.L53
 2027              	.L257:
 2028 0cc0 0122     		movs	r2, #1
 2029 0cc2 D1E7     		b	.L53
 2030              	.L258:
 2031 0cc4 0122     		movs	r2, #1
 2032 0cc6 CFE7     		b	.L53
 2033              	.L259:
 2034 0cc8 4022     		movs	r2, #64
 2035 0cca CDE7     		b	.L53
 2036              	.L260:
 2037 0ccc 4022     		movs	r2, #64
 2038 0cce CBE7     		b	.L53
 2039              	.L261:
 2040 0cd0 4022     		movs	r2, #64
 2041 0cd2 C9E7     		b	.L53
 2042              	.L262:
 2043 0cd4 4022     		movs	r2, #64
 2044 0cd6 C7E7     		b	.L53
 2045              	.L263:
 2046 0cd8 4FF48032 		mov	r2, #65536
 2047 0cdc C4E7     		b	.L53
 2048              	.L264:
 2049 0cde 4FF48032 		mov	r2, #65536
 2050 0ce2 C1E7     		b	.L53
 2051              	.L265:
 2052 0ce4 4FF48032 		mov	r2, #65536
 2053 0ce8 BEE7     		b	.L53
 2054              	.L52:
 201:Libraries/STM32F4xx_HAL_Driver/Src/stm32f4xx_hal_dma_ex.c **** 
 2055              		.loc 1 201 5 discriminator 2 view .LVU396
 2056 0cea 7F4A     		ldr	r2, .L335
 2057 0cec 9342     		cmp	r3, r2
 2058 0cee 4FD9     		bls	.L55
 201:Libraries/STM32F4xx_HAL_Driver/Src/stm32f4xx_hal_dma_ex.c **** 
ARM GAS  C:\Users\yzy\AppData\Local\Temp\ccHYomBP.s 			page 49


 2059              		.loc 1 201 5 discriminator 51 view .LVU397
 2060 0cf0 A83A     		subs	r2, r2, #168
 2061 0cf2 9342     		cmp	r3, r2
 2062 0cf4 31D0     		beq	.L267
 201:Libraries/STM32F4xx_HAL_Driver/Src/stm32f4xx_hal_dma_ex.c **** 
 2063              		.loc 1 201 5 discriminator 53 view .LVU398
 2064 0cf6 02F58062 		add	r2, r2, #1024
 2065 0cfa 9342     		cmp	r3, r2
 2066 0cfc 31D0     		beq	.L268
 201:Libraries/STM32F4xx_HAL_Driver/Src/stm32f4xx_hal_dma_ex.c **** 
 2067              		.loc 1 201 5 discriminator 55 view .LVU399
 2068 0cfe A2F56872 		sub	r2, r2, #928
 2069 0d02 9342     		cmp	r3, r2
 2070 0d04 2FD0     		beq	.L269
 201:Libraries/STM32F4xx_HAL_Driver/Src/stm32f4xx_hal_dma_ex.c **** 
 2071              		.loc 1 201 5 discriminator 57 view .LVU400
 2072 0d06 02F58062 		add	r2, r2, #1024
 2073 0d0a 9342     		cmp	r3, r2
 2074 0d0c 2DD0     		beq	.L270
 201:Libraries/STM32F4xx_HAL_Driver/Src/stm32f4xx_hal_dma_ex.c **** 
 2075              		.loc 1 201 5 discriminator 59 view .LVU401
 2076 0d0e A2F58962 		sub	r2, r2, #1096
 2077 0d12 9342     		cmp	r3, r2
 2078 0d14 2BD0     		beq	.L271
 201:Libraries/STM32F4xx_HAL_Driver/Src/stm32f4xx_hal_dma_ex.c **** 
 2079              		.loc 1 201 5 discriminator 61 view .LVU402
 2080 0d16 02F58062 		add	r2, r2, #1024
 2081 0d1a 9342     		cmp	r3, r2
 2082 0d1c 29D0     		beq	.L272
 201:Libraries/STM32F4xx_HAL_Driver/Src/stm32f4xx_hal_dma_ex.c **** 
 2083              		.loc 1 201 5 discriminator 63 view .LVU403
 2084 0d1e A2F56872 		sub	r2, r2, #928
 2085 0d22 9342     		cmp	r3, r2
 2086 0d24 27D0     		beq	.L273
 201:Libraries/STM32F4xx_HAL_Driver/Src/stm32f4xx_hal_dma_ex.c **** 
 2087              		.loc 1 201 5 discriminator 65 view .LVU404
 2088 0d26 02F58062 		add	r2, r2, #1024
 2089 0d2a 9342     		cmp	r3, r2
 2090 0d2c 25D0     		beq	.L274
 201:Libraries/STM32F4xx_HAL_Driver/Src/stm32f4xx_hal_dma_ex.c **** 
 2091              		.loc 1 201 5 discriminator 67 view .LVU405
 2092 0d2e A2F58962 		sub	r2, r2, #1096
 2093 0d32 9342     		cmp	r3, r2
 2094 0d34 23D0     		beq	.L275
 201:Libraries/STM32F4xx_HAL_Driver/Src/stm32f4xx_hal_dma_ex.c **** 
 2095              		.loc 1 201 5 discriminator 69 view .LVU406
 2096 0d36 02F58062 		add	r2, r2, #1024
 2097 0d3a 9342     		cmp	r3, r2
 2098 0d3c 22D0     		beq	.L276
 201:Libraries/STM32F4xx_HAL_Driver/Src/stm32f4xx_hal_dma_ex.c **** 
 2099              		.loc 1 201 5 discriminator 71 view .LVU407
 2100 0d3e A2F56872 		sub	r2, r2, #928
 2101 0d42 9342     		cmp	r3, r2
 2102 0d44 21D0     		beq	.L277
 201:Libraries/STM32F4xx_HAL_Driver/Src/stm32f4xx_hal_dma_ex.c **** 
 2103              		.loc 1 201 5 discriminator 73 view .LVU408
 2104 0d46 02F58062 		add	r2, r2, #1024
ARM GAS  C:\Users\yzy\AppData\Local\Temp\ccHYomBP.s 			page 50


 2105 0d4a 9342     		cmp	r3, r2
 2106 0d4c 02D0     		beq	.L324
 201:Libraries/STM32F4xx_HAL_Driver/Src/stm32f4xx_hal_dma_ex.c **** 
 2107              		.loc 1 201 5 view .LVU409
 2108 0d4e 4FF48003 		mov	r3, #4194304
 2109 0d52 03E0     		b	.L56
 2110              	.L324:
 2111 0d54 4FF48033 		mov	r3, #65536
 2112 0d58 00E0     		b	.L56
 2113              	.L267:
 2114 0d5a 0123     		movs	r3, #1
 2115              	.L56:
 201:Libraries/STM32F4xx_HAL_Driver/Src/stm32f4xx_hal_dma_ex.c **** 
 2116              		.loc 1 201 5 discriminator 100 view .LVU410
 2117 0d5c 634A     		ldr	r2, .L335+4
 2118 0d5e 9360     		str	r3, [r2, #8]
 2119 0d60 84E7     		b	.L54
 2120              	.L268:
 201:Libraries/STM32F4xx_HAL_Driver/Src/stm32f4xx_hal_dma_ex.c **** 
 2121              		.loc 1 201 5 view .LVU411
 2122 0d62 0123     		movs	r3, #1
 2123 0d64 FAE7     		b	.L56
 2124              	.L269:
 2125 0d66 0123     		movs	r3, #1
 2126 0d68 F8E7     		b	.L56
 2127              	.L270:
 2128 0d6a 0123     		movs	r3, #1
 2129 0d6c F6E7     		b	.L56
 2130              	.L271:
 2131 0d6e 4023     		movs	r3, #64
 2132 0d70 F4E7     		b	.L56
 2133              	.L272:
 2134 0d72 4023     		movs	r3, #64
 2135 0d74 F2E7     		b	.L56
 2136              	.L273:
 2137 0d76 4023     		movs	r3, #64
 2138 0d78 F0E7     		b	.L56
 2139              	.L274:
 2140 0d7a 4023     		movs	r3, #64
 2141 0d7c EEE7     		b	.L56
 2142              	.L275:
 2143 0d7e 4FF48033 		mov	r3, #65536
 2144 0d82 EBE7     		b	.L56
 2145              	.L276:
 2146 0d84 4FF48033 		mov	r3, #65536
 2147 0d88 E8E7     		b	.L56
 2148              	.L277:
 2149 0d8a 4FF48033 		mov	r3, #65536
 2150 0d8e E5E7     		b	.L56
 2151              	.L55:
 201:Libraries/STM32F4xx_HAL_Driver/Src/stm32f4xx_hal_dma_ex.c **** 
 2152              		.loc 1 201 5 discriminator 52 view .LVU412
 2153 0d90 574A     		ldr	r2, .L335+8
 2154 0d92 9342     		cmp	r3, r2
 2155 0d94 4FD9     		bls	.L57
 201:Libraries/STM32F4xx_HAL_Driver/Src/stm32f4xx_hal_dma_ex.c **** 
 2156              		.loc 1 201 5 discriminator 102 view .LVU413
ARM GAS  C:\Users\yzy\AppData\Local\Temp\ccHYomBP.s 			page 51


 2157 0d96 483A     		subs	r2, r2, #72
 2158 0d98 9342     		cmp	r3, r2
 2159 0d9a 31D0     		beq	.L279
 201:Libraries/STM32F4xx_HAL_Driver/Src/stm32f4xx_hal_dma_ex.c **** 
 2160              		.loc 1 201 5 discriminator 104 view .LVU414
 2161 0d9c 02F58062 		add	r2, r2, #1024
 2162 0da0 9342     		cmp	r3, r2
 2163 0da2 31D0     		beq	.L280
 201:Libraries/STM32F4xx_HAL_Driver/Src/stm32f4xx_hal_dma_ex.c **** 
 2164              		.loc 1 201 5 discriminator 106 view .LVU415
 2165 0da4 A2F56872 		sub	r2, r2, #928
 2166 0da8 9342     		cmp	r3, r2
 2167 0daa 2FD0     		beq	.L281
 201:Libraries/STM32F4xx_HAL_Driver/Src/stm32f4xx_hal_dma_ex.c **** 
 2168              		.loc 1 201 5 discriminator 108 view .LVU416
 2169 0dac 02F58062 		add	r2, r2, #1024
 2170 0db0 9342     		cmp	r3, r2
 2171 0db2 2DD0     		beq	.L282
 201:Libraries/STM32F4xx_HAL_Driver/Src/stm32f4xx_hal_dma_ex.c **** 
 2172              		.loc 1 201 5 discriminator 110 view .LVU417
 2173 0db4 A2F58962 		sub	r2, r2, #1096
 2174 0db8 9342     		cmp	r3, r2
 2175 0dba 2BD0     		beq	.L283
 201:Libraries/STM32F4xx_HAL_Driver/Src/stm32f4xx_hal_dma_ex.c **** 
 2176              		.loc 1 201 5 discriminator 112 view .LVU418
 2177 0dbc 02F58062 		add	r2, r2, #1024
 2178 0dc0 9342     		cmp	r3, r2
 2179 0dc2 29D0     		beq	.L284
 201:Libraries/STM32F4xx_HAL_Driver/Src/stm32f4xx_hal_dma_ex.c **** 
 2180              		.loc 1 201 5 discriminator 114 view .LVU419
 2181 0dc4 A2F56872 		sub	r2, r2, #928
 2182 0dc8 9342     		cmp	r3, r2
 2183 0dca 27D0     		beq	.L285
 201:Libraries/STM32F4xx_HAL_Driver/Src/stm32f4xx_hal_dma_ex.c **** 
 2184              		.loc 1 201 5 discriminator 116 view .LVU420
 2185 0dcc 02F58062 		add	r2, r2, #1024
 2186 0dd0 9342     		cmp	r3, r2
 2187 0dd2 25D0     		beq	.L286
 201:Libraries/STM32F4xx_HAL_Driver/Src/stm32f4xx_hal_dma_ex.c **** 
 2188              		.loc 1 201 5 discriminator 118 view .LVU421
 2189 0dd4 A2F58962 		sub	r2, r2, #1096
 2190 0dd8 9342     		cmp	r3, r2
 2191 0dda 23D0     		beq	.L287
 201:Libraries/STM32F4xx_HAL_Driver/Src/stm32f4xx_hal_dma_ex.c **** 
 2192              		.loc 1 201 5 discriminator 120 view .LVU422
 2193 0ddc 02F58062 		add	r2, r2, #1024
 2194 0de0 9342     		cmp	r3, r2
 2195 0de2 22D0     		beq	.L288
 201:Libraries/STM32F4xx_HAL_Driver/Src/stm32f4xx_hal_dma_ex.c **** 
 2196              		.loc 1 201 5 discriminator 122 view .LVU423
 2197 0de4 A2F56872 		sub	r2, r2, #928
 2198 0de8 9342     		cmp	r3, r2
 2199 0dea 21D0     		beq	.L289
 201:Libraries/STM32F4xx_HAL_Driver/Src/stm32f4xx_hal_dma_ex.c **** 
 2200              		.loc 1 201 5 discriminator 124 view .LVU424
 2201 0dec 02F58062 		add	r2, r2, #1024
 2202 0df0 9342     		cmp	r3, r2
ARM GAS  C:\Users\yzy\AppData\Local\Temp\ccHYomBP.s 			page 52


 2203 0df2 02D0     		beq	.L325
 201:Libraries/STM32F4xx_HAL_Driver/Src/stm32f4xx_hal_dma_ex.c **** 
 2204              		.loc 1 201 5 view .LVU425
 2205 0df4 4FF48003 		mov	r3, #4194304
 2206 0df8 03E0     		b	.L58
 2207              	.L325:
 2208 0dfa 4FF48033 		mov	r3, #65536
 2209 0dfe 00E0     		b	.L58
 2210              	.L279:
 2211 0e00 0123     		movs	r3, #1
 2212              	.L58:
 201:Libraries/STM32F4xx_HAL_Driver/Src/stm32f4xx_hal_dma_ex.c **** 
 2213              		.loc 1 201 5 discriminator 151 view .LVU426
 2214 0e02 3C4A     		ldr	r2, .L335+12
 2215 0e04 D360     		str	r3, [r2, #12]
 2216 0e06 31E7     		b	.L54
 2217              	.L280:
 201:Libraries/STM32F4xx_HAL_Driver/Src/stm32f4xx_hal_dma_ex.c **** 
 2218              		.loc 1 201 5 view .LVU427
 2219 0e08 0123     		movs	r3, #1
 2220 0e0a FAE7     		b	.L58
 2221              	.L281:
 2222 0e0c 0123     		movs	r3, #1
 2223 0e0e F8E7     		b	.L58
 2224              	.L282:
 2225 0e10 0123     		movs	r3, #1
 2226 0e12 F6E7     		b	.L58
 2227              	.L283:
 2228 0e14 4023     		movs	r3, #64
 2229 0e16 F4E7     		b	.L58
 2230              	.L284:
 2231 0e18 4023     		movs	r3, #64
 2232 0e1a F2E7     		b	.L58
 2233              	.L285:
 2234 0e1c 4023     		movs	r3, #64
 2235 0e1e F0E7     		b	.L58
 2236              	.L286:
 2237 0e20 4023     		movs	r3, #64
 2238 0e22 EEE7     		b	.L58
 2239              	.L287:
 2240 0e24 4FF48033 		mov	r3, #65536
 2241 0e28 EBE7     		b	.L58
 2242              	.L288:
 2243 0e2a 4FF48033 		mov	r3, #65536
 2244 0e2e E8E7     		b	.L58
 2245              	.L289:
 2246 0e30 4FF48033 		mov	r3, #65536
 2247 0e34 E5E7     		b	.L58
 2248              	.L57:
 201:Libraries/STM32F4xx_HAL_Driver/Src/stm32f4xx_hal_dma_ex.c **** 
 2249              		.loc 1 201 5 discriminator 103 view .LVU428
 2250 0e36 304A     		ldr	r2, .L335+16
 2251 0e38 9342     		cmp	r3, r2
 2252 0e3a 31D0     		beq	.L291
 201:Libraries/STM32F4xx_HAL_Driver/Src/stm32f4xx_hal_dma_ex.c **** 
 2253              		.loc 1 201 5 discriminator 153 view .LVU429
 2254 0e3c 02F58062 		add	r2, r2, #1024
ARM GAS  C:\Users\yzy\AppData\Local\Temp\ccHYomBP.s 			page 53


 2255 0e40 9342     		cmp	r3, r2
 2256 0e42 31D0     		beq	.L292
 201:Libraries/STM32F4xx_HAL_Driver/Src/stm32f4xx_hal_dma_ex.c **** 
 2257              		.loc 1 201 5 discriminator 155 view .LVU430
 2258 0e44 A2F56872 		sub	r2, r2, #928
 2259 0e48 9342     		cmp	r3, r2
 2260 0e4a 2FD0     		beq	.L293
 201:Libraries/STM32F4xx_HAL_Driver/Src/stm32f4xx_hal_dma_ex.c **** 
 2261              		.loc 1 201 5 discriminator 157 view .LVU431
 2262 0e4c 02F58062 		add	r2, r2, #1024
 2263 0e50 9342     		cmp	r3, r2
 2264 0e52 2DD0     		beq	.L294
 201:Libraries/STM32F4xx_HAL_Driver/Src/stm32f4xx_hal_dma_ex.c **** 
 2265              		.loc 1 201 5 discriminator 159 view .LVU432
 2266 0e54 A2F58962 		sub	r2, r2, #1096
 2267 0e58 9342     		cmp	r3, r2
 2268 0e5a 2BD0     		beq	.L295
 201:Libraries/STM32F4xx_HAL_Driver/Src/stm32f4xx_hal_dma_ex.c **** 
 2269              		.loc 1 201 5 discriminator 161 view .LVU433
 2270 0e5c 02F58062 		add	r2, r2, #1024
 2271 0e60 9342     		cmp	r3, r2
 2272 0e62 29D0     		beq	.L296
 201:Libraries/STM32F4xx_HAL_Driver/Src/stm32f4xx_hal_dma_ex.c **** 
 2273              		.loc 1 201 5 discriminator 163 view .LVU434
 2274 0e64 A2F56872 		sub	r2, r2, #928
 2275 0e68 9342     		cmp	r3, r2
 2276 0e6a 27D0     		beq	.L297
 201:Libraries/STM32F4xx_HAL_Driver/Src/stm32f4xx_hal_dma_ex.c **** 
 2277              		.loc 1 201 5 discriminator 165 view .LVU435
 2278 0e6c 02F58062 		add	r2, r2, #1024
 2279 0e70 9342     		cmp	r3, r2
 2280 0e72 25D0     		beq	.L298
 201:Libraries/STM32F4xx_HAL_Driver/Src/stm32f4xx_hal_dma_ex.c **** 
 2281              		.loc 1 201 5 discriminator 167 view .LVU436
 2282 0e74 A2F58962 		sub	r2, r2, #1096
 2283 0e78 9342     		cmp	r3, r2
 2284 0e7a 23D0     		beq	.L299
 201:Libraries/STM32F4xx_HAL_Driver/Src/stm32f4xx_hal_dma_ex.c **** 
 2285              		.loc 1 201 5 discriminator 169 view .LVU437
 2286 0e7c 02F58062 		add	r2, r2, #1024
 2287 0e80 9342     		cmp	r3, r2
 2288 0e82 22D0     		beq	.L300
 201:Libraries/STM32F4xx_HAL_Driver/Src/stm32f4xx_hal_dma_ex.c **** 
 2289              		.loc 1 201 5 discriminator 171 view .LVU438
 2290 0e84 A2F56872 		sub	r2, r2, #928
 2291 0e88 9342     		cmp	r3, r2
 2292 0e8a 21D0     		beq	.L301
 201:Libraries/STM32F4xx_HAL_Driver/Src/stm32f4xx_hal_dma_ex.c **** 
 2293              		.loc 1 201 5 discriminator 173 view .LVU439
 2294 0e8c 02F58062 		add	r2, r2, #1024
 2295 0e90 9342     		cmp	r3, r2
 2296 0e92 02D0     		beq	.L326
 201:Libraries/STM32F4xx_HAL_Driver/Src/stm32f4xx_hal_dma_ex.c **** 
 2297              		.loc 1 201 5 view .LVU440
 2298 0e94 4FF48003 		mov	r3, #4194304
 2299 0e98 03E0     		b	.L59
 2300              	.L326:
ARM GAS  C:\Users\yzy\AppData\Local\Temp\ccHYomBP.s 			page 54


 2301 0e9a 4FF48033 		mov	r3, #65536
 2302 0e9e 00E0     		b	.L59
 2303              	.L291:
 2304 0ea0 0123     		movs	r3, #1
 2305              	.L59:
 201:Libraries/STM32F4xx_HAL_Driver/Src/stm32f4xx_hal_dma_ex.c **** 
 2306              		.loc 1 201 5 discriminator 200 view .LVU441
 2307 0ea2 144A     		ldr	r2, .L335+12
 2308 0ea4 9360     		str	r3, [r2, #8]
 2309 0ea6 E1E6     		b	.L54
 2310              	.L292:
 201:Libraries/STM32F4xx_HAL_Driver/Src/stm32f4xx_hal_dma_ex.c **** 
 2311              		.loc 1 201 5 view .LVU442
 2312 0ea8 0123     		movs	r3, #1
 2313 0eaa FAE7     		b	.L59
 2314              	.L293:
 2315 0eac 0123     		movs	r3, #1
 2316 0eae F8E7     		b	.L59
 2317              	.L294:
 2318 0eb0 0123     		movs	r3, #1
 2319 0eb2 F6E7     		b	.L59
 2320              	.L295:
 2321 0eb4 4023     		movs	r3, #64
 2322 0eb6 F4E7     		b	.L59
 2323              	.L296:
 2324 0eb8 4023     		movs	r3, #64
 2325 0eba F2E7     		b	.L59
 2326              	.L297:
 2327 0ebc 4023     		movs	r3, #64
 2328 0ebe F0E7     		b	.L59
 2329              	.L298:
 2330 0ec0 4023     		movs	r3, #64
 2331 0ec2 EEE7     		b	.L59
 2332              	.L299:
 2333 0ec4 4FF48033 		mov	r3, #65536
 2334 0ec8 EBE7     		b	.L59
 2335              	.L300:
 2336 0eca 4FF48033 		mov	r3, #65536
 2337 0ece E8E7     		b	.L59
 2338              	.L301:
 2339 0ed0 4FF48033 		mov	r3, #65536
 2340 0ed4 E5E7     		b	.L59
 2341              	.L323:
 207:Libraries/STM32F4xx_HAL_Driver/Src/stm32f4xx_hal_dma_ex.c ****     {
 2342              		.loc 1 207 53 discriminator 1 view .LVU443
 2343 0ed6 A36C     		ldr	r3, [r4, #72]
 207:Libraries/STM32F4xx_HAL_Driver/Src/stm32f4xx_hal_dma_ex.c ****     {
 2344              		.loc 1 207 45 discriminator 1 view .LVU444
 2345 0ed8 002B     		cmp	r3, #0
 2346 0eda 7FF4D5AE 		bne	.L60
 2347 0ede D8E6     		b	.L61
 2348              	.LVL40:
 2349              	.L62:
 177:Libraries/STM32F4xx_HAL_Driver/Src/stm32f4xx_hal_dma_ex.c ****   
 2350              		.loc 1 177 3 view .LVU445
 2351 0ee0 0220     		movs	r0, #2
 2352 0ee2 FFF7B2B8 		b	.L16
ARM GAS  C:\Users\yzy\AppData\Local\Temp\ccHYomBP.s 			page 55


 2353              	.L336:
 2354 0ee6 00BF     		.align	2
 2355              	.L335:
 2356 0ee8 B8600240 		.word	1073897656
 2357 0eec 00640240 		.word	1073898496
 2358 0ef0 58600240 		.word	1073897560
 2359 0ef4 00600240 		.word	1073897472
 2360 0ef8 10600240 		.word	1073897488
 2361              		.cfi_endproc
 2362              	.LFE131:
 2364              		.section	.text.HAL_DMAEx_ChangeMemory,"ax",%progbits
 2365              		.align	1
 2366              		.global	HAL_DMAEx_ChangeMemory
 2367              		.syntax unified
 2368              		.thumb
 2369              		.thumb_func
 2370              		.fpu softvfp
 2372              	HAL_DMAEx_ChangeMemory:
 2373              	.LVL41:
 2374              	.LFB132:
 241:Libraries/STM32F4xx_HAL_Driver/Src/stm32f4xx_hal_dma_ex.c ****   if(memory == MEMORY0)
 2375              		.loc 1 241 1 is_stmt 1 view -0
 2376              		.cfi_startproc
 2377              		@ args = 0, pretend = 0, frame = 0
 2378              		@ frame_needed = 0, uses_anonymous_args = 0
 2379              		@ link register save eliminated.
 242:Libraries/STM32F4xx_HAL_Driver/Src/stm32f4xx_hal_dma_ex.c ****   {
 2380              		.loc 1 242 3 view .LVU447
 242:Libraries/STM32F4xx_HAL_Driver/Src/stm32f4xx_hal_dma_ex.c ****   {
 2381              		.loc 1 242 5 is_stmt 0 view .LVU448
 2382 0000 1AB9     		cbnz	r2, .L338
 245:Libraries/STM32F4xx_HAL_Driver/Src/stm32f4xx_hal_dma_ex.c ****   }
 2383              		.loc 1 245 5 is_stmt 1 view .LVU449
 245:Libraries/STM32F4xx_HAL_Driver/Src/stm32f4xx_hal_dma_ex.c ****   }
 2384              		.loc 1 245 9 is_stmt 0 view .LVU450
 2385 0002 0368     		ldr	r3, [r0]
 245:Libraries/STM32F4xx_HAL_Driver/Src/stm32f4xx_hal_dma_ex.c ****   }
 2386              		.loc 1 245 26 view .LVU451
 2387 0004 D960     		str	r1, [r3, #12]
 2388              	.L339:
 253:Libraries/STM32F4xx_HAL_Driver/Src/stm32f4xx_hal_dma_ex.c **** }
 2389              		.loc 1 253 3 is_stmt 1 view .LVU452
 254:Libraries/STM32F4xx_HAL_Driver/Src/stm32f4xx_hal_dma_ex.c **** 
 2390              		.loc 1 254 1 is_stmt 0 view .LVU453
 2391 0006 0020     		movs	r0, #0
 2392              	.LVL42:
 254:Libraries/STM32F4xx_HAL_Driver/Src/stm32f4xx_hal_dma_ex.c **** 
 2393              		.loc 1 254 1 view .LVU454
 2394 0008 7047     		bx	lr
 2395              	.LVL43:
 2396              	.L338:
 250:Libraries/STM32F4xx_HAL_Driver/Src/stm32f4xx_hal_dma_ex.c ****   }
 2397              		.loc 1 250 5 is_stmt 1 view .LVU455
 250:Libraries/STM32F4xx_HAL_Driver/Src/stm32f4xx_hal_dma_ex.c ****   }
 2398              		.loc 1 250 9 is_stmt 0 view .LVU456
 2399 000a 0368     		ldr	r3, [r0]
 250:Libraries/STM32F4xx_HAL_Driver/Src/stm32f4xx_hal_dma_ex.c ****   }
ARM GAS  C:\Users\yzy\AppData\Local\Temp\ccHYomBP.s 			page 56


 2400              		.loc 1 250 26 view .LVU457
 2401 000c 1961     		str	r1, [r3, #16]
 2402 000e FAE7     		b	.L339
 2403              		.cfi_endproc
 2404              	.LFE132:
 2406              		.text
 2407              	.Letext0:
 2408              		.file 2 "c:\\program files (x86)\\gnu arm embedded toolchain\\2020-q2-update\\arm-none-eabi\\inclu
 2409              		.file 3 "c:\\program files (x86)\\gnu arm embedded toolchain\\2020-q2-update\\arm-none-eabi\\inclu
 2410              		.file 4 "Libraries/CMSIS/Include/core_cm4.h"
 2411              		.file 5 "Libraries/CMSIS/Device/ST/STM32F4xx/Include/system_stm32f4xx.h"
 2412              		.file 6 "Libraries/CMSIS/Device/ST/STM32F4xx/Include/stm32f407xx.h"
 2413              		.file 7 "Libraries/STM32F4xx_HAL_Driver/Inc/stm32f4xx_hal_def.h"
 2414              		.file 8 "Libraries/STM32F4xx_HAL_Driver/Inc/stm32f4xx_hal_dma.h"
 2415              		.file 9 "Libraries/STM32F4xx_HAL_Driver/Inc/stm32f4xx_hal_dma_ex.h"
 2416              		.file 10 "Libraries/STM32F4xx_HAL_Driver/Inc/stm32f4xx_hal.h"
ARM GAS  C:\Users\yzy\AppData\Local\Temp\ccHYomBP.s 			page 57

