ARM GAS  C:\Users\yzy\AppData\Local\Temp\cco1yVr9.s 			page 1


   1              		.cpu cortex-m4
   2              		.eabi_attribute 20, 1
   3              		.eabi_attribute 21, 1
   4              		.eabi_attribute 23, 3
   5              		.eabi_attribute 24, 1
   6              		.eabi_attribute 25, 1
   7              		.eabi_attribute 26, 1
   8              		.eabi_attribute 30, 1
   9              		.eabi_attribute 34, 1
  10              		.eabi_attribute 18, 4
  11              		.file	"stm32f4xx_hal_hcd.c"
  12              		.text
  13              	.Ltext0:
  14              		.cfi_sections	.debug_frame
  15              		.section	.text.HCD_RXQLVL_IRQHandler,"ax",%progbits
  16              		.align	1
  17              		.arch armv7e-m
  18              		.syntax unified
  19              		.thumb
  20              		.thumb_func
  21              		.fpu softvfp
  23              	HCD_RXQLVL_IRQHandler:
  24              	.LVL0:
  25              	.LFB156:
  26              		.file 1 "Libraries/STM32F4xx_HAL_Driver/Src/stm32f4xx_hal_hcd.c"
   1:Libraries/STM32F4xx_HAL_Driver/Src/stm32f4xx_hal_hcd.c **** /**
   2:Libraries/STM32F4xx_HAL_Driver/Src/stm32f4xx_hal_hcd.c ****   ******************************************************************************
   3:Libraries/STM32F4xx_HAL_Driver/Src/stm32f4xx_hal_hcd.c ****   * @file    stm32f4xx_hal_hcd.c
   4:Libraries/STM32F4xx_HAL_Driver/Src/stm32f4xx_hal_hcd.c ****   * @author  MCD Application Team
   5:Libraries/STM32F4xx_HAL_Driver/Src/stm32f4xx_hal_hcd.c ****   * @brief   HCD HAL module driver.
   6:Libraries/STM32F4xx_HAL_Driver/Src/stm32f4xx_hal_hcd.c ****   *          This file provides firmware functions to manage the following
   7:Libraries/STM32F4xx_HAL_Driver/Src/stm32f4xx_hal_hcd.c ****   *          functionalities of the USB Peripheral Controller:
   8:Libraries/STM32F4xx_HAL_Driver/Src/stm32f4xx_hal_hcd.c ****   *           + Initialization and de-initialization functions
   9:Libraries/STM32F4xx_HAL_Driver/Src/stm32f4xx_hal_hcd.c ****   *           + IO operation functions
  10:Libraries/STM32F4xx_HAL_Driver/Src/stm32f4xx_hal_hcd.c ****   *           + Peripheral Control functions
  11:Libraries/STM32F4xx_HAL_Driver/Src/stm32f4xx_hal_hcd.c ****   *           + Peripheral State functions
  12:Libraries/STM32F4xx_HAL_Driver/Src/stm32f4xx_hal_hcd.c ****   *
  13:Libraries/STM32F4xx_HAL_Driver/Src/stm32f4xx_hal_hcd.c ****   @verbatim
  14:Libraries/STM32F4xx_HAL_Driver/Src/stm32f4xx_hal_hcd.c ****   ==============================================================================
  15:Libraries/STM32F4xx_HAL_Driver/Src/stm32f4xx_hal_hcd.c ****                     ##### How to use this driver #####
  16:Libraries/STM32F4xx_HAL_Driver/Src/stm32f4xx_hal_hcd.c ****   ==============================================================================
  17:Libraries/STM32F4xx_HAL_Driver/Src/stm32f4xx_hal_hcd.c ****   [..]
  18:Libraries/STM32F4xx_HAL_Driver/Src/stm32f4xx_hal_hcd.c ****     (#)Declare a HCD_HandleTypeDef handle structure, for example:
  19:Libraries/STM32F4xx_HAL_Driver/Src/stm32f4xx_hal_hcd.c ****        HCD_HandleTypeDef  hhcd;
  20:Libraries/STM32F4xx_HAL_Driver/Src/stm32f4xx_hal_hcd.c **** 
  21:Libraries/STM32F4xx_HAL_Driver/Src/stm32f4xx_hal_hcd.c ****     (#)Fill parameters of Init structure in HCD handle
  22:Libraries/STM32F4xx_HAL_Driver/Src/stm32f4xx_hal_hcd.c **** 
  23:Libraries/STM32F4xx_HAL_Driver/Src/stm32f4xx_hal_hcd.c ****     (#)Call HAL_HCD_Init() API to initialize the HCD peripheral (Core, Host core, ...)
  24:Libraries/STM32F4xx_HAL_Driver/Src/stm32f4xx_hal_hcd.c **** 
  25:Libraries/STM32F4xx_HAL_Driver/Src/stm32f4xx_hal_hcd.c ****     (#)Initialize the HCD low level resources through the HAL_HCD_MspInit() API:
  26:Libraries/STM32F4xx_HAL_Driver/Src/stm32f4xx_hal_hcd.c ****         (##) Enable the HCD/USB Low Level interface clock using the following macros
  27:Libraries/STM32F4xx_HAL_Driver/Src/stm32f4xx_hal_hcd.c ****              (+++) __HAL_RCC_USB_OTG_FS_CLK_ENABLE();
  28:Libraries/STM32F4xx_HAL_Driver/Src/stm32f4xx_hal_hcd.c ****              (+++) __HAL_RCC_USB_OTG_HS_CLK_ENABLE(); (For High Speed Mode)
  29:Libraries/STM32F4xx_HAL_Driver/Src/stm32f4xx_hal_hcd.c ****              (+++) __HAL_RCC_USB_OTG_HS_ULPI_CLK_ENABLE(); (For High Speed Mode)
  30:Libraries/STM32F4xx_HAL_Driver/Src/stm32f4xx_hal_hcd.c **** 
  31:Libraries/STM32F4xx_HAL_Driver/Src/stm32f4xx_hal_hcd.c ****         (##) Initialize the related GPIO clocks
  32:Libraries/STM32F4xx_HAL_Driver/Src/stm32f4xx_hal_hcd.c ****         (##) Configure HCD pin-out
ARM GAS  C:\Users\yzy\AppData\Local\Temp\cco1yVr9.s 			page 2


  33:Libraries/STM32F4xx_HAL_Driver/Src/stm32f4xx_hal_hcd.c ****         (##) Configure HCD NVIC interrupt
  34:Libraries/STM32F4xx_HAL_Driver/Src/stm32f4xx_hal_hcd.c **** 
  35:Libraries/STM32F4xx_HAL_Driver/Src/stm32f4xx_hal_hcd.c ****     (#)Associate the Upper USB Host stack to the HAL HCD Driver:
  36:Libraries/STM32F4xx_HAL_Driver/Src/stm32f4xx_hal_hcd.c ****         (##) hhcd.pData = phost;
  37:Libraries/STM32F4xx_HAL_Driver/Src/stm32f4xx_hal_hcd.c **** 
  38:Libraries/STM32F4xx_HAL_Driver/Src/stm32f4xx_hal_hcd.c ****     (#)Enable HCD transmission and reception:
  39:Libraries/STM32F4xx_HAL_Driver/Src/stm32f4xx_hal_hcd.c ****         (##) HAL_HCD_Start();
  40:Libraries/STM32F4xx_HAL_Driver/Src/stm32f4xx_hal_hcd.c **** 
  41:Libraries/STM32F4xx_HAL_Driver/Src/stm32f4xx_hal_hcd.c ****   @endverbatim
  42:Libraries/STM32F4xx_HAL_Driver/Src/stm32f4xx_hal_hcd.c ****   ******************************************************************************
  43:Libraries/STM32F4xx_HAL_Driver/Src/stm32f4xx_hal_hcd.c ****   * @attention
  44:Libraries/STM32F4xx_HAL_Driver/Src/stm32f4xx_hal_hcd.c ****   *
  45:Libraries/STM32F4xx_HAL_Driver/Src/stm32f4xx_hal_hcd.c ****   * <h2><center>&copy; Copyright (c) 2016 STMicroelectronics.
  46:Libraries/STM32F4xx_HAL_Driver/Src/stm32f4xx_hal_hcd.c ****   * All rights reserved.</center></h2>
  47:Libraries/STM32F4xx_HAL_Driver/Src/stm32f4xx_hal_hcd.c ****   *
  48:Libraries/STM32F4xx_HAL_Driver/Src/stm32f4xx_hal_hcd.c ****   * This software component is licensed by ST under BSD 3-Clause license,
  49:Libraries/STM32F4xx_HAL_Driver/Src/stm32f4xx_hal_hcd.c ****   * the "License"; You may not use this file except in compliance with the
  50:Libraries/STM32F4xx_HAL_Driver/Src/stm32f4xx_hal_hcd.c ****   * License. You may obtain a copy of the License at:
  51:Libraries/STM32F4xx_HAL_Driver/Src/stm32f4xx_hal_hcd.c ****   *                        opensource.org/licenses/BSD-3-Clause
  52:Libraries/STM32F4xx_HAL_Driver/Src/stm32f4xx_hal_hcd.c ****   *
  53:Libraries/STM32F4xx_HAL_Driver/Src/stm32f4xx_hal_hcd.c ****   ******************************************************************************
  54:Libraries/STM32F4xx_HAL_Driver/Src/stm32f4xx_hal_hcd.c ****   */
  55:Libraries/STM32F4xx_HAL_Driver/Src/stm32f4xx_hal_hcd.c **** 
  56:Libraries/STM32F4xx_HAL_Driver/Src/stm32f4xx_hal_hcd.c **** /* Includes ------------------------------------------------------------------*/
  57:Libraries/STM32F4xx_HAL_Driver/Src/stm32f4xx_hal_hcd.c **** #include "stm32f4xx_hal.h"
  58:Libraries/STM32F4xx_HAL_Driver/Src/stm32f4xx_hal_hcd.c **** 
  59:Libraries/STM32F4xx_HAL_Driver/Src/stm32f4xx_hal_hcd.c **** /** @addtogroup STM32F4xx_HAL_Driver
  60:Libraries/STM32F4xx_HAL_Driver/Src/stm32f4xx_hal_hcd.c ****   * @{
  61:Libraries/STM32F4xx_HAL_Driver/Src/stm32f4xx_hal_hcd.c ****   */
  62:Libraries/STM32F4xx_HAL_Driver/Src/stm32f4xx_hal_hcd.c **** 
  63:Libraries/STM32F4xx_HAL_Driver/Src/stm32f4xx_hal_hcd.c **** #ifdef HAL_HCD_MODULE_ENABLED
  64:Libraries/STM32F4xx_HAL_Driver/Src/stm32f4xx_hal_hcd.c **** 
  65:Libraries/STM32F4xx_HAL_Driver/Src/stm32f4xx_hal_hcd.c **** #if defined (USB_OTG_FS) || defined (USB_OTG_HS)
  66:Libraries/STM32F4xx_HAL_Driver/Src/stm32f4xx_hal_hcd.c **** 
  67:Libraries/STM32F4xx_HAL_Driver/Src/stm32f4xx_hal_hcd.c **** /** @defgroup HCD HCD
  68:Libraries/STM32F4xx_HAL_Driver/Src/stm32f4xx_hal_hcd.c ****   * @brief HCD HAL module driver
  69:Libraries/STM32F4xx_HAL_Driver/Src/stm32f4xx_hal_hcd.c ****   * @{
  70:Libraries/STM32F4xx_HAL_Driver/Src/stm32f4xx_hal_hcd.c ****   */
  71:Libraries/STM32F4xx_HAL_Driver/Src/stm32f4xx_hal_hcd.c **** 
  72:Libraries/STM32F4xx_HAL_Driver/Src/stm32f4xx_hal_hcd.c **** /* Private typedef -----------------------------------------------------------*/
  73:Libraries/STM32F4xx_HAL_Driver/Src/stm32f4xx_hal_hcd.c **** /* Private define ------------------------------------------------------------*/
  74:Libraries/STM32F4xx_HAL_Driver/Src/stm32f4xx_hal_hcd.c **** /* Private macro -------------------------------------------------------------*/
  75:Libraries/STM32F4xx_HAL_Driver/Src/stm32f4xx_hal_hcd.c **** /* Private variables ---------------------------------------------------------*/
  76:Libraries/STM32F4xx_HAL_Driver/Src/stm32f4xx_hal_hcd.c **** /* Private function prototypes -----------------------------------------------*/
  77:Libraries/STM32F4xx_HAL_Driver/Src/stm32f4xx_hal_hcd.c **** /** @defgroup HCD_Private_Functions HCD Private Functions
  78:Libraries/STM32F4xx_HAL_Driver/Src/stm32f4xx_hal_hcd.c ****   * @{
  79:Libraries/STM32F4xx_HAL_Driver/Src/stm32f4xx_hal_hcd.c ****   */
  80:Libraries/STM32F4xx_HAL_Driver/Src/stm32f4xx_hal_hcd.c **** static void HCD_HC_IN_IRQHandler(HCD_HandleTypeDef *hhcd, uint8_t chnum);
  81:Libraries/STM32F4xx_HAL_Driver/Src/stm32f4xx_hal_hcd.c **** static void HCD_HC_OUT_IRQHandler(HCD_HandleTypeDef *hhcd, uint8_t chnum);
  82:Libraries/STM32F4xx_HAL_Driver/Src/stm32f4xx_hal_hcd.c **** static void HCD_RXQLVL_IRQHandler(HCD_HandleTypeDef *hhcd);
  83:Libraries/STM32F4xx_HAL_Driver/Src/stm32f4xx_hal_hcd.c **** static void HCD_Port_IRQHandler(HCD_HandleTypeDef *hhcd);
  84:Libraries/STM32F4xx_HAL_Driver/Src/stm32f4xx_hal_hcd.c **** /**
  85:Libraries/STM32F4xx_HAL_Driver/Src/stm32f4xx_hal_hcd.c ****   * @}
  86:Libraries/STM32F4xx_HAL_Driver/Src/stm32f4xx_hal_hcd.c ****   */
  87:Libraries/STM32F4xx_HAL_Driver/Src/stm32f4xx_hal_hcd.c **** 
  88:Libraries/STM32F4xx_HAL_Driver/Src/stm32f4xx_hal_hcd.c **** /* Exported functions --------------------------------------------------------*/
  89:Libraries/STM32F4xx_HAL_Driver/Src/stm32f4xx_hal_hcd.c **** /** @defgroup HCD_Exported_Functions HCD Exported Functions
ARM GAS  C:\Users\yzy\AppData\Local\Temp\cco1yVr9.s 			page 3


  90:Libraries/STM32F4xx_HAL_Driver/Src/stm32f4xx_hal_hcd.c ****   * @{
  91:Libraries/STM32F4xx_HAL_Driver/Src/stm32f4xx_hal_hcd.c ****   */
  92:Libraries/STM32F4xx_HAL_Driver/Src/stm32f4xx_hal_hcd.c **** 
  93:Libraries/STM32F4xx_HAL_Driver/Src/stm32f4xx_hal_hcd.c **** /** @defgroup HCD_Exported_Functions_Group1 Initialization and de-initialization functions
  94:Libraries/STM32F4xx_HAL_Driver/Src/stm32f4xx_hal_hcd.c ****   *  @brief    Initialization and Configuration functions
  95:Libraries/STM32F4xx_HAL_Driver/Src/stm32f4xx_hal_hcd.c ****   *
  96:Libraries/STM32F4xx_HAL_Driver/Src/stm32f4xx_hal_hcd.c **** @verbatim
  97:Libraries/STM32F4xx_HAL_Driver/Src/stm32f4xx_hal_hcd.c ****  ===============================================================================
  98:Libraries/STM32F4xx_HAL_Driver/Src/stm32f4xx_hal_hcd.c ****           ##### Initialization and de-initialization functions #####
  99:Libraries/STM32F4xx_HAL_Driver/Src/stm32f4xx_hal_hcd.c ****  ===============================================================================
 100:Libraries/STM32F4xx_HAL_Driver/Src/stm32f4xx_hal_hcd.c ****     [..]  This section provides functions allowing to:
 101:Libraries/STM32F4xx_HAL_Driver/Src/stm32f4xx_hal_hcd.c **** 
 102:Libraries/STM32F4xx_HAL_Driver/Src/stm32f4xx_hal_hcd.c **** @endverbatim
 103:Libraries/STM32F4xx_HAL_Driver/Src/stm32f4xx_hal_hcd.c ****   * @{
 104:Libraries/STM32F4xx_HAL_Driver/Src/stm32f4xx_hal_hcd.c ****   */
 105:Libraries/STM32F4xx_HAL_Driver/Src/stm32f4xx_hal_hcd.c **** 
 106:Libraries/STM32F4xx_HAL_Driver/Src/stm32f4xx_hal_hcd.c **** /**
 107:Libraries/STM32F4xx_HAL_Driver/Src/stm32f4xx_hal_hcd.c ****   * @brief  Initialize the host driver.
 108:Libraries/STM32F4xx_HAL_Driver/Src/stm32f4xx_hal_hcd.c ****   * @param  hhcd HCD handle
 109:Libraries/STM32F4xx_HAL_Driver/Src/stm32f4xx_hal_hcd.c ****   * @retval HAL status
 110:Libraries/STM32F4xx_HAL_Driver/Src/stm32f4xx_hal_hcd.c ****   */
 111:Libraries/STM32F4xx_HAL_Driver/Src/stm32f4xx_hal_hcd.c **** HAL_StatusTypeDef HAL_HCD_Init(HCD_HandleTypeDef *hhcd)
 112:Libraries/STM32F4xx_HAL_Driver/Src/stm32f4xx_hal_hcd.c **** {
 113:Libraries/STM32F4xx_HAL_Driver/Src/stm32f4xx_hal_hcd.c ****   USB_OTG_GlobalTypeDef *USBx;
 114:Libraries/STM32F4xx_HAL_Driver/Src/stm32f4xx_hal_hcd.c **** 
 115:Libraries/STM32F4xx_HAL_Driver/Src/stm32f4xx_hal_hcd.c ****   /* Check the HCD handle allocation */
 116:Libraries/STM32F4xx_HAL_Driver/Src/stm32f4xx_hal_hcd.c ****   if (hhcd == NULL)
 117:Libraries/STM32F4xx_HAL_Driver/Src/stm32f4xx_hal_hcd.c ****   {
 118:Libraries/STM32F4xx_HAL_Driver/Src/stm32f4xx_hal_hcd.c ****     return HAL_ERROR;
 119:Libraries/STM32F4xx_HAL_Driver/Src/stm32f4xx_hal_hcd.c ****   }
 120:Libraries/STM32F4xx_HAL_Driver/Src/stm32f4xx_hal_hcd.c **** 
 121:Libraries/STM32F4xx_HAL_Driver/Src/stm32f4xx_hal_hcd.c ****   /* Check the parameters */
 122:Libraries/STM32F4xx_HAL_Driver/Src/stm32f4xx_hal_hcd.c ****   assert_param(IS_HCD_ALL_INSTANCE(hhcd->Instance));
 123:Libraries/STM32F4xx_HAL_Driver/Src/stm32f4xx_hal_hcd.c **** 
 124:Libraries/STM32F4xx_HAL_Driver/Src/stm32f4xx_hal_hcd.c ****   USBx = hhcd->Instance;
 125:Libraries/STM32F4xx_HAL_Driver/Src/stm32f4xx_hal_hcd.c **** 
 126:Libraries/STM32F4xx_HAL_Driver/Src/stm32f4xx_hal_hcd.c ****   if (hhcd->State == HAL_HCD_STATE_RESET)
 127:Libraries/STM32F4xx_HAL_Driver/Src/stm32f4xx_hal_hcd.c ****   {
 128:Libraries/STM32F4xx_HAL_Driver/Src/stm32f4xx_hal_hcd.c ****     /* Allocate lock resource and initialize it */
 129:Libraries/STM32F4xx_HAL_Driver/Src/stm32f4xx_hal_hcd.c ****     hhcd->Lock = HAL_UNLOCKED;
 130:Libraries/STM32F4xx_HAL_Driver/Src/stm32f4xx_hal_hcd.c **** 
 131:Libraries/STM32F4xx_HAL_Driver/Src/stm32f4xx_hal_hcd.c **** #if (USE_HAL_HCD_REGISTER_CALLBACKS == 1U)
 132:Libraries/STM32F4xx_HAL_Driver/Src/stm32f4xx_hal_hcd.c ****     hhcd->SOFCallback = HAL_HCD_SOF_Callback;
 133:Libraries/STM32F4xx_HAL_Driver/Src/stm32f4xx_hal_hcd.c ****     hhcd->ConnectCallback = HAL_HCD_Connect_Callback;
 134:Libraries/STM32F4xx_HAL_Driver/Src/stm32f4xx_hal_hcd.c ****     hhcd->DisconnectCallback = HAL_HCD_Disconnect_Callback;
 135:Libraries/STM32F4xx_HAL_Driver/Src/stm32f4xx_hal_hcd.c ****     hhcd->PortEnabledCallback = HAL_HCD_PortEnabled_Callback;
 136:Libraries/STM32F4xx_HAL_Driver/Src/stm32f4xx_hal_hcd.c ****     hhcd->PortDisabledCallback = HAL_HCD_PortDisabled_Callback;
 137:Libraries/STM32F4xx_HAL_Driver/Src/stm32f4xx_hal_hcd.c ****     hhcd->HC_NotifyURBChangeCallback = HAL_HCD_HC_NotifyURBChange_Callback;
 138:Libraries/STM32F4xx_HAL_Driver/Src/stm32f4xx_hal_hcd.c **** 
 139:Libraries/STM32F4xx_HAL_Driver/Src/stm32f4xx_hal_hcd.c ****     if (hhcd->MspInitCallback == NULL)
 140:Libraries/STM32F4xx_HAL_Driver/Src/stm32f4xx_hal_hcd.c ****     {
 141:Libraries/STM32F4xx_HAL_Driver/Src/stm32f4xx_hal_hcd.c ****       hhcd->MspInitCallback = HAL_HCD_MspInit;
 142:Libraries/STM32F4xx_HAL_Driver/Src/stm32f4xx_hal_hcd.c ****     }
 143:Libraries/STM32F4xx_HAL_Driver/Src/stm32f4xx_hal_hcd.c **** 
 144:Libraries/STM32F4xx_HAL_Driver/Src/stm32f4xx_hal_hcd.c ****     /* Init the low level hardware */
 145:Libraries/STM32F4xx_HAL_Driver/Src/stm32f4xx_hal_hcd.c ****     hhcd->MspInitCallback(hhcd);
 146:Libraries/STM32F4xx_HAL_Driver/Src/stm32f4xx_hal_hcd.c **** #else
ARM GAS  C:\Users\yzy\AppData\Local\Temp\cco1yVr9.s 			page 4


 147:Libraries/STM32F4xx_HAL_Driver/Src/stm32f4xx_hal_hcd.c ****     /* Init the low level hardware : GPIO, CLOCK, NVIC... */
 148:Libraries/STM32F4xx_HAL_Driver/Src/stm32f4xx_hal_hcd.c ****     HAL_HCD_MspInit(hhcd);
 149:Libraries/STM32F4xx_HAL_Driver/Src/stm32f4xx_hal_hcd.c **** #endif /* (USE_HAL_HCD_REGISTER_CALLBACKS) */
 150:Libraries/STM32F4xx_HAL_Driver/Src/stm32f4xx_hal_hcd.c ****   }
 151:Libraries/STM32F4xx_HAL_Driver/Src/stm32f4xx_hal_hcd.c **** 
 152:Libraries/STM32F4xx_HAL_Driver/Src/stm32f4xx_hal_hcd.c ****   hhcd->State = HAL_HCD_STATE_BUSY;
 153:Libraries/STM32F4xx_HAL_Driver/Src/stm32f4xx_hal_hcd.c **** 
 154:Libraries/STM32F4xx_HAL_Driver/Src/stm32f4xx_hal_hcd.c ****   /* Disable DMA mode for FS instance */
 155:Libraries/STM32F4xx_HAL_Driver/Src/stm32f4xx_hal_hcd.c ****   if ((USBx->CID & (0x1U << 8)) == 0U)
 156:Libraries/STM32F4xx_HAL_Driver/Src/stm32f4xx_hal_hcd.c ****   {
 157:Libraries/STM32F4xx_HAL_Driver/Src/stm32f4xx_hal_hcd.c ****     hhcd->Init.dma_enable = 0U;
 158:Libraries/STM32F4xx_HAL_Driver/Src/stm32f4xx_hal_hcd.c ****   }
 159:Libraries/STM32F4xx_HAL_Driver/Src/stm32f4xx_hal_hcd.c **** 
 160:Libraries/STM32F4xx_HAL_Driver/Src/stm32f4xx_hal_hcd.c ****   /* Disable the Interrupts */
 161:Libraries/STM32F4xx_HAL_Driver/Src/stm32f4xx_hal_hcd.c ****   __HAL_HCD_DISABLE(hhcd);
 162:Libraries/STM32F4xx_HAL_Driver/Src/stm32f4xx_hal_hcd.c **** 
 163:Libraries/STM32F4xx_HAL_Driver/Src/stm32f4xx_hal_hcd.c ****   /* Init the Core (common init.) */
 164:Libraries/STM32F4xx_HAL_Driver/Src/stm32f4xx_hal_hcd.c ****   (void)USB_CoreInit(hhcd->Instance, hhcd->Init);
 165:Libraries/STM32F4xx_HAL_Driver/Src/stm32f4xx_hal_hcd.c **** 
 166:Libraries/STM32F4xx_HAL_Driver/Src/stm32f4xx_hal_hcd.c ****   /* Force Host Mode*/
 167:Libraries/STM32F4xx_HAL_Driver/Src/stm32f4xx_hal_hcd.c ****   (void)USB_SetCurrentMode(hhcd->Instance, USB_HOST_MODE);
 168:Libraries/STM32F4xx_HAL_Driver/Src/stm32f4xx_hal_hcd.c **** 
 169:Libraries/STM32F4xx_HAL_Driver/Src/stm32f4xx_hal_hcd.c ****   /* Init Host */
 170:Libraries/STM32F4xx_HAL_Driver/Src/stm32f4xx_hal_hcd.c ****   (void)USB_HostInit(hhcd->Instance, hhcd->Init);
 171:Libraries/STM32F4xx_HAL_Driver/Src/stm32f4xx_hal_hcd.c **** 
 172:Libraries/STM32F4xx_HAL_Driver/Src/stm32f4xx_hal_hcd.c ****   hhcd->State = HAL_HCD_STATE_READY;
 173:Libraries/STM32F4xx_HAL_Driver/Src/stm32f4xx_hal_hcd.c **** 
 174:Libraries/STM32F4xx_HAL_Driver/Src/stm32f4xx_hal_hcd.c ****   return HAL_OK;
 175:Libraries/STM32F4xx_HAL_Driver/Src/stm32f4xx_hal_hcd.c **** }
 176:Libraries/STM32F4xx_HAL_Driver/Src/stm32f4xx_hal_hcd.c **** 
 177:Libraries/STM32F4xx_HAL_Driver/Src/stm32f4xx_hal_hcd.c **** /**
 178:Libraries/STM32F4xx_HAL_Driver/Src/stm32f4xx_hal_hcd.c ****   * @brief  Initialize a host channel.
 179:Libraries/STM32F4xx_HAL_Driver/Src/stm32f4xx_hal_hcd.c ****   * @param  hhcd HCD handle
 180:Libraries/STM32F4xx_HAL_Driver/Src/stm32f4xx_hal_hcd.c ****   * @param  ch_num Channel number.
 181:Libraries/STM32F4xx_HAL_Driver/Src/stm32f4xx_hal_hcd.c ****   *         This parameter can be a value from 1 to 15
 182:Libraries/STM32F4xx_HAL_Driver/Src/stm32f4xx_hal_hcd.c ****   * @param  epnum Endpoint number.
 183:Libraries/STM32F4xx_HAL_Driver/Src/stm32f4xx_hal_hcd.c ****   *          This parameter can be a value from 1 to 15
 184:Libraries/STM32F4xx_HAL_Driver/Src/stm32f4xx_hal_hcd.c ****   * @param  dev_address Current device address
 185:Libraries/STM32F4xx_HAL_Driver/Src/stm32f4xx_hal_hcd.c ****   *          This parameter can be a value from 0 to 255
 186:Libraries/STM32F4xx_HAL_Driver/Src/stm32f4xx_hal_hcd.c ****   * @param  speed Current device speed.
 187:Libraries/STM32F4xx_HAL_Driver/Src/stm32f4xx_hal_hcd.c ****   *          This parameter can be one of these values:
 188:Libraries/STM32F4xx_HAL_Driver/Src/stm32f4xx_hal_hcd.c ****   *            HCD_SPEED_HIGH: High speed mode,
 189:Libraries/STM32F4xx_HAL_Driver/Src/stm32f4xx_hal_hcd.c ****   *            HCD_SPEED_FULL: Full speed mode,
 190:Libraries/STM32F4xx_HAL_Driver/Src/stm32f4xx_hal_hcd.c ****   *            HCD_SPEED_LOW: Low speed mode
 191:Libraries/STM32F4xx_HAL_Driver/Src/stm32f4xx_hal_hcd.c ****   * @param  ep_type Endpoint Type.
 192:Libraries/STM32F4xx_HAL_Driver/Src/stm32f4xx_hal_hcd.c ****   *          This parameter can be one of these values:
 193:Libraries/STM32F4xx_HAL_Driver/Src/stm32f4xx_hal_hcd.c ****   *            EP_TYPE_CTRL: Control type,
 194:Libraries/STM32F4xx_HAL_Driver/Src/stm32f4xx_hal_hcd.c ****   *            EP_TYPE_ISOC: Isochronous type,
 195:Libraries/STM32F4xx_HAL_Driver/Src/stm32f4xx_hal_hcd.c ****   *            EP_TYPE_BULK: Bulk type,
 196:Libraries/STM32F4xx_HAL_Driver/Src/stm32f4xx_hal_hcd.c ****   *            EP_TYPE_INTR: Interrupt type
 197:Libraries/STM32F4xx_HAL_Driver/Src/stm32f4xx_hal_hcd.c ****   * @param  mps Max Packet Size.
 198:Libraries/STM32F4xx_HAL_Driver/Src/stm32f4xx_hal_hcd.c ****   *          This parameter can be a value from 0 to32K
 199:Libraries/STM32F4xx_HAL_Driver/Src/stm32f4xx_hal_hcd.c ****   * @retval HAL status
 200:Libraries/STM32F4xx_HAL_Driver/Src/stm32f4xx_hal_hcd.c ****   */
 201:Libraries/STM32F4xx_HAL_Driver/Src/stm32f4xx_hal_hcd.c **** HAL_StatusTypeDef HAL_HCD_HC_Init(HCD_HandleTypeDef *hhcd,
 202:Libraries/STM32F4xx_HAL_Driver/Src/stm32f4xx_hal_hcd.c ****                                   uint8_t ch_num,
 203:Libraries/STM32F4xx_HAL_Driver/Src/stm32f4xx_hal_hcd.c ****                                   uint8_t epnum,
ARM GAS  C:\Users\yzy\AppData\Local\Temp\cco1yVr9.s 			page 5


 204:Libraries/STM32F4xx_HAL_Driver/Src/stm32f4xx_hal_hcd.c ****                                   uint8_t dev_address,
 205:Libraries/STM32F4xx_HAL_Driver/Src/stm32f4xx_hal_hcd.c ****                                   uint8_t speed,
 206:Libraries/STM32F4xx_HAL_Driver/Src/stm32f4xx_hal_hcd.c ****                                   uint8_t ep_type,
 207:Libraries/STM32F4xx_HAL_Driver/Src/stm32f4xx_hal_hcd.c ****                                   uint16_t mps)
 208:Libraries/STM32F4xx_HAL_Driver/Src/stm32f4xx_hal_hcd.c **** {
 209:Libraries/STM32F4xx_HAL_Driver/Src/stm32f4xx_hal_hcd.c ****   HAL_StatusTypeDef status;
 210:Libraries/STM32F4xx_HAL_Driver/Src/stm32f4xx_hal_hcd.c **** 
 211:Libraries/STM32F4xx_HAL_Driver/Src/stm32f4xx_hal_hcd.c ****   __HAL_LOCK(hhcd);
 212:Libraries/STM32F4xx_HAL_Driver/Src/stm32f4xx_hal_hcd.c ****   hhcd->hc[ch_num].do_ping = 0U;
 213:Libraries/STM32F4xx_HAL_Driver/Src/stm32f4xx_hal_hcd.c ****   hhcd->hc[ch_num].dev_addr = dev_address;
 214:Libraries/STM32F4xx_HAL_Driver/Src/stm32f4xx_hal_hcd.c ****   hhcd->hc[ch_num].max_packet = mps;
 215:Libraries/STM32F4xx_HAL_Driver/Src/stm32f4xx_hal_hcd.c ****   hhcd->hc[ch_num].ch_num = ch_num;
 216:Libraries/STM32F4xx_HAL_Driver/Src/stm32f4xx_hal_hcd.c ****   hhcd->hc[ch_num].ep_type = ep_type;
 217:Libraries/STM32F4xx_HAL_Driver/Src/stm32f4xx_hal_hcd.c ****   hhcd->hc[ch_num].ep_num = epnum & 0x7FU;
 218:Libraries/STM32F4xx_HAL_Driver/Src/stm32f4xx_hal_hcd.c **** 
 219:Libraries/STM32F4xx_HAL_Driver/Src/stm32f4xx_hal_hcd.c ****   if ((epnum & 0x80U) == 0x80U)
 220:Libraries/STM32F4xx_HAL_Driver/Src/stm32f4xx_hal_hcd.c ****   {
 221:Libraries/STM32F4xx_HAL_Driver/Src/stm32f4xx_hal_hcd.c ****     hhcd->hc[ch_num].ep_is_in = 1U;
 222:Libraries/STM32F4xx_HAL_Driver/Src/stm32f4xx_hal_hcd.c ****   }
 223:Libraries/STM32F4xx_HAL_Driver/Src/stm32f4xx_hal_hcd.c ****   else
 224:Libraries/STM32F4xx_HAL_Driver/Src/stm32f4xx_hal_hcd.c ****   {
 225:Libraries/STM32F4xx_HAL_Driver/Src/stm32f4xx_hal_hcd.c ****     hhcd->hc[ch_num].ep_is_in = 0U;
 226:Libraries/STM32F4xx_HAL_Driver/Src/stm32f4xx_hal_hcd.c ****   }
 227:Libraries/STM32F4xx_HAL_Driver/Src/stm32f4xx_hal_hcd.c **** 
 228:Libraries/STM32F4xx_HAL_Driver/Src/stm32f4xx_hal_hcd.c ****   hhcd->hc[ch_num].speed = speed;
 229:Libraries/STM32F4xx_HAL_Driver/Src/stm32f4xx_hal_hcd.c **** 
 230:Libraries/STM32F4xx_HAL_Driver/Src/stm32f4xx_hal_hcd.c ****   status =  USB_HC_Init(hhcd->Instance,
 231:Libraries/STM32F4xx_HAL_Driver/Src/stm32f4xx_hal_hcd.c ****                         ch_num,
 232:Libraries/STM32F4xx_HAL_Driver/Src/stm32f4xx_hal_hcd.c ****                         epnum,
 233:Libraries/STM32F4xx_HAL_Driver/Src/stm32f4xx_hal_hcd.c ****                         dev_address,
 234:Libraries/STM32F4xx_HAL_Driver/Src/stm32f4xx_hal_hcd.c ****                         speed,
 235:Libraries/STM32F4xx_HAL_Driver/Src/stm32f4xx_hal_hcd.c ****                         ep_type,
 236:Libraries/STM32F4xx_HAL_Driver/Src/stm32f4xx_hal_hcd.c ****                         mps);
 237:Libraries/STM32F4xx_HAL_Driver/Src/stm32f4xx_hal_hcd.c ****   __HAL_UNLOCK(hhcd);
 238:Libraries/STM32F4xx_HAL_Driver/Src/stm32f4xx_hal_hcd.c **** 
 239:Libraries/STM32F4xx_HAL_Driver/Src/stm32f4xx_hal_hcd.c ****   return status;
 240:Libraries/STM32F4xx_HAL_Driver/Src/stm32f4xx_hal_hcd.c **** }
 241:Libraries/STM32F4xx_HAL_Driver/Src/stm32f4xx_hal_hcd.c **** 
 242:Libraries/STM32F4xx_HAL_Driver/Src/stm32f4xx_hal_hcd.c **** /**
 243:Libraries/STM32F4xx_HAL_Driver/Src/stm32f4xx_hal_hcd.c ****   * @brief  Halt a host channel.
 244:Libraries/STM32F4xx_HAL_Driver/Src/stm32f4xx_hal_hcd.c ****   * @param  hhcd HCD handle
 245:Libraries/STM32F4xx_HAL_Driver/Src/stm32f4xx_hal_hcd.c ****   * @param  ch_num Channel number.
 246:Libraries/STM32F4xx_HAL_Driver/Src/stm32f4xx_hal_hcd.c ****   *         This parameter can be a value from 1 to 15
 247:Libraries/STM32F4xx_HAL_Driver/Src/stm32f4xx_hal_hcd.c ****   * @retval HAL status
 248:Libraries/STM32F4xx_HAL_Driver/Src/stm32f4xx_hal_hcd.c ****   */
 249:Libraries/STM32F4xx_HAL_Driver/Src/stm32f4xx_hal_hcd.c **** HAL_StatusTypeDef HAL_HCD_HC_Halt(HCD_HandleTypeDef *hhcd, uint8_t ch_num)
 250:Libraries/STM32F4xx_HAL_Driver/Src/stm32f4xx_hal_hcd.c **** {
 251:Libraries/STM32F4xx_HAL_Driver/Src/stm32f4xx_hal_hcd.c ****   HAL_StatusTypeDef status = HAL_OK;
 252:Libraries/STM32F4xx_HAL_Driver/Src/stm32f4xx_hal_hcd.c **** 
 253:Libraries/STM32F4xx_HAL_Driver/Src/stm32f4xx_hal_hcd.c ****   __HAL_LOCK(hhcd);
 254:Libraries/STM32F4xx_HAL_Driver/Src/stm32f4xx_hal_hcd.c ****   (void)USB_HC_Halt(hhcd->Instance, (uint8_t)ch_num);
 255:Libraries/STM32F4xx_HAL_Driver/Src/stm32f4xx_hal_hcd.c ****   __HAL_UNLOCK(hhcd);
 256:Libraries/STM32F4xx_HAL_Driver/Src/stm32f4xx_hal_hcd.c **** 
 257:Libraries/STM32F4xx_HAL_Driver/Src/stm32f4xx_hal_hcd.c ****   return status;
 258:Libraries/STM32F4xx_HAL_Driver/Src/stm32f4xx_hal_hcd.c **** }
 259:Libraries/STM32F4xx_HAL_Driver/Src/stm32f4xx_hal_hcd.c **** 
 260:Libraries/STM32F4xx_HAL_Driver/Src/stm32f4xx_hal_hcd.c **** /**
ARM GAS  C:\Users\yzy\AppData\Local\Temp\cco1yVr9.s 			page 6


 261:Libraries/STM32F4xx_HAL_Driver/Src/stm32f4xx_hal_hcd.c ****   * @brief  DeInitialize the host driver.
 262:Libraries/STM32F4xx_HAL_Driver/Src/stm32f4xx_hal_hcd.c ****   * @param  hhcd HCD handle
 263:Libraries/STM32F4xx_HAL_Driver/Src/stm32f4xx_hal_hcd.c ****   * @retval HAL status
 264:Libraries/STM32F4xx_HAL_Driver/Src/stm32f4xx_hal_hcd.c ****   */
 265:Libraries/STM32F4xx_HAL_Driver/Src/stm32f4xx_hal_hcd.c **** HAL_StatusTypeDef HAL_HCD_DeInit(HCD_HandleTypeDef *hhcd)
 266:Libraries/STM32F4xx_HAL_Driver/Src/stm32f4xx_hal_hcd.c **** {
 267:Libraries/STM32F4xx_HAL_Driver/Src/stm32f4xx_hal_hcd.c ****   /* Check the HCD handle allocation */
 268:Libraries/STM32F4xx_HAL_Driver/Src/stm32f4xx_hal_hcd.c ****   if (hhcd == NULL)
 269:Libraries/STM32F4xx_HAL_Driver/Src/stm32f4xx_hal_hcd.c ****   {
 270:Libraries/STM32F4xx_HAL_Driver/Src/stm32f4xx_hal_hcd.c ****     return HAL_ERROR;
 271:Libraries/STM32F4xx_HAL_Driver/Src/stm32f4xx_hal_hcd.c ****   }
 272:Libraries/STM32F4xx_HAL_Driver/Src/stm32f4xx_hal_hcd.c **** 
 273:Libraries/STM32F4xx_HAL_Driver/Src/stm32f4xx_hal_hcd.c ****   hhcd->State = HAL_HCD_STATE_BUSY;
 274:Libraries/STM32F4xx_HAL_Driver/Src/stm32f4xx_hal_hcd.c **** 
 275:Libraries/STM32F4xx_HAL_Driver/Src/stm32f4xx_hal_hcd.c **** #if (USE_HAL_HCD_REGISTER_CALLBACKS == 1U)
 276:Libraries/STM32F4xx_HAL_Driver/Src/stm32f4xx_hal_hcd.c ****   if (hhcd->MspDeInitCallback == NULL)
 277:Libraries/STM32F4xx_HAL_Driver/Src/stm32f4xx_hal_hcd.c ****   {
 278:Libraries/STM32F4xx_HAL_Driver/Src/stm32f4xx_hal_hcd.c ****     hhcd->MspDeInitCallback = HAL_HCD_MspDeInit; /* Legacy weak MspDeInit  */
 279:Libraries/STM32F4xx_HAL_Driver/Src/stm32f4xx_hal_hcd.c ****   }
 280:Libraries/STM32F4xx_HAL_Driver/Src/stm32f4xx_hal_hcd.c **** 
 281:Libraries/STM32F4xx_HAL_Driver/Src/stm32f4xx_hal_hcd.c ****   /* DeInit the low level hardware */
 282:Libraries/STM32F4xx_HAL_Driver/Src/stm32f4xx_hal_hcd.c ****   hhcd->MspDeInitCallback(hhcd);
 283:Libraries/STM32F4xx_HAL_Driver/Src/stm32f4xx_hal_hcd.c **** #else
 284:Libraries/STM32F4xx_HAL_Driver/Src/stm32f4xx_hal_hcd.c ****   /* DeInit the low level hardware: CLOCK, NVIC.*/
 285:Libraries/STM32F4xx_HAL_Driver/Src/stm32f4xx_hal_hcd.c ****   HAL_HCD_MspDeInit(hhcd);
 286:Libraries/STM32F4xx_HAL_Driver/Src/stm32f4xx_hal_hcd.c **** #endif /* USE_HAL_HCD_REGISTER_CALLBACKS */
 287:Libraries/STM32F4xx_HAL_Driver/Src/stm32f4xx_hal_hcd.c **** 
 288:Libraries/STM32F4xx_HAL_Driver/Src/stm32f4xx_hal_hcd.c ****   __HAL_HCD_DISABLE(hhcd);
 289:Libraries/STM32F4xx_HAL_Driver/Src/stm32f4xx_hal_hcd.c **** 
 290:Libraries/STM32F4xx_HAL_Driver/Src/stm32f4xx_hal_hcd.c ****   hhcd->State = HAL_HCD_STATE_RESET;
 291:Libraries/STM32F4xx_HAL_Driver/Src/stm32f4xx_hal_hcd.c **** 
 292:Libraries/STM32F4xx_HAL_Driver/Src/stm32f4xx_hal_hcd.c ****   return HAL_OK;
 293:Libraries/STM32F4xx_HAL_Driver/Src/stm32f4xx_hal_hcd.c **** }
 294:Libraries/STM32F4xx_HAL_Driver/Src/stm32f4xx_hal_hcd.c **** 
 295:Libraries/STM32F4xx_HAL_Driver/Src/stm32f4xx_hal_hcd.c **** /**
 296:Libraries/STM32F4xx_HAL_Driver/Src/stm32f4xx_hal_hcd.c ****   * @brief  Initialize the HCD MSP.
 297:Libraries/STM32F4xx_HAL_Driver/Src/stm32f4xx_hal_hcd.c ****   * @param  hhcd HCD handle
 298:Libraries/STM32F4xx_HAL_Driver/Src/stm32f4xx_hal_hcd.c ****   * @retval None
 299:Libraries/STM32F4xx_HAL_Driver/Src/stm32f4xx_hal_hcd.c ****   */
 300:Libraries/STM32F4xx_HAL_Driver/Src/stm32f4xx_hal_hcd.c **** __weak void  HAL_HCD_MspInit(HCD_HandleTypeDef *hhcd)
 301:Libraries/STM32F4xx_HAL_Driver/Src/stm32f4xx_hal_hcd.c **** {
 302:Libraries/STM32F4xx_HAL_Driver/Src/stm32f4xx_hal_hcd.c ****   /* Prevent unused argument(s) compilation warning */
 303:Libraries/STM32F4xx_HAL_Driver/Src/stm32f4xx_hal_hcd.c ****   UNUSED(hhcd);
 304:Libraries/STM32F4xx_HAL_Driver/Src/stm32f4xx_hal_hcd.c **** 
 305:Libraries/STM32F4xx_HAL_Driver/Src/stm32f4xx_hal_hcd.c ****   /* NOTE : This function should not be modified, when the callback is needed,
 306:Libraries/STM32F4xx_HAL_Driver/Src/stm32f4xx_hal_hcd.c ****             the HAL_HCD_MspInit could be implemented in the user file
 307:Libraries/STM32F4xx_HAL_Driver/Src/stm32f4xx_hal_hcd.c ****    */
 308:Libraries/STM32F4xx_HAL_Driver/Src/stm32f4xx_hal_hcd.c **** }
 309:Libraries/STM32F4xx_HAL_Driver/Src/stm32f4xx_hal_hcd.c **** 
 310:Libraries/STM32F4xx_HAL_Driver/Src/stm32f4xx_hal_hcd.c **** /**
 311:Libraries/STM32F4xx_HAL_Driver/Src/stm32f4xx_hal_hcd.c ****   * @brief  DeInitialize the HCD MSP.
 312:Libraries/STM32F4xx_HAL_Driver/Src/stm32f4xx_hal_hcd.c ****   * @param  hhcd HCD handle
 313:Libraries/STM32F4xx_HAL_Driver/Src/stm32f4xx_hal_hcd.c ****   * @retval None
 314:Libraries/STM32F4xx_HAL_Driver/Src/stm32f4xx_hal_hcd.c ****   */
 315:Libraries/STM32F4xx_HAL_Driver/Src/stm32f4xx_hal_hcd.c **** __weak void  HAL_HCD_MspDeInit(HCD_HandleTypeDef *hhcd)
 316:Libraries/STM32F4xx_HAL_Driver/Src/stm32f4xx_hal_hcd.c **** {
 317:Libraries/STM32F4xx_HAL_Driver/Src/stm32f4xx_hal_hcd.c ****   /* Prevent unused argument(s) compilation warning */
ARM GAS  C:\Users\yzy\AppData\Local\Temp\cco1yVr9.s 			page 7


 318:Libraries/STM32F4xx_HAL_Driver/Src/stm32f4xx_hal_hcd.c ****   UNUSED(hhcd);
 319:Libraries/STM32F4xx_HAL_Driver/Src/stm32f4xx_hal_hcd.c **** 
 320:Libraries/STM32F4xx_HAL_Driver/Src/stm32f4xx_hal_hcd.c ****   /* NOTE : This function should not be modified, when the callback is needed,
 321:Libraries/STM32F4xx_HAL_Driver/Src/stm32f4xx_hal_hcd.c ****             the HAL_HCD_MspDeInit could be implemented in the user file
 322:Libraries/STM32F4xx_HAL_Driver/Src/stm32f4xx_hal_hcd.c ****    */
 323:Libraries/STM32F4xx_HAL_Driver/Src/stm32f4xx_hal_hcd.c **** }
 324:Libraries/STM32F4xx_HAL_Driver/Src/stm32f4xx_hal_hcd.c **** 
 325:Libraries/STM32F4xx_HAL_Driver/Src/stm32f4xx_hal_hcd.c **** /**
 326:Libraries/STM32F4xx_HAL_Driver/Src/stm32f4xx_hal_hcd.c ****   * @}
 327:Libraries/STM32F4xx_HAL_Driver/Src/stm32f4xx_hal_hcd.c ****   */
 328:Libraries/STM32F4xx_HAL_Driver/Src/stm32f4xx_hal_hcd.c **** 
 329:Libraries/STM32F4xx_HAL_Driver/Src/stm32f4xx_hal_hcd.c **** /** @defgroup HCD_Exported_Functions_Group2 Input and Output operation functions
 330:Libraries/STM32F4xx_HAL_Driver/Src/stm32f4xx_hal_hcd.c ****   *  @brief   HCD IO operation functions
 331:Libraries/STM32F4xx_HAL_Driver/Src/stm32f4xx_hal_hcd.c ****   *
 332:Libraries/STM32F4xx_HAL_Driver/Src/stm32f4xx_hal_hcd.c **** @verbatim
 333:Libraries/STM32F4xx_HAL_Driver/Src/stm32f4xx_hal_hcd.c ****  ===============================================================================
 334:Libraries/STM32F4xx_HAL_Driver/Src/stm32f4xx_hal_hcd.c ****                       ##### IO operation functions #####
 335:Libraries/STM32F4xx_HAL_Driver/Src/stm32f4xx_hal_hcd.c ****  ===============================================================================
 336:Libraries/STM32F4xx_HAL_Driver/Src/stm32f4xx_hal_hcd.c ****  [..] This subsection provides a set of functions allowing to manage the USB Host Data
 337:Libraries/STM32F4xx_HAL_Driver/Src/stm32f4xx_hal_hcd.c ****     Transfer
 338:Libraries/STM32F4xx_HAL_Driver/Src/stm32f4xx_hal_hcd.c **** 
 339:Libraries/STM32F4xx_HAL_Driver/Src/stm32f4xx_hal_hcd.c **** @endverbatim
 340:Libraries/STM32F4xx_HAL_Driver/Src/stm32f4xx_hal_hcd.c ****   * @{
 341:Libraries/STM32F4xx_HAL_Driver/Src/stm32f4xx_hal_hcd.c ****   */
 342:Libraries/STM32F4xx_HAL_Driver/Src/stm32f4xx_hal_hcd.c **** 
 343:Libraries/STM32F4xx_HAL_Driver/Src/stm32f4xx_hal_hcd.c **** /**
 344:Libraries/STM32F4xx_HAL_Driver/Src/stm32f4xx_hal_hcd.c ****   * @brief  Submit a new URB for processing.
 345:Libraries/STM32F4xx_HAL_Driver/Src/stm32f4xx_hal_hcd.c ****   * @param  hhcd HCD handle
 346:Libraries/STM32F4xx_HAL_Driver/Src/stm32f4xx_hal_hcd.c ****   * @param  ch_num Channel number.
 347:Libraries/STM32F4xx_HAL_Driver/Src/stm32f4xx_hal_hcd.c ****   *         This parameter can be a value from 1 to 15
 348:Libraries/STM32F4xx_HAL_Driver/Src/stm32f4xx_hal_hcd.c ****   * @param  direction Channel number.
 349:Libraries/STM32F4xx_HAL_Driver/Src/stm32f4xx_hal_hcd.c ****   *          This parameter can be one of these values:
 350:Libraries/STM32F4xx_HAL_Driver/Src/stm32f4xx_hal_hcd.c ****   *           0 : Output / 1 : Input
 351:Libraries/STM32F4xx_HAL_Driver/Src/stm32f4xx_hal_hcd.c ****   * @param  ep_type Endpoint Type.
 352:Libraries/STM32F4xx_HAL_Driver/Src/stm32f4xx_hal_hcd.c ****   *          This parameter can be one of these values:
 353:Libraries/STM32F4xx_HAL_Driver/Src/stm32f4xx_hal_hcd.c ****   *            EP_TYPE_CTRL: Control type/
 354:Libraries/STM32F4xx_HAL_Driver/Src/stm32f4xx_hal_hcd.c ****   *            EP_TYPE_ISOC: Isochronous type/
 355:Libraries/STM32F4xx_HAL_Driver/Src/stm32f4xx_hal_hcd.c ****   *            EP_TYPE_BULK: Bulk type/
 356:Libraries/STM32F4xx_HAL_Driver/Src/stm32f4xx_hal_hcd.c ****   *            EP_TYPE_INTR: Interrupt type/
 357:Libraries/STM32F4xx_HAL_Driver/Src/stm32f4xx_hal_hcd.c ****   * @param  token Endpoint Type.
 358:Libraries/STM32F4xx_HAL_Driver/Src/stm32f4xx_hal_hcd.c ****   *          This parameter can be one of these values:
 359:Libraries/STM32F4xx_HAL_Driver/Src/stm32f4xx_hal_hcd.c ****   *            0: HC_PID_SETUP / 1: HC_PID_DATA1
 360:Libraries/STM32F4xx_HAL_Driver/Src/stm32f4xx_hal_hcd.c ****   * @param  pbuff pointer to URB data
 361:Libraries/STM32F4xx_HAL_Driver/Src/stm32f4xx_hal_hcd.c ****   * @param  length Length of URB data
 362:Libraries/STM32F4xx_HAL_Driver/Src/stm32f4xx_hal_hcd.c ****   * @param  do_ping activate do ping protocol (for high speed only).
 363:Libraries/STM32F4xx_HAL_Driver/Src/stm32f4xx_hal_hcd.c ****   *          This parameter can be one of these values:
 364:Libraries/STM32F4xx_HAL_Driver/Src/stm32f4xx_hal_hcd.c ****   *           0 : do ping inactive / 1 : do ping active
 365:Libraries/STM32F4xx_HAL_Driver/Src/stm32f4xx_hal_hcd.c ****   * @retval HAL status
 366:Libraries/STM32F4xx_HAL_Driver/Src/stm32f4xx_hal_hcd.c ****   */
 367:Libraries/STM32F4xx_HAL_Driver/Src/stm32f4xx_hal_hcd.c **** HAL_StatusTypeDef HAL_HCD_HC_SubmitRequest(HCD_HandleTypeDef *hhcd,
 368:Libraries/STM32F4xx_HAL_Driver/Src/stm32f4xx_hal_hcd.c ****                                            uint8_t ch_num,
 369:Libraries/STM32F4xx_HAL_Driver/Src/stm32f4xx_hal_hcd.c ****                                            uint8_t direction,
 370:Libraries/STM32F4xx_HAL_Driver/Src/stm32f4xx_hal_hcd.c ****                                            uint8_t ep_type,
 371:Libraries/STM32F4xx_HAL_Driver/Src/stm32f4xx_hal_hcd.c ****                                            uint8_t token,
 372:Libraries/STM32F4xx_HAL_Driver/Src/stm32f4xx_hal_hcd.c ****                                            uint8_t *pbuff,
 373:Libraries/STM32F4xx_HAL_Driver/Src/stm32f4xx_hal_hcd.c ****                                            uint16_t length,
 374:Libraries/STM32F4xx_HAL_Driver/Src/stm32f4xx_hal_hcd.c ****                                            uint8_t do_ping)
ARM GAS  C:\Users\yzy\AppData\Local\Temp\cco1yVr9.s 			page 8


 375:Libraries/STM32F4xx_HAL_Driver/Src/stm32f4xx_hal_hcd.c **** {
 376:Libraries/STM32F4xx_HAL_Driver/Src/stm32f4xx_hal_hcd.c ****   hhcd->hc[ch_num].ep_is_in = direction;
 377:Libraries/STM32F4xx_HAL_Driver/Src/stm32f4xx_hal_hcd.c ****   hhcd->hc[ch_num].ep_type  = ep_type;
 378:Libraries/STM32F4xx_HAL_Driver/Src/stm32f4xx_hal_hcd.c **** 
 379:Libraries/STM32F4xx_HAL_Driver/Src/stm32f4xx_hal_hcd.c ****   if (token == 0U)
 380:Libraries/STM32F4xx_HAL_Driver/Src/stm32f4xx_hal_hcd.c ****   {
 381:Libraries/STM32F4xx_HAL_Driver/Src/stm32f4xx_hal_hcd.c ****     hhcd->hc[ch_num].data_pid = HC_PID_SETUP;
 382:Libraries/STM32F4xx_HAL_Driver/Src/stm32f4xx_hal_hcd.c ****     hhcd->hc[ch_num].do_ping = do_ping;
 383:Libraries/STM32F4xx_HAL_Driver/Src/stm32f4xx_hal_hcd.c ****   }
 384:Libraries/STM32F4xx_HAL_Driver/Src/stm32f4xx_hal_hcd.c ****   else
 385:Libraries/STM32F4xx_HAL_Driver/Src/stm32f4xx_hal_hcd.c ****   {
 386:Libraries/STM32F4xx_HAL_Driver/Src/stm32f4xx_hal_hcd.c ****     hhcd->hc[ch_num].data_pid = HC_PID_DATA1;
 387:Libraries/STM32F4xx_HAL_Driver/Src/stm32f4xx_hal_hcd.c ****   }
 388:Libraries/STM32F4xx_HAL_Driver/Src/stm32f4xx_hal_hcd.c **** 
 389:Libraries/STM32F4xx_HAL_Driver/Src/stm32f4xx_hal_hcd.c ****   /* Manage Data Toggle */
 390:Libraries/STM32F4xx_HAL_Driver/Src/stm32f4xx_hal_hcd.c ****   switch (ep_type)
 391:Libraries/STM32F4xx_HAL_Driver/Src/stm32f4xx_hal_hcd.c ****   {
 392:Libraries/STM32F4xx_HAL_Driver/Src/stm32f4xx_hal_hcd.c ****     case EP_TYPE_CTRL:
 393:Libraries/STM32F4xx_HAL_Driver/Src/stm32f4xx_hal_hcd.c ****       if ((token == 1U) && (direction == 0U)) /*send data */
 394:Libraries/STM32F4xx_HAL_Driver/Src/stm32f4xx_hal_hcd.c ****       {
 395:Libraries/STM32F4xx_HAL_Driver/Src/stm32f4xx_hal_hcd.c ****         if (length == 0U)
 396:Libraries/STM32F4xx_HAL_Driver/Src/stm32f4xx_hal_hcd.c ****         {
 397:Libraries/STM32F4xx_HAL_Driver/Src/stm32f4xx_hal_hcd.c ****           /* For Status OUT stage, Length==0, Status Out PID = 1 */
 398:Libraries/STM32F4xx_HAL_Driver/Src/stm32f4xx_hal_hcd.c ****           hhcd->hc[ch_num].toggle_out = 1U;
 399:Libraries/STM32F4xx_HAL_Driver/Src/stm32f4xx_hal_hcd.c ****         }
 400:Libraries/STM32F4xx_HAL_Driver/Src/stm32f4xx_hal_hcd.c **** 
 401:Libraries/STM32F4xx_HAL_Driver/Src/stm32f4xx_hal_hcd.c ****         /* Set the Data Toggle bit as per the Flag */
 402:Libraries/STM32F4xx_HAL_Driver/Src/stm32f4xx_hal_hcd.c ****         if (hhcd->hc[ch_num].toggle_out == 0U)
 403:Libraries/STM32F4xx_HAL_Driver/Src/stm32f4xx_hal_hcd.c ****         {
 404:Libraries/STM32F4xx_HAL_Driver/Src/stm32f4xx_hal_hcd.c ****           /* Put the PID 0 */
 405:Libraries/STM32F4xx_HAL_Driver/Src/stm32f4xx_hal_hcd.c ****           hhcd->hc[ch_num].data_pid = HC_PID_DATA0;
 406:Libraries/STM32F4xx_HAL_Driver/Src/stm32f4xx_hal_hcd.c ****         }
 407:Libraries/STM32F4xx_HAL_Driver/Src/stm32f4xx_hal_hcd.c ****         else
 408:Libraries/STM32F4xx_HAL_Driver/Src/stm32f4xx_hal_hcd.c ****         {
 409:Libraries/STM32F4xx_HAL_Driver/Src/stm32f4xx_hal_hcd.c ****           /* Put the PID 1 */
 410:Libraries/STM32F4xx_HAL_Driver/Src/stm32f4xx_hal_hcd.c ****           hhcd->hc[ch_num].data_pid = HC_PID_DATA1;
 411:Libraries/STM32F4xx_HAL_Driver/Src/stm32f4xx_hal_hcd.c ****         }
 412:Libraries/STM32F4xx_HAL_Driver/Src/stm32f4xx_hal_hcd.c ****       }
 413:Libraries/STM32F4xx_HAL_Driver/Src/stm32f4xx_hal_hcd.c ****       break;
 414:Libraries/STM32F4xx_HAL_Driver/Src/stm32f4xx_hal_hcd.c **** 
 415:Libraries/STM32F4xx_HAL_Driver/Src/stm32f4xx_hal_hcd.c ****     case EP_TYPE_BULK:
 416:Libraries/STM32F4xx_HAL_Driver/Src/stm32f4xx_hal_hcd.c ****       if (direction == 0U)
 417:Libraries/STM32F4xx_HAL_Driver/Src/stm32f4xx_hal_hcd.c ****       {
 418:Libraries/STM32F4xx_HAL_Driver/Src/stm32f4xx_hal_hcd.c ****         /* Set the Data Toggle bit as per the Flag */
 419:Libraries/STM32F4xx_HAL_Driver/Src/stm32f4xx_hal_hcd.c ****         if (hhcd->hc[ch_num].toggle_out == 0U)
 420:Libraries/STM32F4xx_HAL_Driver/Src/stm32f4xx_hal_hcd.c ****         {
 421:Libraries/STM32F4xx_HAL_Driver/Src/stm32f4xx_hal_hcd.c ****           /* Put the PID 0 */
 422:Libraries/STM32F4xx_HAL_Driver/Src/stm32f4xx_hal_hcd.c ****           hhcd->hc[ch_num].data_pid = HC_PID_DATA0;
 423:Libraries/STM32F4xx_HAL_Driver/Src/stm32f4xx_hal_hcd.c ****         }
 424:Libraries/STM32F4xx_HAL_Driver/Src/stm32f4xx_hal_hcd.c ****         else
 425:Libraries/STM32F4xx_HAL_Driver/Src/stm32f4xx_hal_hcd.c ****         {
 426:Libraries/STM32F4xx_HAL_Driver/Src/stm32f4xx_hal_hcd.c ****           /* Put the PID 1 */
 427:Libraries/STM32F4xx_HAL_Driver/Src/stm32f4xx_hal_hcd.c ****           hhcd->hc[ch_num].data_pid = HC_PID_DATA1;
 428:Libraries/STM32F4xx_HAL_Driver/Src/stm32f4xx_hal_hcd.c ****         }
 429:Libraries/STM32F4xx_HAL_Driver/Src/stm32f4xx_hal_hcd.c ****       }
 430:Libraries/STM32F4xx_HAL_Driver/Src/stm32f4xx_hal_hcd.c ****       else
 431:Libraries/STM32F4xx_HAL_Driver/Src/stm32f4xx_hal_hcd.c ****       {
ARM GAS  C:\Users\yzy\AppData\Local\Temp\cco1yVr9.s 			page 9


 432:Libraries/STM32F4xx_HAL_Driver/Src/stm32f4xx_hal_hcd.c ****         if (hhcd->hc[ch_num].toggle_in == 0U)
 433:Libraries/STM32F4xx_HAL_Driver/Src/stm32f4xx_hal_hcd.c ****         {
 434:Libraries/STM32F4xx_HAL_Driver/Src/stm32f4xx_hal_hcd.c ****           hhcd->hc[ch_num].data_pid = HC_PID_DATA0;
 435:Libraries/STM32F4xx_HAL_Driver/Src/stm32f4xx_hal_hcd.c ****         }
 436:Libraries/STM32F4xx_HAL_Driver/Src/stm32f4xx_hal_hcd.c ****         else
 437:Libraries/STM32F4xx_HAL_Driver/Src/stm32f4xx_hal_hcd.c ****         {
 438:Libraries/STM32F4xx_HAL_Driver/Src/stm32f4xx_hal_hcd.c ****           hhcd->hc[ch_num].data_pid = HC_PID_DATA1;
 439:Libraries/STM32F4xx_HAL_Driver/Src/stm32f4xx_hal_hcd.c ****         }
 440:Libraries/STM32F4xx_HAL_Driver/Src/stm32f4xx_hal_hcd.c ****       }
 441:Libraries/STM32F4xx_HAL_Driver/Src/stm32f4xx_hal_hcd.c **** 
 442:Libraries/STM32F4xx_HAL_Driver/Src/stm32f4xx_hal_hcd.c ****       break;
 443:Libraries/STM32F4xx_HAL_Driver/Src/stm32f4xx_hal_hcd.c ****     case EP_TYPE_INTR:
 444:Libraries/STM32F4xx_HAL_Driver/Src/stm32f4xx_hal_hcd.c ****       if (direction == 0U)
 445:Libraries/STM32F4xx_HAL_Driver/Src/stm32f4xx_hal_hcd.c ****       {
 446:Libraries/STM32F4xx_HAL_Driver/Src/stm32f4xx_hal_hcd.c ****         /* Set the Data Toggle bit as per the Flag */
 447:Libraries/STM32F4xx_HAL_Driver/Src/stm32f4xx_hal_hcd.c ****         if (hhcd->hc[ch_num].toggle_out == 0U)
 448:Libraries/STM32F4xx_HAL_Driver/Src/stm32f4xx_hal_hcd.c ****         {
 449:Libraries/STM32F4xx_HAL_Driver/Src/stm32f4xx_hal_hcd.c ****           /* Put the PID 0 */
 450:Libraries/STM32F4xx_HAL_Driver/Src/stm32f4xx_hal_hcd.c ****           hhcd->hc[ch_num].data_pid = HC_PID_DATA0;
 451:Libraries/STM32F4xx_HAL_Driver/Src/stm32f4xx_hal_hcd.c ****         }
 452:Libraries/STM32F4xx_HAL_Driver/Src/stm32f4xx_hal_hcd.c ****         else
 453:Libraries/STM32F4xx_HAL_Driver/Src/stm32f4xx_hal_hcd.c ****         {
 454:Libraries/STM32F4xx_HAL_Driver/Src/stm32f4xx_hal_hcd.c ****           /* Put the PID 1 */
 455:Libraries/STM32F4xx_HAL_Driver/Src/stm32f4xx_hal_hcd.c ****           hhcd->hc[ch_num].data_pid = HC_PID_DATA1;
 456:Libraries/STM32F4xx_HAL_Driver/Src/stm32f4xx_hal_hcd.c ****         }
 457:Libraries/STM32F4xx_HAL_Driver/Src/stm32f4xx_hal_hcd.c ****       }
 458:Libraries/STM32F4xx_HAL_Driver/Src/stm32f4xx_hal_hcd.c ****       else
 459:Libraries/STM32F4xx_HAL_Driver/Src/stm32f4xx_hal_hcd.c ****       {
 460:Libraries/STM32F4xx_HAL_Driver/Src/stm32f4xx_hal_hcd.c ****         if (hhcd->hc[ch_num].toggle_in == 0U)
 461:Libraries/STM32F4xx_HAL_Driver/Src/stm32f4xx_hal_hcd.c ****         {
 462:Libraries/STM32F4xx_HAL_Driver/Src/stm32f4xx_hal_hcd.c ****           hhcd->hc[ch_num].data_pid = HC_PID_DATA0;
 463:Libraries/STM32F4xx_HAL_Driver/Src/stm32f4xx_hal_hcd.c ****         }
 464:Libraries/STM32F4xx_HAL_Driver/Src/stm32f4xx_hal_hcd.c ****         else
 465:Libraries/STM32F4xx_HAL_Driver/Src/stm32f4xx_hal_hcd.c ****         {
 466:Libraries/STM32F4xx_HAL_Driver/Src/stm32f4xx_hal_hcd.c ****           hhcd->hc[ch_num].data_pid = HC_PID_DATA1;
 467:Libraries/STM32F4xx_HAL_Driver/Src/stm32f4xx_hal_hcd.c ****         }
 468:Libraries/STM32F4xx_HAL_Driver/Src/stm32f4xx_hal_hcd.c ****       }
 469:Libraries/STM32F4xx_HAL_Driver/Src/stm32f4xx_hal_hcd.c ****       break;
 470:Libraries/STM32F4xx_HAL_Driver/Src/stm32f4xx_hal_hcd.c **** 
 471:Libraries/STM32F4xx_HAL_Driver/Src/stm32f4xx_hal_hcd.c ****     case EP_TYPE_ISOC:
 472:Libraries/STM32F4xx_HAL_Driver/Src/stm32f4xx_hal_hcd.c ****       hhcd->hc[ch_num].data_pid = HC_PID_DATA0;
 473:Libraries/STM32F4xx_HAL_Driver/Src/stm32f4xx_hal_hcd.c ****       break;
 474:Libraries/STM32F4xx_HAL_Driver/Src/stm32f4xx_hal_hcd.c **** 
 475:Libraries/STM32F4xx_HAL_Driver/Src/stm32f4xx_hal_hcd.c ****     default:
 476:Libraries/STM32F4xx_HAL_Driver/Src/stm32f4xx_hal_hcd.c ****       break;
 477:Libraries/STM32F4xx_HAL_Driver/Src/stm32f4xx_hal_hcd.c ****   }
 478:Libraries/STM32F4xx_HAL_Driver/Src/stm32f4xx_hal_hcd.c **** 
 479:Libraries/STM32F4xx_HAL_Driver/Src/stm32f4xx_hal_hcd.c ****   hhcd->hc[ch_num].xfer_buff = pbuff;
 480:Libraries/STM32F4xx_HAL_Driver/Src/stm32f4xx_hal_hcd.c ****   hhcd->hc[ch_num].xfer_len  = length;
 481:Libraries/STM32F4xx_HAL_Driver/Src/stm32f4xx_hal_hcd.c ****   hhcd->hc[ch_num].urb_state = URB_IDLE;
 482:Libraries/STM32F4xx_HAL_Driver/Src/stm32f4xx_hal_hcd.c ****   hhcd->hc[ch_num].xfer_count = 0U;
 483:Libraries/STM32F4xx_HAL_Driver/Src/stm32f4xx_hal_hcd.c ****   hhcd->hc[ch_num].ch_num = ch_num;
 484:Libraries/STM32F4xx_HAL_Driver/Src/stm32f4xx_hal_hcd.c ****   hhcd->hc[ch_num].state = HC_IDLE;
 485:Libraries/STM32F4xx_HAL_Driver/Src/stm32f4xx_hal_hcd.c **** 
 486:Libraries/STM32F4xx_HAL_Driver/Src/stm32f4xx_hal_hcd.c ****   return USB_HC_StartXfer(hhcd->Instance, &hhcd->hc[ch_num], (uint8_t)hhcd->Init.dma_enable);
 487:Libraries/STM32F4xx_HAL_Driver/Src/stm32f4xx_hal_hcd.c **** }
 488:Libraries/STM32F4xx_HAL_Driver/Src/stm32f4xx_hal_hcd.c **** 
ARM GAS  C:\Users\yzy\AppData\Local\Temp\cco1yVr9.s 			page 10


 489:Libraries/STM32F4xx_HAL_Driver/Src/stm32f4xx_hal_hcd.c **** /**
 490:Libraries/STM32F4xx_HAL_Driver/Src/stm32f4xx_hal_hcd.c ****   * @brief  Handle HCD interrupt request.
 491:Libraries/STM32F4xx_HAL_Driver/Src/stm32f4xx_hal_hcd.c ****   * @param  hhcd HCD handle
 492:Libraries/STM32F4xx_HAL_Driver/Src/stm32f4xx_hal_hcd.c ****   * @retval None
 493:Libraries/STM32F4xx_HAL_Driver/Src/stm32f4xx_hal_hcd.c ****   */
 494:Libraries/STM32F4xx_HAL_Driver/Src/stm32f4xx_hal_hcd.c **** void HAL_HCD_IRQHandler(HCD_HandleTypeDef *hhcd)
 495:Libraries/STM32F4xx_HAL_Driver/Src/stm32f4xx_hal_hcd.c **** {
 496:Libraries/STM32F4xx_HAL_Driver/Src/stm32f4xx_hal_hcd.c ****   USB_OTG_GlobalTypeDef *USBx = hhcd->Instance;
 497:Libraries/STM32F4xx_HAL_Driver/Src/stm32f4xx_hal_hcd.c ****   uint32_t USBx_BASE = (uint32_t)USBx;
 498:Libraries/STM32F4xx_HAL_Driver/Src/stm32f4xx_hal_hcd.c ****   uint32_t i, interrupt;
 499:Libraries/STM32F4xx_HAL_Driver/Src/stm32f4xx_hal_hcd.c **** 
 500:Libraries/STM32F4xx_HAL_Driver/Src/stm32f4xx_hal_hcd.c ****   /* Ensure that we are in device mode */
 501:Libraries/STM32F4xx_HAL_Driver/Src/stm32f4xx_hal_hcd.c ****   if (USB_GetMode(hhcd->Instance) == USB_OTG_MODE_HOST)
 502:Libraries/STM32F4xx_HAL_Driver/Src/stm32f4xx_hal_hcd.c ****   {
 503:Libraries/STM32F4xx_HAL_Driver/Src/stm32f4xx_hal_hcd.c ****     /* Avoid spurious interrupt */
 504:Libraries/STM32F4xx_HAL_Driver/Src/stm32f4xx_hal_hcd.c ****     if (__HAL_HCD_IS_INVALID_INTERRUPT(hhcd))
 505:Libraries/STM32F4xx_HAL_Driver/Src/stm32f4xx_hal_hcd.c ****     {
 506:Libraries/STM32F4xx_HAL_Driver/Src/stm32f4xx_hal_hcd.c ****       return;
 507:Libraries/STM32F4xx_HAL_Driver/Src/stm32f4xx_hal_hcd.c ****     }
 508:Libraries/STM32F4xx_HAL_Driver/Src/stm32f4xx_hal_hcd.c **** 
 509:Libraries/STM32F4xx_HAL_Driver/Src/stm32f4xx_hal_hcd.c ****     if (__HAL_HCD_GET_FLAG(hhcd, USB_OTG_GINTSTS_PXFR_INCOMPISOOUT))
 510:Libraries/STM32F4xx_HAL_Driver/Src/stm32f4xx_hal_hcd.c ****     {
 511:Libraries/STM32F4xx_HAL_Driver/Src/stm32f4xx_hal_hcd.c ****       /* Incorrect mode, acknowledge the interrupt */
 512:Libraries/STM32F4xx_HAL_Driver/Src/stm32f4xx_hal_hcd.c ****       __HAL_HCD_CLEAR_FLAG(hhcd, USB_OTG_GINTSTS_PXFR_INCOMPISOOUT);
 513:Libraries/STM32F4xx_HAL_Driver/Src/stm32f4xx_hal_hcd.c ****     }
 514:Libraries/STM32F4xx_HAL_Driver/Src/stm32f4xx_hal_hcd.c **** 
 515:Libraries/STM32F4xx_HAL_Driver/Src/stm32f4xx_hal_hcd.c ****     if (__HAL_HCD_GET_FLAG(hhcd, USB_OTG_GINTSTS_IISOIXFR))
 516:Libraries/STM32F4xx_HAL_Driver/Src/stm32f4xx_hal_hcd.c ****     {
 517:Libraries/STM32F4xx_HAL_Driver/Src/stm32f4xx_hal_hcd.c ****       /* Incorrect mode, acknowledge the interrupt */
 518:Libraries/STM32F4xx_HAL_Driver/Src/stm32f4xx_hal_hcd.c ****       __HAL_HCD_CLEAR_FLAG(hhcd, USB_OTG_GINTSTS_IISOIXFR);
 519:Libraries/STM32F4xx_HAL_Driver/Src/stm32f4xx_hal_hcd.c ****     }
 520:Libraries/STM32F4xx_HAL_Driver/Src/stm32f4xx_hal_hcd.c **** 
 521:Libraries/STM32F4xx_HAL_Driver/Src/stm32f4xx_hal_hcd.c ****     if (__HAL_HCD_GET_FLAG(hhcd, USB_OTG_GINTSTS_PTXFE))
 522:Libraries/STM32F4xx_HAL_Driver/Src/stm32f4xx_hal_hcd.c ****     {
 523:Libraries/STM32F4xx_HAL_Driver/Src/stm32f4xx_hal_hcd.c ****       /* Incorrect mode, acknowledge the interrupt */
 524:Libraries/STM32F4xx_HAL_Driver/Src/stm32f4xx_hal_hcd.c ****       __HAL_HCD_CLEAR_FLAG(hhcd, USB_OTG_GINTSTS_PTXFE);
 525:Libraries/STM32F4xx_HAL_Driver/Src/stm32f4xx_hal_hcd.c ****     }
 526:Libraries/STM32F4xx_HAL_Driver/Src/stm32f4xx_hal_hcd.c **** 
 527:Libraries/STM32F4xx_HAL_Driver/Src/stm32f4xx_hal_hcd.c ****     if (__HAL_HCD_GET_FLAG(hhcd, USB_OTG_GINTSTS_MMIS))
 528:Libraries/STM32F4xx_HAL_Driver/Src/stm32f4xx_hal_hcd.c ****     {
 529:Libraries/STM32F4xx_HAL_Driver/Src/stm32f4xx_hal_hcd.c ****       /* Incorrect mode, acknowledge the interrupt */
 530:Libraries/STM32F4xx_HAL_Driver/Src/stm32f4xx_hal_hcd.c ****       __HAL_HCD_CLEAR_FLAG(hhcd, USB_OTG_GINTSTS_MMIS);
 531:Libraries/STM32F4xx_HAL_Driver/Src/stm32f4xx_hal_hcd.c ****     }
 532:Libraries/STM32F4xx_HAL_Driver/Src/stm32f4xx_hal_hcd.c **** 
 533:Libraries/STM32F4xx_HAL_Driver/Src/stm32f4xx_hal_hcd.c ****     /* Handle Host Disconnect Interrupts */
 534:Libraries/STM32F4xx_HAL_Driver/Src/stm32f4xx_hal_hcd.c ****     if (__HAL_HCD_GET_FLAG(hhcd, USB_OTG_GINTSTS_DISCINT))
 535:Libraries/STM32F4xx_HAL_Driver/Src/stm32f4xx_hal_hcd.c ****     {
 536:Libraries/STM32F4xx_HAL_Driver/Src/stm32f4xx_hal_hcd.c ****       __HAL_HCD_CLEAR_FLAG(hhcd, USB_OTG_GINTSTS_DISCINT);
 537:Libraries/STM32F4xx_HAL_Driver/Src/stm32f4xx_hal_hcd.c **** 
 538:Libraries/STM32F4xx_HAL_Driver/Src/stm32f4xx_hal_hcd.c ****       if ((USBx_HPRT0 & USB_OTG_HPRT_PCSTS) == 0U)
 539:Libraries/STM32F4xx_HAL_Driver/Src/stm32f4xx_hal_hcd.c ****       {
 540:Libraries/STM32F4xx_HAL_Driver/Src/stm32f4xx_hal_hcd.c ****         /* Handle Host Port Disconnect Interrupt */
 541:Libraries/STM32F4xx_HAL_Driver/Src/stm32f4xx_hal_hcd.c **** #if (USE_HAL_HCD_REGISTER_CALLBACKS == 1U)
 542:Libraries/STM32F4xx_HAL_Driver/Src/stm32f4xx_hal_hcd.c ****         hhcd->DisconnectCallback(hhcd);
 543:Libraries/STM32F4xx_HAL_Driver/Src/stm32f4xx_hal_hcd.c **** #else
 544:Libraries/STM32F4xx_HAL_Driver/Src/stm32f4xx_hal_hcd.c ****         HAL_HCD_Disconnect_Callback(hhcd);
 545:Libraries/STM32F4xx_HAL_Driver/Src/stm32f4xx_hal_hcd.c **** #endif /* USE_HAL_HCD_REGISTER_CALLBACKS */
ARM GAS  C:\Users\yzy\AppData\Local\Temp\cco1yVr9.s 			page 11


 546:Libraries/STM32F4xx_HAL_Driver/Src/stm32f4xx_hal_hcd.c **** 
 547:Libraries/STM32F4xx_HAL_Driver/Src/stm32f4xx_hal_hcd.c ****         (void)USB_InitFSLSPClkSel(hhcd->Instance, HCFG_48_MHZ);
 548:Libraries/STM32F4xx_HAL_Driver/Src/stm32f4xx_hal_hcd.c ****       }
 549:Libraries/STM32F4xx_HAL_Driver/Src/stm32f4xx_hal_hcd.c ****     }
 550:Libraries/STM32F4xx_HAL_Driver/Src/stm32f4xx_hal_hcd.c **** 
 551:Libraries/STM32F4xx_HAL_Driver/Src/stm32f4xx_hal_hcd.c ****     /* Handle Host Port Interrupts */
 552:Libraries/STM32F4xx_HAL_Driver/Src/stm32f4xx_hal_hcd.c ****     if (__HAL_HCD_GET_FLAG(hhcd, USB_OTG_GINTSTS_HPRTINT))
 553:Libraries/STM32F4xx_HAL_Driver/Src/stm32f4xx_hal_hcd.c ****     {
 554:Libraries/STM32F4xx_HAL_Driver/Src/stm32f4xx_hal_hcd.c ****       HCD_Port_IRQHandler(hhcd);
 555:Libraries/STM32F4xx_HAL_Driver/Src/stm32f4xx_hal_hcd.c ****     }
 556:Libraries/STM32F4xx_HAL_Driver/Src/stm32f4xx_hal_hcd.c **** 
 557:Libraries/STM32F4xx_HAL_Driver/Src/stm32f4xx_hal_hcd.c ****     /* Handle Host SOF Interrupt */
 558:Libraries/STM32F4xx_HAL_Driver/Src/stm32f4xx_hal_hcd.c ****     if (__HAL_HCD_GET_FLAG(hhcd, USB_OTG_GINTSTS_SOF))
 559:Libraries/STM32F4xx_HAL_Driver/Src/stm32f4xx_hal_hcd.c ****     {
 560:Libraries/STM32F4xx_HAL_Driver/Src/stm32f4xx_hal_hcd.c **** #if (USE_HAL_HCD_REGISTER_CALLBACKS == 1U)
 561:Libraries/STM32F4xx_HAL_Driver/Src/stm32f4xx_hal_hcd.c ****       hhcd->SOFCallback(hhcd);
 562:Libraries/STM32F4xx_HAL_Driver/Src/stm32f4xx_hal_hcd.c **** #else
 563:Libraries/STM32F4xx_HAL_Driver/Src/stm32f4xx_hal_hcd.c ****       HAL_HCD_SOF_Callback(hhcd);
 564:Libraries/STM32F4xx_HAL_Driver/Src/stm32f4xx_hal_hcd.c **** #endif /* USE_HAL_HCD_REGISTER_CALLBACKS */
 565:Libraries/STM32F4xx_HAL_Driver/Src/stm32f4xx_hal_hcd.c **** 
 566:Libraries/STM32F4xx_HAL_Driver/Src/stm32f4xx_hal_hcd.c ****       __HAL_HCD_CLEAR_FLAG(hhcd, USB_OTG_GINTSTS_SOF);
 567:Libraries/STM32F4xx_HAL_Driver/Src/stm32f4xx_hal_hcd.c ****     }
 568:Libraries/STM32F4xx_HAL_Driver/Src/stm32f4xx_hal_hcd.c **** 
 569:Libraries/STM32F4xx_HAL_Driver/Src/stm32f4xx_hal_hcd.c ****     /* Handle Host channel Interrupt */
 570:Libraries/STM32F4xx_HAL_Driver/Src/stm32f4xx_hal_hcd.c ****     if (__HAL_HCD_GET_FLAG(hhcd, USB_OTG_GINTSTS_HCINT))
 571:Libraries/STM32F4xx_HAL_Driver/Src/stm32f4xx_hal_hcd.c ****     {
 572:Libraries/STM32F4xx_HAL_Driver/Src/stm32f4xx_hal_hcd.c ****       interrupt = USB_HC_ReadInterrupt(hhcd->Instance);
 573:Libraries/STM32F4xx_HAL_Driver/Src/stm32f4xx_hal_hcd.c ****       for (i = 0U; i < hhcd->Init.Host_channels; i++)
 574:Libraries/STM32F4xx_HAL_Driver/Src/stm32f4xx_hal_hcd.c ****       {
 575:Libraries/STM32F4xx_HAL_Driver/Src/stm32f4xx_hal_hcd.c ****         if ((interrupt & (1UL << (i & 0xFU))) != 0U)
 576:Libraries/STM32F4xx_HAL_Driver/Src/stm32f4xx_hal_hcd.c ****         {
 577:Libraries/STM32F4xx_HAL_Driver/Src/stm32f4xx_hal_hcd.c ****           if ((USBx_HC(i)->HCCHAR & USB_OTG_HCCHAR_EPDIR) == USB_OTG_HCCHAR_EPDIR)
 578:Libraries/STM32F4xx_HAL_Driver/Src/stm32f4xx_hal_hcd.c ****           {
 579:Libraries/STM32F4xx_HAL_Driver/Src/stm32f4xx_hal_hcd.c ****             HCD_HC_IN_IRQHandler(hhcd, (uint8_t)i);
 580:Libraries/STM32F4xx_HAL_Driver/Src/stm32f4xx_hal_hcd.c ****           }
 581:Libraries/STM32F4xx_HAL_Driver/Src/stm32f4xx_hal_hcd.c ****           else
 582:Libraries/STM32F4xx_HAL_Driver/Src/stm32f4xx_hal_hcd.c ****           {
 583:Libraries/STM32F4xx_HAL_Driver/Src/stm32f4xx_hal_hcd.c ****             HCD_HC_OUT_IRQHandler(hhcd, (uint8_t)i);
 584:Libraries/STM32F4xx_HAL_Driver/Src/stm32f4xx_hal_hcd.c ****           }
 585:Libraries/STM32F4xx_HAL_Driver/Src/stm32f4xx_hal_hcd.c ****         }
 586:Libraries/STM32F4xx_HAL_Driver/Src/stm32f4xx_hal_hcd.c ****       }
 587:Libraries/STM32F4xx_HAL_Driver/Src/stm32f4xx_hal_hcd.c ****       __HAL_HCD_CLEAR_FLAG(hhcd, USB_OTG_GINTSTS_HCINT);
 588:Libraries/STM32F4xx_HAL_Driver/Src/stm32f4xx_hal_hcd.c ****     }
 589:Libraries/STM32F4xx_HAL_Driver/Src/stm32f4xx_hal_hcd.c **** 
 590:Libraries/STM32F4xx_HAL_Driver/Src/stm32f4xx_hal_hcd.c ****     /* Handle Rx Queue Level Interrupts */
 591:Libraries/STM32F4xx_HAL_Driver/Src/stm32f4xx_hal_hcd.c ****     if ((__HAL_HCD_GET_FLAG(hhcd, USB_OTG_GINTSTS_RXFLVL)) != 0U)
 592:Libraries/STM32F4xx_HAL_Driver/Src/stm32f4xx_hal_hcd.c ****     {
 593:Libraries/STM32F4xx_HAL_Driver/Src/stm32f4xx_hal_hcd.c ****       USB_MASK_INTERRUPT(hhcd->Instance, USB_OTG_GINTSTS_RXFLVL);
 594:Libraries/STM32F4xx_HAL_Driver/Src/stm32f4xx_hal_hcd.c **** 
 595:Libraries/STM32F4xx_HAL_Driver/Src/stm32f4xx_hal_hcd.c ****       HCD_RXQLVL_IRQHandler(hhcd);
 596:Libraries/STM32F4xx_HAL_Driver/Src/stm32f4xx_hal_hcd.c **** 
 597:Libraries/STM32F4xx_HAL_Driver/Src/stm32f4xx_hal_hcd.c ****       USB_UNMASK_INTERRUPT(hhcd->Instance, USB_OTG_GINTSTS_RXFLVL);
 598:Libraries/STM32F4xx_HAL_Driver/Src/stm32f4xx_hal_hcd.c ****     }
 599:Libraries/STM32F4xx_HAL_Driver/Src/stm32f4xx_hal_hcd.c ****   }
 600:Libraries/STM32F4xx_HAL_Driver/Src/stm32f4xx_hal_hcd.c **** }
 601:Libraries/STM32F4xx_HAL_Driver/Src/stm32f4xx_hal_hcd.c **** 
 602:Libraries/STM32F4xx_HAL_Driver/Src/stm32f4xx_hal_hcd.c **** 
ARM GAS  C:\Users\yzy\AppData\Local\Temp\cco1yVr9.s 			page 12


 603:Libraries/STM32F4xx_HAL_Driver/Src/stm32f4xx_hal_hcd.c **** /**
 604:Libraries/STM32F4xx_HAL_Driver/Src/stm32f4xx_hal_hcd.c ****   * @brief  Handles HCD Wakeup interrupt request.
 605:Libraries/STM32F4xx_HAL_Driver/Src/stm32f4xx_hal_hcd.c ****   * @param  hhcd HCD handle
 606:Libraries/STM32F4xx_HAL_Driver/Src/stm32f4xx_hal_hcd.c ****   * @retval HAL status
 607:Libraries/STM32F4xx_HAL_Driver/Src/stm32f4xx_hal_hcd.c ****   */
 608:Libraries/STM32F4xx_HAL_Driver/Src/stm32f4xx_hal_hcd.c **** void HAL_HCD_WKUP_IRQHandler(HCD_HandleTypeDef *hhcd)
 609:Libraries/STM32F4xx_HAL_Driver/Src/stm32f4xx_hal_hcd.c **** {
 610:Libraries/STM32F4xx_HAL_Driver/Src/stm32f4xx_hal_hcd.c ****   UNUSED(hhcd);
 611:Libraries/STM32F4xx_HAL_Driver/Src/stm32f4xx_hal_hcd.c **** }
 612:Libraries/STM32F4xx_HAL_Driver/Src/stm32f4xx_hal_hcd.c **** 
 613:Libraries/STM32F4xx_HAL_Driver/Src/stm32f4xx_hal_hcd.c **** 
 614:Libraries/STM32F4xx_HAL_Driver/Src/stm32f4xx_hal_hcd.c **** /**
 615:Libraries/STM32F4xx_HAL_Driver/Src/stm32f4xx_hal_hcd.c ****   * @brief  SOF callback.
 616:Libraries/STM32F4xx_HAL_Driver/Src/stm32f4xx_hal_hcd.c ****   * @param  hhcd HCD handle
 617:Libraries/STM32F4xx_HAL_Driver/Src/stm32f4xx_hal_hcd.c ****   * @retval None
 618:Libraries/STM32F4xx_HAL_Driver/Src/stm32f4xx_hal_hcd.c ****   */
 619:Libraries/STM32F4xx_HAL_Driver/Src/stm32f4xx_hal_hcd.c **** __weak void HAL_HCD_SOF_Callback(HCD_HandleTypeDef *hhcd)
 620:Libraries/STM32F4xx_HAL_Driver/Src/stm32f4xx_hal_hcd.c **** {
 621:Libraries/STM32F4xx_HAL_Driver/Src/stm32f4xx_hal_hcd.c ****   /* Prevent unused argument(s) compilation warning */
 622:Libraries/STM32F4xx_HAL_Driver/Src/stm32f4xx_hal_hcd.c ****   UNUSED(hhcd);
 623:Libraries/STM32F4xx_HAL_Driver/Src/stm32f4xx_hal_hcd.c **** 
 624:Libraries/STM32F4xx_HAL_Driver/Src/stm32f4xx_hal_hcd.c ****   /* NOTE : This function should not be modified, when the callback is needed,
 625:Libraries/STM32F4xx_HAL_Driver/Src/stm32f4xx_hal_hcd.c ****             the HAL_HCD_SOF_Callback could be implemented in the user file
 626:Libraries/STM32F4xx_HAL_Driver/Src/stm32f4xx_hal_hcd.c ****    */
 627:Libraries/STM32F4xx_HAL_Driver/Src/stm32f4xx_hal_hcd.c **** }
 628:Libraries/STM32F4xx_HAL_Driver/Src/stm32f4xx_hal_hcd.c **** 
 629:Libraries/STM32F4xx_HAL_Driver/Src/stm32f4xx_hal_hcd.c **** /**
 630:Libraries/STM32F4xx_HAL_Driver/Src/stm32f4xx_hal_hcd.c ****   * @brief Connection Event callback.
 631:Libraries/STM32F4xx_HAL_Driver/Src/stm32f4xx_hal_hcd.c ****   * @param  hhcd HCD handle
 632:Libraries/STM32F4xx_HAL_Driver/Src/stm32f4xx_hal_hcd.c ****   * @retval None
 633:Libraries/STM32F4xx_HAL_Driver/Src/stm32f4xx_hal_hcd.c ****   */
 634:Libraries/STM32F4xx_HAL_Driver/Src/stm32f4xx_hal_hcd.c **** __weak void HAL_HCD_Connect_Callback(HCD_HandleTypeDef *hhcd)
 635:Libraries/STM32F4xx_HAL_Driver/Src/stm32f4xx_hal_hcd.c **** {
 636:Libraries/STM32F4xx_HAL_Driver/Src/stm32f4xx_hal_hcd.c ****   /* Prevent unused argument(s) compilation warning */
 637:Libraries/STM32F4xx_HAL_Driver/Src/stm32f4xx_hal_hcd.c ****   UNUSED(hhcd);
 638:Libraries/STM32F4xx_HAL_Driver/Src/stm32f4xx_hal_hcd.c **** 
 639:Libraries/STM32F4xx_HAL_Driver/Src/stm32f4xx_hal_hcd.c ****   /* NOTE : This function should not be modified, when the callback is needed,
 640:Libraries/STM32F4xx_HAL_Driver/Src/stm32f4xx_hal_hcd.c ****             the HAL_HCD_Connect_Callback could be implemented in the user file
 641:Libraries/STM32F4xx_HAL_Driver/Src/stm32f4xx_hal_hcd.c ****    */
 642:Libraries/STM32F4xx_HAL_Driver/Src/stm32f4xx_hal_hcd.c **** }
 643:Libraries/STM32F4xx_HAL_Driver/Src/stm32f4xx_hal_hcd.c **** 
 644:Libraries/STM32F4xx_HAL_Driver/Src/stm32f4xx_hal_hcd.c **** /**
 645:Libraries/STM32F4xx_HAL_Driver/Src/stm32f4xx_hal_hcd.c ****   * @brief  Disconnection Event callback.
 646:Libraries/STM32F4xx_HAL_Driver/Src/stm32f4xx_hal_hcd.c ****   * @param  hhcd HCD handle
 647:Libraries/STM32F4xx_HAL_Driver/Src/stm32f4xx_hal_hcd.c ****   * @retval None
 648:Libraries/STM32F4xx_HAL_Driver/Src/stm32f4xx_hal_hcd.c ****   */
 649:Libraries/STM32F4xx_HAL_Driver/Src/stm32f4xx_hal_hcd.c **** __weak void HAL_HCD_Disconnect_Callback(HCD_HandleTypeDef *hhcd)
 650:Libraries/STM32F4xx_HAL_Driver/Src/stm32f4xx_hal_hcd.c **** {
 651:Libraries/STM32F4xx_HAL_Driver/Src/stm32f4xx_hal_hcd.c ****   /* Prevent unused argument(s) compilation warning */
 652:Libraries/STM32F4xx_HAL_Driver/Src/stm32f4xx_hal_hcd.c ****   UNUSED(hhcd);
 653:Libraries/STM32F4xx_HAL_Driver/Src/stm32f4xx_hal_hcd.c **** 
 654:Libraries/STM32F4xx_HAL_Driver/Src/stm32f4xx_hal_hcd.c ****   /* NOTE : This function should not be modified, when the callback is needed,
 655:Libraries/STM32F4xx_HAL_Driver/Src/stm32f4xx_hal_hcd.c ****             the HAL_HCD_Disconnect_Callback could be implemented in the user file
 656:Libraries/STM32F4xx_HAL_Driver/Src/stm32f4xx_hal_hcd.c ****    */
 657:Libraries/STM32F4xx_HAL_Driver/Src/stm32f4xx_hal_hcd.c **** }
 658:Libraries/STM32F4xx_HAL_Driver/Src/stm32f4xx_hal_hcd.c **** 
 659:Libraries/STM32F4xx_HAL_Driver/Src/stm32f4xx_hal_hcd.c **** /**
ARM GAS  C:\Users\yzy\AppData\Local\Temp\cco1yVr9.s 			page 13


 660:Libraries/STM32F4xx_HAL_Driver/Src/stm32f4xx_hal_hcd.c ****   * @brief  Port Enabled  Event callback.
 661:Libraries/STM32F4xx_HAL_Driver/Src/stm32f4xx_hal_hcd.c ****   * @param  hhcd HCD handle
 662:Libraries/STM32F4xx_HAL_Driver/Src/stm32f4xx_hal_hcd.c ****   * @retval None
 663:Libraries/STM32F4xx_HAL_Driver/Src/stm32f4xx_hal_hcd.c ****   */
 664:Libraries/STM32F4xx_HAL_Driver/Src/stm32f4xx_hal_hcd.c **** __weak void HAL_HCD_PortEnabled_Callback(HCD_HandleTypeDef *hhcd)
 665:Libraries/STM32F4xx_HAL_Driver/Src/stm32f4xx_hal_hcd.c **** {
 666:Libraries/STM32F4xx_HAL_Driver/Src/stm32f4xx_hal_hcd.c ****   /* Prevent unused argument(s) compilation warning */
 667:Libraries/STM32F4xx_HAL_Driver/Src/stm32f4xx_hal_hcd.c ****   UNUSED(hhcd);
 668:Libraries/STM32F4xx_HAL_Driver/Src/stm32f4xx_hal_hcd.c **** 
 669:Libraries/STM32F4xx_HAL_Driver/Src/stm32f4xx_hal_hcd.c ****   /* NOTE : This function should not be modified, when the callback is needed,
 670:Libraries/STM32F4xx_HAL_Driver/Src/stm32f4xx_hal_hcd.c ****             the HAL_HCD_Disconnect_Callback could be implemented in the user file
 671:Libraries/STM32F4xx_HAL_Driver/Src/stm32f4xx_hal_hcd.c ****    */
 672:Libraries/STM32F4xx_HAL_Driver/Src/stm32f4xx_hal_hcd.c **** }
 673:Libraries/STM32F4xx_HAL_Driver/Src/stm32f4xx_hal_hcd.c **** 
 674:Libraries/STM32F4xx_HAL_Driver/Src/stm32f4xx_hal_hcd.c **** /**
 675:Libraries/STM32F4xx_HAL_Driver/Src/stm32f4xx_hal_hcd.c ****   * @brief  Port Disabled  Event callback.
 676:Libraries/STM32F4xx_HAL_Driver/Src/stm32f4xx_hal_hcd.c ****   * @param  hhcd HCD handle
 677:Libraries/STM32F4xx_HAL_Driver/Src/stm32f4xx_hal_hcd.c ****   * @retval None
 678:Libraries/STM32F4xx_HAL_Driver/Src/stm32f4xx_hal_hcd.c ****   */
 679:Libraries/STM32F4xx_HAL_Driver/Src/stm32f4xx_hal_hcd.c **** __weak void HAL_HCD_PortDisabled_Callback(HCD_HandleTypeDef *hhcd)
 680:Libraries/STM32F4xx_HAL_Driver/Src/stm32f4xx_hal_hcd.c **** {
 681:Libraries/STM32F4xx_HAL_Driver/Src/stm32f4xx_hal_hcd.c ****   /* Prevent unused argument(s) compilation warning */
 682:Libraries/STM32F4xx_HAL_Driver/Src/stm32f4xx_hal_hcd.c ****   UNUSED(hhcd);
 683:Libraries/STM32F4xx_HAL_Driver/Src/stm32f4xx_hal_hcd.c **** 
 684:Libraries/STM32F4xx_HAL_Driver/Src/stm32f4xx_hal_hcd.c ****   /* NOTE : This function should not be modified, when the callback is needed,
 685:Libraries/STM32F4xx_HAL_Driver/Src/stm32f4xx_hal_hcd.c ****             the HAL_HCD_Disconnect_Callback could be implemented in the user file
 686:Libraries/STM32F4xx_HAL_Driver/Src/stm32f4xx_hal_hcd.c ****    */
 687:Libraries/STM32F4xx_HAL_Driver/Src/stm32f4xx_hal_hcd.c **** }
 688:Libraries/STM32F4xx_HAL_Driver/Src/stm32f4xx_hal_hcd.c **** 
 689:Libraries/STM32F4xx_HAL_Driver/Src/stm32f4xx_hal_hcd.c **** /**
 690:Libraries/STM32F4xx_HAL_Driver/Src/stm32f4xx_hal_hcd.c ****   * @brief  Notify URB state change callback.
 691:Libraries/STM32F4xx_HAL_Driver/Src/stm32f4xx_hal_hcd.c ****   * @param  hhcd HCD handle
 692:Libraries/STM32F4xx_HAL_Driver/Src/stm32f4xx_hal_hcd.c ****   * @param  chnum Channel number.
 693:Libraries/STM32F4xx_HAL_Driver/Src/stm32f4xx_hal_hcd.c ****   *         This parameter can be a value from 1 to 15
 694:Libraries/STM32F4xx_HAL_Driver/Src/stm32f4xx_hal_hcd.c ****   * @param  urb_state:
 695:Libraries/STM32F4xx_HAL_Driver/Src/stm32f4xx_hal_hcd.c ****   *          This parameter can be one of these values:
 696:Libraries/STM32F4xx_HAL_Driver/Src/stm32f4xx_hal_hcd.c ****   *            URB_IDLE/
 697:Libraries/STM32F4xx_HAL_Driver/Src/stm32f4xx_hal_hcd.c ****   *            URB_DONE/
 698:Libraries/STM32F4xx_HAL_Driver/Src/stm32f4xx_hal_hcd.c ****   *            URB_NOTREADY/
 699:Libraries/STM32F4xx_HAL_Driver/Src/stm32f4xx_hal_hcd.c ****   *            URB_NYET/
 700:Libraries/STM32F4xx_HAL_Driver/Src/stm32f4xx_hal_hcd.c ****   *            URB_ERROR/
 701:Libraries/STM32F4xx_HAL_Driver/Src/stm32f4xx_hal_hcd.c ****   *            URB_STALL/
 702:Libraries/STM32F4xx_HAL_Driver/Src/stm32f4xx_hal_hcd.c ****   * @retval None
 703:Libraries/STM32F4xx_HAL_Driver/Src/stm32f4xx_hal_hcd.c ****   */
 704:Libraries/STM32F4xx_HAL_Driver/Src/stm32f4xx_hal_hcd.c **** __weak void HAL_HCD_HC_NotifyURBChange_Callback(HCD_HandleTypeDef *hhcd, uint8_t chnum, HCD_URBStat
 705:Libraries/STM32F4xx_HAL_Driver/Src/stm32f4xx_hal_hcd.c **** {
 706:Libraries/STM32F4xx_HAL_Driver/Src/stm32f4xx_hal_hcd.c ****   /* Prevent unused argument(s) compilation warning */
 707:Libraries/STM32F4xx_HAL_Driver/Src/stm32f4xx_hal_hcd.c ****   UNUSED(hhcd);
 708:Libraries/STM32F4xx_HAL_Driver/Src/stm32f4xx_hal_hcd.c ****   UNUSED(chnum);
 709:Libraries/STM32F4xx_HAL_Driver/Src/stm32f4xx_hal_hcd.c ****   UNUSED(urb_state);
 710:Libraries/STM32F4xx_HAL_Driver/Src/stm32f4xx_hal_hcd.c **** 
 711:Libraries/STM32F4xx_HAL_Driver/Src/stm32f4xx_hal_hcd.c ****   /* NOTE : This function should not be modified, when the callback is needed,
 712:Libraries/STM32F4xx_HAL_Driver/Src/stm32f4xx_hal_hcd.c ****             the HAL_HCD_HC_NotifyURBChange_Callback could be implemented in the user file
 713:Libraries/STM32F4xx_HAL_Driver/Src/stm32f4xx_hal_hcd.c ****    */
 714:Libraries/STM32F4xx_HAL_Driver/Src/stm32f4xx_hal_hcd.c **** }
 715:Libraries/STM32F4xx_HAL_Driver/Src/stm32f4xx_hal_hcd.c **** 
 716:Libraries/STM32F4xx_HAL_Driver/Src/stm32f4xx_hal_hcd.c **** #if (USE_HAL_HCD_REGISTER_CALLBACKS == 1U)
ARM GAS  C:\Users\yzy\AppData\Local\Temp\cco1yVr9.s 			page 14


 717:Libraries/STM32F4xx_HAL_Driver/Src/stm32f4xx_hal_hcd.c **** /**
 718:Libraries/STM32F4xx_HAL_Driver/Src/stm32f4xx_hal_hcd.c ****   * @brief  Register a User USB HCD Callback
 719:Libraries/STM32F4xx_HAL_Driver/Src/stm32f4xx_hal_hcd.c ****   *         To be used instead of the weak predefined callback
 720:Libraries/STM32F4xx_HAL_Driver/Src/stm32f4xx_hal_hcd.c ****   * @param  hhcd USB HCD handle
 721:Libraries/STM32F4xx_HAL_Driver/Src/stm32f4xx_hal_hcd.c ****   * @param  CallbackID ID of the callback to be registered
 722:Libraries/STM32F4xx_HAL_Driver/Src/stm32f4xx_hal_hcd.c ****   *         This parameter can be one of the following values:
 723:Libraries/STM32F4xx_HAL_Driver/Src/stm32f4xx_hal_hcd.c ****   *          @arg @ref HAL_HCD_SOF_CB_ID USB HCD SOF callback ID
 724:Libraries/STM32F4xx_HAL_Driver/Src/stm32f4xx_hal_hcd.c ****   *          @arg @ref HAL_HCD_CONNECT_CB_ID USB HCD Connect callback ID
 725:Libraries/STM32F4xx_HAL_Driver/Src/stm32f4xx_hal_hcd.c ****   *          @arg @ref HAL_HCD_DISCONNECT_CB_ID OTG HCD Disconnect callback ID
 726:Libraries/STM32F4xx_HAL_Driver/Src/stm32f4xx_hal_hcd.c ****   *          @arg @ref HAL_HCD_PORT_ENABLED_CB_ID USB HCD Port Enable callback ID
 727:Libraries/STM32F4xx_HAL_Driver/Src/stm32f4xx_hal_hcd.c ****   *          @arg @ref HAL_HCD_PORT_DISABLED_CB_ID USB HCD Port Disable callback ID
 728:Libraries/STM32F4xx_HAL_Driver/Src/stm32f4xx_hal_hcd.c ****   *          @arg @ref HAL_HCD_MSPINIT_CB_ID MspDeInit callback ID
 729:Libraries/STM32F4xx_HAL_Driver/Src/stm32f4xx_hal_hcd.c ****   *          @arg @ref HAL_HCD_MSPDEINIT_CB_ID MspDeInit callback ID
 730:Libraries/STM32F4xx_HAL_Driver/Src/stm32f4xx_hal_hcd.c ****   * @param  pCallback pointer to the Callback function
 731:Libraries/STM32F4xx_HAL_Driver/Src/stm32f4xx_hal_hcd.c ****   * @retval HAL status
 732:Libraries/STM32F4xx_HAL_Driver/Src/stm32f4xx_hal_hcd.c ****   */
 733:Libraries/STM32F4xx_HAL_Driver/Src/stm32f4xx_hal_hcd.c **** HAL_StatusTypeDef HAL_HCD_RegisterCallback(HCD_HandleTypeDef *hhcd,
 734:Libraries/STM32F4xx_HAL_Driver/Src/stm32f4xx_hal_hcd.c ****                                            HAL_HCD_CallbackIDTypeDef CallbackID,
 735:Libraries/STM32F4xx_HAL_Driver/Src/stm32f4xx_hal_hcd.c ****                                            pHCD_CallbackTypeDef pCallback)
 736:Libraries/STM32F4xx_HAL_Driver/Src/stm32f4xx_hal_hcd.c **** {
 737:Libraries/STM32F4xx_HAL_Driver/Src/stm32f4xx_hal_hcd.c ****   HAL_StatusTypeDef status = HAL_OK;
 738:Libraries/STM32F4xx_HAL_Driver/Src/stm32f4xx_hal_hcd.c **** 
 739:Libraries/STM32F4xx_HAL_Driver/Src/stm32f4xx_hal_hcd.c ****   if (pCallback == NULL)
 740:Libraries/STM32F4xx_HAL_Driver/Src/stm32f4xx_hal_hcd.c ****   {
 741:Libraries/STM32F4xx_HAL_Driver/Src/stm32f4xx_hal_hcd.c ****     /* Update the error code */
 742:Libraries/STM32F4xx_HAL_Driver/Src/stm32f4xx_hal_hcd.c ****     hhcd->ErrorCode |= HAL_HCD_ERROR_INVALID_CALLBACK;
 743:Libraries/STM32F4xx_HAL_Driver/Src/stm32f4xx_hal_hcd.c ****     return HAL_ERROR;
 744:Libraries/STM32F4xx_HAL_Driver/Src/stm32f4xx_hal_hcd.c ****   }
 745:Libraries/STM32F4xx_HAL_Driver/Src/stm32f4xx_hal_hcd.c ****   /* Process locked */
 746:Libraries/STM32F4xx_HAL_Driver/Src/stm32f4xx_hal_hcd.c ****   __HAL_LOCK(hhcd);
 747:Libraries/STM32F4xx_HAL_Driver/Src/stm32f4xx_hal_hcd.c **** 
 748:Libraries/STM32F4xx_HAL_Driver/Src/stm32f4xx_hal_hcd.c ****   if (hhcd->State == HAL_HCD_STATE_READY)
 749:Libraries/STM32F4xx_HAL_Driver/Src/stm32f4xx_hal_hcd.c ****   {
 750:Libraries/STM32F4xx_HAL_Driver/Src/stm32f4xx_hal_hcd.c ****     switch (CallbackID)
 751:Libraries/STM32F4xx_HAL_Driver/Src/stm32f4xx_hal_hcd.c ****     {
 752:Libraries/STM32F4xx_HAL_Driver/Src/stm32f4xx_hal_hcd.c ****       case HAL_HCD_SOF_CB_ID :
 753:Libraries/STM32F4xx_HAL_Driver/Src/stm32f4xx_hal_hcd.c ****         hhcd->SOFCallback = pCallback;
 754:Libraries/STM32F4xx_HAL_Driver/Src/stm32f4xx_hal_hcd.c ****         break;
 755:Libraries/STM32F4xx_HAL_Driver/Src/stm32f4xx_hal_hcd.c **** 
 756:Libraries/STM32F4xx_HAL_Driver/Src/stm32f4xx_hal_hcd.c ****       case HAL_HCD_CONNECT_CB_ID :
 757:Libraries/STM32F4xx_HAL_Driver/Src/stm32f4xx_hal_hcd.c ****         hhcd->ConnectCallback = pCallback;
 758:Libraries/STM32F4xx_HAL_Driver/Src/stm32f4xx_hal_hcd.c ****         break;
 759:Libraries/STM32F4xx_HAL_Driver/Src/stm32f4xx_hal_hcd.c **** 
 760:Libraries/STM32F4xx_HAL_Driver/Src/stm32f4xx_hal_hcd.c ****       case HAL_HCD_DISCONNECT_CB_ID :
 761:Libraries/STM32F4xx_HAL_Driver/Src/stm32f4xx_hal_hcd.c ****         hhcd->DisconnectCallback = pCallback;
 762:Libraries/STM32F4xx_HAL_Driver/Src/stm32f4xx_hal_hcd.c ****         break;
 763:Libraries/STM32F4xx_HAL_Driver/Src/stm32f4xx_hal_hcd.c **** 
 764:Libraries/STM32F4xx_HAL_Driver/Src/stm32f4xx_hal_hcd.c ****       case HAL_HCD_PORT_ENABLED_CB_ID :
 765:Libraries/STM32F4xx_HAL_Driver/Src/stm32f4xx_hal_hcd.c ****         hhcd->PortEnabledCallback = pCallback;
 766:Libraries/STM32F4xx_HAL_Driver/Src/stm32f4xx_hal_hcd.c ****         break;
 767:Libraries/STM32F4xx_HAL_Driver/Src/stm32f4xx_hal_hcd.c **** 
 768:Libraries/STM32F4xx_HAL_Driver/Src/stm32f4xx_hal_hcd.c ****       case HAL_HCD_PORT_DISABLED_CB_ID :
 769:Libraries/STM32F4xx_HAL_Driver/Src/stm32f4xx_hal_hcd.c ****         hhcd->PortDisabledCallback = pCallback;
 770:Libraries/STM32F4xx_HAL_Driver/Src/stm32f4xx_hal_hcd.c ****         break;
 771:Libraries/STM32F4xx_HAL_Driver/Src/stm32f4xx_hal_hcd.c **** 
 772:Libraries/STM32F4xx_HAL_Driver/Src/stm32f4xx_hal_hcd.c ****       case HAL_HCD_MSPINIT_CB_ID :
 773:Libraries/STM32F4xx_HAL_Driver/Src/stm32f4xx_hal_hcd.c ****         hhcd->MspInitCallback = pCallback;
ARM GAS  C:\Users\yzy\AppData\Local\Temp\cco1yVr9.s 			page 15


 774:Libraries/STM32F4xx_HAL_Driver/Src/stm32f4xx_hal_hcd.c ****         break;
 775:Libraries/STM32F4xx_HAL_Driver/Src/stm32f4xx_hal_hcd.c **** 
 776:Libraries/STM32F4xx_HAL_Driver/Src/stm32f4xx_hal_hcd.c ****       case HAL_HCD_MSPDEINIT_CB_ID :
 777:Libraries/STM32F4xx_HAL_Driver/Src/stm32f4xx_hal_hcd.c ****         hhcd->MspDeInitCallback = pCallback;
 778:Libraries/STM32F4xx_HAL_Driver/Src/stm32f4xx_hal_hcd.c ****         break;
 779:Libraries/STM32F4xx_HAL_Driver/Src/stm32f4xx_hal_hcd.c **** 
 780:Libraries/STM32F4xx_HAL_Driver/Src/stm32f4xx_hal_hcd.c ****       default :
 781:Libraries/STM32F4xx_HAL_Driver/Src/stm32f4xx_hal_hcd.c ****         /* Update the error code */
 782:Libraries/STM32F4xx_HAL_Driver/Src/stm32f4xx_hal_hcd.c ****         hhcd->ErrorCode |= HAL_HCD_ERROR_INVALID_CALLBACK;
 783:Libraries/STM32F4xx_HAL_Driver/Src/stm32f4xx_hal_hcd.c ****         /* Return error status */
 784:Libraries/STM32F4xx_HAL_Driver/Src/stm32f4xx_hal_hcd.c ****         status =  HAL_ERROR;
 785:Libraries/STM32F4xx_HAL_Driver/Src/stm32f4xx_hal_hcd.c ****         break;
 786:Libraries/STM32F4xx_HAL_Driver/Src/stm32f4xx_hal_hcd.c ****     }
 787:Libraries/STM32F4xx_HAL_Driver/Src/stm32f4xx_hal_hcd.c ****   }
 788:Libraries/STM32F4xx_HAL_Driver/Src/stm32f4xx_hal_hcd.c ****   else if (hhcd->State == HAL_HCD_STATE_RESET)
 789:Libraries/STM32F4xx_HAL_Driver/Src/stm32f4xx_hal_hcd.c ****   {
 790:Libraries/STM32F4xx_HAL_Driver/Src/stm32f4xx_hal_hcd.c ****     switch (CallbackID)
 791:Libraries/STM32F4xx_HAL_Driver/Src/stm32f4xx_hal_hcd.c ****     {
 792:Libraries/STM32F4xx_HAL_Driver/Src/stm32f4xx_hal_hcd.c ****       case HAL_HCD_MSPINIT_CB_ID :
 793:Libraries/STM32F4xx_HAL_Driver/Src/stm32f4xx_hal_hcd.c ****         hhcd->MspInitCallback = pCallback;
 794:Libraries/STM32F4xx_HAL_Driver/Src/stm32f4xx_hal_hcd.c ****         break;
 795:Libraries/STM32F4xx_HAL_Driver/Src/stm32f4xx_hal_hcd.c **** 
 796:Libraries/STM32F4xx_HAL_Driver/Src/stm32f4xx_hal_hcd.c ****       case HAL_HCD_MSPDEINIT_CB_ID :
 797:Libraries/STM32F4xx_HAL_Driver/Src/stm32f4xx_hal_hcd.c ****         hhcd->MspDeInitCallback = pCallback;
 798:Libraries/STM32F4xx_HAL_Driver/Src/stm32f4xx_hal_hcd.c ****         break;
 799:Libraries/STM32F4xx_HAL_Driver/Src/stm32f4xx_hal_hcd.c **** 
 800:Libraries/STM32F4xx_HAL_Driver/Src/stm32f4xx_hal_hcd.c ****       default :
 801:Libraries/STM32F4xx_HAL_Driver/Src/stm32f4xx_hal_hcd.c ****         /* Update the error code */
 802:Libraries/STM32F4xx_HAL_Driver/Src/stm32f4xx_hal_hcd.c ****         hhcd->ErrorCode |= HAL_HCD_ERROR_INVALID_CALLBACK;
 803:Libraries/STM32F4xx_HAL_Driver/Src/stm32f4xx_hal_hcd.c ****         /* Return error status */
 804:Libraries/STM32F4xx_HAL_Driver/Src/stm32f4xx_hal_hcd.c ****         status =  HAL_ERROR;
 805:Libraries/STM32F4xx_HAL_Driver/Src/stm32f4xx_hal_hcd.c ****         break;
 806:Libraries/STM32F4xx_HAL_Driver/Src/stm32f4xx_hal_hcd.c ****     }
 807:Libraries/STM32F4xx_HAL_Driver/Src/stm32f4xx_hal_hcd.c ****   }
 808:Libraries/STM32F4xx_HAL_Driver/Src/stm32f4xx_hal_hcd.c ****   else
 809:Libraries/STM32F4xx_HAL_Driver/Src/stm32f4xx_hal_hcd.c ****   {
 810:Libraries/STM32F4xx_HAL_Driver/Src/stm32f4xx_hal_hcd.c ****     /* Update the error code */
 811:Libraries/STM32F4xx_HAL_Driver/Src/stm32f4xx_hal_hcd.c ****     hhcd->ErrorCode |= HAL_HCD_ERROR_INVALID_CALLBACK;
 812:Libraries/STM32F4xx_HAL_Driver/Src/stm32f4xx_hal_hcd.c ****     /* Return error status */
 813:Libraries/STM32F4xx_HAL_Driver/Src/stm32f4xx_hal_hcd.c ****     status =  HAL_ERROR;
 814:Libraries/STM32F4xx_HAL_Driver/Src/stm32f4xx_hal_hcd.c ****   }
 815:Libraries/STM32F4xx_HAL_Driver/Src/stm32f4xx_hal_hcd.c **** 
 816:Libraries/STM32F4xx_HAL_Driver/Src/stm32f4xx_hal_hcd.c ****   /* Release Lock */
 817:Libraries/STM32F4xx_HAL_Driver/Src/stm32f4xx_hal_hcd.c ****   __HAL_UNLOCK(hhcd);
 818:Libraries/STM32F4xx_HAL_Driver/Src/stm32f4xx_hal_hcd.c ****   return status;
 819:Libraries/STM32F4xx_HAL_Driver/Src/stm32f4xx_hal_hcd.c **** }
 820:Libraries/STM32F4xx_HAL_Driver/Src/stm32f4xx_hal_hcd.c **** 
 821:Libraries/STM32F4xx_HAL_Driver/Src/stm32f4xx_hal_hcd.c **** /**
 822:Libraries/STM32F4xx_HAL_Driver/Src/stm32f4xx_hal_hcd.c ****   * @brief  Unregister an USB HCD Callback
 823:Libraries/STM32F4xx_HAL_Driver/Src/stm32f4xx_hal_hcd.c ****   *         USB HCD callback is redirected to the weak predefined callback
 824:Libraries/STM32F4xx_HAL_Driver/Src/stm32f4xx_hal_hcd.c ****   * @param  hhcd USB HCD handle
 825:Libraries/STM32F4xx_HAL_Driver/Src/stm32f4xx_hal_hcd.c ****   * @param  CallbackID ID of the callback to be unregistered
 826:Libraries/STM32F4xx_HAL_Driver/Src/stm32f4xx_hal_hcd.c ****   *         This parameter can be one of the following values:
 827:Libraries/STM32F4xx_HAL_Driver/Src/stm32f4xx_hal_hcd.c ****   *          @arg @ref HAL_HCD_SOF_CB_ID USB HCD SOF callback ID
 828:Libraries/STM32F4xx_HAL_Driver/Src/stm32f4xx_hal_hcd.c ****   *          @arg @ref HAL_HCD_CONNECT_CB_ID USB HCD Connect callback ID
 829:Libraries/STM32F4xx_HAL_Driver/Src/stm32f4xx_hal_hcd.c ****   *          @arg @ref HAL_HCD_DISCONNECT_CB_ID OTG HCD Disconnect callback ID
 830:Libraries/STM32F4xx_HAL_Driver/Src/stm32f4xx_hal_hcd.c ****   *          @arg @ref HAL_HCD_PORT_ENABLED_CB_ID USB HCD Port Enabled callback ID
ARM GAS  C:\Users\yzy\AppData\Local\Temp\cco1yVr9.s 			page 16


 831:Libraries/STM32F4xx_HAL_Driver/Src/stm32f4xx_hal_hcd.c ****   *          @arg @ref HAL_HCD_PORT_DISABLED_CB_ID USB HCD Port Disabled callback ID
 832:Libraries/STM32F4xx_HAL_Driver/Src/stm32f4xx_hal_hcd.c ****   *          @arg @ref HAL_HCD_MSPINIT_CB_ID MspDeInit callback ID
 833:Libraries/STM32F4xx_HAL_Driver/Src/stm32f4xx_hal_hcd.c ****   *          @arg @ref HAL_HCD_MSPDEINIT_CB_ID MspDeInit callback ID
 834:Libraries/STM32F4xx_HAL_Driver/Src/stm32f4xx_hal_hcd.c ****   * @retval HAL status
 835:Libraries/STM32F4xx_HAL_Driver/Src/stm32f4xx_hal_hcd.c ****   */
 836:Libraries/STM32F4xx_HAL_Driver/Src/stm32f4xx_hal_hcd.c **** HAL_StatusTypeDef HAL_HCD_UnRegisterCallback(HCD_HandleTypeDef *hhcd, HAL_HCD_CallbackIDTypeDef Cal
 837:Libraries/STM32F4xx_HAL_Driver/Src/stm32f4xx_hal_hcd.c **** {
 838:Libraries/STM32F4xx_HAL_Driver/Src/stm32f4xx_hal_hcd.c ****   HAL_StatusTypeDef status = HAL_OK;
 839:Libraries/STM32F4xx_HAL_Driver/Src/stm32f4xx_hal_hcd.c **** 
 840:Libraries/STM32F4xx_HAL_Driver/Src/stm32f4xx_hal_hcd.c ****   /* Process locked */
 841:Libraries/STM32F4xx_HAL_Driver/Src/stm32f4xx_hal_hcd.c ****   __HAL_LOCK(hhcd);
 842:Libraries/STM32F4xx_HAL_Driver/Src/stm32f4xx_hal_hcd.c **** 
 843:Libraries/STM32F4xx_HAL_Driver/Src/stm32f4xx_hal_hcd.c ****   /* Setup Legacy weak Callbacks  */
 844:Libraries/STM32F4xx_HAL_Driver/Src/stm32f4xx_hal_hcd.c ****   if (hhcd->State == HAL_HCD_STATE_READY)
 845:Libraries/STM32F4xx_HAL_Driver/Src/stm32f4xx_hal_hcd.c ****   {
 846:Libraries/STM32F4xx_HAL_Driver/Src/stm32f4xx_hal_hcd.c ****     switch (CallbackID)
 847:Libraries/STM32F4xx_HAL_Driver/Src/stm32f4xx_hal_hcd.c ****     {
 848:Libraries/STM32F4xx_HAL_Driver/Src/stm32f4xx_hal_hcd.c ****       case HAL_HCD_SOF_CB_ID :
 849:Libraries/STM32F4xx_HAL_Driver/Src/stm32f4xx_hal_hcd.c ****         hhcd->SOFCallback = HAL_HCD_SOF_Callback;
 850:Libraries/STM32F4xx_HAL_Driver/Src/stm32f4xx_hal_hcd.c ****         break;
 851:Libraries/STM32F4xx_HAL_Driver/Src/stm32f4xx_hal_hcd.c **** 
 852:Libraries/STM32F4xx_HAL_Driver/Src/stm32f4xx_hal_hcd.c ****       case HAL_HCD_CONNECT_CB_ID :
 853:Libraries/STM32F4xx_HAL_Driver/Src/stm32f4xx_hal_hcd.c ****         hhcd->ConnectCallback = HAL_HCD_Connect_Callback;
 854:Libraries/STM32F4xx_HAL_Driver/Src/stm32f4xx_hal_hcd.c ****         break;
 855:Libraries/STM32F4xx_HAL_Driver/Src/stm32f4xx_hal_hcd.c **** 
 856:Libraries/STM32F4xx_HAL_Driver/Src/stm32f4xx_hal_hcd.c ****       case HAL_HCD_DISCONNECT_CB_ID :
 857:Libraries/STM32F4xx_HAL_Driver/Src/stm32f4xx_hal_hcd.c ****         hhcd->DisconnectCallback = HAL_HCD_Disconnect_Callback;
 858:Libraries/STM32F4xx_HAL_Driver/Src/stm32f4xx_hal_hcd.c ****         break;
 859:Libraries/STM32F4xx_HAL_Driver/Src/stm32f4xx_hal_hcd.c **** 
 860:Libraries/STM32F4xx_HAL_Driver/Src/stm32f4xx_hal_hcd.c ****       case HAL_HCD_PORT_ENABLED_CB_ID :
 861:Libraries/STM32F4xx_HAL_Driver/Src/stm32f4xx_hal_hcd.c ****         hhcd->PortEnabledCallback = HAL_HCD_PortEnabled_Callback;
 862:Libraries/STM32F4xx_HAL_Driver/Src/stm32f4xx_hal_hcd.c ****         break;
 863:Libraries/STM32F4xx_HAL_Driver/Src/stm32f4xx_hal_hcd.c **** 
 864:Libraries/STM32F4xx_HAL_Driver/Src/stm32f4xx_hal_hcd.c ****       case HAL_HCD_PORT_DISABLED_CB_ID :
 865:Libraries/STM32F4xx_HAL_Driver/Src/stm32f4xx_hal_hcd.c ****         hhcd->PortDisabledCallback = HAL_HCD_PortDisabled_Callback;
 866:Libraries/STM32F4xx_HAL_Driver/Src/stm32f4xx_hal_hcd.c ****         break;
 867:Libraries/STM32F4xx_HAL_Driver/Src/stm32f4xx_hal_hcd.c **** 
 868:Libraries/STM32F4xx_HAL_Driver/Src/stm32f4xx_hal_hcd.c ****       case HAL_HCD_MSPINIT_CB_ID :
 869:Libraries/STM32F4xx_HAL_Driver/Src/stm32f4xx_hal_hcd.c ****         hhcd->MspInitCallback = HAL_HCD_MspInit;
 870:Libraries/STM32F4xx_HAL_Driver/Src/stm32f4xx_hal_hcd.c ****         break;
 871:Libraries/STM32F4xx_HAL_Driver/Src/stm32f4xx_hal_hcd.c **** 
 872:Libraries/STM32F4xx_HAL_Driver/Src/stm32f4xx_hal_hcd.c ****       case HAL_HCD_MSPDEINIT_CB_ID :
 873:Libraries/STM32F4xx_HAL_Driver/Src/stm32f4xx_hal_hcd.c ****         hhcd->MspDeInitCallback = HAL_HCD_MspDeInit;
 874:Libraries/STM32F4xx_HAL_Driver/Src/stm32f4xx_hal_hcd.c ****         break;
 875:Libraries/STM32F4xx_HAL_Driver/Src/stm32f4xx_hal_hcd.c **** 
 876:Libraries/STM32F4xx_HAL_Driver/Src/stm32f4xx_hal_hcd.c ****       default :
 877:Libraries/STM32F4xx_HAL_Driver/Src/stm32f4xx_hal_hcd.c ****         /* Update the error code */
 878:Libraries/STM32F4xx_HAL_Driver/Src/stm32f4xx_hal_hcd.c ****         hhcd->ErrorCode |= HAL_HCD_ERROR_INVALID_CALLBACK;
 879:Libraries/STM32F4xx_HAL_Driver/Src/stm32f4xx_hal_hcd.c **** 
 880:Libraries/STM32F4xx_HAL_Driver/Src/stm32f4xx_hal_hcd.c ****         /* Return error status */
 881:Libraries/STM32F4xx_HAL_Driver/Src/stm32f4xx_hal_hcd.c ****         status =  HAL_ERROR;
 882:Libraries/STM32F4xx_HAL_Driver/Src/stm32f4xx_hal_hcd.c ****         break;
 883:Libraries/STM32F4xx_HAL_Driver/Src/stm32f4xx_hal_hcd.c ****     }
 884:Libraries/STM32F4xx_HAL_Driver/Src/stm32f4xx_hal_hcd.c ****   }
 885:Libraries/STM32F4xx_HAL_Driver/Src/stm32f4xx_hal_hcd.c ****   else if (hhcd->State == HAL_HCD_STATE_RESET)
 886:Libraries/STM32F4xx_HAL_Driver/Src/stm32f4xx_hal_hcd.c ****   {
 887:Libraries/STM32F4xx_HAL_Driver/Src/stm32f4xx_hal_hcd.c ****     switch (CallbackID)
ARM GAS  C:\Users\yzy\AppData\Local\Temp\cco1yVr9.s 			page 17


 888:Libraries/STM32F4xx_HAL_Driver/Src/stm32f4xx_hal_hcd.c ****     {
 889:Libraries/STM32F4xx_HAL_Driver/Src/stm32f4xx_hal_hcd.c ****       case HAL_HCD_MSPINIT_CB_ID :
 890:Libraries/STM32F4xx_HAL_Driver/Src/stm32f4xx_hal_hcd.c ****         hhcd->MspInitCallback = HAL_HCD_MspInit;
 891:Libraries/STM32F4xx_HAL_Driver/Src/stm32f4xx_hal_hcd.c ****         break;
 892:Libraries/STM32F4xx_HAL_Driver/Src/stm32f4xx_hal_hcd.c **** 
 893:Libraries/STM32F4xx_HAL_Driver/Src/stm32f4xx_hal_hcd.c ****       case HAL_HCD_MSPDEINIT_CB_ID :
 894:Libraries/STM32F4xx_HAL_Driver/Src/stm32f4xx_hal_hcd.c ****         hhcd->MspDeInitCallback = HAL_HCD_MspDeInit;
 895:Libraries/STM32F4xx_HAL_Driver/Src/stm32f4xx_hal_hcd.c ****         break;
 896:Libraries/STM32F4xx_HAL_Driver/Src/stm32f4xx_hal_hcd.c **** 
 897:Libraries/STM32F4xx_HAL_Driver/Src/stm32f4xx_hal_hcd.c ****       default :
 898:Libraries/STM32F4xx_HAL_Driver/Src/stm32f4xx_hal_hcd.c ****         /* Update the error code */
 899:Libraries/STM32F4xx_HAL_Driver/Src/stm32f4xx_hal_hcd.c ****         hhcd->ErrorCode |= HAL_HCD_ERROR_INVALID_CALLBACK;
 900:Libraries/STM32F4xx_HAL_Driver/Src/stm32f4xx_hal_hcd.c **** 
 901:Libraries/STM32F4xx_HAL_Driver/Src/stm32f4xx_hal_hcd.c ****         /* Return error status */
 902:Libraries/STM32F4xx_HAL_Driver/Src/stm32f4xx_hal_hcd.c ****         status =  HAL_ERROR;
 903:Libraries/STM32F4xx_HAL_Driver/Src/stm32f4xx_hal_hcd.c ****         break;
 904:Libraries/STM32F4xx_HAL_Driver/Src/stm32f4xx_hal_hcd.c ****     }
 905:Libraries/STM32F4xx_HAL_Driver/Src/stm32f4xx_hal_hcd.c ****   }
 906:Libraries/STM32F4xx_HAL_Driver/Src/stm32f4xx_hal_hcd.c ****   else
 907:Libraries/STM32F4xx_HAL_Driver/Src/stm32f4xx_hal_hcd.c ****   {
 908:Libraries/STM32F4xx_HAL_Driver/Src/stm32f4xx_hal_hcd.c ****     /* Update the error code */
 909:Libraries/STM32F4xx_HAL_Driver/Src/stm32f4xx_hal_hcd.c ****     hhcd->ErrorCode |= HAL_HCD_ERROR_INVALID_CALLBACK;
 910:Libraries/STM32F4xx_HAL_Driver/Src/stm32f4xx_hal_hcd.c **** 
 911:Libraries/STM32F4xx_HAL_Driver/Src/stm32f4xx_hal_hcd.c ****     /* Return error status */
 912:Libraries/STM32F4xx_HAL_Driver/Src/stm32f4xx_hal_hcd.c ****     status =  HAL_ERROR;
 913:Libraries/STM32F4xx_HAL_Driver/Src/stm32f4xx_hal_hcd.c ****   }
 914:Libraries/STM32F4xx_HAL_Driver/Src/stm32f4xx_hal_hcd.c **** 
 915:Libraries/STM32F4xx_HAL_Driver/Src/stm32f4xx_hal_hcd.c ****   /* Release Lock */
 916:Libraries/STM32F4xx_HAL_Driver/Src/stm32f4xx_hal_hcd.c ****   __HAL_UNLOCK(hhcd);
 917:Libraries/STM32F4xx_HAL_Driver/Src/stm32f4xx_hal_hcd.c ****   return status;
 918:Libraries/STM32F4xx_HAL_Driver/Src/stm32f4xx_hal_hcd.c **** }
 919:Libraries/STM32F4xx_HAL_Driver/Src/stm32f4xx_hal_hcd.c **** 
 920:Libraries/STM32F4xx_HAL_Driver/Src/stm32f4xx_hal_hcd.c **** /**
 921:Libraries/STM32F4xx_HAL_Driver/Src/stm32f4xx_hal_hcd.c ****   * @brief  Register USB HCD Host Channel Notify URB Change Callback
 922:Libraries/STM32F4xx_HAL_Driver/Src/stm32f4xx_hal_hcd.c ****   *         To be used instead of the weak HAL_HCD_HC_NotifyURBChange_Callback() predefined callbac
 923:Libraries/STM32F4xx_HAL_Driver/Src/stm32f4xx_hal_hcd.c ****   * @param  hhcd HCD handle
 924:Libraries/STM32F4xx_HAL_Driver/Src/stm32f4xx_hal_hcd.c ****   * @param  pCallback pointer to the USB HCD Host Channel Notify URB Change Callback function
 925:Libraries/STM32F4xx_HAL_Driver/Src/stm32f4xx_hal_hcd.c ****   * @retval HAL status
 926:Libraries/STM32F4xx_HAL_Driver/Src/stm32f4xx_hal_hcd.c ****   */
 927:Libraries/STM32F4xx_HAL_Driver/Src/stm32f4xx_hal_hcd.c **** HAL_StatusTypeDef HAL_HCD_RegisterHC_NotifyURBChangeCallback(HCD_HandleTypeDef *hhcd,
 928:Libraries/STM32F4xx_HAL_Driver/Src/stm32f4xx_hal_hcd.c ****                                                              pHCD_HC_NotifyURBChangeCallbackTypeDef
 929:Libraries/STM32F4xx_HAL_Driver/Src/stm32f4xx_hal_hcd.c **** {
 930:Libraries/STM32F4xx_HAL_Driver/Src/stm32f4xx_hal_hcd.c ****   HAL_StatusTypeDef status = HAL_OK;
 931:Libraries/STM32F4xx_HAL_Driver/Src/stm32f4xx_hal_hcd.c **** 
 932:Libraries/STM32F4xx_HAL_Driver/Src/stm32f4xx_hal_hcd.c ****   if (pCallback == NULL)
 933:Libraries/STM32F4xx_HAL_Driver/Src/stm32f4xx_hal_hcd.c ****   {
 934:Libraries/STM32F4xx_HAL_Driver/Src/stm32f4xx_hal_hcd.c ****     /* Update the error code */
 935:Libraries/STM32F4xx_HAL_Driver/Src/stm32f4xx_hal_hcd.c ****     hhcd->ErrorCode |= HAL_HCD_ERROR_INVALID_CALLBACK;
 936:Libraries/STM32F4xx_HAL_Driver/Src/stm32f4xx_hal_hcd.c **** 
 937:Libraries/STM32F4xx_HAL_Driver/Src/stm32f4xx_hal_hcd.c ****     return HAL_ERROR;
 938:Libraries/STM32F4xx_HAL_Driver/Src/stm32f4xx_hal_hcd.c ****   }
 939:Libraries/STM32F4xx_HAL_Driver/Src/stm32f4xx_hal_hcd.c **** 
 940:Libraries/STM32F4xx_HAL_Driver/Src/stm32f4xx_hal_hcd.c ****   /* Process locked */
 941:Libraries/STM32F4xx_HAL_Driver/Src/stm32f4xx_hal_hcd.c ****   __HAL_LOCK(hhcd);
 942:Libraries/STM32F4xx_HAL_Driver/Src/stm32f4xx_hal_hcd.c **** 
 943:Libraries/STM32F4xx_HAL_Driver/Src/stm32f4xx_hal_hcd.c ****   if (hhcd->State == HAL_HCD_STATE_READY)
 944:Libraries/STM32F4xx_HAL_Driver/Src/stm32f4xx_hal_hcd.c ****   {
ARM GAS  C:\Users\yzy\AppData\Local\Temp\cco1yVr9.s 			page 18


 945:Libraries/STM32F4xx_HAL_Driver/Src/stm32f4xx_hal_hcd.c ****     hhcd->HC_NotifyURBChangeCallback = pCallback;
 946:Libraries/STM32F4xx_HAL_Driver/Src/stm32f4xx_hal_hcd.c ****   }
 947:Libraries/STM32F4xx_HAL_Driver/Src/stm32f4xx_hal_hcd.c ****   else
 948:Libraries/STM32F4xx_HAL_Driver/Src/stm32f4xx_hal_hcd.c ****   {
 949:Libraries/STM32F4xx_HAL_Driver/Src/stm32f4xx_hal_hcd.c ****     /* Update the error code */
 950:Libraries/STM32F4xx_HAL_Driver/Src/stm32f4xx_hal_hcd.c ****     hhcd->ErrorCode |= HAL_HCD_ERROR_INVALID_CALLBACK;
 951:Libraries/STM32F4xx_HAL_Driver/Src/stm32f4xx_hal_hcd.c **** 
 952:Libraries/STM32F4xx_HAL_Driver/Src/stm32f4xx_hal_hcd.c ****     /* Return error status */
 953:Libraries/STM32F4xx_HAL_Driver/Src/stm32f4xx_hal_hcd.c ****     status =  HAL_ERROR;
 954:Libraries/STM32F4xx_HAL_Driver/Src/stm32f4xx_hal_hcd.c ****   }
 955:Libraries/STM32F4xx_HAL_Driver/Src/stm32f4xx_hal_hcd.c **** 
 956:Libraries/STM32F4xx_HAL_Driver/Src/stm32f4xx_hal_hcd.c ****   /* Release Lock */
 957:Libraries/STM32F4xx_HAL_Driver/Src/stm32f4xx_hal_hcd.c ****   __HAL_UNLOCK(hhcd);
 958:Libraries/STM32F4xx_HAL_Driver/Src/stm32f4xx_hal_hcd.c **** 
 959:Libraries/STM32F4xx_HAL_Driver/Src/stm32f4xx_hal_hcd.c ****   return status;
 960:Libraries/STM32F4xx_HAL_Driver/Src/stm32f4xx_hal_hcd.c **** }
 961:Libraries/STM32F4xx_HAL_Driver/Src/stm32f4xx_hal_hcd.c **** 
 962:Libraries/STM32F4xx_HAL_Driver/Src/stm32f4xx_hal_hcd.c **** /**
 963:Libraries/STM32F4xx_HAL_Driver/Src/stm32f4xx_hal_hcd.c ****   * @brief  Unregister the USB HCD Host Channel Notify URB Change Callback
 964:Libraries/STM32F4xx_HAL_Driver/Src/stm32f4xx_hal_hcd.c ****   *         USB HCD Host Channel Notify URB Change Callback is redirected to the weak HAL_HCD_HC_No
 965:Libraries/STM32F4xx_HAL_Driver/Src/stm32f4xx_hal_hcd.c ****   * @param  hhcd HCD handle
 966:Libraries/STM32F4xx_HAL_Driver/Src/stm32f4xx_hal_hcd.c ****   * @retval HAL status
 967:Libraries/STM32F4xx_HAL_Driver/Src/stm32f4xx_hal_hcd.c ****   */
 968:Libraries/STM32F4xx_HAL_Driver/Src/stm32f4xx_hal_hcd.c **** HAL_StatusTypeDef HAL_HCD_UnRegisterHC_NotifyURBChangeCallback(HCD_HandleTypeDef *hhcd)
 969:Libraries/STM32F4xx_HAL_Driver/Src/stm32f4xx_hal_hcd.c **** {
 970:Libraries/STM32F4xx_HAL_Driver/Src/stm32f4xx_hal_hcd.c ****   HAL_StatusTypeDef status = HAL_OK;
 971:Libraries/STM32F4xx_HAL_Driver/Src/stm32f4xx_hal_hcd.c **** 
 972:Libraries/STM32F4xx_HAL_Driver/Src/stm32f4xx_hal_hcd.c ****   /* Process locked */
 973:Libraries/STM32F4xx_HAL_Driver/Src/stm32f4xx_hal_hcd.c ****   __HAL_LOCK(hhcd);
 974:Libraries/STM32F4xx_HAL_Driver/Src/stm32f4xx_hal_hcd.c **** 
 975:Libraries/STM32F4xx_HAL_Driver/Src/stm32f4xx_hal_hcd.c ****   if (hhcd->State == HAL_HCD_STATE_READY)
 976:Libraries/STM32F4xx_HAL_Driver/Src/stm32f4xx_hal_hcd.c ****   {
 977:Libraries/STM32F4xx_HAL_Driver/Src/stm32f4xx_hal_hcd.c ****     hhcd->HC_NotifyURBChangeCallback = HAL_HCD_HC_NotifyURBChange_Callback; /* Legacy weak DataOutS
 978:Libraries/STM32F4xx_HAL_Driver/Src/stm32f4xx_hal_hcd.c ****   }
 979:Libraries/STM32F4xx_HAL_Driver/Src/stm32f4xx_hal_hcd.c ****   else
 980:Libraries/STM32F4xx_HAL_Driver/Src/stm32f4xx_hal_hcd.c ****   {
 981:Libraries/STM32F4xx_HAL_Driver/Src/stm32f4xx_hal_hcd.c ****     /* Update the error code */
 982:Libraries/STM32F4xx_HAL_Driver/Src/stm32f4xx_hal_hcd.c ****     hhcd->ErrorCode |= HAL_HCD_ERROR_INVALID_CALLBACK;
 983:Libraries/STM32F4xx_HAL_Driver/Src/stm32f4xx_hal_hcd.c **** 
 984:Libraries/STM32F4xx_HAL_Driver/Src/stm32f4xx_hal_hcd.c ****     /* Return error status */
 985:Libraries/STM32F4xx_HAL_Driver/Src/stm32f4xx_hal_hcd.c ****     status =  HAL_ERROR;
 986:Libraries/STM32F4xx_HAL_Driver/Src/stm32f4xx_hal_hcd.c ****   }
 987:Libraries/STM32F4xx_HAL_Driver/Src/stm32f4xx_hal_hcd.c **** 
 988:Libraries/STM32F4xx_HAL_Driver/Src/stm32f4xx_hal_hcd.c ****   /* Release Lock */
 989:Libraries/STM32F4xx_HAL_Driver/Src/stm32f4xx_hal_hcd.c ****   __HAL_UNLOCK(hhcd);
 990:Libraries/STM32F4xx_HAL_Driver/Src/stm32f4xx_hal_hcd.c **** 
 991:Libraries/STM32F4xx_HAL_Driver/Src/stm32f4xx_hal_hcd.c ****   return status;
 992:Libraries/STM32F4xx_HAL_Driver/Src/stm32f4xx_hal_hcd.c **** }
 993:Libraries/STM32F4xx_HAL_Driver/Src/stm32f4xx_hal_hcd.c **** #endif /* USE_HAL_HCD_REGISTER_CALLBACKS */
 994:Libraries/STM32F4xx_HAL_Driver/Src/stm32f4xx_hal_hcd.c **** 
 995:Libraries/STM32F4xx_HAL_Driver/Src/stm32f4xx_hal_hcd.c **** /**
 996:Libraries/STM32F4xx_HAL_Driver/Src/stm32f4xx_hal_hcd.c ****   * @}
 997:Libraries/STM32F4xx_HAL_Driver/Src/stm32f4xx_hal_hcd.c ****   */
 998:Libraries/STM32F4xx_HAL_Driver/Src/stm32f4xx_hal_hcd.c **** 
 999:Libraries/STM32F4xx_HAL_Driver/Src/stm32f4xx_hal_hcd.c **** /** @defgroup HCD_Exported_Functions_Group3 Peripheral Control functions
1000:Libraries/STM32F4xx_HAL_Driver/Src/stm32f4xx_hal_hcd.c ****   *  @brief   Management functions
1001:Libraries/STM32F4xx_HAL_Driver/Src/stm32f4xx_hal_hcd.c ****   *
ARM GAS  C:\Users\yzy\AppData\Local\Temp\cco1yVr9.s 			page 19


1002:Libraries/STM32F4xx_HAL_Driver/Src/stm32f4xx_hal_hcd.c **** @verbatim
1003:Libraries/STM32F4xx_HAL_Driver/Src/stm32f4xx_hal_hcd.c ****  ===============================================================================
1004:Libraries/STM32F4xx_HAL_Driver/Src/stm32f4xx_hal_hcd.c ****                       ##### Peripheral Control functions #####
1005:Libraries/STM32F4xx_HAL_Driver/Src/stm32f4xx_hal_hcd.c ****  ===============================================================================
1006:Libraries/STM32F4xx_HAL_Driver/Src/stm32f4xx_hal_hcd.c ****     [..]
1007:Libraries/STM32F4xx_HAL_Driver/Src/stm32f4xx_hal_hcd.c ****     This subsection provides a set of functions allowing to control the HCD data
1008:Libraries/STM32F4xx_HAL_Driver/Src/stm32f4xx_hal_hcd.c ****     transfers.
1009:Libraries/STM32F4xx_HAL_Driver/Src/stm32f4xx_hal_hcd.c **** 
1010:Libraries/STM32F4xx_HAL_Driver/Src/stm32f4xx_hal_hcd.c **** @endverbatim
1011:Libraries/STM32F4xx_HAL_Driver/Src/stm32f4xx_hal_hcd.c ****   * @{
1012:Libraries/STM32F4xx_HAL_Driver/Src/stm32f4xx_hal_hcd.c ****   */
1013:Libraries/STM32F4xx_HAL_Driver/Src/stm32f4xx_hal_hcd.c **** 
1014:Libraries/STM32F4xx_HAL_Driver/Src/stm32f4xx_hal_hcd.c **** /**
1015:Libraries/STM32F4xx_HAL_Driver/Src/stm32f4xx_hal_hcd.c ****   * @brief  Start the host driver.
1016:Libraries/STM32F4xx_HAL_Driver/Src/stm32f4xx_hal_hcd.c ****   * @param  hhcd HCD handle
1017:Libraries/STM32F4xx_HAL_Driver/Src/stm32f4xx_hal_hcd.c ****   * @retval HAL status
1018:Libraries/STM32F4xx_HAL_Driver/Src/stm32f4xx_hal_hcd.c ****   */
1019:Libraries/STM32F4xx_HAL_Driver/Src/stm32f4xx_hal_hcd.c **** HAL_StatusTypeDef HAL_HCD_Start(HCD_HandleTypeDef *hhcd)
1020:Libraries/STM32F4xx_HAL_Driver/Src/stm32f4xx_hal_hcd.c **** {
1021:Libraries/STM32F4xx_HAL_Driver/Src/stm32f4xx_hal_hcd.c ****   __HAL_LOCK(hhcd);
1022:Libraries/STM32F4xx_HAL_Driver/Src/stm32f4xx_hal_hcd.c ****   __HAL_HCD_ENABLE(hhcd);
1023:Libraries/STM32F4xx_HAL_Driver/Src/stm32f4xx_hal_hcd.c ****   (void)USB_DriveVbus(hhcd->Instance, 1U);
1024:Libraries/STM32F4xx_HAL_Driver/Src/stm32f4xx_hal_hcd.c ****   __HAL_UNLOCK(hhcd);
1025:Libraries/STM32F4xx_HAL_Driver/Src/stm32f4xx_hal_hcd.c **** 
1026:Libraries/STM32F4xx_HAL_Driver/Src/stm32f4xx_hal_hcd.c ****   return HAL_OK;
1027:Libraries/STM32F4xx_HAL_Driver/Src/stm32f4xx_hal_hcd.c **** }
1028:Libraries/STM32F4xx_HAL_Driver/Src/stm32f4xx_hal_hcd.c **** 
1029:Libraries/STM32F4xx_HAL_Driver/Src/stm32f4xx_hal_hcd.c **** /**
1030:Libraries/STM32F4xx_HAL_Driver/Src/stm32f4xx_hal_hcd.c ****   * @brief  Stop the host driver.
1031:Libraries/STM32F4xx_HAL_Driver/Src/stm32f4xx_hal_hcd.c ****   * @param  hhcd HCD handle
1032:Libraries/STM32F4xx_HAL_Driver/Src/stm32f4xx_hal_hcd.c ****   * @retval HAL status
1033:Libraries/STM32F4xx_HAL_Driver/Src/stm32f4xx_hal_hcd.c ****   */
1034:Libraries/STM32F4xx_HAL_Driver/Src/stm32f4xx_hal_hcd.c **** 
1035:Libraries/STM32F4xx_HAL_Driver/Src/stm32f4xx_hal_hcd.c **** HAL_StatusTypeDef HAL_HCD_Stop(HCD_HandleTypeDef *hhcd)
1036:Libraries/STM32F4xx_HAL_Driver/Src/stm32f4xx_hal_hcd.c **** {
1037:Libraries/STM32F4xx_HAL_Driver/Src/stm32f4xx_hal_hcd.c ****   __HAL_LOCK(hhcd);
1038:Libraries/STM32F4xx_HAL_Driver/Src/stm32f4xx_hal_hcd.c ****   (void)USB_StopHost(hhcd->Instance);
1039:Libraries/STM32F4xx_HAL_Driver/Src/stm32f4xx_hal_hcd.c ****   __HAL_UNLOCK(hhcd);
1040:Libraries/STM32F4xx_HAL_Driver/Src/stm32f4xx_hal_hcd.c **** 
1041:Libraries/STM32F4xx_HAL_Driver/Src/stm32f4xx_hal_hcd.c ****   return HAL_OK;
1042:Libraries/STM32F4xx_HAL_Driver/Src/stm32f4xx_hal_hcd.c **** }
1043:Libraries/STM32F4xx_HAL_Driver/Src/stm32f4xx_hal_hcd.c **** 
1044:Libraries/STM32F4xx_HAL_Driver/Src/stm32f4xx_hal_hcd.c **** /**
1045:Libraries/STM32F4xx_HAL_Driver/Src/stm32f4xx_hal_hcd.c ****   * @brief  Reset the host port.
1046:Libraries/STM32F4xx_HAL_Driver/Src/stm32f4xx_hal_hcd.c ****   * @param  hhcd HCD handle
1047:Libraries/STM32F4xx_HAL_Driver/Src/stm32f4xx_hal_hcd.c ****   * @retval HAL status
1048:Libraries/STM32F4xx_HAL_Driver/Src/stm32f4xx_hal_hcd.c ****   */
1049:Libraries/STM32F4xx_HAL_Driver/Src/stm32f4xx_hal_hcd.c **** HAL_StatusTypeDef HAL_HCD_ResetPort(HCD_HandleTypeDef *hhcd)
1050:Libraries/STM32F4xx_HAL_Driver/Src/stm32f4xx_hal_hcd.c **** {
1051:Libraries/STM32F4xx_HAL_Driver/Src/stm32f4xx_hal_hcd.c ****   return (USB_ResetPort(hhcd->Instance));
1052:Libraries/STM32F4xx_HAL_Driver/Src/stm32f4xx_hal_hcd.c **** }
1053:Libraries/STM32F4xx_HAL_Driver/Src/stm32f4xx_hal_hcd.c **** 
1054:Libraries/STM32F4xx_HAL_Driver/Src/stm32f4xx_hal_hcd.c **** /**
1055:Libraries/STM32F4xx_HAL_Driver/Src/stm32f4xx_hal_hcd.c ****   * @}
1056:Libraries/STM32F4xx_HAL_Driver/Src/stm32f4xx_hal_hcd.c ****   */
1057:Libraries/STM32F4xx_HAL_Driver/Src/stm32f4xx_hal_hcd.c **** 
1058:Libraries/STM32F4xx_HAL_Driver/Src/stm32f4xx_hal_hcd.c **** /** @defgroup HCD_Exported_Functions_Group4 Peripheral State functions
ARM GAS  C:\Users\yzy\AppData\Local\Temp\cco1yVr9.s 			page 20


1059:Libraries/STM32F4xx_HAL_Driver/Src/stm32f4xx_hal_hcd.c ****   *  @brief   Peripheral State functions
1060:Libraries/STM32F4xx_HAL_Driver/Src/stm32f4xx_hal_hcd.c ****   *
1061:Libraries/STM32F4xx_HAL_Driver/Src/stm32f4xx_hal_hcd.c **** @verbatim
1062:Libraries/STM32F4xx_HAL_Driver/Src/stm32f4xx_hal_hcd.c ****  ===============================================================================
1063:Libraries/STM32F4xx_HAL_Driver/Src/stm32f4xx_hal_hcd.c ****                       ##### Peripheral State functions #####
1064:Libraries/STM32F4xx_HAL_Driver/Src/stm32f4xx_hal_hcd.c ****  ===============================================================================
1065:Libraries/STM32F4xx_HAL_Driver/Src/stm32f4xx_hal_hcd.c ****     [..]
1066:Libraries/STM32F4xx_HAL_Driver/Src/stm32f4xx_hal_hcd.c ****     This subsection permits to get in run-time the status of the peripheral
1067:Libraries/STM32F4xx_HAL_Driver/Src/stm32f4xx_hal_hcd.c ****     and the data flow.
1068:Libraries/STM32F4xx_HAL_Driver/Src/stm32f4xx_hal_hcd.c **** 
1069:Libraries/STM32F4xx_HAL_Driver/Src/stm32f4xx_hal_hcd.c **** @endverbatim
1070:Libraries/STM32F4xx_HAL_Driver/Src/stm32f4xx_hal_hcd.c ****   * @{
1071:Libraries/STM32F4xx_HAL_Driver/Src/stm32f4xx_hal_hcd.c ****   */
1072:Libraries/STM32F4xx_HAL_Driver/Src/stm32f4xx_hal_hcd.c **** 
1073:Libraries/STM32F4xx_HAL_Driver/Src/stm32f4xx_hal_hcd.c **** /**
1074:Libraries/STM32F4xx_HAL_Driver/Src/stm32f4xx_hal_hcd.c ****   * @brief  Return the HCD handle state.
1075:Libraries/STM32F4xx_HAL_Driver/Src/stm32f4xx_hal_hcd.c ****   * @param  hhcd HCD handle
1076:Libraries/STM32F4xx_HAL_Driver/Src/stm32f4xx_hal_hcd.c ****   * @retval HAL state
1077:Libraries/STM32F4xx_HAL_Driver/Src/stm32f4xx_hal_hcd.c ****   */
1078:Libraries/STM32F4xx_HAL_Driver/Src/stm32f4xx_hal_hcd.c **** HCD_StateTypeDef HAL_HCD_GetState(HCD_HandleTypeDef *hhcd)
1079:Libraries/STM32F4xx_HAL_Driver/Src/stm32f4xx_hal_hcd.c **** {
1080:Libraries/STM32F4xx_HAL_Driver/Src/stm32f4xx_hal_hcd.c ****   return hhcd->State;
1081:Libraries/STM32F4xx_HAL_Driver/Src/stm32f4xx_hal_hcd.c **** }
1082:Libraries/STM32F4xx_HAL_Driver/Src/stm32f4xx_hal_hcd.c **** 
1083:Libraries/STM32F4xx_HAL_Driver/Src/stm32f4xx_hal_hcd.c **** /**
1084:Libraries/STM32F4xx_HAL_Driver/Src/stm32f4xx_hal_hcd.c ****   * @brief  Return  URB state for a channel.
1085:Libraries/STM32F4xx_HAL_Driver/Src/stm32f4xx_hal_hcd.c ****   * @param  hhcd HCD handle
1086:Libraries/STM32F4xx_HAL_Driver/Src/stm32f4xx_hal_hcd.c ****   * @param  chnum Channel number.
1087:Libraries/STM32F4xx_HAL_Driver/Src/stm32f4xx_hal_hcd.c ****   *         This parameter can be a value from 1 to 15
1088:Libraries/STM32F4xx_HAL_Driver/Src/stm32f4xx_hal_hcd.c ****   * @retval URB state.
1089:Libraries/STM32F4xx_HAL_Driver/Src/stm32f4xx_hal_hcd.c ****   *          This parameter can be one of these values:
1090:Libraries/STM32F4xx_HAL_Driver/Src/stm32f4xx_hal_hcd.c ****   *            URB_IDLE/
1091:Libraries/STM32F4xx_HAL_Driver/Src/stm32f4xx_hal_hcd.c ****   *            URB_DONE/
1092:Libraries/STM32F4xx_HAL_Driver/Src/stm32f4xx_hal_hcd.c ****   *            URB_NOTREADY/
1093:Libraries/STM32F4xx_HAL_Driver/Src/stm32f4xx_hal_hcd.c ****   *            URB_NYET/
1094:Libraries/STM32F4xx_HAL_Driver/Src/stm32f4xx_hal_hcd.c ****   *            URB_ERROR/
1095:Libraries/STM32F4xx_HAL_Driver/Src/stm32f4xx_hal_hcd.c ****   *            URB_STALL
1096:Libraries/STM32F4xx_HAL_Driver/Src/stm32f4xx_hal_hcd.c ****   */
1097:Libraries/STM32F4xx_HAL_Driver/Src/stm32f4xx_hal_hcd.c **** HCD_URBStateTypeDef HAL_HCD_HC_GetURBState(HCD_HandleTypeDef *hhcd, uint8_t chnum)
1098:Libraries/STM32F4xx_HAL_Driver/Src/stm32f4xx_hal_hcd.c **** {
1099:Libraries/STM32F4xx_HAL_Driver/Src/stm32f4xx_hal_hcd.c ****   return hhcd->hc[chnum].urb_state;
1100:Libraries/STM32F4xx_HAL_Driver/Src/stm32f4xx_hal_hcd.c **** }
1101:Libraries/STM32F4xx_HAL_Driver/Src/stm32f4xx_hal_hcd.c **** 
1102:Libraries/STM32F4xx_HAL_Driver/Src/stm32f4xx_hal_hcd.c **** 
1103:Libraries/STM32F4xx_HAL_Driver/Src/stm32f4xx_hal_hcd.c **** /**
1104:Libraries/STM32F4xx_HAL_Driver/Src/stm32f4xx_hal_hcd.c ****   * @brief  Return the last host transfer size.
1105:Libraries/STM32F4xx_HAL_Driver/Src/stm32f4xx_hal_hcd.c ****   * @param  hhcd HCD handle
1106:Libraries/STM32F4xx_HAL_Driver/Src/stm32f4xx_hal_hcd.c ****   * @param  chnum Channel number.
1107:Libraries/STM32F4xx_HAL_Driver/Src/stm32f4xx_hal_hcd.c ****   *         This parameter can be a value from 1 to 15
1108:Libraries/STM32F4xx_HAL_Driver/Src/stm32f4xx_hal_hcd.c ****   * @retval last transfer size in byte
1109:Libraries/STM32F4xx_HAL_Driver/Src/stm32f4xx_hal_hcd.c ****   */
1110:Libraries/STM32F4xx_HAL_Driver/Src/stm32f4xx_hal_hcd.c **** uint32_t HAL_HCD_HC_GetXferCount(HCD_HandleTypeDef *hhcd, uint8_t chnum)
1111:Libraries/STM32F4xx_HAL_Driver/Src/stm32f4xx_hal_hcd.c **** {
1112:Libraries/STM32F4xx_HAL_Driver/Src/stm32f4xx_hal_hcd.c ****   return hhcd->hc[chnum].xfer_count;
1113:Libraries/STM32F4xx_HAL_Driver/Src/stm32f4xx_hal_hcd.c **** }
1114:Libraries/STM32F4xx_HAL_Driver/Src/stm32f4xx_hal_hcd.c **** 
1115:Libraries/STM32F4xx_HAL_Driver/Src/stm32f4xx_hal_hcd.c **** /**
ARM GAS  C:\Users\yzy\AppData\Local\Temp\cco1yVr9.s 			page 21


1116:Libraries/STM32F4xx_HAL_Driver/Src/stm32f4xx_hal_hcd.c ****   * @brief  Return the Host Channel state.
1117:Libraries/STM32F4xx_HAL_Driver/Src/stm32f4xx_hal_hcd.c ****   * @param  hhcd HCD handle
1118:Libraries/STM32F4xx_HAL_Driver/Src/stm32f4xx_hal_hcd.c ****   * @param  chnum Channel number.
1119:Libraries/STM32F4xx_HAL_Driver/Src/stm32f4xx_hal_hcd.c ****   *         This parameter can be a value from 1 to 15
1120:Libraries/STM32F4xx_HAL_Driver/Src/stm32f4xx_hal_hcd.c ****   * @retval Host channel state
1121:Libraries/STM32F4xx_HAL_Driver/Src/stm32f4xx_hal_hcd.c ****   *          This parameter can be one of these values:
1122:Libraries/STM32F4xx_HAL_Driver/Src/stm32f4xx_hal_hcd.c ****   *            HC_IDLE/
1123:Libraries/STM32F4xx_HAL_Driver/Src/stm32f4xx_hal_hcd.c ****   *            HC_XFRC/
1124:Libraries/STM32F4xx_HAL_Driver/Src/stm32f4xx_hal_hcd.c ****   *            HC_HALTED/
1125:Libraries/STM32F4xx_HAL_Driver/Src/stm32f4xx_hal_hcd.c ****   *            HC_NYET/
1126:Libraries/STM32F4xx_HAL_Driver/Src/stm32f4xx_hal_hcd.c ****   *            HC_NAK/
1127:Libraries/STM32F4xx_HAL_Driver/Src/stm32f4xx_hal_hcd.c ****   *            HC_STALL/
1128:Libraries/STM32F4xx_HAL_Driver/Src/stm32f4xx_hal_hcd.c ****   *            HC_XACTERR/
1129:Libraries/STM32F4xx_HAL_Driver/Src/stm32f4xx_hal_hcd.c ****   *            HC_BBLERR/
1130:Libraries/STM32F4xx_HAL_Driver/Src/stm32f4xx_hal_hcd.c ****   *            HC_DATATGLERR
1131:Libraries/STM32F4xx_HAL_Driver/Src/stm32f4xx_hal_hcd.c ****   */
1132:Libraries/STM32F4xx_HAL_Driver/Src/stm32f4xx_hal_hcd.c **** HCD_HCStateTypeDef  HAL_HCD_HC_GetState(HCD_HandleTypeDef *hhcd, uint8_t chnum)
1133:Libraries/STM32F4xx_HAL_Driver/Src/stm32f4xx_hal_hcd.c **** {
1134:Libraries/STM32F4xx_HAL_Driver/Src/stm32f4xx_hal_hcd.c ****   return hhcd->hc[chnum].state;
1135:Libraries/STM32F4xx_HAL_Driver/Src/stm32f4xx_hal_hcd.c **** }
1136:Libraries/STM32F4xx_HAL_Driver/Src/stm32f4xx_hal_hcd.c **** 
1137:Libraries/STM32F4xx_HAL_Driver/Src/stm32f4xx_hal_hcd.c **** /**
1138:Libraries/STM32F4xx_HAL_Driver/Src/stm32f4xx_hal_hcd.c ****   * @brief  Return the current Host frame number.
1139:Libraries/STM32F4xx_HAL_Driver/Src/stm32f4xx_hal_hcd.c ****   * @param  hhcd HCD handle
1140:Libraries/STM32F4xx_HAL_Driver/Src/stm32f4xx_hal_hcd.c ****   * @retval Current Host frame number
1141:Libraries/STM32F4xx_HAL_Driver/Src/stm32f4xx_hal_hcd.c ****   */
1142:Libraries/STM32F4xx_HAL_Driver/Src/stm32f4xx_hal_hcd.c **** uint32_t HAL_HCD_GetCurrentFrame(HCD_HandleTypeDef *hhcd)
1143:Libraries/STM32F4xx_HAL_Driver/Src/stm32f4xx_hal_hcd.c **** {
1144:Libraries/STM32F4xx_HAL_Driver/Src/stm32f4xx_hal_hcd.c ****   return (USB_GetCurrentFrame(hhcd->Instance));
1145:Libraries/STM32F4xx_HAL_Driver/Src/stm32f4xx_hal_hcd.c **** }
1146:Libraries/STM32F4xx_HAL_Driver/Src/stm32f4xx_hal_hcd.c **** 
1147:Libraries/STM32F4xx_HAL_Driver/Src/stm32f4xx_hal_hcd.c **** /**
1148:Libraries/STM32F4xx_HAL_Driver/Src/stm32f4xx_hal_hcd.c ****   * @brief  Return the Host enumeration speed.
1149:Libraries/STM32F4xx_HAL_Driver/Src/stm32f4xx_hal_hcd.c ****   * @param  hhcd HCD handle
1150:Libraries/STM32F4xx_HAL_Driver/Src/stm32f4xx_hal_hcd.c ****   * @retval Enumeration speed
1151:Libraries/STM32F4xx_HAL_Driver/Src/stm32f4xx_hal_hcd.c ****   */
1152:Libraries/STM32F4xx_HAL_Driver/Src/stm32f4xx_hal_hcd.c **** uint32_t HAL_HCD_GetCurrentSpeed(HCD_HandleTypeDef *hhcd)
1153:Libraries/STM32F4xx_HAL_Driver/Src/stm32f4xx_hal_hcd.c **** {
1154:Libraries/STM32F4xx_HAL_Driver/Src/stm32f4xx_hal_hcd.c ****   return (USB_GetHostSpeed(hhcd->Instance));
1155:Libraries/STM32F4xx_HAL_Driver/Src/stm32f4xx_hal_hcd.c **** }
1156:Libraries/STM32F4xx_HAL_Driver/Src/stm32f4xx_hal_hcd.c **** 
1157:Libraries/STM32F4xx_HAL_Driver/Src/stm32f4xx_hal_hcd.c **** /**
1158:Libraries/STM32F4xx_HAL_Driver/Src/stm32f4xx_hal_hcd.c ****   * @}
1159:Libraries/STM32F4xx_HAL_Driver/Src/stm32f4xx_hal_hcd.c ****   */
1160:Libraries/STM32F4xx_HAL_Driver/Src/stm32f4xx_hal_hcd.c **** 
1161:Libraries/STM32F4xx_HAL_Driver/Src/stm32f4xx_hal_hcd.c **** /**
1162:Libraries/STM32F4xx_HAL_Driver/Src/stm32f4xx_hal_hcd.c ****   * @}
1163:Libraries/STM32F4xx_HAL_Driver/Src/stm32f4xx_hal_hcd.c ****   */
1164:Libraries/STM32F4xx_HAL_Driver/Src/stm32f4xx_hal_hcd.c **** 
1165:Libraries/STM32F4xx_HAL_Driver/Src/stm32f4xx_hal_hcd.c **** /** @addtogroup HCD_Private_Functions
1166:Libraries/STM32F4xx_HAL_Driver/Src/stm32f4xx_hal_hcd.c ****   * @{
1167:Libraries/STM32F4xx_HAL_Driver/Src/stm32f4xx_hal_hcd.c ****   */
1168:Libraries/STM32F4xx_HAL_Driver/Src/stm32f4xx_hal_hcd.c **** /**
1169:Libraries/STM32F4xx_HAL_Driver/Src/stm32f4xx_hal_hcd.c ****   * @brief  Handle Host Channel IN interrupt requests.
1170:Libraries/STM32F4xx_HAL_Driver/Src/stm32f4xx_hal_hcd.c ****   * @param  hhcd HCD handle
1171:Libraries/STM32F4xx_HAL_Driver/Src/stm32f4xx_hal_hcd.c ****   * @param  chnum Channel number.
1172:Libraries/STM32F4xx_HAL_Driver/Src/stm32f4xx_hal_hcd.c ****   *         This parameter can be a value from 1 to 15
ARM GAS  C:\Users\yzy\AppData\Local\Temp\cco1yVr9.s 			page 22


1173:Libraries/STM32F4xx_HAL_Driver/Src/stm32f4xx_hal_hcd.c ****   * @retval none
1174:Libraries/STM32F4xx_HAL_Driver/Src/stm32f4xx_hal_hcd.c ****   */
1175:Libraries/STM32F4xx_HAL_Driver/Src/stm32f4xx_hal_hcd.c **** static void HCD_HC_IN_IRQHandler(HCD_HandleTypeDef *hhcd, uint8_t chnum)
1176:Libraries/STM32F4xx_HAL_Driver/Src/stm32f4xx_hal_hcd.c **** {
1177:Libraries/STM32F4xx_HAL_Driver/Src/stm32f4xx_hal_hcd.c ****   USB_OTG_GlobalTypeDef *USBx = hhcd->Instance;
1178:Libraries/STM32F4xx_HAL_Driver/Src/stm32f4xx_hal_hcd.c ****   uint32_t USBx_BASE = (uint32_t)USBx;
1179:Libraries/STM32F4xx_HAL_Driver/Src/stm32f4xx_hal_hcd.c ****   uint32_t ch_num = (uint32_t)chnum;
1180:Libraries/STM32F4xx_HAL_Driver/Src/stm32f4xx_hal_hcd.c **** 
1181:Libraries/STM32F4xx_HAL_Driver/Src/stm32f4xx_hal_hcd.c ****   uint32_t tmpreg;
1182:Libraries/STM32F4xx_HAL_Driver/Src/stm32f4xx_hal_hcd.c **** 
1183:Libraries/STM32F4xx_HAL_Driver/Src/stm32f4xx_hal_hcd.c ****   if ((USBx_HC(ch_num)->HCINT & USB_OTG_HCINT_AHBERR) == USB_OTG_HCINT_AHBERR)
1184:Libraries/STM32F4xx_HAL_Driver/Src/stm32f4xx_hal_hcd.c ****   {
1185:Libraries/STM32F4xx_HAL_Driver/Src/stm32f4xx_hal_hcd.c ****     __HAL_HCD_CLEAR_HC_INT(ch_num, USB_OTG_HCINT_AHBERR);
1186:Libraries/STM32F4xx_HAL_Driver/Src/stm32f4xx_hal_hcd.c ****     __HAL_HCD_UNMASK_HALT_HC_INT(ch_num);
1187:Libraries/STM32F4xx_HAL_Driver/Src/stm32f4xx_hal_hcd.c ****   }
1188:Libraries/STM32F4xx_HAL_Driver/Src/stm32f4xx_hal_hcd.c ****   else if ((USBx_HC(ch_num)->HCINT & USB_OTG_HCINT_BBERR) == USB_OTG_HCINT_BBERR)
1189:Libraries/STM32F4xx_HAL_Driver/Src/stm32f4xx_hal_hcd.c ****   {
1190:Libraries/STM32F4xx_HAL_Driver/Src/stm32f4xx_hal_hcd.c ****     __HAL_HCD_CLEAR_HC_INT(ch_num, USB_OTG_HCINT_BBERR);
1191:Libraries/STM32F4xx_HAL_Driver/Src/stm32f4xx_hal_hcd.c ****     hhcd->hc[ch_num].state = HC_BBLERR;
1192:Libraries/STM32F4xx_HAL_Driver/Src/stm32f4xx_hal_hcd.c ****     __HAL_HCD_UNMASK_HALT_HC_INT(ch_num);
1193:Libraries/STM32F4xx_HAL_Driver/Src/stm32f4xx_hal_hcd.c ****     (void)USB_HC_Halt(hhcd->Instance, (uint8_t)ch_num);
1194:Libraries/STM32F4xx_HAL_Driver/Src/stm32f4xx_hal_hcd.c ****   }
1195:Libraries/STM32F4xx_HAL_Driver/Src/stm32f4xx_hal_hcd.c ****   else if ((USBx_HC(ch_num)->HCINT & USB_OTG_HCINT_ACK) == USB_OTG_HCINT_ACK)
1196:Libraries/STM32F4xx_HAL_Driver/Src/stm32f4xx_hal_hcd.c ****   {
1197:Libraries/STM32F4xx_HAL_Driver/Src/stm32f4xx_hal_hcd.c ****     __HAL_HCD_CLEAR_HC_INT(ch_num, USB_OTG_HCINT_ACK);
1198:Libraries/STM32F4xx_HAL_Driver/Src/stm32f4xx_hal_hcd.c ****   }
1199:Libraries/STM32F4xx_HAL_Driver/Src/stm32f4xx_hal_hcd.c ****   else if ((USBx_HC(ch_num)->HCINT & USB_OTG_HCINT_STALL) == USB_OTG_HCINT_STALL)
1200:Libraries/STM32F4xx_HAL_Driver/Src/stm32f4xx_hal_hcd.c ****   {
1201:Libraries/STM32F4xx_HAL_Driver/Src/stm32f4xx_hal_hcd.c ****     __HAL_HCD_UNMASK_HALT_HC_INT(ch_num);
1202:Libraries/STM32F4xx_HAL_Driver/Src/stm32f4xx_hal_hcd.c ****     hhcd->hc[ch_num].state = HC_STALL;
1203:Libraries/STM32F4xx_HAL_Driver/Src/stm32f4xx_hal_hcd.c ****     __HAL_HCD_CLEAR_HC_INT(ch_num, USB_OTG_HCINT_NAK);
1204:Libraries/STM32F4xx_HAL_Driver/Src/stm32f4xx_hal_hcd.c ****     __HAL_HCD_CLEAR_HC_INT(ch_num, USB_OTG_HCINT_STALL);
1205:Libraries/STM32F4xx_HAL_Driver/Src/stm32f4xx_hal_hcd.c ****     (void)USB_HC_Halt(hhcd->Instance, (uint8_t)ch_num);
1206:Libraries/STM32F4xx_HAL_Driver/Src/stm32f4xx_hal_hcd.c ****   }
1207:Libraries/STM32F4xx_HAL_Driver/Src/stm32f4xx_hal_hcd.c ****   else if ((USBx_HC(ch_num)->HCINT & USB_OTG_HCINT_DTERR) == USB_OTG_HCINT_DTERR)
1208:Libraries/STM32F4xx_HAL_Driver/Src/stm32f4xx_hal_hcd.c ****   {
1209:Libraries/STM32F4xx_HAL_Driver/Src/stm32f4xx_hal_hcd.c ****     __HAL_HCD_UNMASK_HALT_HC_INT(ch_num);
1210:Libraries/STM32F4xx_HAL_Driver/Src/stm32f4xx_hal_hcd.c ****     (void)USB_HC_Halt(hhcd->Instance, (uint8_t)ch_num);
1211:Libraries/STM32F4xx_HAL_Driver/Src/stm32f4xx_hal_hcd.c ****     __HAL_HCD_CLEAR_HC_INT(ch_num, USB_OTG_HCINT_NAK);
1212:Libraries/STM32F4xx_HAL_Driver/Src/stm32f4xx_hal_hcd.c ****     hhcd->hc[ch_num].state = HC_DATATGLERR;
1213:Libraries/STM32F4xx_HAL_Driver/Src/stm32f4xx_hal_hcd.c ****     __HAL_HCD_CLEAR_HC_INT(ch_num, USB_OTG_HCINT_DTERR);
1214:Libraries/STM32F4xx_HAL_Driver/Src/stm32f4xx_hal_hcd.c ****   }
1215:Libraries/STM32F4xx_HAL_Driver/Src/stm32f4xx_hal_hcd.c ****   else
1216:Libraries/STM32F4xx_HAL_Driver/Src/stm32f4xx_hal_hcd.c ****   {
1217:Libraries/STM32F4xx_HAL_Driver/Src/stm32f4xx_hal_hcd.c ****     /* ... */
1218:Libraries/STM32F4xx_HAL_Driver/Src/stm32f4xx_hal_hcd.c ****   }
1219:Libraries/STM32F4xx_HAL_Driver/Src/stm32f4xx_hal_hcd.c **** 
1220:Libraries/STM32F4xx_HAL_Driver/Src/stm32f4xx_hal_hcd.c ****   if ((USBx_HC(ch_num)->HCINT & USB_OTG_HCINT_FRMOR) == USB_OTG_HCINT_FRMOR)
1221:Libraries/STM32F4xx_HAL_Driver/Src/stm32f4xx_hal_hcd.c ****   {
1222:Libraries/STM32F4xx_HAL_Driver/Src/stm32f4xx_hal_hcd.c ****     __HAL_HCD_UNMASK_HALT_HC_INT(ch_num);
1223:Libraries/STM32F4xx_HAL_Driver/Src/stm32f4xx_hal_hcd.c ****     (void)USB_HC_Halt(hhcd->Instance, (uint8_t)ch_num);
1224:Libraries/STM32F4xx_HAL_Driver/Src/stm32f4xx_hal_hcd.c ****     __HAL_HCD_CLEAR_HC_INT(ch_num, USB_OTG_HCINT_FRMOR);
1225:Libraries/STM32F4xx_HAL_Driver/Src/stm32f4xx_hal_hcd.c ****   }
1226:Libraries/STM32F4xx_HAL_Driver/Src/stm32f4xx_hal_hcd.c ****   else if ((USBx_HC(ch_num)->HCINT & USB_OTG_HCINT_XFRC) == USB_OTG_HCINT_XFRC)
1227:Libraries/STM32F4xx_HAL_Driver/Src/stm32f4xx_hal_hcd.c ****   {
1228:Libraries/STM32F4xx_HAL_Driver/Src/stm32f4xx_hal_hcd.c ****     if (hhcd->Init.dma_enable != 0U)
1229:Libraries/STM32F4xx_HAL_Driver/Src/stm32f4xx_hal_hcd.c ****     {
ARM GAS  C:\Users\yzy\AppData\Local\Temp\cco1yVr9.s 			page 23


1230:Libraries/STM32F4xx_HAL_Driver/Src/stm32f4xx_hal_hcd.c ****       hhcd->hc[ch_num].xfer_count = hhcd->hc[ch_num].xfer_len - \
1231:Libraries/STM32F4xx_HAL_Driver/Src/stm32f4xx_hal_hcd.c ****                                     (USBx_HC(ch_num)->HCTSIZ & USB_OTG_HCTSIZ_XFRSIZ);
1232:Libraries/STM32F4xx_HAL_Driver/Src/stm32f4xx_hal_hcd.c ****     }
1233:Libraries/STM32F4xx_HAL_Driver/Src/stm32f4xx_hal_hcd.c **** 
1234:Libraries/STM32F4xx_HAL_Driver/Src/stm32f4xx_hal_hcd.c ****     hhcd->hc[ch_num].state = HC_XFRC;
1235:Libraries/STM32F4xx_HAL_Driver/Src/stm32f4xx_hal_hcd.c ****     hhcd->hc[ch_num].ErrCnt = 0U;
1236:Libraries/STM32F4xx_HAL_Driver/Src/stm32f4xx_hal_hcd.c ****     __HAL_HCD_CLEAR_HC_INT(ch_num, USB_OTG_HCINT_XFRC);
1237:Libraries/STM32F4xx_HAL_Driver/Src/stm32f4xx_hal_hcd.c **** 
1238:Libraries/STM32F4xx_HAL_Driver/Src/stm32f4xx_hal_hcd.c ****     if ((hhcd->hc[ch_num].ep_type == EP_TYPE_CTRL) ||
1239:Libraries/STM32F4xx_HAL_Driver/Src/stm32f4xx_hal_hcd.c ****         (hhcd->hc[ch_num].ep_type == EP_TYPE_BULK))
1240:Libraries/STM32F4xx_HAL_Driver/Src/stm32f4xx_hal_hcd.c ****     {
1241:Libraries/STM32F4xx_HAL_Driver/Src/stm32f4xx_hal_hcd.c ****       __HAL_HCD_UNMASK_HALT_HC_INT(ch_num);
1242:Libraries/STM32F4xx_HAL_Driver/Src/stm32f4xx_hal_hcd.c ****       (void)USB_HC_Halt(hhcd->Instance, (uint8_t)ch_num);
1243:Libraries/STM32F4xx_HAL_Driver/Src/stm32f4xx_hal_hcd.c ****       __HAL_HCD_CLEAR_HC_INT(ch_num, USB_OTG_HCINT_NAK);
1244:Libraries/STM32F4xx_HAL_Driver/Src/stm32f4xx_hal_hcd.c ****     }
1245:Libraries/STM32F4xx_HAL_Driver/Src/stm32f4xx_hal_hcd.c ****     else if (hhcd->hc[ch_num].ep_type == EP_TYPE_INTR)
1246:Libraries/STM32F4xx_HAL_Driver/Src/stm32f4xx_hal_hcd.c ****     {
1247:Libraries/STM32F4xx_HAL_Driver/Src/stm32f4xx_hal_hcd.c ****       USBx_HC(ch_num)->HCCHAR |= USB_OTG_HCCHAR_ODDFRM;
1248:Libraries/STM32F4xx_HAL_Driver/Src/stm32f4xx_hal_hcd.c ****       hhcd->hc[ch_num].urb_state = URB_DONE;
1249:Libraries/STM32F4xx_HAL_Driver/Src/stm32f4xx_hal_hcd.c **** 
1250:Libraries/STM32F4xx_HAL_Driver/Src/stm32f4xx_hal_hcd.c **** #if (USE_HAL_HCD_REGISTER_CALLBACKS == 1U)
1251:Libraries/STM32F4xx_HAL_Driver/Src/stm32f4xx_hal_hcd.c ****       hhcd->HC_NotifyURBChangeCallback(hhcd, (uint8_t)ch_num, hhcd->hc[ch_num].urb_state);
1252:Libraries/STM32F4xx_HAL_Driver/Src/stm32f4xx_hal_hcd.c **** #else
1253:Libraries/STM32F4xx_HAL_Driver/Src/stm32f4xx_hal_hcd.c ****       HAL_HCD_HC_NotifyURBChange_Callback(hhcd, (uint8_t)ch_num, hhcd->hc[ch_num].urb_state);
1254:Libraries/STM32F4xx_HAL_Driver/Src/stm32f4xx_hal_hcd.c **** #endif /* USE_HAL_HCD_REGISTER_CALLBACKS */
1255:Libraries/STM32F4xx_HAL_Driver/Src/stm32f4xx_hal_hcd.c ****     }
1256:Libraries/STM32F4xx_HAL_Driver/Src/stm32f4xx_hal_hcd.c ****     else if (hhcd->hc[ch_num].ep_type == EP_TYPE_ISOC)
1257:Libraries/STM32F4xx_HAL_Driver/Src/stm32f4xx_hal_hcd.c ****     {
1258:Libraries/STM32F4xx_HAL_Driver/Src/stm32f4xx_hal_hcd.c ****       hhcd->hc[ch_num].urb_state = URB_DONE;
1259:Libraries/STM32F4xx_HAL_Driver/Src/stm32f4xx_hal_hcd.c ****       hhcd->hc[ch_num].toggle_in ^= 1U;
1260:Libraries/STM32F4xx_HAL_Driver/Src/stm32f4xx_hal_hcd.c **** 
1261:Libraries/STM32F4xx_HAL_Driver/Src/stm32f4xx_hal_hcd.c **** #if (USE_HAL_HCD_REGISTER_CALLBACKS == 1U)
1262:Libraries/STM32F4xx_HAL_Driver/Src/stm32f4xx_hal_hcd.c ****       hhcd->HC_NotifyURBChangeCallback(hhcd, (uint8_t)ch_num, hhcd->hc[ch_num].urb_state);
1263:Libraries/STM32F4xx_HAL_Driver/Src/stm32f4xx_hal_hcd.c **** #else
1264:Libraries/STM32F4xx_HAL_Driver/Src/stm32f4xx_hal_hcd.c ****       HAL_HCD_HC_NotifyURBChange_Callback(hhcd, (uint8_t)ch_num, hhcd->hc[ch_num].urb_state);
1265:Libraries/STM32F4xx_HAL_Driver/Src/stm32f4xx_hal_hcd.c **** #endif /* USE_HAL_HCD_REGISTER_CALLBACKS */
1266:Libraries/STM32F4xx_HAL_Driver/Src/stm32f4xx_hal_hcd.c ****     }
1267:Libraries/STM32F4xx_HAL_Driver/Src/stm32f4xx_hal_hcd.c ****     else
1268:Libraries/STM32F4xx_HAL_Driver/Src/stm32f4xx_hal_hcd.c ****     {
1269:Libraries/STM32F4xx_HAL_Driver/Src/stm32f4xx_hal_hcd.c ****       /* ... */
1270:Libraries/STM32F4xx_HAL_Driver/Src/stm32f4xx_hal_hcd.c ****     }
1271:Libraries/STM32F4xx_HAL_Driver/Src/stm32f4xx_hal_hcd.c ****     hhcd->hc[ch_num].toggle_in ^= 1U;
1272:Libraries/STM32F4xx_HAL_Driver/Src/stm32f4xx_hal_hcd.c **** 
1273:Libraries/STM32F4xx_HAL_Driver/Src/stm32f4xx_hal_hcd.c ****   }
1274:Libraries/STM32F4xx_HAL_Driver/Src/stm32f4xx_hal_hcd.c ****   else if ((USBx_HC(ch_num)->HCINT & USB_OTG_HCINT_CHH) == USB_OTG_HCINT_CHH)
1275:Libraries/STM32F4xx_HAL_Driver/Src/stm32f4xx_hal_hcd.c ****   {
1276:Libraries/STM32F4xx_HAL_Driver/Src/stm32f4xx_hal_hcd.c ****     __HAL_HCD_MASK_HALT_HC_INT(ch_num);
1277:Libraries/STM32F4xx_HAL_Driver/Src/stm32f4xx_hal_hcd.c **** 
1278:Libraries/STM32F4xx_HAL_Driver/Src/stm32f4xx_hal_hcd.c ****     if (hhcd->hc[ch_num].state == HC_XFRC)
1279:Libraries/STM32F4xx_HAL_Driver/Src/stm32f4xx_hal_hcd.c ****     {
1280:Libraries/STM32F4xx_HAL_Driver/Src/stm32f4xx_hal_hcd.c ****       hhcd->hc[ch_num].urb_state  = URB_DONE;
1281:Libraries/STM32F4xx_HAL_Driver/Src/stm32f4xx_hal_hcd.c ****     }
1282:Libraries/STM32F4xx_HAL_Driver/Src/stm32f4xx_hal_hcd.c ****     else if (hhcd->hc[ch_num].state == HC_STALL)
1283:Libraries/STM32F4xx_HAL_Driver/Src/stm32f4xx_hal_hcd.c ****     {
1284:Libraries/STM32F4xx_HAL_Driver/Src/stm32f4xx_hal_hcd.c ****       hhcd->hc[ch_num].urb_state  = URB_STALL;
1285:Libraries/STM32F4xx_HAL_Driver/Src/stm32f4xx_hal_hcd.c ****     }
1286:Libraries/STM32F4xx_HAL_Driver/Src/stm32f4xx_hal_hcd.c ****     else if ((hhcd->hc[ch_num].state == HC_XACTERR) ||
ARM GAS  C:\Users\yzy\AppData\Local\Temp\cco1yVr9.s 			page 24


1287:Libraries/STM32F4xx_HAL_Driver/Src/stm32f4xx_hal_hcd.c ****              (hhcd->hc[ch_num].state == HC_DATATGLERR))
1288:Libraries/STM32F4xx_HAL_Driver/Src/stm32f4xx_hal_hcd.c ****     {
1289:Libraries/STM32F4xx_HAL_Driver/Src/stm32f4xx_hal_hcd.c ****       hhcd->hc[ch_num].ErrCnt++;
1290:Libraries/STM32F4xx_HAL_Driver/Src/stm32f4xx_hal_hcd.c ****       if (hhcd->hc[ch_num].ErrCnt > 3U)
1291:Libraries/STM32F4xx_HAL_Driver/Src/stm32f4xx_hal_hcd.c ****       {
1292:Libraries/STM32F4xx_HAL_Driver/Src/stm32f4xx_hal_hcd.c ****         hhcd->hc[ch_num].ErrCnt = 0U;
1293:Libraries/STM32F4xx_HAL_Driver/Src/stm32f4xx_hal_hcd.c ****         hhcd->hc[ch_num].urb_state = URB_ERROR;
1294:Libraries/STM32F4xx_HAL_Driver/Src/stm32f4xx_hal_hcd.c ****       }
1295:Libraries/STM32F4xx_HAL_Driver/Src/stm32f4xx_hal_hcd.c ****       else
1296:Libraries/STM32F4xx_HAL_Driver/Src/stm32f4xx_hal_hcd.c ****       {
1297:Libraries/STM32F4xx_HAL_Driver/Src/stm32f4xx_hal_hcd.c ****         hhcd->hc[ch_num].urb_state = URB_NOTREADY;
1298:Libraries/STM32F4xx_HAL_Driver/Src/stm32f4xx_hal_hcd.c ****       }
1299:Libraries/STM32F4xx_HAL_Driver/Src/stm32f4xx_hal_hcd.c **** 
1300:Libraries/STM32F4xx_HAL_Driver/Src/stm32f4xx_hal_hcd.c ****       /* re-activate the channel  */
1301:Libraries/STM32F4xx_HAL_Driver/Src/stm32f4xx_hal_hcd.c ****       tmpreg = USBx_HC(ch_num)->HCCHAR;
1302:Libraries/STM32F4xx_HAL_Driver/Src/stm32f4xx_hal_hcd.c ****       tmpreg &= ~USB_OTG_HCCHAR_CHDIS;
1303:Libraries/STM32F4xx_HAL_Driver/Src/stm32f4xx_hal_hcd.c ****       tmpreg |= USB_OTG_HCCHAR_CHENA;
1304:Libraries/STM32F4xx_HAL_Driver/Src/stm32f4xx_hal_hcd.c ****       USBx_HC(ch_num)->HCCHAR = tmpreg;
1305:Libraries/STM32F4xx_HAL_Driver/Src/stm32f4xx_hal_hcd.c ****     }
1306:Libraries/STM32F4xx_HAL_Driver/Src/stm32f4xx_hal_hcd.c ****     else if (hhcd->hc[ch_num].state == HC_NAK)
1307:Libraries/STM32F4xx_HAL_Driver/Src/stm32f4xx_hal_hcd.c ****     {
1308:Libraries/STM32F4xx_HAL_Driver/Src/stm32f4xx_hal_hcd.c ****       hhcd->hc[ch_num].urb_state  = URB_NOTREADY;
1309:Libraries/STM32F4xx_HAL_Driver/Src/stm32f4xx_hal_hcd.c ****       /* re-activate the channel  */
1310:Libraries/STM32F4xx_HAL_Driver/Src/stm32f4xx_hal_hcd.c ****       tmpreg = USBx_HC(ch_num)->HCCHAR;
1311:Libraries/STM32F4xx_HAL_Driver/Src/stm32f4xx_hal_hcd.c ****       tmpreg &= ~USB_OTG_HCCHAR_CHDIS;
1312:Libraries/STM32F4xx_HAL_Driver/Src/stm32f4xx_hal_hcd.c ****       tmpreg |= USB_OTG_HCCHAR_CHENA;
1313:Libraries/STM32F4xx_HAL_Driver/Src/stm32f4xx_hal_hcd.c ****       USBx_HC(ch_num)->HCCHAR = tmpreg;
1314:Libraries/STM32F4xx_HAL_Driver/Src/stm32f4xx_hal_hcd.c ****     }
1315:Libraries/STM32F4xx_HAL_Driver/Src/stm32f4xx_hal_hcd.c ****     else if (hhcd->hc[ch_num].state == HC_BBLERR)
1316:Libraries/STM32F4xx_HAL_Driver/Src/stm32f4xx_hal_hcd.c ****     {
1317:Libraries/STM32F4xx_HAL_Driver/Src/stm32f4xx_hal_hcd.c ****       hhcd->hc[ch_num].ErrCnt++;
1318:Libraries/STM32F4xx_HAL_Driver/Src/stm32f4xx_hal_hcd.c ****       hhcd->hc[ch_num].urb_state = URB_ERROR;
1319:Libraries/STM32F4xx_HAL_Driver/Src/stm32f4xx_hal_hcd.c ****     }
1320:Libraries/STM32F4xx_HAL_Driver/Src/stm32f4xx_hal_hcd.c ****     else
1321:Libraries/STM32F4xx_HAL_Driver/Src/stm32f4xx_hal_hcd.c ****     {
1322:Libraries/STM32F4xx_HAL_Driver/Src/stm32f4xx_hal_hcd.c ****       /* ... */
1323:Libraries/STM32F4xx_HAL_Driver/Src/stm32f4xx_hal_hcd.c ****     }
1324:Libraries/STM32F4xx_HAL_Driver/Src/stm32f4xx_hal_hcd.c ****     __HAL_HCD_CLEAR_HC_INT(ch_num, USB_OTG_HCINT_CHH);
1325:Libraries/STM32F4xx_HAL_Driver/Src/stm32f4xx_hal_hcd.c ****     HAL_HCD_HC_NotifyURBChange_Callback(hhcd, (uint8_t)ch_num, hhcd->hc[ch_num].urb_state);
1326:Libraries/STM32F4xx_HAL_Driver/Src/stm32f4xx_hal_hcd.c ****   }
1327:Libraries/STM32F4xx_HAL_Driver/Src/stm32f4xx_hal_hcd.c ****   else if ((USBx_HC(ch_num)->HCINT & USB_OTG_HCINT_TXERR) == USB_OTG_HCINT_TXERR)
1328:Libraries/STM32F4xx_HAL_Driver/Src/stm32f4xx_hal_hcd.c ****   {
1329:Libraries/STM32F4xx_HAL_Driver/Src/stm32f4xx_hal_hcd.c ****     __HAL_HCD_UNMASK_HALT_HC_INT(ch_num);
1330:Libraries/STM32F4xx_HAL_Driver/Src/stm32f4xx_hal_hcd.c ****     hhcd->hc[ch_num].ErrCnt++;
1331:Libraries/STM32F4xx_HAL_Driver/Src/stm32f4xx_hal_hcd.c ****     hhcd->hc[ch_num].state = HC_XACTERR;
1332:Libraries/STM32F4xx_HAL_Driver/Src/stm32f4xx_hal_hcd.c ****     (void)USB_HC_Halt(hhcd->Instance, (uint8_t)ch_num);
1333:Libraries/STM32F4xx_HAL_Driver/Src/stm32f4xx_hal_hcd.c ****     __HAL_HCD_CLEAR_HC_INT(ch_num, USB_OTG_HCINT_TXERR);
1334:Libraries/STM32F4xx_HAL_Driver/Src/stm32f4xx_hal_hcd.c ****   }
1335:Libraries/STM32F4xx_HAL_Driver/Src/stm32f4xx_hal_hcd.c ****   else if ((USBx_HC(ch_num)->HCINT & USB_OTG_HCINT_NAK) == USB_OTG_HCINT_NAK)
1336:Libraries/STM32F4xx_HAL_Driver/Src/stm32f4xx_hal_hcd.c ****   {
1337:Libraries/STM32F4xx_HAL_Driver/Src/stm32f4xx_hal_hcd.c ****     if (hhcd->hc[ch_num].ep_type == EP_TYPE_INTR)
1338:Libraries/STM32F4xx_HAL_Driver/Src/stm32f4xx_hal_hcd.c ****     {
1339:Libraries/STM32F4xx_HAL_Driver/Src/stm32f4xx_hal_hcd.c ****       hhcd->hc[ch_num].ErrCnt = 0U;
1340:Libraries/STM32F4xx_HAL_Driver/Src/stm32f4xx_hal_hcd.c ****       __HAL_HCD_UNMASK_HALT_HC_INT(ch_num);
1341:Libraries/STM32F4xx_HAL_Driver/Src/stm32f4xx_hal_hcd.c ****       (void)USB_HC_Halt(hhcd->Instance, (uint8_t)ch_num);
1342:Libraries/STM32F4xx_HAL_Driver/Src/stm32f4xx_hal_hcd.c ****     }
1343:Libraries/STM32F4xx_HAL_Driver/Src/stm32f4xx_hal_hcd.c ****     else if ((hhcd->hc[ch_num].ep_type == EP_TYPE_CTRL) ||
ARM GAS  C:\Users\yzy\AppData\Local\Temp\cco1yVr9.s 			page 25


1344:Libraries/STM32F4xx_HAL_Driver/Src/stm32f4xx_hal_hcd.c ****              (hhcd->hc[ch_num].ep_type == EP_TYPE_BULK))
1345:Libraries/STM32F4xx_HAL_Driver/Src/stm32f4xx_hal_hcd.c ****     {
1346:Libraries/STM32F4xx_HAL_Driver/Src/stm32f4xx_hal_hcd.c ****       hhcd->hc[ch_num].ErrCnt = 0U;
1347:Libraries/STM32F4xx_HAL_Driver/Src/stm32f4xx_hal_hcd.c **** 
1348:Libraries/STM32F4xx_HAL_Driver/Src/stm32f4xx_hal_hcd.c ****       if (hhcd->Init.dma_enable == 0U)
1349:Libraries/STM32F4xx_HAL_Driver/Src/stm32f4xx_hal_hcd.c ****       {
1350:Libraries/STM32F4xx_HAL_Driver/Src/stm32f4xx_hal_hcd.c ****         hhcd->hc[ch_num].state = HC_NAK;
1351:Libraries/STM32F4xx_HAL_Driver/Src/stm32f4xx_hal_hcd.c ****         __HAL_HCD_UNMASK_HALT_HC_INT(ch_num);
1352:Libraries/STM32F4xx_HAL_Driver/Src/stm32f4xx_hal_hcd.c ****         (void)USB_HC_Halt(hhcd->Instance, (uint8_t)ch_num);
1353:Libraries/STM32F4xx_HAL_Driver/Src/stm32f4xx_hal_hcd.c ****       }
1354:Libraries/STM32F4xx_HAL_Driver/Src/stm32f4xx_hal_hcd.c ****     }
1355:Libraries/STM32F4xx_HAL_Driver/Src/stm32f4xx_hal_hcd.c ****     else
1356:Libraries/STM32F4xx_HAL_Driver/Src/stm32f4xx_hal_hcd.c ****     {
1357:Libraries/STM32F4xx_HAL_Driver/Src/stm32f4xx_hal_hcd.c ****       /* ... */
1358:Libraries/STM32F4xx_HAL_Driver/Src/stm32f4xx_hal_hcd.c ****     }
1359:Libraries/STM32F4xx_HAL_Driver/Src/stm32f4xx_hal_hcd.c ****     __HAL_HCD_CLEAR_HC_INT(ch_num, USB_OTG_HCINT_NAK);
1360:Libraries/STM32F4xx_HAL_Driver/Src/stm32f4xx_hal_hcd.c ****   }
1361:Libraries/STM32F4xx_HAL_Driver/Src/stm32f4xx_hal_hcd.c ****   else
1362:Libraries/STM32F4xx_HAL_Driver/Src/stm32f4xx_hal_hcd.c ****   {
1363:Libraries/STM32F4xx_HAL_Driver/Src/stm32f4xx_hal_hcd.c ****     /* ... */
1364:Libraries/STM32F4xx_HAL_Driver/Src/stm32f4xx_hal_hcd.c ****   }
1365:Libraries/STM32F4xx_HAL_Driver/Src/stm32f4xx_hal_hcd.c **** }
1366:Libraries/STM32F4xx_HAL_Driver/Src/stm32f4xx_hal_hcd.c **** 
1367:Libraries/STM32F4xx_HAL_Driver/Src/stm32f4xx_hal_hcd.c **** /**
1368:Libraries/STM32F4xx_HAL_Driver/Src/stm32f4xx_hal_hcd.c ****   * @brief  Handle Host Channel OUT interrupt requests.
1369:Libraries/STM32F4xx_HAL_Driver/Src/stm32f4xx_hal_hcd.c ****   * @param  hhcd HCD handle
1370:Libraries/STM32F4xx_HAL_Driver/Src/stm32f4xx_hal_hcd.c ****   * @param  chnum Channel number.
1371:Libraries/STM32F4xx_HAL_Driver/Src/stm32f4xx_hal_hcd.c ****   *         This parameter can be a value from 1 to 15
1372:Libraries/STM32F4xx_HAL_Driver/Src/stm32f4xx_hal_hcd.c ****   * @retval none
1373:Libraries/STM32F4xx_HAL_Driver/Src/stm32f4xx_hal_hcd.c ****   */
1374:Libraries/STM32F4xx_HAL_Driver/Src/stm32f4xx_hal_hcd.c **** static void HCD_HC_OUT_IRQHandler(HCD_HandleTypeDef *hhcd, uint8_t chnum)
1375:Libraries/STM32F4xx_HAL_Driver/Src/stm32f4xx_hal_hcd.c **** {
1376:Libraries/STM32F4xx_HAL_Driver/Src/stm32f4xx_hal_hcd.c ****   USB_OTG_GlobalTypeDef *USBx = hhcd->Instance;
1377:Libraries/STM32F4xx_HAL_Driver/Src/stm32f4xx_hal_hcd.c ****   uint32_t USBx_BASE = (uint32_t)USBx;
1378:Libraries/STM32F4xx_HAL_Driver/Src/stm32f4xx_hal_hcd.c ****   uint32_t ch_num = (uint32_t)chnum;
1379:Libraries/STM32F4xx_HAL_Driver/Src/stm32f4xx_hal_hcd.c ****   uint32_t tmpreg;
1380:Libraries/STM32F4xx_HAL_Driver/Src/stm32f4xx_hal_hcd.c **** 
1381:Libraries/STM32F4xx_HAL_Driver/Src/stm32f4xx_hal_hcd.c ****   if ((USBx_HC(ch_num)->HCINT & USB_OTG_HCINT_AHBERR) == USB_OTG_HCINT_AHBERR)
1382:Libraries/STM32F4xx_HAL_Driver/Src/stm32f4xx_hal_hcd.c ****   {
1383:Libraries/STM32F4xx_HAL_Driver/Src/stm32f4xx_hal_hcd.c ****     __HAL_HCD_CLEAR_HC_INT(ch_num, USB_OTG_HCINT_AHBERR);
1384:Libraries/STM32F4xx_HAL_Driver/Src/stm32f4xx_hal_hcd.c ****     __HAL_HCD_UNMASK_HALT_HC_INT(ch_num);
1385:Libraries/STM32F4xx_HAL_Driver/Src/stm32f4xx_hal_hcd.c ****   }
1386:Libraries/STM32F4xx_HAL_Driver/Src/stm32f4xx_hal_hcd.c ****   else if ((USBx_HC(ch_num)->HCINT & USB_OTG_HCINT_ACK) == USB_OTG_HCINT_ACK)
1387:Libraries/STM32F4xx_HAL_Driver/Src/stm32f4xx_hal_hcd.c ****   {
1388:Libraries/STM32F4xx_HAL_Driver/Src/stm32f4xx_hal_hcd.c ****     __HAL_HCD_CLEAR_HC_INT(ch_num, USB_OTG_HCINT_ACK);
1389:Libraries/STM32F4xx_HAL_Driver/Src/stm32f4xx_hal_hcd.c **** 
1390:Libraries/STM32F4xx_HAL_Driver/Src/stm32f4xx_hal_hcd.c ****     if (hhcd->hc[ch_num].do_ping == 1U)
1391:Libraries/STM32F4xx_HAL_Driver/Src/stm32f4xx_hal_hcd.c ****     {
1392:Libraries/STM32F4xx_HAL_Driver/Src/stm32f4xx_hal_hcd.c ****       hhcd->hc[ch_num].do_ping = 0U;
1393:Libraries/STM32F4xx_HAL_Driver/Src/stm32f4xx_hal_hcd.c ****       hhcd->hc[ch_num].urb_state  = URB_NOTREADY;
1394:Libraries/STM32F4xx_HAL_Driver/Src/stm32f4xx_hal_hcd.c ****       __HAL_HCD_UNMASK_HALT_HC_INT(ch_num);
1395:Libraries/STM32F4xx_HAL_Driver/Src/stm32f4xx_hal_hcd.c ****       (void)USB_HC_Halt(hhcd->Instance, (uint8_t)ch_num);
1396:Libraries/STM32F4xx_HAL_Driver/Src/stm32f4xx_hal_hcd.c ****     }
1397:Libraries/STM32F4xx_HAL_Driver/Src/stm32f4xx_hal_hcd.c ****   }
1398:Libraries/STM32F4xx_HAL_Driver/Src/stm32f4xx_hal_hcd.c ****   else if ((USBx_HC(ch_num)->HCINT & USB_OTG_HCINT_NYET) == USB_OTG_HCINT_NYET)
1399:Libraries/STM32F4xx_HAL_Driver/Src/stm32f4xx_hal_hcd.c ****   {
1400:Libraries/STM32F4xx_HAL_Driver/Src/stm32f4xx_hal_hcd.c ****     hhcd->hc[ch_num].state = HC_NYET;
ARM GAS  C:\Users\yzy\AppData\Local\Temp\cco1yVr9.s 			page 26


1401:Libraries/STM32F4xx_HAL_Driver/Src/stm32f4xx_hal_hcd.c ****     hhcd->hc[ch_num].do_ping = 1U;
1402:Libraries/STM32F4xx_HAL_Driver/Src/stm32f4xx_hal_hcd.c ****     hhcd->hc[ch_num].ErrCnt = 0U;
1403:Libraries/STM32F4xx_HAL_Driver/Src/stm32f4xx_hal_hcd.c ****     __HAL_HCD_UNMASK_HALT_HC_INT(ch_num);
1404:Libraries/STM32F4xx_HAL_Driver/Src/stm32f4xx_hal_hcd.c ****     (void)USB_HC_Halt(hhcd->Instance, (uint8_t)ch_num);
1405:Libraries/STM32F4xx_HAL_Driver/Src/stm32f4xx_hal_hcd.c ****     __HAL_HCD_CLEAR_HC_INT(ch_num, USB_OTG_HCINT_NYET);
1406:Libraries/STM32F4xx_HAL_Driver/Src/stm32f4xx_hal_hcd.c ****   }
1407:Libraries/STM32F4xx_HAL_Driver/Src/stm32f4xx_hal_hcd.c ****   else if ((USBx_HC(ch_num)->HCINT & USB_OTG_HCINT_FRMOR) == USB_OTG_HCINT_FRMOR)
1408:Libraries/STM32F4xx_HAL_Driver/Src/stm32f4xx_hal_hcd.c ****   {
1409:Libraries/STM32F4xx_HAL_Driver/Src/stm32f4xx_hal_hcd.c ****     __HAL_HCD_UNMASK_HALT_HC_INT(ch_num);
1410:Libraries/STM32F4xx_HAL_Driver/Src/stm32f4xx_hal_hcd.c ****     (void)USB_HC_Halt(hhcd->Instance, (uint8_t)ch_num);
1411:Libraries/STM32F4xx_HAL_Driver/Src/stm32f4xx_hal_hcd.c ****     __HAL_HCD_CLEAR_HC_INT(ch_num, USB_OTG_HCINT_FRMOR);
1412:Libraries/STM32F4xx_HAL_Driver/Src/stm32f4xx_hal_hcd.c ****   }
1413:Libraries/STM32F4xx_HAL_Driver/Src/stm32f4xx_hal_hcd.c ****   else if ((USBx_HC(ch_num)->HCINT & USB_OTG_HCINT_XFRC) == USB_OTG_HCINT_XFRC)
1414:Libraries/STM32F4xx_HAL_Driver/Src/stm32f4xx_hal_hcd.c ****   {
1415:Libraries/STM32F4xx_HAL_Driver/Src/stm32f4xx_hal_hcd.c ****     hhcd->hc[ch_num].ErrCnt = 0U;
1416:Libraries/STM32F4xx_HAL_Driver/Src/stm32f4xx_hal_hcd.c ****     __HAL_HCD_UNMASK_HALT_HC_INT(ch_num);
1417:Libraries/STM32F4xx_HAL_Driver/Src/stm32f4xx_hal_hcd.c ****     (void)USB_HC_Halt(hhcd->Instance, (uint8_t)ch_num);
1418:Libraries/STM32F4xx_HAL_Driver/Src/stm32f4xx_hal_hcd.c ****     __HAL_HCD_CLEAR_HC_INT(ch_num, USB_OTG_HCINT_XFRC);
1419:Libraries/STM32F4xx_HAL_Driver/Src/stm32f4xx_hal_hcd.c ****     hhcd->hc[ch_num].state = HC_XFRC;
1420:Libraries/STM32F4xx_HAL_Driver/Src/stm32f4xx_hal_hcd.c ****   }
1421:Libraries/STM32F4xx_HAL_Driver/Src/stm32f4xx_hal_hcd.c ****   else if ((USBx_HC(ch_num)->HCINT & USB_OTG_HCINT_STALL) == USB_OTG_HCINT_STALL)
1422:Libraries/STM32F4xx_HAL_Driver/Src/stm32f4xx_hal_hcd.c ****   {
1423:Libraries/STM32F4xx_HAL_Driver/Src/stm32f4xx_hal_hcd.c ****     __HAL_HCD_CLEAR_HC_INT(ch_num, USB_OTG_HCINT_STALL);
1424:Libraries/STM32F4xx_HAL_Driver/Src/stm32f4xx_hal_hcd.c ****     __HAL_HCD_UNMASK_HALT_HC_INT(ch_num);
1425:Libraries/STM32F4xx_HAL_Driver/Src/stm32f4xx_hal_hcd.c ****     (void)USB_HC_Halt(hhcd->Instance, (uint8_t)ch_num);
1426:Libraries/STM32F4xx_HAL_Driver/Src/stm32f4xx_hal_hcd.c ****     hhcd->hc[ch_num].state = HC_STALL;
1427:Libraries/STM32F4xx_HAL_Driver/Src/stm32f4xx_hal_hcd.c ****   }
1428:Libraries/STM32F4xx_HAL_Driver/Src/stm32f4xx_hal_hcd.c ****   else if ((USBx_HC(ch_num)->HCINT & USB_OTG_HCINT_NAK) == USB_OTG_HCINT_NAK)
1429:Libraries/STM32F4xx_HAL_Driver/Src/stm32f4xx_hal_hcd.c ****   {
1430:Libraries/STM32F4xx_HAL_Driver/Src/stm32f4xx_hal_hcd.c ****     hhcd->hc[ch_num].ErrCnt = 0U;
1431:Libraries/STM32F4xx_HAL_Driver/Src/stm32f4xx_hal_hcd.c ****     hhcd->hc[ch_num].state = HC_NAK;
1432:Libraries/STM32F4xx_HAL_Driver/Src/stm32f4xx_hal_hcd.c **** 
1433:Libraries/STM32F4xx_HAL_Driver/Src/stm32f4xx_hal_hcd.c ****     if (hhcd->hc[ch_num].do_ping == 0U)
1434:Libraries/STM32F4xx_HAL_Driver/Src/stm32f4xx_hal_hcd.c ****     {
1435:Libraries/STM32F4xx_HAL_Driver/Src/stm32f4xx_hal_hcd.c ****       if (hhcd->hc[ch_num].speed == HCD_SPEED_HIGH)
1436:Libraries/STM32F4xx_HAL_Driver/Src/stm32f4xx_hal_hcd.c ****       {
1437:Libraries/STM32F4xx_HAL_Driver/Src/stm32f4xx_hal_hcd.c ****         hhcd->hc[ch_num].do_ping = 1U;
1438:Libraries/STM32F4xx_HAL_Driver/Src/stm32f4xx_hal_hcd.c ****       }
1439:Libraries/STM32F4xx_HAL_Driver/Src/stm32f4xx_hal_hcd.c ****     }
1440:Libraries/STM32F4xx_HAL_Driver/Src/stm32f4xx_hal_hcd.c **** 
1441:Libraries/STM32F4xx_HAL_Driver/Src/stm32f4xx_hal_hcd.c ****     __HAL_HCD_UNMASK_HALT_HC_INT(ch_num);
1442:Libraries/STM32F4xx_HAL_Driver/Src/stm32f4xx_hal_hcd.c ****     (void)USB_HC_Halt(hhcd->Instance, (uint8_t)ch_num);
1443:Libraries/STM32F4xx_HAL_Driver/Src/stm32f4xx_hal_hcd.c ****     __HAL_HCD_CLEAR_HC_INT(ch_num, USB_OTG_HCINT_NAK);
1444:Libraries/STM32F4xx_HAL_Driver/Src/stm32f4xx_hal_hcd.c ****   }
1445:Libraries/STM32F4xx_HAL_Driver/Src/stm32f4xx_hal_hcd.c ****   else if ((USBx_HC(ch_num)->HCINT & USB_OTG_HCINT_TXERR) == USB_OTG_HCINT_TXERR)
1446:Libraries/STM32F4xx_HAL_Driver/Src/stm32f4xx_hal_hcd.c ****   {
1447:Libraries/STM32F4xx_HAL_Driver/Src/stm32f4xx_hal_hcd.c ****     __HAL_HCD_UNMASK_HALT_HC_INT(ch_num);
1448:Libraries/STM32F4xx_HAL_Driver/Src/stm32f4xx_hal_hcd.c ****     (void)USB_HC_Halt(hhcd->Instance, (uint8_t)ch_num);
1449:Libraries/STM32F4xx_HAL_Driver/Src/stm32f4xx_hal_hcd.c ****     hhcd->hc[ch_num].state = HC_XACTERR;
1450:Libraries/STM32F4xx_HAL_Driver/Src/stm32f4xx_hal_hcd.c ****     __HAL_HCD_CLEAR_HC_INT(ch_num, USB_OTG_HCINT_TXERR);
1451:Libraries/STM32F4xx_HAL_Driver/Src/stm32f4xx_hal_hcd.c ****   }
1452:Libraries/STM32F4xx_HAL_Driver/Src/stm32f4xx_hal_hcd.c ****   else if ((USBx_HC(ch_num)->HCINT & USB_OTG_HCINT_DTERR) == USB_OTG_HCINT_DTERR)
1453:Libraries/STM32F4xx_HAL_Driver/Src/stm32f4xx_hal_hcd.c ****   {
1454:Libraries/STM32F4xx_HAL_Driver/Src/stm32f4xx_hal_hcd.c ****     __HAL_HCD_UNMASK_HALT_HC_INT(ch_num);
1455:Libraries/STM32F4xx_HAL_Driver/Src/stm32f4xx_hal_hcd.c ****     (void)USB_HC_Halt(hhcd->Instance, (uint8_t)ch_num);
1456:Libraries/STM32F4xx_HAL_Driver/Src/stm32f4xx_hal_hcd.c ****     __HAL_HCD_CLEAR_HC_INT(ch_num, USB_OTG_HCINT_NAK);
1457:Libraries/STM32F4xx_HAL_Driver/Src/stm32f4xx_hal_hcd.c ****     __HAL_HCD_CLEAR_HC_INT(ch_num, USB_OTG_HCINT_DTERR);
ARM GAS  C:\Users\yzy\AppData\Local\Temp\cco1yVr9.s 			page 27


1458:Libraries/STM32F4xx_HAL_Driver/Src/stm32f4xx_hal_hcd.c ****     hhcd->hc[ch_num].state = HC_DATATGLERR;
1459:Libraries/STM32F4xx_HAL_Driver/Src/stm32f4xx_hal_hcd.c ****   }
1460:Libraries/STM32F4xx_HAL_Driver/Src/stm32f4xx_hal_hcd.c ****   else if ((USBx_HC(ch_num)->HCINT & USB_OTG_HCINT_CHH) == USB_OTG_HCINT_CHH)
1461:Libraries/STM32F4xx_HAL_Driver/Src/stm32f4xx_hal_hcd.c ****   {
1462:Libraries/STM32F4xx_HAL_Driver/Src/stm32f4xx_hal_hcd.c ****     __HAL_HCD_MASK_HALT_HC_INT(ch_num);
1463:Libraries/STM32F4xx_HAL_Driver/Src/stm32f4xx_hal_hcd.c **** 
1464:Libraries/STM32F4xx_HAL_Driver/Src/stm32f4xx_hal_hcd.c ****     if (hhcd->hc[ch_num].state == HC_XFRC)
1465:Libraries/STM32F4xx_HAL_Driver/Src/stm32f4xx_hal_hcd.c ****     {
1466:Libraries/STM32F4xx_HAL_Driver/Src/stm32f4xx_hal_hcd.c ****       hhcd->hc[ch_num].urb_state  = URB_DONE;
1467:Libraries/STM32F4xx_HAL_Driver/Src/stm32f4xx_hal_hcd.c ****       if ((hhcd->hc[ch_num].ep_type == EP_TYPE_BULK) ||
1468:Libraries/STM32F4xx_HAL_Driver/Src/stm32f4xx_hal_hcd.c ****           (hhcd->hc[ch_num].ep_type == EP_TYPE_INTR))
1469:Libraries/STM32F4xx_HAL_Driver/Src/stm32f4xx_hal_hcd.c ****       {
1470:Libraries/STM32F4xx_HAL_Driver/Src/stm32f4xx_hal_hcd.c ****         hhcd->hc[ch_num].toggle_out ^= 1U;
1471:Libraries/STM32F4xx_HAL_Driver/Src/stm32f4xx_hal_hcd.c ****       }
1472:Libraries/STM32F4xx_HAL_Driver/Src/stm32f4xx_hal_hcd.c ****     }
1473:Libraries/STM32F4xx_HAL_Driver/Src/stm32f4xx_hal_hcd.c ****     else if (hhcd->hc[ch_num].state == HC_NAK)
1474:Libraries/STM32F4xx_HAL_Driver/Src/stm32f4xx_hal_hcd.c ****     {
1475:Libraries/STM32F4xx_HAL_Driver/Src/stm32f4xx_hal_hcd.c ****       hhcd->hc[ch_num].urb_state = URB_NOTREADY;
1476:Libraries/STM32F4xx_HAL_Driver/Src/stm32f4xx_hal_hcd.c ****     }
1477:Libraries/STM32F4xx_HAL_Driver/Src/stm32f4xx_hal_hcd.c ****     else if (hhcd->hc[ch_num].state == HC_NYET)
1478:Libraries/STM32F4xx_HAL_Driver/Src/stm32f4xx_hal_hcd.c ****     {
1479:Libraries/STM32F4xx_HAL_Driver/Src/stm32f4xx_hal_hcd.c ****       hhcd->hc[ch_num].urb_state  = URB_NOTREADY;
1480:Libraries/STM32F4xx_HAL_Driver/Src/stm32f4xx_hal_hcd.c ****     }
1481:Libraries/STM32F4xx_HAL_Driver/Src/stm32f4xx_hal_hcd.c ****     else if (hhcd->hc[ch_num].state == HC_STALL)
1482:Libraries/STM32F4xx_HAL_Driver/Src/stm32f4xx_hal_hcd.c ****     {
1483:Libraries/STM32F4xx_HAL_Driver/Src/stm32f4xx_hal_hcd.c ****       hhcd->hc[ch_num].urb_state  = URB_STALL;
1484:Libraries/STM32F4xx_HAL_Driver/Src/stm32f4xx_hal_hcd.c ****     }
1485:Libraries/STM32F4xx_HAL_Driver/Src/stm32f4xx_hal_hcd.c ****     else if ((hhcd->hc[ch_num].state == HC_XACTERR) ||
1486:Libraries/STM32F4xx_HAL_Driver/Src/stm32f4xx_hal_hcd.c ****              (hhcd->hc[ch_num].state == HC_DATATGLERR))
1487:Libraries/STM32F4xx_HAL_Driver/Src/stm32f4xx_hal_hcd.c ****     {
1488:Libraries/STM32F4xx_HAL_Driver/Src/stm32f4xx_hal_hcd.c ****       hhcd->hc[ch_num].ErrCnt++;
1489:Libraries/STM32F4xx_HAL_Driver/Src/stm32f4xx_hal_hcd.c ****       if (hhcd->hc[ch_num].ErrCnt > 3U)
1490:Libraries/STM32F4xx_HAL_Driver/Src/stm32f4xx_hal_hcd.c ****       {
1491:Libraries/STM32F4xx_HAL_Driver/Src/stm32f4xx_hal_hcd.c ****         hhcd->hc[ch_num].ErrCnt = 0U;
1492:Libraries/STM32F4xx_HAL_Driver/Src/stm32f4xx_hal_hcd.c ****         hhcd->hc[ch_num].urb_state = URB_ERROR;
1493:Libraries/STM32F4xx_HAL_Driver/Src/stm32f4xx_hal_hcd.c ****       }
1494:Libraries/STM32F4xx_HAL_Driver/Src/stm32f4xx_hal_hcd.c ****       else
1495:Libraries/STM32F4xx_HAL_Driver/Src/stm32f4xx_hal_hcd.c ****       {
1496:Libraries/STM32F4xx_HAL_Driver/Src/stm32f4xx_hal_hcd.c ****         hhcd->hc[ch_num].urb_state = URB_NOTREADY;
1497:Libraries/STM32F4xx_HAL_Driver/Src/stm32f4xx_hal_hcd.c ****       }
1498:Libraries/STM32F4xx_HAL_Driver/Src/stm32f4xx_hal_hcd.c **** 
1499:Libraries/STM32F4xx_HAL_Driver/Src/stm32f4xx_hal_hcd.c ****       /* re-activate the channel  */
1500:Libraries/STM32F4xx_HAL_Driver/Src/stm32f4xx_hal_hcd.c ****       tmpreg = USBx_HC(ch_num)->HCCHAR;
1501:Libraries/STM32F4xx_HAL_Driver/Src/stm32f4xx_hal_hcd.c ****       tmpreg &= ~USB_OTG_HCCHAR_CHDIS;
1502:Libraries/STM32F4xx_HAL_Driver/Src/stm32f4xx_hal_hcd.c ****       tmpreg |= USB_OTG_HCCHAR_CHENA;
1503:Libraries/STM32F4xx_HAL_Driver/Src/stm32f4xx_hal_hcd.c ****       USBx_HC(ch_num)->HCCHAR = tmpreg;
1504:Libraries/STM32F4xx_HAL_Driver/Src/stm32f4xx_hal_hcd.c ****     }
1505:Libraries/STM32F4xx_HAL_Driver/Src/stm32f4xx_hal_hcd.c ****     else
1506:Libraries/STM32F4xx_HAL_Driver/Src/stm32f4xx_hal_hcd.c ****     {
1507:Libraries/STM32F4xx_HAL_Driver/Src/stm32f4xx_hal_hcd.c ****       /* ... */
1508:Libraries/STM32F4xx_HAL_Driver/Src/stm32f4xx_hal_hcd.c ****     }
1509:Libraries/STM32F4xx_HAL_Driver/Src/stm32f4xx_hal_hcd.c **** 
1510:Libraries/STM32F4xx_HAL_Driver/Src/stm32f4xx_hal_hcd.c ****     __HAL_HCD_CLEAR_HC_INT(ch_num, USB_OTG_HCINT_CHH);
1511:Libraries/STM32F4xx_HAL_Driver/Src/stm32f4xx_hal_hcd.c ****     HAL_HCD_HC_NotifyURBChange_Callback(hhcd, (uint8_t)ch_num, hhcd->hc[ch_num].urb_state);
1512:Libraries/STM32F4xx_HAL_Driver/Src/stm32f4xx_hal_hcd.c ****   }
1513:Libraries/STM32F4xx_HAL_Driver/Src/stm32f4xx_hal_hcd.c ****   else
1514:Libraries/STM32F4xx_HAL_Driver/Src/stm32f4xx_hal_hcd.c ****   {
ARM GAS  C:\Users\yzy\AppData\Local\Temp\cco1yVr9.s 			page 28


1515:Libraries/STM32F4xx_HAL_Driver/Src/stm32f4xx_hal_hcd.c ****     /* ... */
1516:Libraries/STM32F4xx_HAL_Driver/Src/stm32f4xx_hal_hcd.c ****   }
1517:Libraries/STM32F4xx_HAL_Driver/Src/stm32f4xx_hal_hcd.c **** }
1518:Libraries/STM32F4xx_HAL_Driver/Src/stm32f4xx_hal_hcd.c **** 
1519:Libraries/STM32F4xx_HAL_Driver/Src/stm32f4xx_hal_hcd.c **** /**
1520:Libraries/STM32F4xx_HAL_Driver/Src/stm32f4xx_hal_hcd.c ****   * @brief  Handle Rx Queue Level interrupt requests.
1521:Libraries/STM32F4xx_HAL_Driver/Src/stm32f4xx_hal_hcd.c ****   * @param  hhcd HCD handle
1522:Libraries/STM32F4xx_HAL_Driver/Src/stm32f4xx_hal_hcd.c ****   * @retval none
1523:Libraries/STM32F4xx_HAL_Driver/Src/stm32f4xx_hal_hcd.c ****   */
1524:Libraries/STM32F4xx_HAL_Driver/Src/stm32f4xx_hal_hcd.c **** static void HCD_RXQLVL_IRQHandler(HCD_HandleTypeDef *hhcd)
1525:Libraries/STM32F4xx_HAL_Driver/Src/stm32f4xx_hal_hcd.c **** {
  27              		.loc 1 1525 1 view -0
  28              		.cfi_startproc
  29              		@ args = 0, pretend = 0, frame = 0
  30              		@ frame_needed = 0, uses_anonymous_args = 0
  31              		.loc 1 1525 1 is_stmt 0 view .LVU1
  32 0000 F8B5     		push	{r3, r4, r5, r6, r7, lr}
  33              	.LCFI0:
  34              		.cfi_def_cfa_offset 24
  35              		.cfi_offset 3, -24
  36              		.cfi_offset 4, -20
  37              		.cfi_offset 5, -16
  38              		.cfi_offset 6, -12
  39              		.cfi_offset 7, -8
  40              		.cfi_offset 14, -4
1526:Libraries/STM32F4xx_HAL_Driver/Src/stm32f4xx_hal_hcd.c ****   USB_OTG_GlobalTypeDef *USBx = hhcd->Instance;
  41              		.loc 1 1526 3 is_stmt 1 view .LVU2
  42              		.loc 1 1526 26 is_stmt 0 view .LVU3
  43 0002 0668     		ldr	r6, [r0]
  44              	.LVL1:
1527:Libraries/STM32F4xx_HAL_Driver/Src/stm32f4xx_hal_hcd.c ****   uint32_t USBx_BASE = (uint32_t)USBx;
  45              		.loc 1 1527 3 is_stmt 1 view .LVU4
1528:Libraries/STM32F4xx_HAL_Driver/Src/stm32f4xx_hal_hcd.c ****   uint32_t pktsts;
  46              		.loc 1 1528 3 view .LVU5
1529:Libraries/STM32F4xx_HAL_Driver/Src/stm32f4xx_hal_hcd.c ****   uint32_t pktcnt;
  47              		.loc 1 1529 3 view .LVU6
1530:Libraries/STM32F4xx_HAL_Driver/Src/stm32f4xx_hal_hcd.c ****   uint32_t temp;
  48              		.loc 1 1530 3 view .LVU7
1531:Libraries/STM32F4xx_HAL_Driver/Src/stm32f4xx_hal_hcd.c ****   uint32_t tmpreg;
  49              		.loc 1 1531 3 view .LVU8
1532:Libraries/STM32F4xx_HAL_Driver/Src/stm32f4xx_hal_hcd.c ****   uint32_t ch_num;
  50              		.loc 1 1532 3 view .LVU9
1533:Libraries/STM32F4xx_HAL_Driver/Src/stm32f4xx_hal_hcd.c **** 
1534:Libraries/STM32F4xx_HAL_Driver/Src/stm32f4xx_hal_hcd.c ****   temp = hhcd->Instance->GRXSTSP;
  51              		.loc 1 1534 3 view .LVU10
  52              		.loc 1 1534 8 is_stmt 0 view .LVU11
  53 0004 346A     		ldr	r4, [r6, #32]
  54              	.LVL2:
1535:Libraries/STM32F4xx_HAL_Driver/Src/stm32f4xx_hal_hcd.c ****   ch_num = temp & USB_OTG_GRXSTSP_EPNUM;
  55              		.loc 1 1535 3 is_stmt 1 view .LVU12
  56              		.loc 1 1535 10 is_stmt 0 view .LVU13
  57 0006 04F00F07 		and	r7, r4, #15
  58              	.LVL3:
1536:Libraries/STM32F4xx_HAL_Driver/Src/stm32f4xx_hal_hcd.c ****   pktsts = (temp & USB_OTG_GRXSTSP_PKTSTS) >> 17;
  59              		.loc 1 1536 3 is_stmt 1 view .LVU14
  60              		.loc 1 1536 10 is_stmt 0 view .LVU15
  61 000a C4F34343 		ubfx	r3, r4, #17, #4
ARM GAS  C:\Users\yzy\AppData\Local\Temp\cco1yVr9.s 			page 29


  62              	.LVL4:
1537:Libraries/STM32F4xx_HAL_Driver/Src/stm32f4xx_hal_hcd.c ****   pktcnt = (temp & USB_OTG_GRXSTSP_BCNT) >> 4;
  63              		.loc 1 1537 3 is_stmt 1 view .LVU16
  64              		.loc 1 1537 10 is_stmt 0 view .LVU17
  65 000e C4F30A14 		ubfx	r4, r4, #4, #11
  66              	.LVL5:
1538:Libraries/STM32F4xx_HAL_Driver/Src/stm32f4xx_hal_hcd.c **** 
1539:Libraries/STM32F4xx_HAL_Driver/Src/stm32f4xx_hal_hcd.c ****   switch (pktsts)
  67              		.loc 1 1539 3 is_stmt 1 view .LVU18
  68 0012 022B     		cmp	r3, #2
  69 0014 00D0     		beq	.L4
  70              	.LVL6:
  71              	.L1:
1540:Libraries/STM32F4xx_HAL_Driver/Src/stm32f4xx_hal_hcd.c ****   {
1541:Libraries/STM32F4xx_HAL_Driver/Src/stm32f4xx_hal_hcd.c ****     case GRXSTS_PKTSTS_IN:
1542:Libraries/STM32F4xx_HAL_Driver/Src/stm32f4xx_hal_hcd.c ****       /* Read the data into the host buffer. */
1543:Libraries/STM32F4xx_HAL_Driver/Src/stm32f4xx_hal_hcd.c ****       if ((pktcnt > 0U) && (hhcd->hc[ch_num].xfer_buff != (void *)0))
1544:Libraries/STM32F4xx_HAL_Driver/Src/stm32f4xx_hal_hcd.c ****       {
1545:Libraries/STM32F4xx_HAL_Driver/Src/stm32f4xx_hal_hcd.c ****         (void)USB_ReadPacket(hhcd->Instance, hhcd->hc[ch_num].xfer_buff, (uint16_t)pktcnt);
1546:Libraries/STM32F4xx_HAL_Driver/Src/stm32f4xx_hal_hcd.c **** 
1547:Libraries/STM32F4xx_HAL_Driver/Src/stm32f4xx_hal_hcd.c ****         /*manage multiple Xfer */
1548:Libraries/STM32F4xx_HAL_Driver/Src/stm32f4xx_hal_hcd.c ****         hhcd->hc[ch_num].xfer_buff += pktcnt;
1549:Libraries/STM32F4xx_HAL_Driver/Src/stm32f4xx_hal_hcd.c ****         hhcd->hc[ch_num].xfer_count  += pktcnt;
1550:Libraries/STM32F4xx_HAL_Driver/Src/stm32f4xx_hal_hcd.c **** 
1551:Libraries/STM32F4xx_HAL_Driver/Src/stm32f4xx_hal_hcd.c ****         if ((USBx_HC(ch_num)->HCTSIZ & USB_OTG_HCTSIZ_PKTCNT) > 0U)
1552:Libraries/STM32F4xx_HAL_Driver/Src/stm32f4xx_hal_hcd.c ****         {
1553:Libraries/STM32F4xx_HAL_Driver/Src/stm32f4xx_hal_hcd.c ****           /* re-activate the channel when more packets are expected */
1554:Libraries/STM32F4xx_HAL_Driver/Src/stm32f4xx_hal_hcd.c ****           tmpreg = USBx_HC(ch_num)->HCCHAR;
1555:Libraries/STM32F4xx_HAL_Driver/Src/stm32f4xx_hal_hcd.c ****           tmpreg &= ~USB_OTG_HCCHAR_CHDIS;
1556:Libraries/STM32F4xx_HAL_Driver/Src/stm32f4xx_hal_hcd.c ****           tmpreg |= USB_OTG_HCCHAR_CHENA;
1557:Libraries/STM32F4xx_HAL_Driver/Src/stm32f4xx_hal_hcd.c ****           USBx_HC(ch_num)->HCCHAR = tmpreg;
1558:Libraries/STM32F4xx_HAL_Driver/Src/stm32f4xx_hal_hcd.c ****           hhcd->hc[ch_num].toggle_in ^= 1U;
1559:Libraries/STM32F4xx_HAL_Driver/Src/stm32f4xx_hal_hcd.c ****         }
1560:Libraries/STM32F4xx_HAL_Driver/Src/stm32f4xx_hal_hcd.c ****       }
1561:Libraries/STM32F4xx_HAL_Driver/Src/stm32f4xx_hal_hcd.c ****       break;
1562:Libraries/STM32F4xx_HAL_Driver/Src/stm32f4xx_hal_hcd.c **** 
1563:Libraries/STM32F4xx_HAL_Driver/Src/stm32f4xx_hal_hcd.c ****     case GRXSTS_PKTSTS_DATA_TOGGLE_ERR:
1564:Libraries/STM32F4xx_HAL_Driver/Src/stm32f4xx_hal_hcd.c ****       break;
1565:Libraries/STM32F4xx_HAL_Driver/Src/stm32f4xx_hal_hcd.c **** 
1566:Libraries/STM32F4xx_HAL_Driver/Src/stm32f4xx_hal_hcd.c ****     case GRXSTS_PKTSTS_IN_XFER_COMP:
1567:Libraries/STM32F4xx_HAL_Driver/Src/stm32f4xx_hal_hcd.c ****     case GRXSTS_PKTSTS_CH_HALTED:
1568:Libraries/STM32F4xx_HAL_Driver/Src/stm32f4xx_hal_hcd.c ****     default:
1569:Libraries/STM32F4xx_HAL_Driver/Src/stm32f4xx_hal_hcd.c ****       break;
1570:Libraries/STM32F4xx_HAL_Driver/Src/stm32f4xx_hal_hcd.c ****   }
1571:Libraries/STM32F4xx_HAL_Driver/Src/stm32f4xx_hal_hcd.c **** }
  72              		.loc 1 1571 1 is_stmt 0 view .LVU19
  73 0016 F8BD     		pop	{r3, r4, r5, r6, r7, pc}
  74              	.LVL7:
  75              	.L4:
  76              		.loc 1 1571 1 view .LVU20
  77 0018 0546     		mov	r5, r0
1543:Libraries/STM32F4xx_HAL_Driver/Src/stm32f4xx_hal_hcd.c ****       {
  78              		.loc 1 1543 7 is_stmt 1 view .LVU21
1543:Libraries/STM32F4xx_HAL_Driver/Src/stm32f4xx_hal_hcd.c ****       {
  79              		.loc 1 1543 10 is_stmt 0 view .LVU22
  80 001a 002C     		cmp	r4, #0
  81 001c FBD0     		beq	.L1
ARM GAS  C:\Users\yzy\AppData\Local\Temp\cco1yVr9.s 			page 30


1543:Libraries/STM32F4xx_HAL_Driver/Src/stm32f4xx_hal_hcd.c ****       {
  82              		.loc 1 1543 45 discriminator 1 view .LVU23
  83 001e 07EB8703 		add	r3, r7, r7, lsl #2
  84              	.LVL8:
1543:Libraries/STM32F4xx_HAL_Driver/Src/stm32f4xx_hal_hcd.c ****       {
  85              		.loc 1 1543 45 discriminator 1 view .LVU24
  86 0022 00EBC303 		add	r3, r0, r3, lsl #3
  87 0026 596C     		ldr	r1, [r3, #68]
1543:Libraries/STM32F4xx_HAL_Driver/Src/stm32f4xx_hal_hcd.c ****       {
  88              		.loc 1 1543 25 discriminator 1 view .LVU25
  89 0028 0029     		cmp	r1, #0
  90 002a F4D0     		beq	.L1
1545:Libraries/STM32F4xx_HAL_Driver/Src/stm32f4xx_hal_hcd.c **** 
  91              		.loc 1 1545 9 is_stmt 1 view .LVU26
1545:Libraries/STM32F4xx_HAL_Driver/Src/stm32f4xx_hal_hcd.c **** 
  92              		.loc 1 1545 15 is_stmt 0 view .LVU27
  93 002c 2246     		mov	r2, r4
  94 002e 3046     		mov	r0, r6
  95              	.LVL9:
1545:Libraries/STM32F4xx_HAL_Driver/Src/stm32f4xx_hal_hcd.c **** 
  96              		.loc 1 1545 15 view .LVU28
  97 0030 FFF7FEFF 		bl	USB_ReadPacket
  98              	.LVL10:
1548:Libraries/STM32F4xx_HAL_Driver/Src/stm32f4xx_hal_hcd.c ****         hhcd->hc[ch_num].xfer_count  += pktcnt;
  99              		.loc 1 1548 9 is_stmt 1 view .LVU29
1548:Libraries/STM32F4xx_HAL_Driver/Src/stm32f4xx_hal_hcd.c ****         hhcd->hc[ch_num].xfer_count  += pktcnt;
 100              		.loc 1 1548 36 is_stmt 0 view .LVU30
 101 0034 07EB8703 		add	r3, r7, r7, lsl #2
 102 0038 05EBC303 		add	r3, r5, r3, lsl #3
 103 003c 5A6C     		ldr	r2, [r3, #68]
 104 003e 2244     		add	r2, r2, r4
 105 0040 5A64     		str	r2, [r3, #68]
1549:Libraries/STM32F4xx_HAL_Driver/Src/stm32f4xx_hal_hcd.c **** 
 106              		.loc 1 1549 9 is_stmt 1 view .LVU31
1549:Libraries/STM32F4xx_HAL_Driver/Src/stm32f4xx_hal_hcd.c **** 
 107              		.loc 1 1549 38 is_stmt 0 view .LVU32
 108 0042 DA6C     		ldr	r2, [r3, #76]
 109 0044 2244     		add	r2, r2, r4
 110 0046 DA64     		str	r2, [r3, #76]
1551:Libraries/STM32F4xx_HAL_Driver/Src/stm32f4xx_hal_hcd.c ****         {
 111              		.loc 1 1551 9 is_stmt 1 view .LVU33
1551:Libraries/STM32F4xx_HAL_Driver/Src/stm32f4xx_hal_hcd.c ****         {
 112              		.loc 1 1551 14 is_stmt 0 view .LVU34
 113 0048 06EB4716 		add	r6, r6, r7, lsl #5
 114              	.LVL11:
1551:Libraries/STM32F4xx_HAL_Driver/Src/stm32f4xx_hal_hcd.c ****         {
 115              		.loc 1 1551 29 view .LVU35
 116 004c D6F81025 		ldr	r2, [r6, #1296]
1551:Libraries/STM32F4xx_HAL_Driver/Src/stm32f4xx_hal_hcd.c ****         {
 117              		.loc 1 1551 38 view .LVU36
 118 0050 0B4B     		ldr	r3, .L5
 119 0052 1340     		ands	r3, r3, r2
1551:Libraries/STM32F4xx_HAL_Driver/Src/stm32f4xx_hal_hcd.c ****         {
 120              		.loc 1 1551 12 view .LVU37
 121 0054 002B     		cmp	r3, #0
 122 0056 DED0     		beq	.L1
1554:Libraries/STM32F4xx_HAL_Driver/Src/stm32f4xx_hal_hcd.c ****           tmpreg &= ~USB_OTG_HCCHAR_CHDIS;
ARM GAS  C:\Users\yzy\AppData\Local\Temp\cco1yVr9.s 			page 31


 123              		.loc 1 1554 11 is_stmt 1 view .LVU38
1554:Libraries/STM32F4xx_HAL_Driver/Src/stm32f4xx_hal_hcd.c ****           tmpreg &= ~USB_OTG_HCCHAR_CHDIS;
 124              		.loc 1 1554 18 is_stmt 0 view .LVU39
 125 0058 D6F80035 		ldr	r3, [r6, #1280]
 126              	.LVL12:
1555:Libraries/STM32F4xx_HAL_Driver/Src/stm32f4xx_hal_hcd.c ****           tmpreg |= USB_OTG_HCCHAR_CHENA;
 127              		.loc 1 1555 11 is_stmt 1 view .LVU40
1555:Libraries/STM32F4xx_HAL_Driver/Src/stm32f4xx_hal_hcd.c ****           tmpreg |= USB_OTG_HCCHAR_CHENA;
 128              		.loc 1 1555 18 is_stmt 0 view .LVU41
 129 005c 23F08043 		bic	r3, r3, #1073741824
 130              	.LVL13:
1556:Libraries/STM32F4xx_HAL_Driver/Src/stm32f4xx_hal_hcd.c ****           USBx_HC(ch_num)->HCCHAR = tmpreg;
 131              		.loc 1 1556 11 is_stmt 1 view .LVU42
1556:Libraries/STM32F4xx_HAL_Driver/Src/stm32f4xx_hal_hcd.c ****           USBx_HC(ch_num)->HCCHAR = tmpreg;
 132              		.loc 1 1556 18 is_stmt 0 view .LVU43
 133 0060 43F00043 		orr	r3, r3, #-2147483648
 134              	.LVL14:
1557:Libraries/STM32F4xx_HAL_Driver/Src/stm32f4xx_hal_hcd.c ****           hhcd->hc[ch_num].toggle_in ^= 1U;
 135              		.loc 1 1557 11 is_stmt 1 view .LVU44
1557:Libraries/STM32F4xx_HAL_Driver/Src/stm32f4xx_hal_hcd.c ****           hhcd->hc[ch_num].toggle_in ^= 1U;
 136              		.loc 1 1557 35 is_stmt 0 view .LVU45
 137 0064 C6F80035 		str	r3, [r6, #1280]
1558:Libraries/STM32F4xx_HAL_Driver/Src/stm32f4xx_hal_hcd.c ****         }
 138              		.loc 1 1558 11 is_stmt 1 view .LVU46
1558:Libraries/STM32F4xx_HAL_Driver/Src/stm32f4xx_hal_hcd.c ****         }
 139              		.loc 1 1558 38 is_stmt 0 view .LVU47
 140 0068 07EB8703 		add	r3, r7, r7, lsl #2
 141              	.LVL15:
1558:Libraries/STM32F4xx_HAL_Driver/Src/stm32f4xx_hal_hcd.c ****         }
 142              		.loc 1 1558 38 view .LVU48
 143 006c 05EBC303 		add	r3, r5, r3, lsl #3
 144 0070 93F85020 		ldrb	r2, [r3, #80]	@ zero_extendqisi2
 145 0074 82F00102 		eor	r2, r2, #1
 146 0078 83F85020 		strb	r2, [r3, #80]
 147              	.LVL16:
 148              		.loc 1 1571 1 view .LVU49
 149 007c CBE7     		b	.L1
 150              	.L6:
 151 007e 00BF     		.align	2
 152              	.L5:
 153 0080 0000F81F 		.word	536346624
 154              		.cfi_endproc
 155              	.LFE156:
 157              		.section	.text.HAL_HCD_HC_Init,"ax",%progbits
 158              		.align	1
 159              		.global	HAL_HCD_HC_Init
 160              		.syntax unified
 161              		.thumb
 162              		.thumb_func
 163              		.fpu softvfp
 165              	HAL_HCD_HC_Init:
 166              	.LVL17:
 167              	.LFB131:
 208:Libraries/STM32F4xx_HAL_Driver/Src/stm32f4xx_hal_hcd.c ****   HAL_StatusTypeDef status;
 168              		.loc 1 208 1 is_stmt 1 view -0
 169              		.cfi_startproc
 170              		@ args = 12, pretend = 0, frame = 0
ARM GAS  C:\Users\yzy\AppData\Local\Temp\cco1yVr9.s 			page 32


 171              		@ frame_needed = 0, uses_anonymous_args = 0
 208:Libraries/STM32F4xx_HAL_Driver/Src/stm32f4xx_hal_hcd.c ****   HAL_StatusTypeDef status;
 172              		.loc 1 208 1 is_stmt 0 view .LVU51
 173 0000 F0B5     		push	{r4, r5, r6, r7, lr}
 174              	.LCFI1:
 175              		.cfi_def_cfa_offset 20
 176              		.cfi_offset 4, -20
 177              		.cfi_offset 5, -16
 178              		.cfi_offset 6, -12
 179              		.cfi_offset 7, -8
 180              		.cfi_offset 14, -4
 181 0002 85B0     		sub	sp, sp, #20
 182              	.LCFI2:
 183              		.cfi_def_cfa_offset 40
 184 0004 0446     		mov	r4, r0
 185 0006 9DF82850 		ldrb	r5, [sp, #40]	@ zero_extendqisi2
 186 000a 9DF82C60 		ldrb	r6, [sp, #44]	@ zero_extendqisi2
 187 000e BDF83070 		ldrh	r7, [sp, #48]
 209:Libraries/STM32F4xx_HAL_Driver/Src/stm32f4xx_hal_hcd.c **** 
 188              		.loc 1 209 3 is_stmt 1 view .LVU52
 211:Libraries/STM32F4xx_HAL_Driver/Src/stm32f4xx_hal_hcd.c ****   hhcd->hc[ch_num].do_ping = 0U;
 189              		.loc 1 211 3 view .LVU53
 211:Libraries/STM32F4xx_HAL_Driver/Src/stm32f4xx_hal_hcd.c ****   hhcd->hc[ch_num].do_ping = 0U;
 190              		.loc 1 211 3 view .LVU54
 191 0012 90F8B802 		ldrb	r0, [r0, #696]	@ zero_extendqisi2
 192              	.LVL18:
 211:Libraries/STM32F4xx_HAL_Driver/Src/stm32f4xx_hal_hcd.c ****   hhcd->hc[ch_num].do_ping = 0U;
 193              		.loc 1 211 3 is_stmt 0 view .LVU55
 194 0016 0128     		cmp	r0, #1
 195 0018 3BD0     		beq	.L11
 211:Libraries/STM32F4xx_HAL_Driver/Src/stm32f4xx_hal_hcd.c ****   hhcd->hc[ch_num].do_ping = 0U;
 196              		.loc 1 211 3 is_stmt 1 discriminator 2 view .LVU56
 197 001a 0120     		movs	r0, #1
 198 001c 84F8B802 		strb	r0, [r4, #696]
 211:Libraries/STM32F4xx_HAL_Driver/Src/stm32f4xx_hal_hcd.c ****   hhcd->hc[ch_num].do_ping = 0U;
 199              		.loc 1 211 3 discriminator 2 view .LVU57
 212:Libraries/STM32F4xx_HAL_Driver/Src/stm32f4xx_hal_hcd.c ****   hhcd->hc[ch_num].dev_addr = dev_address;
 200              		.loc 1 212 3 discriminator 2 view .LVU58
 212:Libraries/STM32F4xx_HAL_Driver/Src/stm32f4xx_hal_hcd.c ****   hhcd->hc[ch_num].dev_addr = dev_address;
 201              		.loc 1 212 28 is_stmt 0 discriminator 2 view .LVU59
 202 0020 01EB8100 		add	r0, r1, r1, lsl #2
 203 0024 04EBC000 		add	r0, r4, r0, lsl #3
 204 0028 4FF0000C 		mov	ip, #0
 205 002c 80F83DC0 		strb	ip, [r0, #61]
 213:Libraries/STM32F4xx_HAL_Driver/Src/stm32f4xx_hal_hcd.c ****   hhcd->hc[ch_num].max_packet = mps;
 206              		.loc 1 213 3 is_stmt 1 discriminator 2 view .LVU60
 213:Libraries/STM32F4xx_HAL_Driver/Src/stm32f4xx_hal_hcd.c ****   hhcd->hc[ch_num].max_packet = mps;
 207              		.loc 1 213 29 is_stmt 0 discriminator 2 view .LVU61
 208 0030 80F83830 		strb	r3, [r0, #56]
 214:Libraries/STM32F4xx_HAL_Driver/Src/stm32f4xx_hal_hcd.c ****   hhcd->hc[ch_num].ch_num = ch_num;
 209              		.loc 1 214 3 is_stmt 1 discriminator 2 view .LVU62
 214:Libraries/STM32F4xx_HAL_Driver/Src/stm32f4xx_hal_hcd.c ****   hhcd->hc[ch_num].ch_num = ch_num;
 210              		.loc 1 214 31 is_stmt 0 discriminator 2 view .LVU63
 211 0034 A0F84070 		strh	r7, [r0, #64]	@ movhi
 215:Libraries/STM32F4xx_HAL_Driver/Src/stm32f4xx_hal_hcd.c ****   hhcd->hc[ch_num].ep_type = ep_type;
 212              		.loc 1 215 3 is_stmt 1 discriminator 2 view .LVU64
 215:Libraries/STM32F4xx_HAL_Driver/Src/stm32f4xx_hal_hcd.c ****   hhcd->hc[ch_num].ep_type = ep_type;
ARM GAS  C:\Users\yzy\AppData\Local\Temp\cco1yVr9.s 			page 33


 213              		.loc 1 215 27 is_stmt 0 discriminator 2 view .LVU65
 214 0038 80F83910 		strb	r1, [r0, #57]
 216:Libraries/STM32F4xx_HAL_Driver/Src/stm32f4xx_hal_hcd.c ****   hhcd->hc[ch_num].ep_num = epnum & 0x7FU;
 215              		.loc 1 216 3 is_stmt 1 discriminator 2 view .LVU66
 216:Libraries/STM32F4xx_HAL_Driver/Src/stm32f4xx_hal_hcd.c ****   hhcd->hc[ch_num].ep_num = epnum & 0x7FU;
 216              		.loc 1 216 28 is_stmt 0 discriminator 2 view .LVU67
 217 003c 80F83F60 		strb	r6, [r0, #63]
 217:Libraries/STM32F4xx_HAL_Driver/Src/stm32f4xx_hal_hcd.c **** 
 218              		.loc 1 217 3 is_stmt 1 discriminator 2 view .LVU68
 217:Libraries/STM32F4xx_HAL_Driver/Src/stm32f4xx_hal_hcd.c **** 
 219              		.loc 1 217 35 is_stmt 0 discriminator 2 view .LVU69
 220 0040 02F07F0C 		and	ip, r2, #127
 217:Libraries/STM32F4xx_HAL_Driver/Src/stm32f4xx_hal_hcd.c **** 
 221              		.loc 1 217 27 discriminator 2 view .LVU70
 222 0044 80F83AC0 		strb	ip, [r0, #58]
 219:Libraries/STM32F4xx_HAL_Driver/Src/stm32f4xx_hal_hcd.c ****   {
 223              		.loc 1 219 3 is_stmt 1 discriminator 2 view .LVU71
 219:Libraries/STM32F4xx_HAL_Driver/Src/stm32f4xx_hal_hcd.c ****   {
 224              		.loc 1 219 6 is_stmt 0 discriminator 2 view .LVU72
 225 0048 12F0800F 		tst	r2, #128
 226 004c 18D1     		bne	.L13
 225:Libraries/STM32F4xx_HAL_Driver/Src/stm32f4xx_hal_hcd.c ****   }
 227              		.loc 1 225 5 is_stmt 1 view .LVU73
 225:Libraries/STM32F4xx_HAL_Driver/Src/stm32f4xx_hal_hcd.c ****   }
 228              		.loc 1 225 31 is_stmt 0 view .LVU74
 229 004e 01EB8100 		add	r0, r1, r1, lsl #2
 230 0052 04EBC000 		add	r0, r4, r0, lsl #3
 231 0056 4FF0000C 		mov	ip, #0
 232 005a 80F83BC0 		strb	ip, [r0, #59]
 233              	.L10:
 228:Libraries/STM32F4xx_HAL_Driver/Src/stm32f4xx_hal_hcd.c **** 
 234              		.loc 1 228 3 is_stmt 1 view .LVU75
 228:Libraries/STM32F4xx_HAL_Driver/Src/stm32f4xx_hal_hcd.c **** 
 235              		.loc 1 228 26 is_stmt 0 view .LVU76
 236 005e 01EB8100 		add	r0, r1, r1, lsl #2
 237 0062 04EBC000 		add	r0, r4, r0, lsl #3
 238 0066 80F83C50 		strb	r5, [r0, #60]
 230:Libraries/STM32F4xx_HAL_Driver/Src/stm32f4xx_hal_hcd.c ****                         ch_num,
 239              		.loc 1 230 3 is_stmt 1 view .LVU77
 230:Libraries/STM32F4xx_HAL_Driver/Src/stm32f4xx_hal_hcd.c ****                         ch_num,
 240              		.loc 1 230 13 is_stmt 0 view .LVU78
 241 006a 0297     		str	r7, [sp, #8]
 242 006c 0196     		str	r6, [sp, #4]
 243 006e 0095     		str	r5, [sp]
 244 0070 2068     		ldr	r0, [r4]
 245 0072 FFF7FEFF 		bl	USB_HC_Init
 246              	.LVL19:
 237:Libraries/STM32F4xx_HAL_Driver/Src/stm32f4xx_hal_hcd.c **** 
 247              		.loc 1 237 3 is_stmt 1 view .LVU79
 237:Libraries/STM32F4xx_HAL_Driver/Src/stm32f4xx_hal_hcd.c **** 
 248              		.loc 1 237 3 view .LVU80
 249 0076 0023     		movs	r3, #0
 250 0078 84F8B832 		strb	r3, [r4, #696]
 237:Libraries/STM32F4xx_HAL_Driver/Src/stm32f4xx_hal_hcd.c **** 
 251              		.loc 1 237 3 view .LVU81
 239:Libraries/STM32F4xx_HAL_Driver/Src/stm32f4xx_hal_hcd.c **** }
 252              		.loc 1 239 3 view .LVU82
ARM GAS  C:\Users\yzy\AppData\Local\Temp\cco1yVr9.s 			page 34


 253              	.LVL20:
 254              	.L8:
 240:Libraries/STM32F4xx_HAL_Driver/Src/stm32f4xx_hal_hcd.c **** 
 255              		.loc 1 240 1 is_stmt 0 view .LVU83
 256 007c 05B0     		add	sp, sp, #20
 257              	.LCFI3:
 258              		.cfi_remember_state
 259              		.cfi_def_cfa_offset 20
 260              		@ sp needed
 261 007e F0BD     		pop	{r4, r5, r6, r7, pc}
 262              	.LVL21:
 263              	.L13:
 264              	.LCFI4:
 265              		.cfi_restore_state
 221:Libraries/STM32F4xx_HAL_Driver/Src/stm32f4xx_hal_hcd.c ****   }
 266              		.loc 1 221 5 is_stmt 1 view .LVU84
 221:Libraries/STM32F4xx_HAL_Driver/Src/stm32f4xx_hal_hcd.c ****   }
 267              		.loc 1 221 31 is_stmt 0 view .LVU85
 268 0080 01EB8100 		add	r0, r1, r1, lsl #2
 269 0084 04EBC000 		add	r0, r4, r0, lsl #3
 270 0088 4FF0010C 		mov	ip, #1
 271 008c 80F83BC0 		strb	ip, [r0, #59]
 272 0090 E5E7     		b	.L10
 273              	.L11:
 211:Libraries/STM32F4xx_HAL_Driver/Src/stm32f4xx_hal_hcd.c ****   hhcd->hc[ch_num].do_ping = 0U;
 274              		.loc 1 211 3 view .LVU86
 275 0092 0220     		movs	r0, #2
 276 0094 F2E7     		b	.L8
 277              		.cfi_endproc
 278              	.LFE131:
 280              		.section	.text.HAL_HCD_HC_Halt,"ax",%progbits
 281              		.align	1
 282              		.global	HAL_HCD_HC_Halt
 283              		.syntax unified
 284              		.thumb
 285              		.thumb_func
 286              		.fpu softvfp
 288              	HAL_HCD_HC_Halt:
 289              	.LVL22:
 290              	.LFB132:
 250:Libraries/STM32F4xx_HAL_Driver/Src/stm32f4xx_hal_hcd.c ****   HAL_StatusTypeDef status = HAL_OK;
 291              		.loc 1 250 1 is_stmt 1 view -0
 292              		.cfi_startproc
 293              		@ args = 0, pretend = 0, frame = 0
 294              		@ frame_needed = 0, uses_anonymous_args = 0
 251:Libraries/STM32F4xx_HAL_Driver/Src/stm32f4xx_hal_hcd.c **** 
 295              		.loc 1 251 3 view .LVU88
 253:Libraries/STM32F4xx_HAL_Driver/Src/stm32f4xx_hal_hcd.c ****   (void)USB_HC_Halt(hhcd->Instance, (uint8_t)ch_num);
 296              		.loc 1 253 3 view .LVU89
 253:Libraries/STM32F4xx_HAL_Driver/Src/stm32f4xx_hal_hcd.c ****   (void)USB_HC_Halt(hhcd->Instance, (uint8_t)ch_num);
 297              		.loc 1 253 3 view .LVU90
 298 0000 90F8B832 		ldrb	r3, [r0, #696]	@ zero_extendqisi2
 299 0004 012B     		cmp	r3, #1
 300 0006 0BD0     		beq	.L16
 250:Libraries/STM32F4xx_HAL_Driver/Src/stm32f4xx_hal_hcd.c ****   HAL_StatusTypeDef status = HAL_OK;
 301              		.loc 1 250 1 is_stmt 0 discriminator 2 view .LVU91
 302 0008 10B5     		push	{r4, lr}
ARM GAS  C:\Users\yzy\AppData\Local\Temp\cco1yVr9.s 			page 35


 303              	.LCFI5:
 304              		.cfi_def_cfa_offset 8
 305              		.cfi_offset 4, -8
 306              		.cfi_offset 14, -4
 307 000a 0446     		mov	r4, r0
 253:Libraries/STM32F4xx_HAL_Driver/Src/stm32f4xx_hal_hcd.c ****   (void)USB_HC_Halt(hhcd->Instance, (uint8_t)ch_num);
 308              		.loc 1 253 3 is_stmt 1 discriminator 2 view .LVU92
 309 000c 0123     		movs	r3, #1
 310 000e 80F8B832 		strb	r3, [r0, #696]
 253:Libraries/STM32F4xx_HAL_Driver/Src/stm32f4xx_hal_hcd.c ****   (void)USB_HC_Halt(hhcd->Instance, (uint8_t)ch_num);
 311              		.loc 1 253 3 discriminator 2 view .LVU93
 254:Libraries/STM32F4xx_HAL_Driver/Src/stm32f4xx_hal_hcd.c ****   __HAL_UNLOCK(hhcd);
 312              		.loc 1 254 3 discriminator 2 view .LVU94
 254:Libraries/STM32F4xx_HAL_Driver/Src/stm32f4xx_hal_hcd.c ****   __HAL_UNLOCK(hhcd);
 313              		.loc 1 254 9 is_stmt 0 discriminator 2 view .LVU95
 314 0012 0068     		ldr	r0, [r0]
 315              	.LVL23:
 254:Libraries/STM32F4xx_HAL_Driver/Src/stm32f4xx_hal_hcd.c ****   __HAL_UNLOCK(hhcd);
 316              		.loc 1 254 9 discriminator 2 view .LVU96
 317 0014 FFF7FEFF 		bl	USB_HC_Halt
 318              	.LVL24:
 255:Libraries/STM32F4xx_HAL_Driver/Src/stm32f4xx_hal_hcd.c **** 
 319              		.loc 1 255 3 is_stmt 1 discriminator 2 view .LVU97
 255:Libraries/STM32F4xx_HAL_Driver/Src/stm32f4xx_hal_hcd.c **** 
 320              		.loc 1 255 3 discriminator 2 view .LVU98
 321 0018 0020     		movs	r0, #0
 322 001a 84F8B802 		strb	r0, [r4, #696]
 255:Libraries/STM32F4xx_HAL_Driver/Src/stm32f4xx_hal_hcd.c **** 
 323              		.loc 1 255 3 discriminator 2 view .LVU99
 257:Libraries/STM32F4xx_HAL_Driver/Src/stm32f4xx_hal_hcd.c **** }
 324              		.loc 1 257 3 discriminator 2 view .LVU100
 258:Libraries/STM32F4xx_HAL_Driver/Src/stm32f4xx_hal_hcd.c **** 
 325              		.loc 1 258 1 is_stmt 0 discriminator 2 view .LVU101
 326 001e 10BD     		pop	{r4, pc}
 327              	.LVL25:
 328              	.L16:
 329              	.LCFI6:
 330              		.cfi_def_cfa_offset 0
 331              		.cfi_restore 4
 332              		.cfi_restore 14
 253:Libraries/STM32F4xx_HAL_Driver/Src/stm32f4xx_hal_hcd.c ****   (void)USB_HC_Halt(hhcd->Instance, (uint8_t)ch_num);
 333              		.loc 1 253 3 view .LVU102
 334 0020 0220     		movs	r0, #2
 335              	.LVL26:
 258:Libraries/STM32F4xx_HAL_Driver/Src/stm32f4xx_hal_hcd.c **** 
 336              		.loc 1 258 1 view .LVU103
 337 0022 7047     		bx	lr
 338              		.cfi_endproc
 339              	.LFE132:
 341              		.section	.text.HAL_HCD_MspInit,"ax",%progbits
 342              		.align	1
 343              		.weak	HAL_HCD_MspInit
 344              		.syntax unified
 345              		.thumb
 346              		.thumb_func
 347              		.fpu softvfp
 349              	HAL_HCD_MspInit:
ARM GAS  C:\Users\yzy\AppData\Local\Temp\cco1yVr9.s 			page 36


 350              	.LVL27:
 351              	.LFB134:
 301:Libraries/STM32F4xx_HAL_Driver/Src/stm32f4xx_hal_hcd.c ****   /* Prevent unused argument(s) compilation warning */
 352              		.loc 1 301 1 is_stmt 1 view -0
 353              		.cfi_startproc
 354              		@ args = 0, pretend = 0, frame = 0
 355              		@ frame_needed = 0, uses_anonymous_args = 0
 356              		@ link register save eliminated.
 303:Libraries/STM32F4xx_HAL_Driver/Src/stm32f4xx_hal_hcd.c **** 
 357              		.loc 1 303 3 view .LVU105
 308:Libraries/STM32F4xx_HAL_Driver/Src/stm32f4xx_hal_hcd.c **** 
 358              		.loc 1 308 1 is_stmt 0 view .LVU106
 359 0000 7047     		bx	lr
 360              		.cfi_endproc
 361              	.LFE134:
 363              		.section	.text.HAL_HCD_Init,"ax",%progbits
 364              		.align	1
 365              		.global	HAL_HCD_Init
 366              		.syntax unified
 367              		.thumb
 368              		.thumb_func
 369              		.fpu softvfp
 371              	HAL_HCD_Init:
 372              	.LVL28:
 373              	.LFB130:
 112:Libraries/STM32F4xx_HAL_Driver/Src/stm32f4xx_hal_hcd.c ****   USB_OTG_GlobalTypeDef *USBx;
 374              		.loc 1 112 1 is_stmt 1 view -0
 375              		.cfi_startproc
 376              		@ args = 0, pretend = 0, frame = 0
 377              		@ frame_needed = 0, uses_anonymous_args = 0
 113:Libraries/STM32F4xx_HAL_Driver/Src/stm32f4xx_hal_hcd.c **** 
 378              		.loc 1 113 3 view .LVU108
 116:Libraries/STM32F4xx_HAL_Driver/Src/stm32f4xx_hal_hcd.c ****   {
 379              		.loc 1 116 3 view .LVU109
 116:Libraries/STM32F4xx_HAL_Driver/Src/stm32f4xx_hal_hcd.c ****   {
 380              		.loc 1 116 6 is_stmt 0 view .LVU110
 381 0000 0028     		cmp	r0, #0
 382 0002 45D0     		beq	.L26
 112:Libraries/STM32F4xx_HAL_Driver/Src/stm32f4xx_hal_hcd.c ****   USB_OTG_GlobalTypeDef *USBx;
 383              		.loc 1 112 1 view .LVU111
 384 0004 F0B5     		push	{r4, r5, r6, r7, lr}
 385              	.LCFI7:
 386              		.cfi_def_cfa_offset 20
 387              		.cfi_offset 4, -20
 388              		.cfi_offset 5, -16
 389              		.cfi_offset 6, -12
 390              		.cfi_offset 7, -8
 391              		.cfi_offset 14, -4
 392 0006 8BB0     		sub	sp, sp, #44
 393              	.LCFI8:
 394              		.cfi_def_cfa_offset 64
 395 0008 0646     		mov	r6, r0
 122:Libraries/STM32F4xx_HAL_Driver/Src/stm32f4xx_hal_hcd.c **** 
 396              		.loc 1 122 3 is_stmt 1 view .LVU112
 124:Libraries/STM32F4xx_HAL_Driver/Src/stm32f4xx_hal_hcd.c **** 
 397              		.loc 1 124 3 view .LVU113
 124:Libraries/STM32F4xx_HAL_Driver/Src/stm32f4xx_hal_hcd.c **** 
ARM GAS  C:\Users\yzy\AppData\Local\Temp\cco1yVr9.s 			page 37


 398              		.loc 1 124 8 is_stmt 0 view .LVU114
 399 000a 0468     		ldr	r4, [r0]
 400              	.LVL29:
 126:Libraries/STM32F4xx_HAL_Driver/Src/stm32f4xx_hal_hcd.c ****   {
 401              		.loc 1 126 3 is_stmt 1 view .LVU115
 126:Libraries/STM32F4xx_HAL_Driver/Src/stm32f4xx_hal_hcd.c ****   {
 402              		.loc 1 126 11 is_stmt 0 view .LVU116
 403 000c 90F8B932 		ldrb	r3, [r0, #697]	@ zero_extendqisi2
 126:Libraries/STM32F4xx_HAL_Driver/Src/stm32f4xx_hal_hcd.c ****   {
 404              		.loc 1 126 6 view .LVU117
 405 0010 002B     		cmp	r3, #0
 406 0012 38D0     		beq	.L31
 407              	.LVL30:
 408              	.L24:
 152:Libraries/STM32F4xx_HAL_Driver/Src/stm32f4xx_hal_hcd.c **** 
 409              		.loc 1 152 3 is_stmt 1 view .LVU118
 152:Libraries/STM32F4xx_HAL_Driver/Src/stm32f4xx_hal_hcd.c **** 
 410              		.loc 1 152 15 is_stmt 0 view .LVU119
 411 0014 0323     		movs	r3, #3
 412 0016 86F8B932 		strb	r3, [r6, #697]
 155:Libraries/STM32F4xx_HAL_Driver/Src/stm32f4xx_hal_hcd.c ****   {
 413              		.loc 1 155 3 is_stmt 1 view .LVU120
 155:Libraries/STM32F4xx_HAL_Driver/Src/stm32f4xx_hal_hcd.c ****   {
 414              		.loc 1 155 12 is_stmt 0 view .LVU121
 415 001a E36B     		ldr	r3, [r4, #60]
 155:Libraries/STM32F4xx_HAL_Driver/Src/stm32f4xx_hal_hcd.c ****   {
 416              		.loc 1 155 6 view .LVU122
 417 001c 13F4807F 		tst	r3, #256
 418 0020 01D1     		bne	.L25
 157:Libraries/STM32F4xx_HAL_Driver/Src/stm32f4xx_hal_hcd.c ****   }
 419              		.loc 1 157 5 is_stmt 1 view .LVU123
 157:Libraries/STM32F4xx_HAL_Driver/Src/stm32f4xx_hal_hcd.c ****   }
 420              		.loc 1 157 27 is_stmt 0 view .LVU124
 421 0022 0023     		movs	r3, #0
 422 0024 3361     		str	r3, [r6, #16]
 423              	.L25:
 161:Libraries/STM32F4xx_HAL_Driver/Src/stm32f4xx_hal_hcd.c **** 
 424              		.loc 1 161 3 is_stmt 1 view .LVU125
 425 0026 3068     		ldr	r0, [r6]
 426 0028 FFF7FEFF 		bl	USB_DisableGlobalInt
 427              	.LVL31:
 164:Libraries/STM32F4xx_HAL_Driver/Src/stm32f4xx_hal_hcd.c **** 
 428              		.loc 1 164 3 view .LVU126
 164:Libraries/STM32F4xx_HAL_Driver/Src/stm32f4xx_hal_hcd.c **** 
 429              		.loc 1 164 26 is_stmt 0 view .LVU127
 430 002c 3446     		mov	r4, r6
 431              	.LVL32:
 164:Libraries/STM32F4xx_HAL_Driver/Src/stm32f4xx_hal_hcd.c **** 
 432              		.loc 1 164 26 view .LVU128
 433 002e 54F810CB 		ldr	ip, [r4], #16
 164:Libraries/STM32F4xx_HAL_Driver/Src/stm32f4xx_hal_hcd.c **** 
 434              		.loc 1 164 9 view .LVU129
 435 0032 6D46     		mov	r5, sp
 436 0034 0FCC     		ldmia	r4!, {r0, r1, r2, r3}
 437 0036 0FC5     		stmia	r5!, {r0, r1, r2, r3}
 438 0038 0FCC     		ldmia	r4!, {r0, r1, r2, r3}
 439 003a 0FC5     		stmia	r5!, {r0, r1, r2, r3}
ARM GAS  C:\Users\yzy\AppData\Local\Temp\cco1yVr9.s 			page 38


 440 003c 94E80300 		ldm	r4, {r0, r1}
 441 0040 85E80300 		stm	r5, {r0, r1}
 442 0044 371D     		adds	r7, r6, #4
 443 0046 97E80E00 		ldm	r7, {r1, r2, r3}
 444 004a 6046     		mov	r0, ip
 445 004c FFF7FEFF 		bl	USB_CoreInit
 446              	.LVL33:
 167:Libraries/STM32F4xx_HAL_Driver/Src/stm32f4xx_hal_hcd.c **** 
 447              		.loc 1 167 3 is_stmt 1 view .LVU130
 167:Libraries/STM32F4xx_HAL_Driver/Src/stm32f4xx_hal_hcd.c **** 
 448              		.loc 1 167 9 is_stmt 0 view .LVU131
 449 0050 0121     		movs	r1, #1
 450 0052 3068     		ldr	r0, [r6]
 451 0054 FFF7FEFF 		bl	USB_SetCurrentMode
 452              	.LVL34:
 170:Libraries/STM32F4xx_HAL_Driver/Src/stm32f4xx_hal_hcd.c **** 
 453              		.loc 1 170 3 is_stmt 1 view .LVU132
 170:Libraries/STM32F4xx_HAL_Driver/Src/stm32f4xx_hal_hcd.c **** 
 454              		.loc 1 170 26 is_stmt 0 view .LVU133
 455 0058 3446     		mov	r4, r6
 456 005a 54F810CB 		ldr	ip, [r4], #16
 170:Libraries/STM32F4xx_HAL_Driver/Src/stm32f4xx_hal_hcd.c **** 
 457              		.loc 1 170 9 view .LVU134
 458 005e 6D46     		mov	r5, sp
 459 0060 0FCC     		ldmia	r4!, {r0, r1, r2, r3}
 460 0062 0FC5     		stmia	r5!, {r0, r1, r2, r3}
 461 0064 0FCC     		ldmia	r4!, {r0, r1, r2, r3}
 462 0066 0FC5     		stmia	r5!, {r0, r1, r2, r3}
 463 0068 94E80300 		ldm	r4, {r0, r1}
 464 006c 85E80300 		stm	r5, {r0, r1}
 465 0070 97E80E00 		ldm	r7, {r1, r2, r3}
 466 0074 6046     		mov	r0, ip
 467 0076 FFF7FEFF 		bl	USB_HostInit
 468              	.LVL35:
 172:Libraries/STM32F4xx_HAL_Driver/Src/stm32f4xx_hal_hcd.c **** 
 469              		.loc 1 172 3 is_stmt 1 view .LVU135
 172:Libraries/STM32F4xx_HAL_Driver/Src/stm32f4xx_hal_hcd.c **** 
 470              		.loc 1 172 15 is_stmt 0 view .LVU136
 471 007a 0123     		movs	r3, #1
 472 007c 86F8B932 		strb	r3, [r6, #697]
 174:Libraries/STM32F4xx_HAL_Driver/Src/stm32f4xx_hal_hcd.c **** }
 473              		.loc 1 174 3 is_stmt 1 view .LVU137
 174:Libraries/STM32F4xx_HAL_Driver/Src/stm32f4xx_hal_hcd.c **** }
 474              		.loc 1 174 10 is_stmt 0 view .LVU138
 475 0080 0020     		movs	r0, #0
 175:Libraries/STM32F4xx_HAL_Driver/Src/stm32f4xx_hal_hcd.c **** 
 476              		.loc 1 175 1 view .LVU139
 477 0082 0BB0     		add	sp, sp, #44
 478              	.LCFI9:
 479              		.cfi_remember_state
 480              		.cfi_def_cfa_offset 20
 481              		@ sp needed
 482 0084 F0BD     		pop	{r4, r5, r6, r7, pc}
 483              	.LVL36:
 484              	.L31:
 485              	.LCFI10:
 486              		.cfi_restore_state
ARM GAS  C:\Users\yzy\AppData\Local\Temp\cco1yVr9.s 			page 39


 129:Libraries/STM32F4xx_HAL_Driver/Src/stm32f4xx_hal_hcd.c **** 
 487              		.loc 1 129 5 is_stmt 1 view .LVU140
 129:Libraries/STM32F4xx_HAL_Driver/Src/stm32f4xx_hal_hcd.c **** 
 488              		.loc 1 129 16 is_stmt 0 view .LVU141
 489 0086 80F8B832 		strb	r3, [r0, #696]
 148:Libraries/STM32F4xx_HAL_Driver/Src/stm32f4xx_hal_hcd.c **** #endif /* (USE_HAL_HCD_REGISTER_CALLBACKS) */
 490              		.loc 1 148 5 is_stmt 1 view .LVU142
 491 008a FFF7FEFF 		bl	HAL_HCD_MspInit
 492              	.LVL37:
 148:Libraries/STM32F4xx_HAL_Driver/Src/stm32f4xx_hal_hcd.c **** #endif /* (USE_HAL_HCD_REGISTER_CALLBACKS) */
 493              		.loc 1 148 5 is_stmt 0 view .LVU143
 494 008e C1E7     		b	.L24
 495              	.LVL38:
 496              	.L26:
 497              	.LCFI11:
 498              		.cfi_def_cfa_offset 0
 499              		.cfi_restore 4
 500              		.cfi_restore 5
 501              		.cfi_restore 6
 502              		.cfi_restore 7
 503              		.cfi_restore 14
 118:Libraries/STM32F4xx_HAL_Driver/Src/stm32f4xx_hal_hcd.c ****   }
 504              		.loc 1 118 12 view .LVU144
 505 0090 0120     		movs	r0, #1
 506              	.LVL39:
 175:Libraries/STM32F4xx_HAL_Driver/Src/stm32f4xx_hal_hcd.c **** 
 507              		.loc 1 175 1 view .LVU145
 508 0092 7047     		bx	lr
 509              		.cfi_endproc
 510              	.LFE130:
 512              		.section	.text.HAL_HCD_MspDeInit,"ax",%progbits
 513              		.align	1
 514              		.weak	HAL_HCD_MspDeInit
 515              		.syntax unified
 516              		.thumb
 517              		.thumb_func
 518              		.fpu softvfp
 520              	HAL_HCD_MspDeInit:
 521              	.LVL40:
 522              	.LFB135:
 316:Libraries/STM32F4xx_HAL_Driver/Src/stm32f4xx_hal_hcd.c ****   /* Prevent unused argument(s) compilation warning */
 523              		.loc 1 316 1 is_stmt 1 view -0
 524              		.cfi_startproc
 525              		@ args = 0, pretend = 0, frame = 0
 526              		@ frame_needed = 0, uses_anonymous_args = 0
 527              		@ link register save eliminated.
 318:Libraries/STM32F4xx_HAL_Driver/Src/stm32f4xx_hal_hcd.c **** 
 528              		.loc 1 318 3 view .LVU147
 323:Libraries/STM32F4xx_HAL_Driver/Src/stm32f4xx_hal_hcd.c **** 
 529              		.loc 1 323 1 is_stmt 0 view .LVU148
 530 0000 7047     		bx	lr
 531              		.cfi_endproc
 532              	.LFE135:
 534              		.section	.text.HAL_HCD_DeInit,"ax",%progbits
 535              		.align	1
 536              		.global	HAL_HCD_DeInit
 537              		.syntax unified
ARM GAS  C:\Users\yzy\AppData\Local\Temp\cco1yVr9.s 			page 40


 538              		.thumb
 539              		.thumb_func
 540              		.fpu softvfp
 542              	HAL_HCD_DeInit:
 543              	.LVL41:
 544              	.LFB133:
 266:Libraries/STM32F4xx_HAL_Driver/Src/stm32f4xx_hal_hcd.c ****   /* Check the HCD handle allocation */
 545              		.loc 1 266 1 is_stmt 1 view -0
 546              		.cfi_startproc
 547              		@ args = 0, pretend = 0, frame = 0
 548              		@ frame_needed = 0, uses_anonymous_args = 0
 268:Libraries/STM32F4xx_HAL_Driver/Src/stm32f4xx_hal_hcd.c ****   {
 549              		.loc 1 268 3 view .LVU150
 268:Libraries/STM32F4xx_HAL_Driver/Src/stm32f4xx_hal_hcd.c ****   {
 550              		.loc 1 268 6 is_stmt 0 view .LVU151
 551 0000 68B1     		cbz	r0, .L35
 266:Libraries/STM32F4xx_HAL_Driver/Src/stm32f4xx_hal_hcd.c ****   /* Check the HCD handle allocation */
 552              		.loc 1 266 1 view .LVU152
 553 0002 10B5     		push	{r4, lr}
 554              	.LCFI12:
 555              		.cfi_def_cfa_offset 8
 556              		.cfi_offset 4, -8
 557              		.cfi_offset 14, -4
 558 0004 0446     		mov	r4, r0
 273:Libraries/STM32F4xx_HAL_Driver/Src/stm32f4xx_hal_hcd.c **** 
 559              		.loc 1 273 3 is_stmt 1 view .LVU153
 273:Libraries/STM32F4xx_HAL_Driver/Src/stm32f4xx_hal_hcd.c **** 
 560              		.loc 1 273 15 is_stmt 0 view .LVU154
 561 0006 0323     		movs	r3, #3
 562 0008 80F8B932 		strb	r3, [r0, #697]
 285:Libraries/STM32F4xx_HAL_Driver/Src/stm32f4xx_hal_hcd.c **** #endif /* USE_HAL_HCD_REGISTER_CALLBACKS */
 563              		.loc 1 285 3 is_stmt 1 view .LVU155
 564 000c FFF7FEFF 		bl	HAL_HCD_MspDeInit
 565              	.LVL42:
 288:Libraries/STM32F4xx_HAL_Driver/Src/stm32f4xx_hal_hcd.c **** 
 566              		.loc 1 288 3 view .LVU156
 567 0010 2068     		ldr	r0, [r4]
 568 0012 FFF7FEFF 		bl	USB_DisableGlobalInt
 569              	.LVL43:
 290:Libraries/STM32F4xx_HAL_Driver/Src/stm32f4xx_hal_hcd.c **** 
 570              		.loc 1 290 3 view .LVU157
 290:Libraries/STM32F4xx_HAL_Driver/Src/stm32f4xx_hal_hcd.c **** 
 571              		.loc 1 290 15 is_stmt 0 view .LVU158
 572 0016 0020     		movs	r0, #0
 573 0018 84F8B902 		strb	r0, [r4, #697]
 292:Libraries/STM32F4xx_HAL_Driver/Src/stm32f4xx_hal_hcd.c **** }
 574              		.loc 1 292 3 is_stmt 1 view .LVU159
 293:Libraries/STM32F4xx_HAL_Driver/Src/stm32f4xx_hal_hcd.c **** 
 575              		.loc 1 293 1 is_stmt 0 view .LVU160
 576 001c 10BD     		pop	{r4, pc}
 577              	.LVL44:
 578              	.L35:
 579              	.LCFI13:
 580              		.cfi_def_cfa_offset 0
 581              		.cfi_restore 4
 582              		.cfi_restore 14
 270:Libraries/STM32F4xx_HAL_Driver/Src/stm32f4xx_hal_hcd.c ****   }
ARM GAS  C:\Users\yzy\AppData\Local\Temp\cco1yVr9.s 			page 41


 583              		.loc 1 270 12 view .LVU161
 584 001e 0120     		movs	r0, #1
 585              	.LVL45:
 293:Libraries/STM32F4xx_HAL_Driver/Src/stm32f4xx_hal_hcd.c **** 
 586              		.loc 1 293 1 view .LVU162
 587 0020 7047     		bx	lr
 588              		.cfi_endproc
 589              	.LFE133:
 591              		.section	.text.HAL_HCD_HC_SubmitRequest,"ax",%progbits
 592              		.align	1
 593              		.global	HAL_HCD_HC_SubmitRequest
 594              		.syntax unified
 595              		.thumb
 596              		.thumb_func
 597              		.fpu softvfp
 599              	HAL_HCD_HC_SubmitRequest:
 600              	.LVL46:
 601              	.LFB136:
 375:Libraries/STM32F4xx_HAL_Driver/Src/stm32f4xx_hal_hcd.c ****   hhcd->hc[ch_num].ep_is_in = direction;
 602              		.loc 1 375 1 is_stmt 1 view -0
 603              		.cfi_startproc
 604              		@ args = 16, pretend = 0, frame = 0
 605              		@ frame_needed = 0, uses_anonymous_args = 0
 375:Libraries/STM32F4xx_HAL_Driver/Src/stm32f4xx_hal_hcd.c ****   hhcd->hc[ch_num].ep_is_in = direction;
 606              		.loc 1 375 1 is_stmt 0 view .LVU164
 607 0000 F8B5     		push	{r3, r4, r5, r6, r7, lr}
 608              	.LCFI14:
 609              		.cfi_def_cfa_offset 24
 610              		.cfi_offset 3, -24
 611              		.cfi_offset 4, -20
 612              		.cfi_offset 5, -16
 613              		.cfi_offset 6, -12
 614              		.cfi_offset 7, -8
 615              		.cfi_offset 14, -4
 616 0002 9DF81850 		ldrb	r5, [sp, #24]	@ zero_extendqisi2
 617 0006 BDF82060 		ldrh	r6, [sp, #32]
 376:Libraries/STM32F4xx_HAL_Driver/Src/stm32f4xx_hal_hcd.c ****   hhcd->hc[ch_num].ep_type  = ep_type;
 618              		.loc 1 376 3 is_stmt 1 view .LVU165
 376:Libraries/STM32F4xx_HAL_Driver/Src/stm32f4xx_hal_hcd.c ****   hhcd->hc[ch_num].ep_type  = ep_type;
 619              		.loc 1 376 29 is_stmt 0 view .LVU166
 620 000a 01EB8104 		add	r4, r1, r1, lsl #2
 621 000e 00EBC404 		add	r4, r0, r4, lsl #3
 622 0012 84F83B20 		strb	r2, [r4, #59]
 377:Libraries/STM32F4xx_HAL_Driver/Src/stm32f4xx_hal_hcd.c **** 
 623              		.loc 1 377 3 is_stmt 1 view .LVU167
 377:Libraries/STM32F4xx_HAL_Driver/Src/stm32f4xx_hal_hcd.c **** 
 624              		.loc 1 377 29 is_stmt 0 view .LVU168
 625 0016 84F83F30 		strb	r3, [r4, #63]
 379:Libraries/STM32F4xx_HAL_Driver/Src/stm32f4xx_hal_hcd.c ****   {
 626              		.loc 1 379 3 is_stmt 1 view .LVU169
 379:Libraries/STM32F4xx_HAL_Driver/Src/stm32f4xx_hal_hcd.c ****   {
 627              		.loc 1 379 6 is_stmt 0 view .LVU170
 628 001a 8DB9     		cbnz	r5, .L41
 381:Libraries/STM32F4xx_HAL_Driver/Src/stm32f4xx_hal_hcd.c ****     hhcd->hc[ch_num].do_ping = do_ping;
 629              		.loc 1 381 5 is_stmt 1 view .LVU171
 381:Libraries/STM32F4xx_HAL_Driver/Src/stm32f4xx_hal_hcd.c ****     hhcd->hc[ch_num].do_ping = do_ping;
 630              		.loc 1 381 31 is_stmt 0 view .LVU172
ARM GAS  C:\Users\yzy\AppData\Local\Temp\cco1yVr9.s 			page 42


 631 001c 01EB8104 		add	r4, r1, r1, lsl #2
 632 0020 00EBC404 		add	r4, r0, r4, lsl #3
 633 0024 0327     		movs	r7, #3
 634 0026 84F84270 		strb	r7, [r4, #66]
 382:Libraries/STM32F4xx_HAL_Driver/Src/stm32f4xx_hal_hcd.c ****   }
 635              		.loc 1 382 5 is_stmt 1 view .LVU173
 382:Libraries/STM32F4xx_HAL_Driver/Src/stm32f4xx_hal_hcd.c ****   }
 636              		.loc 1 382 30 is_stmt 0 view .LVU174
 637 002a 9DF82470 		ldrb	r7, [sp, #36]	@ zero_extendqisi2
 638 002e 84F83D70 		strb	r7, [r4, #61]
 639              	.L42:
 390:Libraries/STM32F4xx_HAL_Driver/Src/stm32f4xx_hal_hcd.c ****   {
 640              		.loc 1 390 3 is_stmt 1 view .LVU175
 641 0032 032B     		cmp	r3, #3
 642 0034 00F29480 		bhi	.L43
 643 0038 DFE803F0 		tbb	[pc, r3]
 644              	.L45:
 645 003c 0A       		.byte	(.L48-.L45)/2
 646 003d 8B       		.byte	(.L47-.L45)/2
 647 003e 2F       		.byte	(.L46-.L45)/2
 648 003f 5D       		.byte	(.L44-.L45)/2
 649              		.p2align 1
 650              	.L41:
 386:Libraries/STM32F4xx_HAL_Driver/Src/stm32f4xx_hal_hcd.c ****   }
 651              		.loc 1 386 5 view .LVU176
 386:Libraries/STM32F4xx_HAL_Driver/Src/stm32f4xx_hal_hcd.c ****   }
 652              		.loc 1 386 31 is_stmt 0 view .LVU177
 653 0040 01EB8104 		add	r4, r1, r1, lsl #2
 654 0044 00EBC404 		add	r4, r0, r4, lsl #3
 655 0048 0227     		movs	r7, #2
 656 004a 84F84270 		strb	r7, [r4, #66]
 657 004e F0E7     		b	.L42
 658              	.L48:
 393:Libraries/STM32F4xx_HAL_Driver/Src/stm32f4xx_hal_hcd.c ****       {
 659              		.loc 1 393 7 is_stmt 1 view .LVU178
 393:Libraries/STM32F4xx_HAL_Driver/Src/stm32f4xx_hal_hcd.c ****       {
 660              		.loc 1 393 10 is_stmt 0 view .LVU179
 661 0050 012D     		cmp	r5, #1
 662 0052 40F08580 		bne	.L43
 393:Libraries/STM32F4xx_HAL_Driver/Src/stm32f4xx_hal_hcd.c ****       {
 663              		.loc 1 393 25 discriminator 1 view .LVU180
 664 0056 002A     		cmp	r2, #0
 665 0058 40F08280 		bne	.L43
 395:Libraries/STM32F4xx_HAL_Driver/Src/stm32f4xx_hal_hcd.c ****         {
 666              		.loc 1 395 9 is_stmt 1 view .LVU181
 395:Libraries/STM32F4xx_HAL_Driver/Src/stm32f4xx_hal_hcd.c ****         {
 667              		.loc 1 395 12 is_stmt 0 view .LVU182
 668 005c 36B9     		cbnz	r6, .L49
 398:Libraries/STM32F4xx_HAL_Driver/Src/stm32f4xx_hal_hcd.c ****         }
 669              		.loc 1 398 11 is_stmt 1 view .LVU183
 398:Libraries/STM32F4xx_HAL_Driver/Src/stm32f4xx_hal_hcd.c ****         }
 670              		.loc 1 398 39 is_stmt 0 view .LVU184
 671 005e 01EB8103 		add	r3, r1, r1, lsl #2
 672              	.LVL47:
 398:Libraries/STM32F4xx_HAL_Driver/Src/stm32f4xx_hal_hcd.c ****         }
 673              		.loc 1 398 39 view .LVU185
 674 0062 00EBC303 		add	r3, r0, r3, lsl #3
ARM GAS  C:\Users\yzy\AppData\Local\Temp\cco1yVr9.s 			page 43


 675 0066 0122     		movs	r2, #1
 676              	.LVL48:
 398:Libraries/STM32F4xx_HAL_Driver/Src/stm32f4xx_hal_hcd.c ****         }
 677              		.loc 1 398 39 view .LVU186
 678 0068 83F85120 		strb	r2, [r3, #81]
 679              	.L49:
 402:Libraries/STM32F4xx_HAL_Driver/Src/stm32f4xx_hal_hcd.c ****         {
 680              		.loc 1 402 9 is_stmt 1 view .LVU187
 402:Libraries/STM32F4xx_HAL_Driver/Src/stm32f4xx_hal_hcd.c ****         {
 681              		.loc 1 402 29 is_stmt 0 view .LVU188
 682 006c 01EB8103 		add	r3, r1, r1, lsl #2
 683 0070 00EBC303 		add	r3, r0, r3, lsl #3
 684 0074 93F85130 		ldrb	r3, [r3, #81]	@ zero_extendqisi2
 402:Libraries/STM32F4xx_HAL_Driver/Src/stm32f4xx_hal_hcd.c ****         {
 685              		.loc 1 402 12 view .LVU189
 686 0078 3BB9     		cbnz	r3, .L50
 405:Libraries/STM32F4xx_HAL_Driver/Src/stm32f4xx_hal_hcd.c ****         }
 687              		.loc 1 405 11 is_stmt 1 view .LVU190
 405:Libraries/STM32F4xx_HAL_Driver/Src/stm32f4xx_hal_hcd.c ****         }
 688              		.loc 1 405 37 is_stmt 0 view .LVU191
 689 007a 01EB8103 		add	r3, r1, r1, lsl #2
 690 007e 00EBC303 		add	r3, r0, r3, lsl #3
 691 0082 0022     		movs	r2, #0
 692 0084 83F84220 		strb	r2, [r3, #66]
 693 0088 6AE0     		b	.L43
 694              	.L50:
 410:Libraries/STM32F4xx_HAL_Driver/Src/stm32f4xx_hal_hcd.c ****         }
 695              		.loc 1 410 11 is_stmt 1 view .LVU192
 410:Libraries/STM32F4xx_HAL_Driver/Src/stm32f4xx_hal_hcd.c ****         }
 696              		.loc 1 410 37 is_stmt 0 view .LVU193
 697 008a 01EB8103 		add	r3, r1, r1, lsl #2
 698 008e 00EBC303 		add	r3, r0, r3, lsl #3
 699 0092 0222     		movs	r2, #2
 700 0094 83F84220 		strb	r2, [r3, #66]
 701 0098 62E0     		b	.L43
 702              	.LVL49:
 703              	.L46:
 416:Libraries/STM32F4xx_HAL_Driver/Src/stm32f4xx_hal_hcd.c ****       {
 704              		.loc 1 416 7 is_stmt 1 view .LVU194
 416:Libraries/STM32F4xx_HAL_Driver/Src/stm32f4xx_hal_hcd.c ****       {
 705              		.loc 1 416 10 is_stmt 0 view .LVU195
 706 009a AAB9     		cbnz	r2, .L51
 419:Libraries/STM32F4xx_HAL_Driver/Src/stm32f4xx_hal_hcd.c ****         {
 707              		.loc 1 419 9 is_stmt 1 view .LVU196
 419:Libraries/STM32F4xx_HAL_Driver/Src/stm32f4xx_hal_hcd.c ****         {
 708              		.loc 1 419 29 is_stmt 0 view .LVU197
 709 009c 01EB8103 		add	r3, r1, r1, lsl #2
 710              	.LVL50:
 419:Libraries/STM32F4xx_HAL_Driver/Src/stm32f4xx_hal_hcd.c ****         {
 711              		.loc 1 419 29 view .LVU198
 712 00a0 00EBC303 		add	r3, r0, r3, lsl #3
 713 00a4 93F85130 		ldrb	r3, [r3, #81]	@ zero_extendqisi2
 419:Libraries/STM32F4xx_HAL_Driver/Src/stm32f4xx_hal_hcd.c ****         {
 714              		.loc 1 419 12 view .LVU199
 715 00a8 33B9     		cbnz	r3, .L52
 422:Libraries/STM32F4xx_HAL_Driver/Src/stm32f4xx_hal_hcd.c ****         }
 716              		.loc 1 422 11 is_stmt 1 view .LVU200
ARM GAS  C:\Users\yzy\AppData\Local\Temp\cco1yVr9.s 			page 44


 422:Libraries/STM32F4xx_HAL_Driver/Src/stm32f4xx_hal_hcd.c ****         }
 717              		.loc 1 422 37 is_stmt 0 view .LVU201
 718 00aa 01EB8103 		add	r3, r1, r1, lsl #2
 719 00ae 00EBC303 		add	r3, r0, r3, lsl #3
 720 00b2 83F84220 		strb	r2, [r3, #66]
 721 00b6 53E0     		b	.L43
 722              	.L52:
 427:Libraries/STM32F4xx_HAL_Driver/Src/stm32f4xx_hal_hcd.c ****         }
 723              		.loc 1 427 11 is_stmt 1 view .LVU202
 427:Libraries/STM32F4xx_HAL_Driver/Src/stm32f4xx_hal_hcd.c ****         }
 724              		.loc 1 427 37 is_stmt 0 view .LVU203
 725 00b8 01EB8103 		add	r3, r1, r1, lsl #2
 726 00bc 00EBC303 		add	r3, r0, r3, lsl #3
 727 00c0 0222     		movs	r2, #2
 728              	.LVL51:
 427:Libraries/STM32F4xx_HAL_Driver/Src/stm32f4xx_hal_hcd.c ****         }
 729              		.loc 1 427 37 view .LVU204
 730 00c2 83F84220 		strb	r2, [r3, #66]
 731 00c6 4BE0     		b	.L43
 732              	.LVL52:
 733              	.L51:
 432:Libraries/STM32F4xx_HAL_Driver/Src/stm32f4xx_hal_hcd.c ****         {
 734              		.loc 1 432 9 is_stmt 1 view .LVU205
 432:Libraries/STM32F4xx_HAL_Driver/Src/stm32f4xx_hal_hcd.c ****         {
 735              		.loc 1 432 29 is_stmt 0 view .LVU206
 736 00c8 01EB8103 		add	r3, r1, r1, lsl #2
 737              	.LVL53:
 432:Libraries/STM32F4xx_HAL_Driver/Src/stm32f4xx_hal_hcd.c ****         {
 738              		.loc 1 432 29 view .LVU207
 739 00cc 00EBC303 		add	r3, r0, r3, lsl #3
 740 00d0 93F85030 		ldrb	r3, [r3, #80]	@ zero_extendqisi2
 432:Libraries/STM32F4xx_HAL_Driver/Src/stm32f4xx_hal_hcd.c ****         {
 741              		.loc 1 432 12 view .LVU208
 742 00d4 3BB9     		cbnz	r3, .L53
 434:Libraries/STM32F4xx_HAL_Driver/Src/stm32f4xx_hal_hcd.c ****         }
 743              		.loc 1 434 11 is_stmt 1 view .LVU209
 434:Libraries/STM32F4xx_HAL_Driver/Src/stm32f4xx_hal_hcd.c ****         }
 744              		.loc 1 434 37 is_stmt 0 view .LVU210
 745 00d6 01EB8103 		add	r3, r1, r1, lsl #2
 746 00da 00EBC303 		add	r3, r0, r3, lsl #3
 747 00de 0022     		movs	r2, #0
 748              	.LVL54:
 434:Libraries/STM32F4xx_HAL_Driver/Src/stm32f4xx_hal_hcd.c ****         }
 749              		.loc 1 434 37 view .LVU211
 750 00e0 83F84220 		strb	r2, [r3, #66]
 751 00e4 3CE0     		b	.L43
 752              	.LVL55:
 753              	.L53:
 438:Libraries/STM32F4xx_HAL_Driver/Src/stm32f4xx_hal_hcd.c ****         }
 754              		.loc 1 438 11 is_stmt 1 view .LVU212
 438:Libraries/STM32F4xx_HAL_Driver/Src/stm32f4xx_hal_hcd.c ****         }
 755              		.loc 1 438 37 is_stmt 0 view .LVU213
 756 00e6 01EB8103 		add	r3, r1, r1, lsl #2
 757 00ea 00EBC303 		add	r3, r0, r3, lsl #3
 758 00ee 0222     		movs	r2, #2
 759              	.LVL56:
 438:Libraries/STM32F4xx_HAL_Driver/Src/stm32f4xx_hal_hcd.c ****         }
ARM GAS  C:\Users\yzy\AppData\Local\Temp\cco1yVr9.s 			page 45


 760              		.loc 1 438 37 view .LVU214
 761 00f0 83F84220 		strb	r2, [r3, #66]
 762 00f4 34E0     		b	.L43
 763              	.LVL57:
 764              	.L44:
 444:Libraries/STM32F4xx_HAL_Driver/Src/stm32f4xx_hal_hcd.c ****       {
 765              		.loc 1 444 7 is_stmt 1 view .LVU215
 444:Libraries/STM32F4xx_HAL_Driver/Src/stm32f4xx_hal_hcd.c ****       {
 766              		.loc 1 444 10 is_stmt 0 view .LVU216
 767 00f6 AAB9     		cbnz	r2, .L54
 447:Libraries/STM32F4xx_HAL_Driver/Src/stm32f4xx_hal_hcd.c ****         {
 768              		.loc 1 447 9 is_stmt 1 view .LVU217
 447:Libraries/STM32F4xx_HAL_Driver/Src/stm32f4xx_hal_hcd.c ****         {
 769              		.loc 1 447 29 is_stmt 0 view .LVU218
 770 00f8 01EB8103 		add	r3, r1, r1, lsl #2
 771              	.LVL58:
 447:Libraries/STM32F4xx_HAL_Driver/Src/stm32f4xx_hal_hcd.c ****         {
 772              		.loc 1 447 29 view .LVU219
 773 00fc 00EBC303 		add	r3, r0, r3, lsl #3
 774 0100 93F85130 		ldrb	r3, [r3, #81]	@ zero_extendqisi2
 447:Libraries/STM32F4xx_HAL_Driver/Src/stm32f4xx_hal_hcd.c ****         {
 775              		.loc 1 447 12 view .LVU220
 776 0104 33B9     		cbnz	r3, .L55
 450:Libraries/STM32F4xx_HAL_Driver/Src/stm32f4xx_hal_hcd.c ****         }
 777              		.loc 1 450 11 is_stmt 1 view .LVU221
 450:Libraries/STM32F4xx_HAL_Driver/Src/stm32f4xx_hal_hcd.c ****         }
 778              		.loc 1 450 37 is_stmt 0 view .LVU222
 779 0106 01EB8103 		add	r3, r1, r1, lsl #2
 780 010a 00EBC303 		add	r3, r0, r3, lsl #3
 781 010e 83F84220 		strb	r2, [r3, #66]
 782 0112 25E0     		b	.L43
 783              	.L55:
 455:Libraries/STM32F4xx_HAL_Driver/Src/stm32f4xx_hal_hcd.c ****         }
 784              		.loc 1 455 11 is_stmt 1 view .LVU223
 455:Libraries/STM32F4xx_HAL_Driver/Src/stm32f4xx_hal_hcd.c ****         }
 785              		.loc 1 455 37 is_stmt 0 view .LVU224
 786 0114 01EB8103 		add	r3, r1, r1, lsl #2
 787 0118 00EBC303 		add	r3, r0, r3, lsl #3
 788 011c 0222     		movs	r2, #2
 789              	.LVL59:
 455:Libraries/STM32F4xx_HAL_Driver/Src/stm32f4xx_hal_hcd.c ****         }
 790              		.loc 1 455 37 view .LVU225
 791 011e 83F84220 		strb	r2, [r3, #66]
 792 0122 1DE0     		b	.L43
 793              	.LVL60:
 794              	.L54:
 460:Libraries/STM32F4xx_HAL_Driver/Src/stm32f4xx_hal_hcd.c ****         {
 795              		.loc 1 460 9 is_stmt 1 view .LVU226
 460:Libraries/STM32F4xx_HAL_Driver/Src/stm32f4xx_hal_hcd.c ****         {
 796              		.loc 1 460 29 is_stmt 0 view .LVU227
 797 0124 01EB8103 		add	r3, r1, r1, lsl #2
 798              	.LVL61:
 460:Libraries/STM32F4xx_HAL_Driver/Src/stm32f4xx_hal_hcd.c ****         {
 799              		.loc 1 460 29 view .LVU228
 800 0128 00EBC303 		add	r3, r0, r3, lsl #3
 801 012c 93F85030 		ldrb	r3, [r3, #80]	@ zero_extendqisi2
 460:Libraries/STM32F4xx_HAL_Driver/Src/stm32f4xx_hal_hcd.c ****         {
ARM GAS  C:\Users\yzy\AppData\Local\Temp\cco1yVr9.s 			page 46


 802              		.loc 1 460 12 view .LVU229
 803 0130 3BB9     		cbnz	r3, .L56
 462:Libraries/STM32F4xx_HAL_Driver/Src/stm32f4xx_hal_hcd.c ****         }
 804              		.loc 1 462 11 is_stmt 1 view .LVU230
 462:Libraries/STM32F4xx_HAL_Driver/Src/stm32f4xx_hal_hcd.c ****         }
 805              		.loc 1 462 37 is_stmt 0 view .LVU231
 806 0132 01EB8103 		add	r3, r1, r1, lsl #2
 807 0136 00EBC303 		add	r3, r0, r3, lsl #3
 808 013a 0022     		movs	r2, #0
 809              	.LVL62:
 462:Libraries/STM32F4xx_HAL_Driver/Src/stm32f4xx_hal_hcd.c ****         }
 810              		.loc 1 462 37 view .LVU232
 811 013c 83F84220 		strb	r2, [r3, #66]
 812 0140 0EE0     		b	.L43
 813              	.LVL63:
 814              	.L56:
 466:Libraries/STM32F4xx_HAL_Driver/Src/stm32f4xx_hal_hcd.c ****         }
 815              		.loc 1 466 11 is_stmt 1 view .LVU233
 466:Libraries/STM32F4xx_HAL_Driver/Src/stm32f4xx_hal_hcd.c ****         }
 816              		.loc 1 466 37 is_stmt 0 view .LVU234
 817 0142 01EB8103 		add	r3, r1, r1, lsl #2
 818 0146 00EBC303 		add	r3, r0, r3, lsl #3
 819 014a 0222     		movs	r2, #2
 820              	.LVL64:
 466:Libraries/STM32F4xx_HAL_Driver/Src/stm32f4xx_hal_hcd.c ****         }
 821              		.loc 1 466 37 view .LVU235
 822 014c 83F84220 		strb	r2, [r3, #66]
 823 0150 06E0     		b	.L43
 824              	.LVL65:
 825              	.L47:
 472:Libraries/STM32F4xx_HAL_Driver/Src/stm32f4xx_hal_hcd.c ****       break;
 826              		.loc 1 472 7 is_stmt 1 view .LVU236
 472:Libraries/STM32F4xx_HAL_Driver/Src/stm32f4xx_hal_hcd.c ****       break;
 827              		.loc 1 472 33 is_stmt 0 view .LVU237
 828 0152 01EB8103 		add	r3, r1, r1, lsl #2
 829              	.LVL66:
 472:Libraries/STM32F4xx_HAL_Driver/Src/stm32f4xx_hal_hcd.c ****       break;
 830              		.loc 1 472 33 view .LVU238
 831 0156 00EBC303 		add	r3, r0, r3, lsl #3
 832 015a 0022     		movs	r2, #0
 833              	.LVL67:
 472:Libraries/STM32F4xx_HAL_Driver/Src/stm32f4xx_hal_hcd.c ****       break;
 834              		.loc 1 472 33 view .LVU239
 835 015c 83F84220 		strb	r2, [r3, #66]
 473:Libraries/STM32F4xx_HAL_Driver/Src/stm32f4xx_hal_hcd.c **** 
 836              		.loc 1 473 7 is_stmt 1 view .LVU240
 837              	.L43:
 479:Libraries/STM32F4xx_HAL_Driver/Src/stm32f4xx_hal_hcd.c ****   hhcd->hc[ch_num].xfer_len  = length;
 838              		.loc 1 479 3 view .LVU241
 479:Libraries/STM32F4xx_HAL_Driver/Src/stm32f4xx_hal_hcd.c ****   hhcd->hc[ch_num].xfer_len  = length;
 839              		.loc 1 479 30 is_stmt 0 view .LVU242
 840 0160 01EB8103 		add	r3, r1, r1, lsl #2
 841 0164 00EBC303 		add	r3, r0, r3, lsl #3
 842 0168 079A     		ldr	r2, [sp, #28]
 843 016a 5A64     		str	r2, [r3, #68]
 480:Libraries/STM32F4xx_HAL_Driver/Src/stm32f4xx_hal_hcd.c ****   hhcd->hc[ch_num].urb_state = URB_IDLE;
 844              		.loc 1 480 3 is_stmt 1 view .LVU243
ARM GAS  C:\Users\yzy\AppData\Local\Temp\cco1yVr9.s 			page 47


 480:Libraries/STM32F4xx_HAL_Driver/Src/stm32f4xx_hal_hcd.c ****   hhcd->hc[ch_num].urb_state = URB_IDLE;
 845              		.loc 1 480 30 is_stmt 0 view .LVU244
 846 016c 9E64     		str	r6, [r3, #72]
 481:Libraries/STM32F4xx_HAL_Driver/Src/stm32f4xx_hal_hcd.c ****   hhcd->hc[ch_num].xfer_count = 0U;
 847              		.loc 1 481 3 is_stmt 1 view .LVU245
 481:Libraries/STM32F4xx_HAL_Driver/Src/stm32f4xx_hal_hcd.c ****   hhcd->hc[ch_num].xfer_count = 0U;
 848              		.loc 1 481 30 is_stmt 0 view .LVU246
 849 016e 0022     		movs	r2, #0
 850 0170 83F85C20 		strb	r2, [r3, #92]
 482:Libraries/STM32F4xx_HAL_Driver/Src/stm32f4xx_hal_hcd.c ****   hhcd->hc[ch_num].ch_num = ch_num;
 851              		.loc 1 482 3 is_stmt 1 view .LVU247
 482:Libraries/STM32F4xx_HAL_Driver/Src/stm32f4xx_hal_hcd.c ****   hhcd->hc[ch_num].ch_num = ch_num;
 852              		.loc 1 482 31 is_stmt 0 view .LVU248
 853 0174 DA64     		str	r2, [r3, #76]
 483:Libraries/STM32F4xx_HAL_Driver/Src/stm32f4xx_hal_hcd.c ****   hhcd->hc[ch_num].state = HC_IDLE;
 854              		.loc 1 483 3 is_stmt 1 view .LVU249
 483:Libraries/STM32F4xx_HAL_Driver/Src/stm32f4xx_hal_hcd.c ****   hhcd->hc[ch_num].state = HC_IDLE;
 855              		.loc 1 483 27 is_stmt 0 view .LVU250
 856 0176 83F83910 		strb	r1, [r3, #57]
 484:Libraries/STM32F4xx_HAL_Driver/Src/stm32f4xx_hal_hcd.c **** 
 857              		.loc 1 484 3 is_stmt 1 view .LVU251
 484:Libraries/STM32F4xx_HAL_Driver/Src/stm32f4xx_hal_hcd.c **** 
 858              		.loc 1 484 26 is_stmt 0 view .LVU252
 859 017a 83F85D20 		strb	r2, [r3, #93]
 486:Libraries/STM32F4xx_HAL_Driver/Src/stm32f4xx_hal_hcd.c **** }
 860              		.loc 1 486 3 is_stmt 1 view .LVU253
 486:Libraries/STM32F4xx_HAL_Driver/Src/stm32f4xx_hal_hcd.c **** }
 861              		.loc 1 486 43 is_stmt 0 view .LVU254
 862 017e 01EB8101 		add	r1, r1, r1, lsl #2
 863              	.LVL68:
 486:Libraries/STM32F4xx_HAL_Driver/Src/stm32f4xx_hal_hcd.c **** }
 864              		.loc 1 486 43 view .LVU255
 865 0182 C900     		lsls	r1, r1, #3
 866 0184 3831     		adds	r1, r1, #56
 486:Libraries/STM32F4xx_HAL_Driver/Src/stm32f4xx_hal_hcd.c **** }
 867              		.loc 1 486 10 view .LVU256
 868 0186 027C     		ldrb	r2, [r0, #16]	@ zero_extendqisi2
 869 0188 0144     		add	r1, r1, r0
 870 018a 0068     		ldr	r0, [r0]
 871              	.LVL69:
 486:Libraries/STM32F4xx_HAL_Driver/Src/stm32f4xx_hal_hcd.c **** }
 872              		.loc 1 486 10 view .LVU257
 873 018c FFF7FEFF 		bl	USB_HC_StartXfer
 874              	.LVL70:
 487:Libraries/STM32F4xx_HAL_Driver/Src/stm32f4xx_hal_hcd.c **** 
 875              		.loc 1 487 1 view .LVU258
 876 0190 F8BD     		pop	{r3, r4, r5, r6, r7, pc}
 487:Libraries/STM32F4xx_HAL_Driver/Src/stm32f4xx_hal_hcd.c **** 
 877              		.loc 1 487 1 view .LVU259
 878              		.cfi_endproc
 879              	.LFE136:
 881              		.section	.text.HAL_HCD_WKUP_IRQHandler,"ax",%progbits
 882              		.align	1
 883              		.global	HAL_HCD_WKUP_IRQHandler
 884              		.syntax unified
 885              		.thumb
 886              		.thumb_func
ARM GAS  C:\Users\yzy\AppData\Local\Temp\cco1yVr9.s 			page 48


 887              		.fpu softvfp
 889              	HAL_HCD_WKUP_IRQHandler:
 890              	.LVL71:
 891              	.LFB138:
 609:Libraries/STM32F4xx_HAL_Driver/Src/stm32f4xx_hal_hcd.c ****   UNUSED(hhcd);
 892              		.loc 1 609 1 is_stmt 1 view -0
 893              		.cfi_startproc
 894              		@ args = 0, pretend = 0, frame = 0
 895              		@ frame_needed = 0, uses_anonymous_args = 0
 896              		@ link register save eliminated.
 610:Libraries/STM32F4xx_HAL_Driver/Src/stm32f4xx_hal_hcd.c **** }
 897              		.loc 1 610 3 view .LVU261
 611:Libraries/STM32F4xx_HAL_Driver/Src/stm32f4xx_hal_hcd.c **** 
 898              		.loc 1 611 1 is_stmt 0 view .LVU262
 899 0000 7047     		bx	lr
 900              		.cfi_endproc
 901              	.LFE138:
 903              		.section	.text.HAL_HCD_SOF_Callback,"ax",%progbits
 904              		.align	1
 905              		.weak	HAL_HCD_SOF_Callback
 906              		.syntax unified
 907              		.thumb
 908              		.thumb_func
 909              		.fpu softvfp
 911              	HAL_HCD_SOF_Callback:
 912              	.LVL72:
 913              	.LFB139:
 620:Libraries/STM32F4xx_HAL_Driver/Src/stm32f4xx_hal_hcd.c ****   /* Prevent unused argument(s) compilation warning */
 914              		.loc 1 620 1 is_stmt 1 view -0
 915              		.cfi_startproc
 916              		@ args = 0, pretend = 0, frame = 0
 917              		@ frame_needed = 0, uses_anonymous_args = 0
 918              		@ link register save eliminated.
 622:Libraries/STM32F4xx_HAL_Driver/Src/stm32f4xx_hal_hcd.c **** 
 919              		.loc 1 622 3 view .LVU264
 627:Libraries/STM32F4xx_HAL_Driver/Src/stm32f4xx_hal_hcd.c **** 
 920              		.loc 1 627 1 is_stmt 0 view .LVU265
 921 0000 7047     		bx	lr
 922              		.cfi_endproc
 923              	.LFE139:
 925              		.section	.text.HAL_HCD_Connect_Callback,"ax",%progbits
 926              		.align	1
 927              		.weak	HAL_HCD_Connect_Callback
 928              		.syntax unified
 929              		.thumb
 930              		.thumb_func
 931              		.fpu softvfp
 933              	HAL_HCD_Connect_Callback:
 934              	.LVL73:
 935              	.LFB140:
 635:Libraries/STM32F4xx_HAL_Driver/Src/stm32f4xx_hal_hcd.c ****   /* Prevent unused argument(s) compilation warning */
 936              		.loc 1 635 1 is_stmt 1 view -0
 937              		.cfi_startproc
 938              		@ args = 0, pretend = 0, frame = 0
 939              		@ frame_needed = 0, uses_anonymous_args = 0
 940              		@ link register save eliminated.
 637:Libraries/STM32F4xx_HAL_Driver/Src/stm32f4xx_hal_hcd.c **** 
ARM GAS  C:\Users\yzy\AppData\Local\Temp\cco1yVr9.s 			page 49


 941              		.loc 1 637 3 view .LVU267
 642:Libraries/STM32F4xx_HAL_Driver/Src/stm32f4xx_hal_hcd.c **** 
 942              		.loc 1 642 1 is_stmt 0 view .LVU268
 943 0000 7047     		bx	lr
 944              		.cfi_endproc
 945              	.LFE140:
 947              		.section	.text.HAL_HCD_Disconnect_Callback,"ax",%progbits
 948              		.align	1
 949              		.weak	HAL_HCD_Disconnect_Callback
 950              		.syntax unified
 951              		.thumb
 952              		.thumb_func
 953              		.fpu softvfp
 955              	HAL_HCD_Disconnect_Callback:
 956              	.LVL74:
 957              	.LFB141:
 650:Libraries/STM32F4xx_HAL_Driver/Src/stm32f4xx_hal_hcd.c ****   /* Prevent unused argument(s) compilation warning */
 958              		.loc 1 650 1 is_stmt 1 view -0
 959              		.cfi_startproc
 960              		@ args = 0, pretend = 0, frame = 0
 961              		@ frame_needed = 0, uses_anonymous_args = 0
 962              		@ link register save eliminated.
 652:Libraries/STM32F4xx_HAL_Driver/Src/stm32f4xx_hal_hcd.c **** 
 963              		.loc 1 652 3 view .LVU270
 657:Libraries/STM32F4xx_HAL_Driver/Src/stm32f4xx_hal_hcd.c **** 
 964              		.loc 1 657 1 is_stmt 0 view .LVU271
 965 0000 7047     		bx	lr
 966              		.cfi_endproc
 967              	.LFE141:
 969              		.section	.text.HAL_HCD_PortEnabled_Callback,"ax",%progbits
 970              		.align	1
 971              		.weak	HAL_HCD_PortEnabled_Callback
 972              		.syntax unified
 973              		.thumb
 974              		.thumb_func
 975              		.fpu softvfp
 977              	HAL_HCD_PortEnabled_Callback:
 978              	.LVL75:
 979              	.LFB142:
 665:Libraries/STM32F4xx_HAL_Driver/Src/stm32f4xx_hal_hcd.c ****   /* Prevent unused argument(s) compilation warning */
 980              		.loc 1 665 1 is_stmt 1 view -0
 981              		.cfi_startproc
 982              		@ args = 0, pretend = 0, frame = 0
 983              		@ frame_needed = 0, uses_anonymous_args = 0
 984              		@ link register save eliminated.
 667:Libraries/STM32F4xx_HAL_Driver/Src/stm32f4xx_hal_hcd.c **** 
 985              		.loc 1 667 3 view .LVU273
 672:Libraries/STM32F4xx_HAL_Driver/Src/stm32f4xx_hal_hcd.c **** 
 986              		.loc 1 672 1 is_stmt 0 view .LVU274
 987 0000 7047     		bx	lr
 988              		.cfi_endproc
 989              	.LFE142:
 991              		.section	.text.HAL_HCD_PortDisabled_Callback,"ax",%progbits
 992              		.align	1
 993              		.weak	HAL_HCD_PortDisabled_Callback
 994              		.syntax unified
 995              		.thumb
ARM GAS  C:\Users\yzy\AppData\Local\Temp\cco1yVr9.s 			page 50


 996              		.thumb_func
 997              		.fpu softvfp
 999              	HAL_HCD_PortDisabled_Callback:
 1000              	.LVL76:
 1001              	.LFB143:
 680:Libraries/STM32F4xx_HAL_Driver/Src/stm32f4xx_hal_hcd.c ****   /* Prevent unused argument(s) compilation warning */
 1002              		.loc 1 680 1 is_stmt 1 view -0
 1003              		.cfi_startproc
 1004              		@ args = 0, pretend = 0, frame = 0
 1005              		@ frame_needed = 0, uses_anonymous_args = 0
 1006              		@ link register save eliminated.
 682:Libraries/STM32F4xx_HAL_Driver/Src/stm32f4xx_hal_hcd.c **** 
 1007              		.loc 1 682 3 view .LVU276
 687:Libraries/STM32F4xx_HAL_Driver/Src/stm32f4xx_hal_hcd.c **** 
 1008              		.loc 1 687 1 is_stmt 0 view .LVU277
 1009 0000 7047     		bx	lr
 1010              		.cfi_endproc
 1011              	.LFE143:
 1013              		.section	.text.HCD_Port_IRQHandler,"ax",%progbits
 1014              		.align	1
 1015              		.syntax unified
 1016              		.thumb
 1017              		.thumb_func
 1018              		.fpu softvfp
 1020              	HCD_Port_IRQHandler:
 1021              	.LVL77:
 1022              	.LFB157:
1572:Libraries/STM32F4xx_HAL_Driver/Src/stm32f4xx_hal_hcd.c **** 
1573:Libraries/STM32F4xx_HAL_Driver/Src/stm32f4xx_hal_hcd.c **** /**
1574:Libraries/STM32F4xx_HAL_Driver/Src/stm32f4xx_hal_hcd.c ****   * @brief  Handle Host Port interrupt requests.
1575:Libraries/STM32F4xx_HAL_Driver/Src/stm32f4xx_hal_hcd.c ****   * @param  hhcd HCD handle
1576:Libraries/STM32F4xx_HAL_Driver/Src/stm32f4xx_hal_hcd.c ****   * @retval None
1577:Libraries/STM32F4xx_HAL_Driver/Src/stm32f4xx_hal_hcd.c ****   */
1578:Libraries/STM32F4xx_HAL_Driver/Src/stm32f4xx_hal_hcd.c **** static void HCD_Port_IRQHandler(HCD_HandleTypeDef *hhcd)
1579:Libraries/STM32F4xx_HAL_Driver/Src/stm32f4xx_hal_hcd.c **** {
 1023              		.loc 1 1579 1 is_stmt 1 view -0
 1024              		.cfi_startproc
 1025              		@ args = 0, pretend = 0, frame = 8
 1026              		@ frame_needed = 0, uses_anonymous_args = 0
 1027              		.loc 1 1579 1 is_stmt 0 view .LVU279
 1028 0000 30B5     		push	{r4, r5, lr}
 1029              	.LCFI15:
 1030              		.cfi_def_cfa_offset 12
 1031              		.cfi_offset 4, -12
 1032              		.cfi_offset 5, -8
 1033              		.cfi_offset 14, -4
 1034 0002 83B0     		sub	sp, sp, #12
 1035              	.LCFI16:
 1036              		.cfi_def_cfa_offset 24
 1037 0004 0446     		mov	r4, r0
1580:Libraries/STM32F4xx_HAL_Driver/Src/stm32f4xx_hal_hcd.c ****   USB_OTG_GlobalTypeDef *USBx = hhcd->Instance;
 1038              		.loc 1 1580 3 is_stmt 1 view .LVU280
 1039              		.loc 1 1580 26 is_stmt 0 view .LVU281
 1040 0006 0568     		ldr	r5, [r0]
1581:Libraries/STM32F4xx_HAL_Driver/Src/stm32f4xx_hal_hcd.c ****   uint32_t USBx_BASE = (uint32_t)USBx;
 1041              		.loc 1 1581 3 is_stmt 1 view .LVU282
 1042              	.LVL78:
ARM GAS  C:\Users\yzy\AppData\Local\Temp\cco1yVr9.s 			page 51


1582:Libraries/STM32F4xx_HAL_Driver/Src/stm32f4xx_hal_hcd.c ****   __IO uint32_t hprt0, hprt0_dup;
 1043              		.loc 1 1582 3 view .LVU283
1583:Libraries/STM32F4xx_HAL_Driver/Src/stm32f4xx_hal_hcd.c **** 
1584:Libraries/STM32F4xx_HAL_Driver/Src/stm32f4xx_hal_hcd.c ****   /* Handle Host Port Interrupts */
1585:Libraries/STM32F4xx_HAL_Driver/Src/stm32f4xx_hal_hcd.c ****   hprt0 = USBx_HPRT0;
 1044              		.loc 1 1585 3 view .LVU284
 1045              		.loc 1 1585 11 is_stmt 0 view .LVU285
 1046 0008 D5F84034 		ldr	r3, [r5, #1088]
 1047              		.loc 1 1585 9 view .LVU286
 1048 000c 0193     		str	r3, [sp, #4]
1586:Libraries/STM32F4xx_HAL_Driver/Src/stm32f4xx_hal_hcd.c ****   hprt0_dup = USBx_HPRT0;
 1049              		.loc 1 1586 3 is_stmt 1 view .LVU287
 1050              		.loc 1 1586 15 is_stmt 0 view .LVU288
 1051 000e D5F84034 		ldr	r3, [r5, #1088]
 1052              		.loc 1 1586 13 view .LVU289
 1053 0012 0093     		str	r3, [sp]
1587:Libraries/STM32F4xx_HAL_Driver/Src/stm32f4xx_hal_hcd.c **** 
1588:Libraries/STM32F4xx_HAL_Driver/Src/stm32f4xx_hal_hcd.c ****   hprt0_dup &= ~(USB_OTG_HPRT_PENA | USB_OTG_HPRT_PCDET | \
 1054              		.loc 1 1588 3 is_stmt 1 view .LVU290
 1055              		.loc 1 1588 13 is_stmt 0 view .LVU291
 1056 0014 009B     		ldr	r3, [sp]
 1057 0016 23F02E03 		bic	r3, r3, #46
 1058 001a 0093     		str	r3, [sp]
1589:Libraries/STM32F4xx_HAL_Driver/Src/stm32f4xx_hal_hcd.c ****                  USB_OTG_HPRT_PENCHNG | USB_OTG_HPRT_POCCHNG);
1590:Libraries/STM32F4xx_HAL_Driver/Src/stm32f4xx_hal_hcd.c **** 
1591:Libraries/STM32F4xx_HAL_Driver/Src/stm32f4xx_hal_hcd.c ****   /* Check whether Port Connect detected */
1592:Libraries/STM32F4xx_HAL_Driver/Src/stm32f4xx_hal_hcd.c ****   if ((hprt0 & USB_OTG_HPRT_PCDET) == USB_OTG_HPRT_PCDET)
 1059              		.loc 1 1592 3 is_stmt 1 view .LVU292
 1060              		.loc 1 1592 14 is_stmt 0 view .LVU293
 1061 001c 019B     		ldr	r3, [sp, #4]
 1062              		.loc 1 1592 6 view .LVU294
 1063 001e 13F0020F 		tst	r3, #2
 1064 0022 07D0     		beq	.L65
1593:Libraries/STM32F4xx_HAL_Driver/Src/stm32f4xx_hal_hcd.c ****   {
1594:Libraries/STM32F4xx_HAL_Driver/Src/stm32f4xx_hal_hcd.c ****     if ((hprt0 & USB_OTG_HPRT_PCSTS) == USB_OTG_HPRT_PCSTS)
 1065              		.loc 1 1594 5 is_stmt 1 view .LVU295
 1066              		.loc 1 1594 16 is_stmt 0 view .LVU296
 1067 0024 019B     		ldr	r3, [sp, #4]
 1068              		.loc 1 1594 8 view .LVU297
 1069 0026 13F0010F 		tst	r3, #1
 1070 002a 25D1     		bne	.L74
 1071              	.LVL79:
 1072              	.L66:
1595:Libraries/STM32F4xx_HAL_Driver/Src/stm32f4xx_hal_hcd.c ****     {
1596:Libraries/STM32F4xx_HAL_Driver/Src/stm32f4xx_hal_hcd.c **** #if (USE_HAL_HCD_REGISTER_CALLBACKS == 1U)
1597:Libraries/STM32F4xx_HAL_Driver/Src/stm32f4xx_hal_hcd.c ****       hhcd->ConnectCallback(hhcd);
1598:Libraries/STM32F4xx_HAL_Driver/Src/stm32f4xx_hal_hcd.c **** #else
1599:Libraries/STM32F4xx_HAL_Driver/Src/stm32f4xx_hal_hcd.c ****       HAL_HCD_Connect_Callback(hhcd);
1600:Libraries/STM32F4xx_HAL_Driver/Src/stm32f4xx_hal_hcd.c **** #endif /* USE_HAL_HCD_REGISTER_CALLBACKS */
1601:Libraries/STM32F4xx_HAL_Driver/Src/stm32f4xx_hal_hcd.c ****     }
1602:Libraries/STM32F4xx_HAL_Driver/Src/stm32f4xx_hal_hcd.c ****     hprt0_dup  |= USB_OTG_HPRT_PCDET;
 1073              		.loc 1 1602 5 is_stmt 1 view .LVU298
 1074              		.loc 1 1602 16 is_stmt 0 view .LVU299
 1075 002c 009B     		ldr	r3, [sp]
 1076 002e 43F00203 		orr	r3, r3, #2
 1077 0032 0093     		str	r3, [sp]
 1078              	.L65:
ARM GAS  C:\Users\yzy\AppData\Local\Temp\cco1yVr9.s 			page 52


1603:Libraries/STM32F4xx_HAL_Driver/Src/stm32f4xx_hal_hcd.c ****   }
1604:Libraries/STM32F4xx_HAL_Driver/Src/stm32f4xx_hal_hcd.c **** 
1605:Libraries/STM32F4xx_HAL_Driver/Src/stm32f4xx_hal_hcd.c ****   /* Check whether Port Enable Changed */
1606:Libraries/STM32F4xx_HAL_Driver/Src/stm32f4xx_hal_hcd.c ****   if ((hprt0 & USB_OTG_HPRT_PENCHNG) == USB_OTG_HPRT_PENCHNG)
 1079              		.loc 1 1606 3 is_stmt 1 view .LVU300
 1080              		.loc 1 1606 14 is_stmt 0 view .LVU301
 1081 0034 019B     		ldr	r3, [sp, #4]
 1082              		.loc 1 1606 6 view .LVU302
 1083 0036 13F0080F 		tst	r3, #8
 1084 003a 10D0     		beq	.L67
1607:Libraries/STM32F4xx_HAL_Driver/Src/stm32f4xx_hal_hcd.c ****   {
1608:Libraries/STM32F4xx_HAL_Driver/Src/stm32f4xx_hal_hcd.c ****     hprt0_dup |= USB_OTG_HPRT_PENCHNG;
 1085              		.loc 1 1608 5 is_stmt 1 view .LVU303
 1086              		.loc 1 1608 15 is_stmt 0 view .LVU304
 1087 003c 009B     		ldr	r3, [sp]
 1088 003e 43F00803 		orr	r3, r3, #8
 1089 0042 0093     		str	r3, [sp]
1609:Libraries/STM32F4xx_HAL_Driver/Src/stm32f4xx_hal_hcd.c **** 
1610:Libraries/STM32F4xx_HAL_Driver/Src/stm32f4xx_hal_hcd.c ****     if ((hprt0 & USB_OTG_HPRT_PENA) == USB_OTG_HPRT_PENA)
 1090              		.loc 1 1610 5 is_stmt 1 view .LVU305
 1091              		.loc 1 1610 16 is_stmt 0 view .LVU306
 1092 0044 019B     		ldr	r3, [sp, #4]
 1093              		.loc 1 1610 8 view .LVU307
 1094 0046 13F0040F 		tst	r3, #4
 1095 004a 2DD0     		beq	.L68
1611:Libraries/STM32F4xx_HAL_Driver/Src/stm32f4xx_hal_hcd.c ****     {
1612:Libraries/STM32F4xx_HAL_Driver/Src/stm32f4xx_hal_hcd.c ****       if (hhcd->Init.phy_itface  == USB_OTG_EMBEDDED_PHY)
 1096              		.loc 1 1612 7 is_stmt 1 view .LVU308
 1097              		.loc 1 1612 21 is_stmt 0 view .LVU309
 1098 004c A369     		ldr	r3, [r4, #24]
 1099              		.loc 1 1612 10 view .LVU310
 1100 004e 022B     		cmp	r3, #2
 1101 0050 15D0     		beq	.L75
1613:Libraries/STM32F4xx_HAL_Driver/Src/stm32f4xx_hal_hcd.c ****       {
1614:Libraries/STM32F4xx_HAL_Driver/Src/stm32f4xx_hal_hcd.c ****         if ((hprt0 & USB_OTG_HPRT_PSPD) == (HPRT0_PRTSPD_LOW_SPEED << 17))
1615:Libraries/STM32F4xx_HAL_Driver/Src/stm32f4xx_hal_hcd.c ****         {
1616:Libraries/STM32F4xx_HAL_Driver/Src/stm32f4xx_hal_hcd.c ****           (void)USB_InitFSLSPClkSel(hhcd->Instance, HCFG_6_MHZ);
1617:Libraries/STM32F4xx_HAL_Driver/Src/stm32f4xx_hal_hcd.c ****         }
1618:Libraries/STM32F4xx_HAL_Driver/Src/stm32f4xx_hal_hcd.c ****         else
1619:Libraries/STM32F4xx_HAL_Driver/Src/stm32f4xx_hal_hcd.c ****         {
1620:Libraries/STM32F4xx_HAL_Driver/Src/stm32f4xx_hal_hcd.c ****           (void)USB_InitFSLSPClkSel(hhcd->Instance, HCFG_48_MHZ);
1621:Libraries/STM32F4xx_HAL_Driver/Src/stm32f4xx_hal_hcd.c ****         }
1622:Libraries/STM32F4xx_HAL_Driver/Src/stm32f4xx_hal_hcd.c ****       }
1623:Libraries/STM32F4xx_HAL_Driver/Src/stm32f4xx_hal_hcd.c ****       else
1624:Libraries/STM32F4xx_HAL_Driver/Src/stm32f4xx_hal_hcd.c ****       {
1625:Libraries/STM32F4xx_HAL_Driver/Src/stm32f4xx_hal_hcd.c ****         if (hhcd->Init.speed == HCD_SPEED_FULL)
 1102              		.loc 1 1625 9 is_stmt 1 view .LVU311
 1103              		.loc 1 1625 23 is_stmt 0 view .LVU312
 1104 0052 E368     		ldr	r3, [r4, #12]
 1105              		.loc 1 1625 12 view .LVU313
 1106 0054 012B     		cmp	r3, #1
 1107 0056 22D0     		beq	.L76
 1108              	.L71:
1626:Libraries/STM32F4xx_HAL_Driver/Src/stm32f4xx_hal_hcd.c ****         {
1627:Libraries/STM32F4xx_HAL_Driver/Src/stm32f4xx_hal_hcd.c ****           USBx_HOST->HFIR = 60000U;
1628:Libraries/STM32F4xx_HAL_Driver/Src/stm32f4xx_hal_hcd.c ****         }
1629:Libraries/STM32F4xx_HAL_Driver/Src/stm32f4xx_hal_hcd.c ****       }
ARM GAS  C:\Users\yzy\AppData\Local\Temp\cco1yVr9.s 			page 53


1630:Libraries/STM32F4xx_HAL_Driver/Src/stm32f4xx_hal_hcd.c **** #if (USE_HAL_HCD_REGISTER_CALLBACKS == 1U)
1631:Libraries/STM32F4xx_HAL_Driver/Src/stm32f4xx_hal_hcd.c ****       hhcd->PortEnabledCallback(hhcd);
1632:Libraries/STM32F4xx_HAL_Driver/Src/stm32f4xx_hal_hcd.c **** #else
1633:Libraries/STM32F4xx_HAL_Driver/Src/stm32f4xx_hal_hcd.c ****       HAL_HCD_PortEnabled_Callback(hhcd);
 1109              		.loc 1 1633 7 is_stmt 1 view .LVU314
 1110 0058 2046     		mov	r0, r4
 1111 005a FFF7FEFF 		bl	HAL_HCD_PortEnabled_Callback
 1112              	.LVL80:
 1113              	.L67:
1634:Libraries/STM32F4xx_HAL_Driver/Src/stm32f4xx_hal_hcd.c **** #endif /* USE_HAL_HCD_REGISTER_CALLBACKS */
1635:Libraries/STM32F4xx_HAL_Driver/Src/stm32f4xx_hal_hcd.c **** 
1636:Libraries/STM32F4xx_HAL_Driver/Src/stm32f4xx_hal_hcd.c ****     }
1637:Libraries/STM32F4xx_HAL_Driver/Src/stm32f4xx_hal_hcd.c ****     else
1638:Libraries/STM32F4xx_HAL_Driver/Src/stm32f4xx_hal_hcd.c ****     {
1639:Libraries/STM32F4xx_HAL_Driver/Src/stm32f4xx_hal_hcd.c **** #if (USE_HAL_HCD_REGISTER_CALLBACKS == 1U)
1640:Libraries/STM32F4xx_HAL_Driver/Src/stm32f4xx_hal_hcd.c ****       hhcd->PortDisabledCallback(hhcd);
1641:Libraries/STM32F4xx_HAL_Driver/Src/stm32f4xx_hal_hcd.c **** #else
1642:Libraries/STM32F4xx_HAL_Driver/Src/stm32f4xx_hal_hcd.c ****       HAL_HCD_PortDisabled_Callback(hhcd);
1643:Libraries/STM32F4xx_HAL_Driver/Src/stm32f4xx_hal_hcd.c **** #endif /* USE_HAL_HCD_REGISTER_CALLBACKS */
1644:Libraries/STM32F4xx_HAL_Driver/Src/stm32f4xx_hal_hcd.c ****     }
1645:Libraries/STM32F4xx_HAL_Driver/Src/stm32f4xx_hal_hcd.c ****   }
1646:Libraries/STM32F4xx_HAL_Driver/Src/stm32f4xx_hal_hcd.c **** 
1647:Libraries/STM32F4xx_HAL_Driver/Src/stm32f4xx_hal_hcd.c ****   /* Check for an overcurrent */
1648:Libraries/STM32F4xx_HAL_Driver/Src/stm32f4xx_hal_hcd.c ****   if ((hprt0 & USB_OTG_HPRT_POCCHNG) == USB_OTG_HPRT_POCCHNG)
 1114              		.loc 1 1648 3 view .LVU315
 1115              		.loc 1 1648 14 is_stmt 0 view .LVU316
 1116 005e 019B     		ldr	r3, [sp, #4]
 1117              		.loc 1 1648 6 view .LVU317
 1118 0060 13F0200F 		tst	r3, #32
 1119 0064 03D0     		beq	.L72
1649:Libraries/STM32F4xx_HAL_Driver/Src/stm32f4xx_hal_hcd.c ****   {
1650:Libraries/STM32F4xx_HAL_Driver/Src/stm32f4xx_hal_hcd.c ****     hprt0_dup |= USB_OTG_HPRT_POCCHNG;
 1120              		.loc 1 1650 5 is_stmt 1 view .LVU318
 1121              		.loc 1 1650 15 is_stmt 0 view .LVU319
 1122 0066 009B     		ldr	r3, [sp]
 1123 0068 43F02003 		orr	r3, r3, #32
 1124 006c 0093     		str	r3, [sp]
 1125              	.L72:
1651:Libraries/STM32F4xx_HAL_Driver/Src/stm32f4xx_hal_hcd.c ****   }
1652:Libraries/STM32F4xx_HAL_Driver/Src/stm32f4xx_hal_hcd.c **** 
1653:Libraries/STM32F4xx_HAL_Driver/Src/stm32f4xx_hal_hcd.c ****   /* Clear Port Interrupts */
1654:Libraries/STM32F4xx_HAL_Driver/Src/stm32f4xx_hal_hcd.c ****   USBx_HPRT0 = hprt0_dup;
 1126              		.loc 1 1654 3 is_stmt 1 view .LVU320
 1127              		.loc 1 1654 14 is_stmt 0 view .LVU321
 1128 006e 009B     		ldr	r3, [sp]
 1129 0070 C5F84034 		str	r3, [r5, #1088]
1655:Libraries/STM32F4xx_HAL_Driver/Src/stm32f4xx_hal_hcd.c **** }
 1130              		.loc 1 1655 1 view .LVU322
 1131 0074 03B0     		add	sp, sp, #12
 1132              	.LCFI17:
 1133              		.cfi_remember_state
 1134              		.cfi_def_cfa_offset 12
 1135              		@ sp needed
 1136 0076 30BD     		pop	{r4, r5, pc}
 1137              	.LVL81:
 1138              	.L74:
 1139              	.LCFI18:
ARM GAS  C:\Users\yzy\AppData\Local\Temp\cco1yVr9.s 			page 54


 1140              		.cfi_restore_state
1599:Libraries/STM32F4xx_HAL_Driver/Src/stm32f4xx_hal_hcd.c **** #endif /* USE_HAL_HCD_REGISTER_CALLBACKS */
 1141              		.loc 1 1599 7 is_stmt 1 view .LVU323
 1142 0078 FFF7FEFF 		bl	HAL_HCD_Connect_Callback
 1143              	.LVL82:
1599:Libraries/STM32F4xx_HAL_Driver/Src/stm32f4xx_hal_hcd.c **** #endif /* USE_HAL_HCD_REGISTER_CALLBACKS */
 1144              		.loc 1 1599 7 is_stmt 0 view .LVU324
 1145 007c D6E7     		b	.L66
 1146              	.L75:
1614:Libraries/STM32F4xx_HAL_Driver/Src/stm32f4xx_hal_hcd.c ****         {
 1147              		.loc 1 1614 9 is_stmt 1 view .LVU325
1614:Libraries/STM32F4xx_HAL_Driver/Src/stm32f4xx_hal_hcd.c ****         {
 1148              		.loc 1 1614 20 is_stmt 0 view .LVU326
 1149 007e 019B     		ldr	r3, [sp, #4]
 1150 0080 03F4C023 		and	r3, r3, #393216
1614:Libraries/STM32F4xx_HAL_Driver/Src/stm32f4xx_hal_hcd.c ****         {
 1151              		.loc 1 1614 12 view .LVU327
 1152 0084 B3F5802F 		cmp	r3, #262144
 1153 0088 04D0     		beq	.L77
1620:Libraries/STM32F4xx_HAL_Driver/Src/stm32f4xx_hal_hcd.c ****         }
 1154              		.loc 1 1620 11 is_stmt 1 view .LVU328
1620:Libraries/STM32F4xx_HAL_Driver/Src/stm32f4xx_hal_hcd.c ****         }
 1155              		.loc 1 1620 17 is_stmt 0 view .LVU329
 1156 008a 0121     		movs	r1, #1
 1157 008c 2068     		ldr	r0, [r4]
 1158 008e FFF7FEFF 		bl	USB_InitFSLSPClkSel
 1159              	.LVL83:
 1160 0092 E1E7     		b	.L71
 1161              	.L77:
1616:Libraries/STM32F4xx_HAL_Driver/Src/stm32f4xx_hal_hcd.c ****         }
 1162              		.loc 1 1616 11 is_stmt 1 view .LVU330
1616:Libraries/STM32F4xx_HAL_Driver/Src/stm32f4xx_hal_hcd.c ****         }
 1163              		.loc 1 1616 17 is_stmt 0 view .LVU331
 1164 0094 0221     		movs	r1, #2
 1165 0096 2068     		ldr	r0, [r4]
 1166 0098 FFF7FEFF 		bl	USB_InitFSLSPClkSel
 1167              	.LVL84:
 1168 009c DCE7     		b	.L71
 1169              	.L76:
1627:Libraries/STM32F4xx_HAL_Driver/Src/stm32f4xx_hal_hcd.c ****         }
 1170              		.loc 1 1627 11 is_stmt 1 view .LVU332
1627:Libraries/STM32F4xx_HAL_Driver/Src/stm32f4xx_hal_hcd.c ****         }
 1171              		.loc 1 1627 27 is_stmt 0 view .LVU333
 1172 009e 4EF66022 		movw	r2, #60000
 1173 00a2 C5F80424 		str	r2, [r5, #1028]
 1174 00a6 D7E7     		b	.L71
 1175              	.L68:
1642:Libraries/STM32F4xx_HAL_Driver/Src/stm32f4xx_hal_hcd.c **** #endif /* USE_HAL_HCD_REGISTER_CALLBACKS */
 1176              		.loc 1 1642 7 is_stmt 1 view .LVU334
 1177 00a8 2046     		mov	r0, r4
 1178 00aa FFF7FEFF 		bl	HAL_HCD_PortDisabled_Callback
 1179              	.LVL85:
 1180 00ae D6E7     		b	.L67
 1181              		.cfi_endproc
 1182              	.LFE157:
 1184              		.section	.text.HAL_HCD_HC_NotifyURBChange_Callback,"ax",%progbits
 1185              		.align	1
ARM GAS  C:\Users\yzy\AppData\Local\Temp\cco1yVr9.s 			page 55


 1186              		.weak	HAL_HCD_HC_NotifyURBChange_Callback
 1187              		.syntax unified
 1188              		.thumb
 1189              		.thumb_func
 1190              		.fpu softvfp
 1192              	HAL_HCD_HC_NotifyURBChange_Callback:
 1193              	.LVL86:
 1194              	.LFB144:
 705:Libraries/STM32F4xx_HAL_Driver/Src/stm32f4xx_hal_hcd.c ****   /* Prevent unused argument(s) compilation warning */
 1195              		.loc 1 705 1 view -0
 1196              		.cfi_startproc
 1197              		@ args = 0, pretend = 0, frame = 0
 1198              		@ frame_needed = 0, uses_anonymous_args = 0
 1199              		@ link register save eliminated.
 707:Libraries/STM32F4xx_HAL_Driver/Src/stm32f4xx_hal_hcd.c ****   UNUSED(chnum);
 1200              		.loc 1 707 3 view .LVU336
 708:Libraries/STM32F4xx_HAL_Driver/Src/stm32f4xx_hal_hcd.c ****   UNUSED(urb_state);
 1201              		.loc 1 708 3 view .LVU337
 709:Libraries/STM32F4xx_HAL_Driver/Src/stm32f4xx_hal_hcd.c **** 
 1202              		.loc 1 709 3 view .LVU338
 714:Libraries/STM32F4xx_HAL_Driver/Src/stm32f4xx_hal_hcd.c **** 
 1203              		.loc 1 714 1 is_stmt 0 view .LVU339
 1204 0000 7047     		bx	lr
 1205              		.cfi_endproc
 1206              	.LFE144:
 1208              		.section	.text.HCD_HC_IN_IRQHandler,"ax",%progbits
 1209              		.align	1
 1210              		.syntax unified
 1211              		.thumb
 1212              		.thumb_func
 1213              		.fpu softvfp
 1215              	HCD_HC_IN_IRQHandler:
 1216              	.LVL87:
 1217              	.LFB154:
1176:Libraries/STM32F4xx_HAL_Driver/Src/stm32f4xx_hal_hcd.c ****   USB_OTG_GlobalTypeDef *USBx = hhcd->Instance;
 1218              		.loc 1 1176 1 is_stmt 1 view -0
 1219              		.cfi_startproc
 1220              		@ args = 0, pretend = 0, frame = 0
 1221              		@ frame_needed = 0, uses_anonymous_args = 0
1176:Libraries/STM32F4xx_HAL_Driver/Src/stm32f4xx_hal_hcd.c ****   USB_OTG_GlobalTypeDef *USBx = hhcd->Instance;
 1222              		.loc 1 1176 1 is_stmt 0 view .LVU341
 1223 0000 F8B5     		push	{r3, r4, r5, r6, r7, lr}
 1224              	.LCFI19:
 1225              		.cfi_def_cfa_offset 24
 1226              		.cfi_offset 3, -24
 1227              		.cfi_offset 4, -20
 1228              		.cfi_offset 5, -16
 1229              		.cfi_offset 6, -12
 1230              		.cfi_offset 7, -8
 1231              		.cfi_offset 14, -4
 1232 0002 0646     		mov	r6, r0
 1233 0004 0C46     		mov	r4, r1
1177:Libraries/STM32F4xx_HAL_Driver/Src/stm32f4xx_hal_hcd.c ****   uint32_t USBx_BASE = (uint32_t)USBx;
 1234              		.loc 1 1177 3 is_stmt 1 view .LVU342
1177:Libraries/STM32F4xx_HAL_Driver/Src/stm32f4xx_hal_hcd.c ****   uint32_t USBx_BASE = (uint32_t)USBx;
 1235              		.loc 1 1177 26 is_stmt 0 view .LVU343
 1236 0006 0768     		ldr	r7, [r0]
ARM GAS  C:\Users\yzy\AppData\Local\Temp\cco1yVr9.s 			page 56


 1237              	.LVL88:
1178:Libraries/STM32F4xx_HAL_Driver/Src/stm32f4xx_hal_hcd.c ****   uint32_t ch_num = (uint32_t)chnum;
 1238              		.loc 1 1178 3 is_stmt 1 view .LVU344
1179:Libraries/STM32F4xx_HAL_Driver/Src/stm32f4xx_hal_hcd.c **** 
 1239              		.loc 1 1179 3 view .LVU345
1181:Libraries/STM32F4xx_HAL_Driver/Src/stm32f4xx_hal_hcd.c **** 
 1240              		.loc 1 1181 3 view .LVU346
1183:Libraries/STM32F4xx_HAL_Driver/Src/stm32f4xx_hal_hcd.c ****   {
 1241              		.loc 1 1183 3 view .LVU347
1183:Libraries/STM32F4xx_HAL_Driver/Src/stm32f4xx_hal_hcd.c ****   {
 1242              		.loc 1 1183 8 is_stmt 0 view .LVU348
 1243 0008 07EB4117 		add	r7, r7, r1, lsl #5
 1244              	.LVL89:
1183:Libraries/STM32F4xx_HAL_Driver/Src/stm32f4xx_hal_hcd.c ****   {
 1245              		.loc 1 1183 8 view .LVU349
 1246 000c 07F5A065 		add	r5, r7, #1280
1183:Libraries/STM32F4xx_HAL_Driver/Src/stm32f4xx_hal_hcd.c ****   {
 1247              		.loc 1 1183 23 view .LVU350
 1248 0010 AB68     		ldr	r3, [r5, #8]
1183:Libraries/STM32F4xx_HAL_Driver/Src/stm32f4xx_hal_hcd.c ****   {
 1249              		.loc 1 1183 6 view .LVU351
 1250 0012 13F0040F 		tst	r3, #4
 1251 0016 40D0     		beq	.L80
1185:Libraries/STM32F4xx_HAL_Driver/Src/stm32f4xx_hal_hcd.c ****     __HAL_HCD_UNMASK_HALT_HC_INT(ch_num);
 1252              		.loc 1 1185 5 is_stmt 1 view .LVU352
 1253 0018 0423     		movs	r3, #4
 1254 001a AB60     		str	r3, [r5, #8]
 1255              	.LVL90:
1186:Libraries/STM32F4xx_HAL_Driver/Src/stm32f4xx_hal_hcd.c ****   }
 1256              		.loc 1 1186 5 view .LVU353
 1257 001c EB68     		ldr	r3, [r5, #12]
 1258 001e 43F00203 		orr	r3, r3, #2
 1259 0022 EB60     		str	r3, [r5, #12]
 1260              	.LVL91:
 1261              	.L81:
1218:Libraries/STM32F4xx_HAL_Driver/Src/stm32f4xx_hal_hcd.c **** 
 1262              		.loc 1 1218 3 view .LVU354
1220:Libraries/STM32F4xx_HAL_Driver/Src/stm32f4xx_hal_hcd.c ****   {
 1263              		.loc 1 1220 3 view .LVU355
1220:Libraries/STM32F4xx_HAL_Driver/Src/stm32f4xx_hal_hcd.c ****   {
 1264              		.loc 1 1220 23 is_stmt 0 view .LVU356
 1265 0024 AB68     		ldr	r3, [r5, #8]
1220:Libraries/STM32F4xx_HAL_Driver/Src/stm32f4xx_hal_hcd.c ****   {
 1266              		.loc 1 1220 6 view .LVU357
 1267 0026 13F4007F 		tst	r3, #512
 1268 002a 40F08280 		bne	.L107
1226:Libraries/STM32F4xx_HAL_Driver/Src/stm32f4xx_hal_hcd.c ****   {
 1269              		.loc 1 1226 8 is_stmt 1 view .LVU358
1226:Libraries/STM32F4xx_HAL_Driver/Src/stm32f4xx_hal_hcd.c ****   {
 1270              		.loc 1 1226 28 is_stmt 0 view .LVU359
 1271 002e AB68     		ldr	r3, [r5, #8]
1226:Libraries/STM32F4xx_HAL_Driver/Src/stm32f4xx_hal_hcd.c ****   {
 1272              		.loc 1 1226 11 view .LVU360
 1273 0030 13F0010F 		tst	r3, #1
 1274 0034 00F0B080 		beq	.L87
1228:Libraries/STM32F4xx_HAL_Driver/Src/stm32f4xx_hal_hcd.c ****     {
 1275              		.loc 1 1228 5 is_stmt 1 view .LVU361
ARM GAS  C:\Users\yzy\AppData\Local\Temp\cco1yVr9.s 			page 57


1228:Libraries/STM32F4xx_HAL_Driver/Src/stm32f4xx_hal_hcd.c ****     {
 1276              		.loc 1 1228 19 is_stmt 0 view .LVU362
 1277 0038 3369     		ldr	r3, [r6, #16]
1228:Libraries/STM32F4xx_HAL_Driver/Src/stm32f4xx_hal_hcd.c ****     {
 1278              		.loc 1 1228 8 view .LVU363
 1279 003a 4BB1     		cbz	r3, .L88
1230:Libraries/STM32F4xx_HAL_Driver/Src/stm32f4xx_hal_hcd.c ****                                     (USBx_HC(ch_num)->HCTSIZ & USB_OTG_HCTSIZ_XFRSIZ);
 1280              		.loc 1 1230 7 is_stmt 1 view .LVU364
1230:Libraries/STM32F4xx_HAL_Driver/Src/stm32f4xx_hal_hcd.c ****                                     (USBx_HC(ch_num)->HCTSIZ & USB_OTG_HCTSIZ_XFRSIZ);
 1281              		.loc 1 1230 53 is_stmt 0 view .LVU365
 1282 003c 04EB8403 		add	r3, r4, r4, lsl #2
 1283 0040 06EBC303 		add	r3, r6, r3, lsl #3
 1284 0044 9A6C     		ldr	r2, [r3, #72]
1231:Libraries/STM32F4xx_HAL_Driver/Src/stm32f4xx_hal_hcd.c ****     }
 1285              		.loc 1 1231 53 view .LVU366
 1286 0046 2969     		ldr	r1, [r5, #16]
1231:Libraries/STM32F4xx_HAL_Driver/Src/stm32f4xx_hal_hcd.c ****     }
 1287              		.loc 1 1231 62 view .LVU367
 1288 0048 C1F31201 		ubfx	r1, r1, #0, #19
1230:Libraries/STM32F4xx_HAL_Driver/Src/stm32f4xx_hal_hcd.c ****                                     (USBx_HC(ch_num)->HCTSIZ & USB_OTG_HCTSIZ_XFRSIZ);
 1289              		.loc 1 1230 63 view .LVU368
 1290 004c 521A     		subs	r2, r2, r1
1230:Libraries/STM32F4xx_HAL_Driver/Src/stm32f4xx_hal_hcd.c ****                                     (USBx_HC(ch_num)->HCTSIZ & USB_OTG_HCTSIZ_XFRSIZ);
 1291              		.loc 1 1230 35 view .LVU369
 1292 004e DA64     		str	r2, [r3, #76]
 1293              	.L88:
1234:Libraries/STM32F4xx_HAL_Driver/Src/stm32f4xx_hal_hcd.c ****     hhcd->hc[ch_num].ErrCnt = 0U;
 1294              		.loc 1 1234 5 is_stmt 1 view .LVU370
1234:Libraries/STM32F4xx_HAL_Driver/Src/stm32f4xx_hal_hcd.c ****     hhcd->hc[ch_num].ErrCnt = 0U;
 1295              		.loc 1 1234 28 is_stmt 0 view .LVU371
 1296 0050 04EB8403 		add	r3, r4, r4, lsl #2
 1297 0054 06EBC303 		add	r3, r6, r3, lsl #3
 1298 0058 0122     		movs	r2, #1
 1299 005a 83F85D20 		strb	r2, [r3, #93]
1235:Libraries/STM32F4xx_HAL_Driver/Src/stm32f4xx_hal_hcd.c ****     __HAL_HCD_CLEAR_HC_INT(ch_num, USB_OTG_HCINT_XFRC);
 1300              		.loc 1 1235 5 is_stmt 1 view .LVU372
1235:Libraries/STM32F4xx_HAL_Driver/Src/stm32f4xx_hal_hcd.c ****     __HAL_HCD_CLEAR_HC_INT(ch_num, USB_OTG_HCINT_XFRC);
 1301              		.loc 1 1235 29 is_stmt 0 view .LVU373
 1302 005e 0021     		movs	r1, #0
 1303 0060 9965     		str	r1, [r3, #88]
1236:Libraries/STM32F4xx_HAL_Driver/Src/stm32f4xx_hal_hcd.c **** 
 1304              		.loc 1 1236 5 is_stmt 1 view .LVU374
 1305 0062 AA60     		str	r2, [r5, #8]
1238:Libraries/STM32F4xx_HAL_Driver/Src/stm32f4xx_hal_hcd.c ****         (hhcd->hc[ch_num].ep_type == EP_TYPE_BULK))
 1306              		.loc 1 1238 5 view .LVU375
1238:Libraries/STM32F4xx_HAL_Driver/Src/stm32f4xx_hal_hcd.c ****         (hhcd->hc[ch_num].ep_type == EP_TYPE_BULK))
 1307              		.loc 1 1238 26 is_stmt 0 view .LVU376
 1308 0064 93F83F30 		ldrb	r3, [r3, #63]	@ zero_extendqisi2
1238:Libraries/STM32F4xx_HAL_Driver/Src/stm32f4xx_hal_hcd.c ****         (hhcd->hc[ch_num].ep_type == EP_TYPE_BULK))
 1309              		.loc 1 1238 8 view .LVU377
 1310 0068 002B     		cmp	r3, #0
 1311 006a 6ED0     		beq	.L89
1238:Libraries/STM32F4xx_HAL_Driver/Src/stm32f4xx_hal_hcd.c ****         (hhcd->hc[ch_num].ep_type == EP_TYPE_BULK))
 1312              		.loc 1 1238 52 discriminator 1 view .LVU378
 1313 006c 022B     		cmp	r3, #2
 1314 006e 6CD0     		beq	.L89
1245:Libraries/STM32F4xx_HAL_Driver/Src/stm32f4xx_hal_hcd.c ****     {
ARM GAS  C:\Users\yzy\AppData\Local\Temp\cco1yVr9.s 			page 58


 1315              		.loc 1 1245 10 is_stmt 1 view .LVU379
1245:Libraries/STM32F4xx_HAL_Driver/Src/stm32f4xx_hal_hcd.c ****     {
 1316              		.loc 1 1245 13 is_stmt 0 view .LVU380
 1317 0070 032B     		cmp	r3, #3
 1318 0072 7FD0     		beq	.L108
1256:Libraries/STM32F4xx_HAL_Driver/Src/stm32f4xx_hal_hcd.c ****     {
 1319              		.loc 1 1256 10 is_stmt 1 view .LVU381
1256:Libraries/STM32F4xx_HAL_Driver/Src/stm32f4xx_hal_hcd.c ****     {
 1320              		.loc 1 1256 13 is_stmt 0 view .LVU382
 1321 0074 012B     		cmp	r3, #1
 1322 0076 72D1     		bne	.L91
1258:Libraries/STM32F4xx_HAL_Driver/Src/stm32f4xx_hal_hcd.c ****       hhcd->hc[ch_num].toggle_in ^= 1U;
 1323              		.loc 1 1258 7 is_stmt 1 view .LVU383
1258:Libraries/STM32F4xx_HAL_Driver/Src/stm32f4xx_hal_hcd.c ****       hhcd->hc[ch_num].toggle_in ^= 1U;
 1324              		.loc 1 1258 34 is_stmt 0 view .LVU384
 1325 0078 04EB8403 		add	r3, r4, r4, lsl #2
 1326 007c 06EBC303 		add	r3, r6, r3, lsl #3
 1327 0080 0122     		movs	r2, #1
 1328 0082 83F85C20 		strb	r2, [r3, #92]
1259:Libraries/STM32F4xx_HAL_Driver/Src/stm32f4xx_hal_hcd.c **** 
 1329              		.loc 1 1259 7 is_stmt 1 view .LVU385
1259:Libraries/STM32F4xx_HAL_Driver/Src/stm32f4xx_hal_hcd.c **** 
 1330              		.loc 1 1259 34 is_stmt 0 view .LVU386
 1331 0086 93F85010 		ldrb	r1, [r3, #80]	@ zero_extendqisi2
 1332 008a 5140     		eors	r1, r1, r2
 1333 008c 83F85010 		strb	r1, [r3, #80]
1264:Libraries/STM32F4xx_HAL_Driver/Src/stm32f4xx_hal_hcd.c **** #endif /* USE_HAL_HCD_REGISTER_CALLBACKS */
 1334              		.loc 1 1264 7 is_stmt 1 view .LVU387
 1335 0090 2146     		mov	r1, r4
 1336 0092 3046     		mov	r0, r6
 1337 0094 FFF7FEFF 		bl	HAL_HCD_HC_NotifyURBChange_Callback
 1338              	.LVL92:
 1339 0098 61E0     		b	.L91
 1340              	.LVL93:
 1341              	.L80:
1188:Libraries/STM32F4xx_HAL_Driver/Src/stm32f4xx_hal_hcd.c ****   {
 1342              		.loc 1 1188 8 view .LVU388
1188:Libraries/STM32F4xx_HAL_Driver/Src/stm32f4xx_hal_hcd.c ****   {
 1343              		.loc 1 1188 28 is_stmt 0 view .LVU389
 1344 009a AB68     		ldr	r3, [r5, #8]
1188:Libraries/STM32F4xx_HAL_Driver/Src/stm32f4xx_hal_hcd.c ****   {
 1345              		.loc 1 1188 11 view .LVU390
 1346 009c 13F4807F 		tst	r3, #256
 1347 00a0 06D1     		bne	.L109
1195:Libraries/STM32F4xx_HAL_Driver/Src/stm32f4xx_hal_hcd.c ****   {
 1348              		.loc 1 1195 8 is_stmt 1 view .LVU391
1195:Libraries/STM32F4xx_HAL_Driver/Src/stm32f4xx_hal_hcd.c ****   {
 1349              		.loc 1 1195 28 is_stmt 0 view .LVU392
 1350 00a2 AB68     		ldr	r3, [r5, #8]
1195:Libraries/STM32F4xx_HAL_Driver/Src/stm32f4xx_hal_hcd.c ****   {
 1351              		.loc 1 1195 11 view .LVU393
 1352 00a4 13F0200F 		tst	r3, #32
 1353 00a8 14D0     		beq	.L83
1197:Libraries/STM32F4xx_HAL_Driver/Src/stm32f4xx_hal_hcd.c ****   }
 1354              		.loc 1 1197 5 is_stmt 1 view .LVU394
 1355 00aa 2023     		movs	r3, #32
 1356 00ac AB60     		str	r3, [r5, #8]
ARM GAS  C:\Users\yzy\AppData\Local\Temp\cco1yVr9.s 			page 59


 1357              	.LVL94:
1197:Libraries/STM32F4xx_HAL_Driver/Src/stm32f4xx_hal_hcd.c ****   }
 1358              		.loc 1 1197 5 is_stmt 0 view .LVU395
 1359 00ae B9E7     		b	.L81
 1360              	.LVL95:
 1361              	.L109:
1190:Libraries/STM32F4xx_HAL_Driver/Src/stm32f4xx_hal_hcd.c ****     hhcd->hc[ch_num].state = HC_BBLERR;
 1362              		.loc 1 1190 5 is_stmt 1 view .LVU396
 1363 00b0 4FF48073 		mov	r3, #256
 1364 00b4 AB60     		str	r3, [r5, #8]
 1365              	.LVL96:
1191:Libraries/STM32F4xx_HAL_Driver/Src/stm32f4xx_hal_hcd.c ****     __HAL_HCD_UNMASK_HALT_HC_INT(ch_num);
 1366              		.loc 1 1191 5 view .LVU397
1191:Libraries/STM32F4xx_HAL_Driver/Src/stm32f4xx_hal_hcd.c ****     __HAL_HCD_UNMASK_HALT_HC_INT(ch_num);
 1367              		.loc 1 1191 28 is_stmt 0 view .LVU398
 1368 00b6 01EB8103 		add	r3, r1, r1, lsl #2
 1369 00ba 00EBC303 		add	r3, r0, r3, lsl #3
 1370 00be 0722     		movs	r2, #7
 1371 00c0 83F85D20 		strb	r2, [r3, #93]
1192:Libraries/STM32F4xx_HAL_Driver/Src/stm32f4xx_hal_hcd.c ****     (void)USB_HC_Halt(hhcd->Instance, (uint8_t)ch_num);
 1372              		.loc 1 1192 5 is_stmt 1 view .LVU399
 1373 00c4 EB68     		ldr	r3, [r5, #12]
 1374 00c6 43F00203 		orr	r3, r3, #2
 1375 00ca EB60     		str	r3, [r5, #12]
1193:Libraries/STM32F4xx_HAL_Driver/Src/stm32f4xx_hal_hcd.c ****   }
 1376              		.loc 1 1193 5 view .LVU400
1193:Libraries/STM32F4xx_HAL_Driver/Src/stm32f4xx_hal_hcd.c ****   }
 1377              		.loc 1 1193 11 is_stmt 0 view .LVU401
 1378 00cc 0068     		ldr	r0, [r0]
 1379              	.LVL97:
1193:Libraries/STM32F4xx_HAL_Driver/Src/stm32f4xx_hal_hcd.c ****   }
 1380              		.loc 1 1193 11 view .LVU402
 1381 00ce FFF7FEFF 		bl	USB_HC_Halt
 1382              	.LVL98:
1193:Libraries/STM32F4xx_HAL_Driver/Src/stm32f4xx_hal_hcd.c ****   }
 1383              		.loc 1 1193 11 view .LVU403
 1384 00d2 A7E7     		b	.L81
 1385              	.LVL99:
 1386              	.L83:
1199:Libraries/STM32F4xx_HAL_Driver/Src/stm32f4xx_hal_hcd.c ****   {
 1387              		.loc 1 1199 8 is_stmt 1 view .LVU404
1199:Libraries/STM32F4xx_HAL_Driver/Src/stm32f4xx_hal_hcd.c ****   {
 1388              		.loc 1 1199 28 is_stmt 0 view .LVU405
 1389 00d4 AB68     		ldr	r3, [r5, #8]
1199:Libraries/STM32F4xx_HAL_Driver/Src/stm32f4xx_hal_hcd.c ****   {
 1390              		.loc 1 1199 11 view .LVU406
 1391 00d6 13F0080F 		tst	r3, #8
 1392 00da 17D1     		bne	.L110
1207:Libraries/STM32F4xx_HAL_Driver/Src/stm32f4xx_hal_hcd.c ****   {
 1393              		.loc 1 1207 8 is_stmt 1 view .LVU407
1207:Libraries/STM32F4xx_HAL_Driver/Src/stm32f4xx_hal_hcd.c ****   {
 1394              		.loc 1 1207 28 is_stmt 0 view .LVU408
 1395 00dc AB68     		ldr	r3, [r5, #8]
1207:Libraries/STM32F4xx_HAL_Driver/Src/stm32f4xx_hal_hcd.c ****   {
 1396              		.loc 1 1207 11 view .LVU409
 1397 00de 13F4806F 		tst	r3, #1024
 1398 00e2 9FD0     		beq	.L81
ARM GAS  C:\Users\yzy\AppData\Local\Temp\cco1yVr9.s 			page 60


1209:Libraries/STM32F4xx_HAL_Driver/Src/stm32f4xx_hal_hcd.c ****     (void)USB_HC_Halt(hhcd->Instance, (uint8_t)ch_num);
 1399              		.loc 1 1209 5 is_stmt 1 view .LVU410
 1400 00e4 EB68     		ldr	r3, [r5, #12]
 1401 00e6 43F00203 		orr	r3, r3, #2
 1402 00ea EB60     		str	r3, [r5, #12]
 1403              	.LVL100:
1210:Libraries/STM32F4xx_HAL_Driver/Src/stm32f4xx_hal_hcd.c ****     __HAL_HCD_CLEAR_HC_INT(ch_num, USB_OTG_HCINT_NAK);
 1404              		.loc 1 1210 5 view .LVU411
1210:Libraries/STM32F4xx_HAL_Driver/Src/stm32f4xx_hal_hcd.c ****     __HAL_HCD_CLEAR_HC_INT(ch_num, USB_OTG_HCINT_NAK);
 1405              		.loc 1 1210 11 is_stmt 0 view .LVU412
 1406 00ec 0068     		ldr	r0, [r0]
 1407              	.LVL101:
1210:Libraries/STM32F4xx_HAL_Driver/Src/stm32f4xx_hal_hcd.c ****     __HAL_HCD_CLEAR_HC_INT(ch_num, USB_OTG_HCINT_NAK);
 1408              		.loc 1 1210 11 view .LVU413
 1409 00ee FFF7FEFF 		bl	USB_HC_Halt
 1410              	.LVL102:
1211:Libraries/STM32F4xx_HAL_Driver/Src/stm32f4xx_hal_hcd.c ****     hhcd->hc[ch_num].state = HC_DATATGLERR;
 1411              		.loc 1 1211 5 is_stmt 1 view .LVU414
 1412 00f2 1023     		movs	r3, #16
 1413 00f4 AB60     		str	r3, [r5, #8]
1212:Libraries/STM32F4xx_HAL_Driver/Src/stm32f4xx_hal_hcd.c ****     __HAL_HCD_CLEAR_HC_INT(ch_num, USB_OTG_HCINT_DTERR);
 1414              		.loc 1 1212 5 view .LVU415
1212:Libraries/STM32F4xx_HAL_Driver/Src/stm32f4xx_hal_hcd.c ****     __HAL_HCD_CLEAR_HC_INT(ch_num, USB_OTG_HCINT_DTERR);
 1415              		.loc 1 1212 28 is_stmt 0 view .LVU416
 1416 00f6 04EB8403 		add	r3, r4, r4, lsl #2
 1417 00fa 06EBC303 		add	r3, r6, r3, lsl #3
 1418 00fe 0822     		movs	r2, #8
 1419 0100 83F85D20 		strb	r2, [r3, #93]
1213:Libraries/STM32F4xx_HAL_Driver/Src/stm32f4xx_hal_hcd.c ****   }
 1420              		.loc 1 1213 5 is_stmt 1 view .LVU417
 1421 0104 4FF48063 		mov	r3, #1024
 1422 0108 AB60     		str	r3, [r5, #8]
 1423 010a 8BE7     		b	.L81
 1424              	.LVL103:
 1425              	.L110:
1201:Libraries/STM32F4xx_HAL_Driver/Src/stm32f4xx_hal_hcd.c ****     hhcd->hc[ch_num].state = HC_STALL;
 1426              		.loc 1 1201 5 view .LVU418
 1427 010c EB68     		ldr	r3, [r5, #12]
 1428 010e 43F00203 		orr	r3, r3, #2
 1429 0112 EB60     		str	r3, [r5, #12]
 1430              	.LVL104:
1202:Libraries/STM32F4xx_HAL_Driver/Src/stm32f4xx_hal_hcd.c ****     __HAL_HCD_CLEAR_HC_INT(ch_num, USB_OTG_HCINT_NAK);
 1431              		.loc 1 1202 5 view .LVU419
1202:Libraries/STM32F4xx_HAL_Driver/Src/stm32f4xx_hal_hcd.c ****     __HAL_HCD_CLEAR_HC_INT(ch_num, USB_OTG_HCINT_NAK);
 1432              		.loc 1 1202 28 is_stmt 0 view .LVU420
 1433 0114 01EB8103 		add	r3, r1, r1, lsl #2
 1434 0118 00EBC303 		add	r3, r0, r3, lsl #3
 1435 011c 0522     		movs	r2, #5
 1436 011e 83F85D20 		strb	r2, [r3, #93]
1203:Libraries/STM32F4xx_HAL_Driver/Src/stm32f4xx_hal_hcd.c ****     __HAL_HCD_CLEAR_HC_INT(ch_num, USB_OTG_HCINT_STALL);
 1437              		.loc 1 1203 5 is_stmt 1 view .LVU421
 1438 0122 1023     		movs	r3, #16
 1439 0124 AB60     		str	r3, [r5, #8]
1204:Libraries/STM32F4xx_HAL_Driver/Src/stm32f4xx_hal_hcd.c ****     (void)USB_HC_Halt(hhcd->Instance, (uint8_t)ch_num);
 1440              		.loc 1 1204 5 view .LVU422
 1441 0126 0823     		movs	r3, #8
 1442 0128 AB60     		str	r3, [r5, #8]
ARM GAS  C:\Users\yzy\AppData\Local\Temp\cco1yVr9.s 			page 61


1205:Libraries/STM32F4xx_HAL_Driver/Src/stm32f4xx_hal_hcd.c ****   }
 1443              		.loc 1 1205 5 view .LVU423
1205:Libraries/STM32F4xx_HAL_Driver/Src/stm32f4xx_hal_hcd.c ****   }
 1444              		.loc 1 1205 11 is_stmt 0 view .LVU424
 1445 012a 0068     		ldr	r0, [r0]
 1446              	.LVL105:
1205:Libraries/STM32F4xx_HAL_Driver/Src/stm32f4xx_hal_hcd.c ****   }
 1447              		.loc 1 1205 11 view .LVU425
 1448 012c FFF7FEFF 		bl	USB_HC_Halt
 1449              	.LVL106:
1205:Libraries/STM32F4xx_HAL_Driver/Src/stm32f4xx_hal_hcd.c ****   }
 1450              		.loc 1 1205 11 view .LVU426
 1451 0130 78E7     		b	.L81
 1452              	.L107:
1222:Libraries/STM32F4xx_HAL_Driver/Src/stm32f4xx_hal_hcd.c ****     (void)USB_HC_Halt(hhcd->Instance, (uint8_t)ch_num);
 1453              		.loc 1 1222 5 is_stmt 1 view .LVU427
 1454 0132 EB68     		ldr	r3, [r5, #12]
 1455 0134 43F00203 		orr	r3, r3, #2
 1456 0138 EB60     		str	r3, [r5, #12]
1223:Libraries/STM32F4xx_HAL_Driver/Src/stm32f4xx_hal_hcd.c ****     __HAL_HCD_CLEAR_HC_INT(ch_num, USB_OTG_HCINT_FRMOR);
 1457              		.loc 1 1223 5 view .LVU428
1223:Libraries/STM32F4xx_HAL_Driver/Src/stm32f4xx_hal_hcd.c ****     __HAL_HCD_CLEAR_HC_INT(ch_num, USB_OTG_HCINT_FRMOR);
 1458              		.loc 1 1223 11 is_stmt 0 view .LVU429
 1459 013a 2146     		mov	r1, r4
 1460 013c 3068     		ldr	r0, [r6]
 1461 013e FFF7FEFF 		bl	USB_HC_Halt
 1462              	.LVL107:
1224:Libraries/STM32F4xx_HAL_Driver/Src/stm32f4xx_hal_hcd.c ****   }
 1463              		.loc 1 1224 5 is_stmt 1 view .LVU430
 1464 0142 4FF40073 		mov	r3, #512
 1465 0146 AB60     		str	r3, [r5, #8]
 1466 0148 13E0     		b	.L79
 1467              	.L89:
1241:Libraries/STM32F4xx_HAL_Driver/Src/stm32f4xx_hal_hcd.c ****       (void)USB_HC_Halt(hhcd->Instance, (uint8_t)ch_num);
 1468              		.loc 1 1241 7 view .LVU431
 1469 014a EB68     		ldr	r3, [r5, #12]
 1470 014c 43F00203 		orr	r3, r3, #2
 1471 0150 EB60     		str	r3, [r5, #12]
1242:Libraries/STM32F4xx_HAL_Driver/Src/stm32f4xx_hal_hcd.c ****       __HAL_HCD_CLEAR_HC_INT(ch_num, USB_OTG_HCINT_NAK);
 1472              		.loc 1 1242 7 view .LVU432
1242:Libraries/STM32F4xx_HAL_Driver/Src/stm32f4xx_hal_hcd.c ****       __HAL_HCD_CLEAR_HC_INT(ch_num, USB_OTG_HCINT_NAK);
 1473              		.loc 1 1242 13 is_stmt 0 view .LVU433
 1474 0152 2146     		mov	r1, r4
 1475 0154 3068     		ldr	r0, [r6]
 1476 0156 FFF7FEFF 		bl	USB_HC_Halt
 1477              	.LVL108:
1243:Libraries/STM32F4xx_HAL_Driver/Src/stm32f4xx_hal_hcd.c ****     }
 1478              		.loc 1 1243 7 is_stmt 1 view .LVU434
 1479 015a 1023     		movs	r3, #16
 1480 015c AB60     		str	r3, [r5, #8]
 1481              	.L91:
1270:Libraries/STM32F4xx_HAL_Driver/Src/stm32f4xx_hal_hcd.c ****     hhcd->hc[ch_num].toggle_in ^= 1U;
 1482              		.loc 1 1270 5 view .LVU435
1271:Libraries/STM32F4xx_HAL_Driver/Src/stm32f4xx_hal_hcd.c **** 
 1483              		.loc 1 1271 5 view .LVU436
1271:Libraries/STM32F4xx_HAL_Driver/Src/stm32f4xx_hal_hcd.c **** 
 1484              		.loc 1 1271 32 is_stmt 0 view .LVU437
ARM GAS  C:\Users\yzy\AppData\Local\Temp\cco1yVr9.s 			page 62


 1485 015e 04EB8403 		add	r3, r4, r4, lsl #2
 1486 0162 06EBC303 		add	r3, r6, r3, lsl #3
 1487 0166 93F85020 		ldrb	r2, [r3, #80]	@ zero_extendqisi2
 1488 016a 82F00102 		eor	r2, r2, #1
 1489 016e 83F85020 		strb	r2, [r3, #80]
 1490              	.L79:
1365:Libraries/STM32F4xx_HAL_Driver/Src/stm32f4xx_hal_hcd.c **** 
 1491              		.loc 1 1365 1 view .LVU438
 1492 0172 F8BD     		pop	{r3, r4, r5, r6, r7, pc}
 1493              	.LVL109:
 1494              	.L108:
1247:Libraries/STM32F4xx_HAL_Driver/Src/stm32f4xx_hal_hcd.c ****       hhcd->hc[ch_num].urb_state = URB_DONE;
 1495              		.loc 1 1247 7 is_stmt 1 view .LVU439
1247:Libraries/STM32F4xx_HAL_Driver/Src/stm32f4xx_hal_hcd.c ****       hhcd->hc[ch_num].urb_state = URB_DONE;
 1496              		.loc 1 1247 31 is_stmt 0 view .LVU440
 1497 0174 D7F80035 		ldr	r3, [r7, #1280]
 1498 0178 43F00053 		orr	r3, r3, #536870912
 1499 017c C7F80035 		str	r3, [r7, #1280]
1248:Libraries/STM32F4xx_HAL_Driver/Src/stm32f4xx_hal_hcd.c **** 
 1500              		.loc 1 1248 7 is_stmt 1 view .LVU441
1248:Libraries/STM32F4xx_HAL_Driver/Src/stm32f4xx_hal_hcd.c **** 
 1501              		.loc 1 1248 34 is_stmt 0 view .LVU442
 1502 0180 04EB8403 		add	r3, r4, r4, lsl #2
 1503 0184 06EBC303 		add	r3, r6, r3, lsl #3
 1504 0188 0122     		movs	r2, #1
 1505 018a 83F85C20 		strb	r2, [r3, #92]
1253:Libraries/STM32F4xx_HAL_Driver/Src/stm32f4xx_hal_hcd.c **** #endif /* USE_HAL_HCD_REGISTER_CALLBACKS */
 1506              		.loc 1 1253 7 is_stmt 1 view .LVU443
 1507 018e 2146     		mov	r1, r4
 1508 0190 3046     		mov	r0, r6
 1509 0192 FFF7FEFF 		bl	HAL_HCD_HC_NotifyURBChange_Callback
 1510              	.LVL110:
 1511 0196 E2E7     		b	.L91
 1512              	.L87:
1274:Libraries/STM32F4xx_HAL_Driver/Src/stm32f4xx_hal_hcd.c ****   {
 1513              		.loc 1 1274 8 view .LVU444
1274:Libraries/STM32F4xx_HAL_Driver/Src/stm32f4xx_hal_hcd.c ****   {
 1514              		.loc 1 1274 28 is_stmt 0 view .LVU445
 1515 0198 AB68     		ldr	r3, [r5, #8]
1274:Libraries/STM32F4xx_HAL_Driver/Src/stm32f4xx_hal_hcd.c ****   {
 1516              		.loc 1 1274 11 view .LVU446
 1517 019a 13F0020F 		tst	r3, #2
 1518 019e 6CD0     		beq	.L93
1276:Libraries/STM32F4xx_HAL_Driver/Src/stm32f4xx_hal_hcd.c **** 
 1519              		.loc 1 1276 5 is_stmt 1 view .LVU447
 1520 01a0 EB68     		ldr	r3, [r5, #12]
 1521 01a2 23F00203 		bic	r3, r3, #2
 1522 01a6 EB60     		str	r3, [r5, #12]
1278:Libraries/STM32F4xx_HAL_Driver/Src/stm32f4xx_hal_hcd.c ****     {
 1523              		.loc 1 1278 5 view .LVU448
1278:Libraries/STM32F4xx_HAL_Driver/Src/stm32f4xx_hal_hcd.c ****     {
 1524              		.loc 1 1278 25 is_stmt 0 view .LVU449
 1525 01a8 04EB8403 		add	r3, r4, r4, lsl #2
 1526 01ac 06EBC303 		add	r3, r6, r3, lsl #3
 1527 01b0 93F85D30 		ldrb	r3, [r3, #93]	@ zero_extendqisi2
1278:Libraries/STM32F4xx_HAL_Driver/Src/stm32f4xx_hal_hcd.c ****     {
 1528              		.loc 1 1278 8 view .LVU450
ARM GAS  C:\Users\yzy\AppData\Local\Temp\cco1yVr9.s 			page 63


 1529 01b4 012B     		cmp	r3, #1
 1530 01b6 14D0     		beq	.L111
1282:Libraries/STM32F4xx_HAL_Driver/Src/stm32f4xx_hal_hcd.c ****     {
 1531              		.loc 1 1282 10 is_stmt 1 view .LVU451
1282:Libraries/STM32F4xx_HAL_Driver/Src/stm32f4xx_hal_hcd.c ****     {
 1532              		.loc 1 1282 13 is_stmt 0 view .LVU452
 1533 01b8 052B     		cmp	r3, #5
 1534 01ba 26D0     		beq	.L112
1286:Libraries/STM32F4xx_HAL_Driver/Src/stm32f4xx_hal_hcd.c ****              (hhcd->hc[ch_num].state == HC_DATATGLERR))
 1535              		.loc 1 1286 10 is_stmt 1 view .LVU453
1286:Libraries/STM32F4xx_HAL_Driver/Src/stm32f4xx_hal_hcd.c ****              (hhcd->hc[ch_num].state == HC_DATATGLERR))
 1536              		.loc 1 1286 13 is_stmt 0 view .LVU454
 1537 01bc 062B     		cmp	r3, #6
 1538 01be 2CD0     		beq	.L97
1286:Libraries/STM32F4xx_HAL_Driver/Src/stm32f4xx_hal_hcd.c ****              (hhcd->hc[ch_num].state == HC_DATATGLERR))
 1539              		.loc 1 1286 53 discriminator 1 view .LVU455
 1540 01c0 082B     		cmp	r3, #8
 1541 01c2 2AD0     		beq	.L97
1306:Libraries/STM32F4xx_HAL_Driver/Src/stm32f4xx_hal_hcd.c ****     {
 1542              		.loc 1 1306 10 is_stmt 1 view .LVU456
1306:Libraries/STM32F4xx_HAL_Driver/Src/stm32f4xx_hal_hcd.c ****     {
 1543              		.loc 1 1306 13 is_stmt 0 view .LVU457
 1544 01c4 032B     		cmp	r3, #3
 1545 01c6 48D0     		beq	.L113
1315:Libraries/STM32F4xx_HAL_Driver/Src/stm32f4xx_hal_hcd.c ****     {
 1546              		.loc 1 1315 10 is_stmt 1 view .LVU458
1315:Libraries/STM32F4xx_HAL_Driver/Src/stm32f4xx_hal_hcd.c ****     {
 1547              		.loc 1 1315 13 is_stmt 0 view .LVU459
 1548 01c8 072B     		cmp	r3, #7
 1549 01ca 11D1     		bne	.L95
1317:Libraries/STM32F4xx_HAL_Driver/Src/stm32f4xx_hal_hcd.c ****       hhcd->hc[ch_num].urb_state = URB_ERROR;
 1550              		.loc 1 1317 7 is_stmt 1 view .LVU460
1317:Libraries/STM32F4xx_HAL_Driver/Src/stm32f4xx_hal_hcd.c ****       hhcd->hc[ch_num].urb_state = URB_ERROR;
 1551              		.loc 1 1317 23 is_stmt 0 view .LVU461
 1552 01cc 04EB8403 		add	r3, r4, r4, lsl #2
 1553 01d0 06EBC303 		add	r3, r6, r3, lsl #3
 1554 01d4 9A6D     		ldr	r2, [r3, #88]
1317:Libraries/STM32F4xx_HAL_Driver/Src/stm32f4xx_hal_hcd.c ****       hhcd->hc[ch_num].urb_state = URB_ERROR;
 1555              		.loc 1 1317 30 view .LVU462
 1556 01d6 0132     		adds	r2, r2, #1
 1557 01d8 9A65     		str	r2, [r3, #88]
1318:Libraries/STM32F4xx_HAL_Driver/Src/stm32f4xx_hal_hcd.c ****     }
 1558              		.loc 1 1318 7 is_stmt 1 view .LVU463
1318:Libraries/STM32F4xx_HAL_Driver/Src/stm32f4xx_hal_hcd.c ****     }
 1559              		.loc 1 1318 34 is_stmt 0 view .LVU464
 1560 01da 0422     		movs	r2, #4
 1561 01dc 83F85C20 		strb	r2, [r3, #92]
 1562 01e0 06E0     		b	.L95
 1563              	.L111:
1280:Libraries/STM32F4xx_HAL_Driver/Src/stm32f4xx_hal_hcd.c ****     }
 1564              		.loc 1 1280 7 is_stmt 1 view .LVU465
1280:Libraries/STM32F4xx_HAL_Driver/Src/stm32f4xx_hal_hcd.c ****     }
 1565              		.loc 1 1280 35 is_stmt 0 view .LVU466
 1566 01e2 04EB8403 		add	r3, r4, r4, lsl #2
 1567 01e6 06EBC303 		add	r3, r6, r3, lsl #3
 1568 01ea 0122     		movs	r2, #1
 1569 01ec 83F85C20 		strb	r2, [r3, #92]
ARM GAS  C:\Users\yzy\AppData\Local\Temp\cco1yVr9.s 			page 64


 1570              	.L95:
1323:Libraries/STM32F4xx_HAL_Driver/Src/stm32f4xx_hal_hcd.c ****     __HAL_HCD_CLEAR_HC_INT(ch_num, USB_OTG_HCINT_CHH);
 1571              		.loc 1 1323 5 is_stmt 1 view .LVU467
1324:Libraries/STM32F4xx_HAL_Driver/Src/stm32f4xx_hal_hcd.c ****     HAL_HCD_HC_NotifyURBChange_Callback(hhcd, (uint8_t)ch_num, hhcd->hc[ch_num].urb_state);
 1572              		.loc 1 1324 5 view .LVU468
 1573 01f0 0223     		movs	r3, #2
 1574 01f2 AB60     		str	r3, [r5, #8]
1325:Libraries/STM32F4xx_HAL_Driver/Src/stm32f4xx_hal_hcd.c ****   }
 1575              		.loc 1 1325 5 view .LVU469
 1576 01f4 04EB8403 		add	r3, r4, r4, lsl #2
 1577 01f8 06EBC303 		add	r3, r6, r3, lsl #3
 1578 01fc 93F85C20 		ldrb	r2, [r3, #92]	@ zero_extendqisi2
 1579 0200 2146     		mov	r1, r4
 1580 0202 3046     		mov	r0, r6
 1581 0204 FFF7FEFF 		bl	HAL_HCD_HC_NotifyURBChange_Callback
 1582              	.LVL111:
 1583 0208 B3E7     		b	.L79
 1584              	.L112:
1284:Libraries/STM32F4xx_HAL_Driver/Src/stm32f4xx_hal_hcd.c ****     }
 1585              		.loc 1 1284 7 view .LVU470
1284:Libraries/STM32F4xx_HAL_Driver/Src/stm32f4xx_hal_hcd.c ****     }
 1586              		.loc 1 1284 35 is_stmt 0 view .LVU471
 1587 020a 04EB8403 		add	r3, r4, r4, lsl #2
 1588 020e 06EBC303 		add	r3, r6, r3, lsl #3
 1589 0212 0522     		movs	r2, #5
 1590 0214 83F85C20 		strb	r2, [r3, #92]
 1591 0218 EAE7     		b	.L95
 1592              	.L97:
1289:Libraries/STM32F4xx_HAL_Driver/Src/stm32f4xx_hal_hcd.c ****       if (hhcd->hc[ch_num].ErrCnt > 3U)
 1593              		.loc 1 1289 7 is_stmt 1 view .LVU472
1289:Libraries/STM32F4xx_HAL_Driver/Src/stm32f4xx_hal_hcd.c ****       if (hhcd->hc[ch_num].ErrCnt > 3U)
 1594              		.loc 1 1289 23 is_stmt 0 view .LVU473
 1595 021a 04EB8402 		add	r2, r4, r4, lsl #2
 1596 021e 06EBC202 		add	r2, r6, r2, lsl #3
 1597 0222 936D     		ldr	r3, [r2, #88]
1289:Libraries/STM32F4xx_HAL_Driver/Src/stm32f4xx_hal_hcd.c ****       if (hhcd->hc[ch_num].ErrCnt > 3U)
 1598              		.loc 1 1289 30 view .LVU474
 1599 0224 0133     		adds	r3, r3, #1
 1600 0226 9365     		str	r3, [r2, #88]
1290:Libraries/STM32F4xx_HAL_Driver/Src/stm32f4xx_hal_hcd.c ****       {
 1601              		.loc 1 1290 7 is_stmt 1 view .LVU475
1290:Libraries/STM32F4xx_HAL_Driver/Src/stm32f4xx_hal_hcd.c ****       {
 1602              		.loc 1 1290 10 is_stmt 0 view .LVU476
 1603 0228 032B     		cmp	r3, #3
 1604 022a 0ED9     		bls	.L99
1292:Libraries/STM32F4xx_HAL_Driver/Src/stm32f4xx_hal_hcd.c ****         hhcd->hc[ch_num].urb_state = URB_ERROR;
 1605              		.loc 1 1292 9 is_stmt 1 view .LVU477
1292:Libraries/STM32F4xx_HAL_Driver/Src/stm32f4xx_hal_hcd.c ****         hhcd->hc[ch_num].urb_state = URB_ERROR;
 1606              		.loc 1 1292 33 is_stmt 0 view .LVU478
 1607 022c 1346     		mov	r3, r2
 1608 022e 0022     		movs	r2, #0
 1609 0230 9A65     		str	r2, [r3, #88]
1293:Libraries/STM32F4xx_HAL_Driver/Src/stm32f4xx_hal_hcd.c ****       }
 1610              		.loc 1 1293 9 is_stmt 1 view .LVU479
1293:Libraries/STM32F4xx_HAL_Driver/Src/stm32f4xx_hal_hcd.c ****       }
 1611              		.loc 1 1293 36 is_stmt 0 view .LVU480
 1612 0232 0422     		movs	r2, #4
ARM GAS  C:\Users\yzy\AppData\Local\Temp\cco1yVr9.s 			page 65


 1613 0234 83F85C20 		strb	r2, [r3, #92]
 1614              	.L100:
1301:Libraries/STM32F4xx_HAL_Driver/Src/stm32f4xx_hal_hcd.c ****       tmpreg &= ~USB_OTG_HCCHAR_CHDIS;
 1615              		.loc 1 1301 7 is_stmt 1 view .LVU481
1301:Libraries/STM32F4xx_HAL_Driver/Src/stm32f4xx_hal_hcd.c ****       tmpreg &= ~USB_OTG_HCCHAR_CHDIS;
 1616              		.loc 1 1301 14 is_stmt 0 view .LVU482
 1617 0238 D7F80035 		ldr	r3, [r7, #1280]
 1618              	.LVL112:
1302:Libraries/STM32F4xx_HAL_Driver/Src/stm32f4xx_hal_hcd.c ****       tmpreg |= USB_OTG_HCCHAR_CHENA;
 1619              		.loc 1 1302 7 is_stmt 1 view .LVU483
1302:Libraries/STM32F4xx_HAL_Driver/Src/stm32f4xx_hal_hcd.c ****       tmpreg |= USB_OTG_HCCHAR_CHENA;
 1620              		.loc 1 1302 14 is_stmt 0 view .LVU484
 1621 023c 23F08043 		bic	r3, r3, #1073741824
 1622              	.LVL113:
1303:Libraries/STM32F4xx_HAL_Driver/Src/stm32f4xx_hal_hcd.c ****       USBx_HC(ch_num)->HCCHAR = tmpreg;
 1623              		.loc 1 1303 7 is_stmt 1 view .LVU485
1303:Libraries/STM32F4xx_HAL_Driver/Src/stm32f4xx_hal_hcd.c ****       USBx_HC(ch_num)->HCCHAR = tmpreg;
 1624              		.loc 1 1303 14 is_stmt 0 view .LVU486
 1625 0240 43F00043 		orr	r3, r3, #-2147483648
 1626              	.LVL114:
1304:Libraries/STM32F4xx_HAL_Driver/Src/stm32f4xx_hal_hcd.c ****     }
 1627              		.loc 1 1304 7 is_stmt 1 view .LVU487
1304:Libraries/STM32F4xx_HAL_Driver/Src/stm32f4xx_hal_hcd.c ****     }
 1628              		.loc 1 1304 31 is_stmt 0 view .LVU488
 1629 0244 C7F80035 		str	r3, [r7, #1280]
 1630 0248 D2E7     		b	.L95
 1631              	.LVL115:
 1632              	.L99:
1297:Libraries/STM32F4xx_HAL_Driver/Src/stm32f4xx_hal_hcd.c ****       }
 1633              		.loc 1 1297 9 is_stmt 1 view .LVU489
1297:Libraries/STM32F4xx_HAL_Driver/Src/stm32f4xx_hal_hcd.c ****       }
 1634              		.loc 1 1297 36 is_stmt 0 view .LVU490
 1635 024a 04EB8403 		add	r3, r4, r4, lsl #2
 1636 024e 06EBC303 		add	r3, r6, r3, lsl #3
 1637 0252 0222     		movs	r2, #2
 1638 0254 83F85C20 		strb	r2, [r3, #92]
 1639 0258 EEE7     		b	.L100
 1640              	.L113:
1308:Libraries/STM32F4xx_HAL_Driver/Src/stm32f4xx_hal_hcd.c ****       /* re-activate the channel  */
 1641              		.loc 1 1308 7 is_stmt 1 view .LVU491
1308:Libraries/STM32F4xx_HAL_Driver/Src/stm32f4xx_hal_hcd.c ****       /* re-activate the channel  */
 1642              		.loc 1 1308 35 is_stmt 0 view .LVU492
 1643 025a 04EB8403 		add	r3, r4, r4, lsl #2
 1644 025e 06EBC303 		add	r3, r6, r3, lsl #3
 1645 0262 0222     		movs	r2, #2
 1646 0264 83F85C20 		strb	r2, [r3, #92]
1310:Libraries/STM32F4xx_HAL_Driver/Src/stm32f4xx_hal_hcd.c ****       tmpreg &= ~USB_OTG_HCCHAR_CHDIS;
 1647              		.loc 1 1310 7 is_stmt 1 view .LVU493
1310:Libraries/STM32F4xx_HAL_Driver/Src/stm32f4xx_hal_hcd.c ****       tmpreg &= ~USB_OTG_HCCHAR_CHDIS;
 1648              		.loc 1 1310 14 is_stmt 0 view .LVU494
 1649 0268 D7F80035 		ldr	r3, [r7, #1280]
 1650              	.LVL116:
1311:Libraries/STM32F4xx_HAL_Driver/Src/stm32f4xx_hal_hcd.c ****       tmpreg |= USB_OTG_HCCHAR_CHENA;
 1651              		.loc 1 1311 7 is_stmt 1 view .LVU495
1311:Libraries/STM32F4xx_HAL_Driver/Src/stm32f4xx_hal_hcd.c ****       tmpreg |= USB_OTG_HCCHAR_CHENA;
 1652              		.loc 1 1311 14 is_stmt 0 view .LVU496
 1653 026c 23F08043 		bic	r3, r3, #1073741824
ARM GAS  C:\Users\yzy\AppData\Local\Temp\cco1yVr9.s 			page 66


 1654              	.LVL117:
1312:Libraries/STM32F4xx_HAL_Driver/Src/stm32f4xx_hal_hcd.c ****       USBx_HC(ch_num)->HCCHAR = tmpreg;
 1655              		.loc 1 1312 7 is_stmt 1 view .LVU497
1312:Libraries/STM32F4xx_HAL_Driver/Src/stm32f4xx_hal_hcd.c ****       USBx_HC(ch_num)->HCCHAR = tmpreg;
 1656              		.loc 1 1312 14 is_stmt 0 view .LVU498
 1657 0270 43F00043 		orr	r3, r3, #-2147483648
 1658              	.LVL118:
1313:Libraries/STM32F4xx_HAL_Driver/Src/stm32f4xx_hal_hcd.c ****     }
 1659              		.loc 1 1313 7 is_stmt 1 view .LVU499
1313:Libraries/STM32F4xx_HAL_Driver/Src/stm32f4xx_hal_hcd.c ****     }
 1660              		.loc 1 1313 31 is_stmt 0 view .LVU500
 1661 0274 C7F80035 		str	r3, [r7, #1280]
 1662 0278 BAE7     		b	.L95
 1663              	.LVL119:
 1664              	.L93:
1327:Libraries/STM32F4xx_HAL_Driver/Src/stm32f4xx_hal_hcd.c ****   {
 1665              		.loc 1 1327 8 is_stmt 1 view .LVU501
1327:Libraries/STM32F4xx_HAL_Driver/Src/stm32f4xx_hal_hcd.c ****   {
 1666              		.loc 1 1327 28 is_stmt 0 view .LVU502
 1667 027a AB68     		ldr	r3, [r5, #8]
1327:Libraries/STM32F4xx_HAL_Driver/Src/stm32f4xx_hal_hcd.c ****   {
 1668              		.loc 1 1327 11 view .LVU503
 1669 027c 13F0800F 		tst	r3, #128
 1670 0280 1AD1     		bne	.L114
1335:Libraries/STM32F4xx_HAL_Driver/Src/stm32f4xx_hal_hcd.c ****   {
 1671              		.loc 1 1335 8 is_stmt 1 view .LVU504
1335:Libraries/STM32F4xx_HAL_Driver/Src/stm32f4xx_hal_hcd.c ****   {
 1672              		.loc 1 1335 28 is_stmt 0 view .LVU505
 1673 0282 AB68     		ldr	r3, [r5, #8]
1335:Libraries/STM32F4xx_HAL_Driver/Src/stm32f4xx_hal_hcd.c ****   {
 1674              		.loc 1 1335 11 view .LVU506
 1675 0284 13F0100F 		tst	r3, #16
 1676 0288 3FF473AF 		beq	.L79
1337:Libraries/STM32F4xx_HAL_Driver/Src/stm32f4xx_hal_hcd.c ****     {
 1677              		.loc 1 1337 5 is_stmt 1 view .LVU507
1337:Libraries/STM32F4xx_HAL_Driver/Src/stm32f4xx_hal_hcd.c ****     {
 1678              		.loc 1 1337 25 is_stmt 0 view .LVU508
 1679 028c 04EB8403 		add	r3, r4, r4, lsl #2
 1680 0290 06EBC303 		add	r3, r6, r3, lsl #3
 1681 0294 93F83F30 		ldrb	r3, [r3, #63]	@ zero_extendqisi2
1337:Libraries/STM32F4xx_HAL_Driver/Src/stm32f4xx_hal_hcd.c ****     {
 1682              		.loc 1 1337 8 view .LVU509
 1683 0298 032B     		cmp	r3, #3
 1684 029a 26D0     		beq	.L115
1343:Libraries/STM32F4xx_HAL_Driver/Src/stm32f4xx_hal_hcd.c ****              (hhcd->hc[ch_num].ep_type == EP_TYPE_BULK))
 1685              		.loc 1 1343 10 is_stmt 1 view .LVU510
1343:Libraries/STM32F4xx_HAL_Driver/Src/stm32f4xx_hal_hcd.c ****              (hhcd->hc[ch_num].ep_type == EP_TYPE_BULK))
 1686              		.loc 1 1343 13 is_stmt 0 view .LVU511
 1687 029c 0BB1     		cbz	r3, .L105
1343:Libraries/STM32F4xx_HAL_Driver/Src/stm32f4xx_hal_hcd.c ****              (hhcd->hc[ch_num].ep_type == EP_TYPE_BULK))
 1688              		.loc 1 1343 57 discriminator 1 view .LVU512
 1689 029e 022B     		cmp	r3, #2
 1690 02a0 07D1     		bne	.L104
 1691              	.L105:
1346:Libraries/STM32F4xx_HAL_Driver/Src/stm32f4xx_hal_hcd.c **** 
 1692              		.loc 1 1346 7 is_stmt 1 view .LVU513
1346:Libraries/STM32F4xx_HAL_Driver/Src/stm32f4xx_hal_hcd.c **** 
ARM GAS  C:\Users\yzy\AppData\Local\Temp\cco1yVr9.s 			page 67


 1693              		.loc 1 1346 31 is_stmt 0 view .LVU514
 1694 02a2 04EB8403 		add	r3, r4, r4, lsl #2
 1695 02a6 06EBC303 		add	r3, r6, r3, lsl #3
 1696 02aa 0022     		movs	r2, #0
 1697 02ac 9A65     		str	r2, [r3, #88]
1348:Libraries/STM32F4xx_HAL_Driver/Src/stm32f4xx_hal_hcd.c ****       {
 1698              		.loc 1 1348 7 is_stmt 1 view .LVU515
1348:Libraries/STM32F4xx_HAL_Driver/Src/stm32f4xx_hal_hcd.c ****       {
 1699              		.loc 1 1348 21 is_stmt 0 view .LVU516
 1700 02ae 3369     		ldr	r3, [r6, #16]
1348:Libraries/STM32F4xx_HAL_Driver/Src/stm32f4xx_hal_hcd.c ****       {
 1701              		.loc 1 1348 10 view .LVU517
 1702 02b0 53B3     		cbz	r3, .L116
 1703              	.L104:
1359:Libraries/STM32F4xx_HAL_Driver/Src/stm32f4xx_hal_hcd.c ****   }
 1704              		.loc 1 1359 5 is_stmt 1 view .LVU518
 1705 02b2 1023     		movs	r3, #16
 1706 02b4 AB60     		str	r3, [r5, #8]
1364:Libraries/STM32F4xx_HAL_Driver/Src/stm32f4xx_hal_hcd.c **** }
 1707              		.loc 1 1364 3 view .LVU519
1365:Libraries/STM32F4xx_HAL_Driver/Src/stm32f4xx_hal_hcd.c **** 
 1708              		.loc 1 1365 1 is_stmt 0 view .LVU520
 1709 02b6 5CE7     		b	.L79
 1710              	.L114:
1329:Libraries/STM32F4xx_HAL_Driver/Src/stm32f4xx_hal_hcd.c ****     hhcd->hc[ch_num].ErrCnt++;
 1711              		.loc 1 1329 5 is_stmt 1 view .LVU521
 1712 02b8 EB68     		ldr	r3, [r5, #12]
 1713 02ba 43F00203 		orr	r3, r3, #2
 1714 02be EB60     		str	r3, [r5, #12]
1330:Libraries/STM32F4xx_HAL_Driver/Src/stm32f4xx_hal_hcd.c ****     hhcd->hc[ch_num].state = HC_XACTERR;
 1715              		.loc 1 1330 5 view .LVU522
1330:Libraries/STM32F4xx_HAL_Driver/Src/stm32f4xx_hal_hcd.c ****     hhcd->hc[ch_num].state = HC_XACTERR;
 1716              		.loc 1 1330 21 is_stmt 0 view .LVU523
 1717 02c0 04EB8403 		add	r3, r4, r4, lsl #2
 1718 02c4 06EBC303 		add	r3, r6, r3, lsl #3
 1719 02c8 9A6D     		ldr	r2, [r3, #88]
1330:Libraries/STM32F4xx_HAL_Driver/Src/stm32f4xx_hal_hcd.c ****     hhcd->hc[ch_num].state = HC_XACTERR;
 1720              		.loc 1 1330 28 view .LVU524
 1721 02ca 0132     		adds	r2, r2, #1
 1722 02cc 9A65     		str	r2, [r3, #88]
1331:Libraries/STM32F4xx_HAL_Driver/Src/stm32f4xx_hal_hcd.c ****     (void)USB_HC_Halt(hhcd->Instance, (uint8_t)ch_num);
 1723              		.loc 1 1331 5 is_stmt 1 view .LVU525
1331:Libraries/STM32F4xx_HAL_Driver/Src/stm32f4xx_hal_hcd.c ****     (void)USB_HC_Halt(hhcd->Instance, (uint8_t)ch_num);
 1724              		.loc 1 1331 28 is_stmt 0 view .LVU526
 1725 02ce 04EB8403 		add	r3, r4, r4, lsl #2
 1726 02d2 06EBC303 		add	r3, r6, r3, lsl #3
 1727 02d6 0622     		movs	r2, #6
 1728 02d8 83F85D20 		strb	r2, [r3, #93]
1332:Libraries/STM32F4xx_HAL_Driver/Src/stm32f4xx_hal_hcd.c ****     __HAL_HCD_CLEAR_HC_INT(ch_num, USB_OTG_HCINT_TXERR);
 1729              		.loc 1 1332 5 is_stmt 1 view .LVU527
1332:Libraries/STM32F4xx_HAL_Driver/Src/stm32f4xx_hal_hcd.c ****     __HAL_HCD_CLEAR_HC_INT(ch_num, USB_OTG_HCINT_TXERR);
 1730              		.loc 1 1332 11 is_stmt 0 view .LVU528
 1731 02dc 2146     		mov	r1, r4
 1732 02de 3068     		ldr	r0, [r6]
 1733 02e0 FFF7FEFF 		bl	USB_HC_Halt
 1734              	.LVL120:
1333:Libraries/STM32F4xx_HAL_Driver/Src/stm32f4xx_hal_hcd.c ****   }
ARM GAS  C:\Users\yzy\AppData\Local\Temp\cco1yVr9.s 			page 68


 1735              		.loc 1 1333 5 is_stmt 1 view .LVU529
 1736 02e4 8023     		movs	r3, #128
 1737 02e6 AB60     		str	r3, [r5, #8]
 1738 02e8 43E7     		b	.L79
 1739              	.L115:
1339:Libraries/STM32F4xx_HAL_Driver/Src/stm32f4xx_hal_hcd.c ****       __HAL_HCD_UNMASK_HALT_HC_INT(ch_num);
 1740              		.loc 1 1339 7 view .LVU530
1339:Libraries/STM32F4xx_HAL_Driver/Src/stm32f4xx_hal_hcd.c ****       __HAL_HCD_UNMASK_HALT_HC_INT(ch_num);
 1741              		.loc 1 1339 31 is_stmt 0 view .LVU531
 1742 02ea 04EB8403 		add	r3, r4, r4, lsl #2
 1743 02ee 06EBC303 		add	r3, r6, r3, lsl #3
 1744 02f2 0022     		movs	r2, #0
 1745 02f4 9A65     		str	r2, [r3, #88]
1340:Libraries/STM32F4xx_HAL_Driver/Src/stm32f4xx_hal_hcd.c ****       (void)USB_HC_Halt(hhcd->Instance, (uint8_t)ch_num);
 1746              		.loc 1 1340 7 is_stmt 1 view .LVU532
 1747 02f6 EB68     		ldr	r3, [r5, #12]
 1748 02f8 43F00203 		orr	r3, r3, #2
 1749 02fc EB60     		str	r3, [r5, #12]
1341:Libraries/STM32F4xx_HAL_Driver/Src/stm32f4xx_hal_hcd.c ****     }
 1750              		.loc 1 1341 7 view .LVU533
1341:Libraries/STM32F4xx_HAL_Driver/Src/stm32f4xx_hal_hcd.c ****     }
 1751              		.loc 1 1341 13 is_stmt 0 view .LVU534
 1752 02fe 2146     		mov	r1, r4
 1753 0300 3068     		ldr	r0, [r6]
 1754 0302 FFF7FEFF 		bl	USB_HC_Halt
 1755              	.LVL121:
 1756 0306 D4E7     		b	.L104
 1757              	.L116:
1350:Libraries/STM32F4xx_HAL_Driver/Src/stm32f4xx_hal_hcd.c ****         __HAL_HCD_UNMASK_HALT_HC_INT(ch_num);
 1758              		.loc 1 1350 9 is_stmt 1 view .LVU535
1350:Libraries/STM32F4xx_HAL_Driver/Src/stm32f4xx_hal_hcd.c ****         __HAL_HCD_UNMASK_HALT_HC_INT(ch_num);
 1759              		.loc 1 1350 32 is_stmt 0 view .LVU536
 1760 0308 04EB8403 		add	r3, r4, r4, lsl #2
 1761 030c 06EBC303 		add	r3, r6, r3, lsl #3
 1762 0310 0322     		movs	r2, #3
 1763 0312 83F85D20 		strb	r2, [r3, #93]
1351:Libraries/STM32F4xx_HAL_Driver/Src/stm32f4xx_hal_hcd.c ****         (void)USB_HC_Halt(hhcd->Instance, (uint8_t)ch_num);
 1764              		.loc 1 1351 9 is_stmt 1 view .LVU537
 1765 0316 EB68     		ldr	r3, [r5, #12]
 1766 0318 43F00203 		orr	r3, r3, #2
 1767 031c EB60     		str	r3, [r5, #12]
1352:Libraries/STM32F4xx_HAL_Driver/Src/stm32f4xx_hal_hcd.c ****       }
 1768              		.loc 1 1352 9 view .LVU538
1352:Libraries/STM32F4xx_HAL_Driver/Src/stm32f4xx_hal_hcd.c ****       }
 1769              		.loc 1 1352 15 is_stmt 0 view .LVU539
 1770 031e 2146     		mov	r1, r4
 1771 0320 3068     		ldr	r0, [r6]
 1772 0322 FFF7FEFF 		bl	USB_HC_Halt
 1773              	.LVL122:
 1774 0326 C4E7     		b	.L104
 1775              		.cfi_endproc
 1776              	.LFE154:
 1778              		.section	.text.HCD_HC_OUT_IRQHandler,"ax",%progbits
 1779              		.align	1
 1780              		.syntax unified
 1781              		.thumb
 1782              		.thumb_func
ARM GAS  C:\Users\yzy\AppData\Local\Temp\cco1yVr9.s 			page 69


 1783              		.fpu softvfp
 1785              	HCD_HC_OUT_IRQHandler:
 1786              	.LVL123:
 1787              	.LFB155:
1375:Libraries/STM32F4xx_HAL_Driver/Src/stm32f4xx_hal_hcd.c ****   USB_OTG_GlobalTypeDef *USBx = hhcd->Instance;
 1788              		.loc 1 1375 1 is_stmt 1 view -0
 1789              		.cfi_startproc
 1790              		@ args = 0, pretend = 0, frame = 0
 1791              		@ frame_needed = 0, uses_anonymous_args = 0
1375:Libraries/STM32F4xx_HAL_Driver/Src/stm32f4xx_hal_hcd.c ****   USB_OTG_GlobalTypeDef *USBx = hhcd->Instance;
 1792              		.loc 1 1375 1 is_stmt 0 view .LVU541
 1793 0000 F8B5     		push	{r3, r4, r5, r6, r7, lr}
 1794              	.LCFI20:
 1795              		.cfi_def_cfa_offset 24
 1796              		.cfi_offset 3, -24
 1797              		.cfi_offset 4, -20
 1798              		.cfi_offset 5, -16
 1799              		.cfi_offset 6, -12
 1800              		.cfi_offset 7, -8
 1801              		.cfi_offset 14, -4
1376:Libraries/STM32F4xx_HAL_Driver/Src/stm32f4xx_hal_hcd.c ****   uint32_t USBx_BASE = (uint32_t)USBx;
 1802              		.loc 1 1376 3 is_stmt 1 view .LVU542
1376:Libraries/STM32F4xx_HAL_Driver/Src/stm32f4xx_hal_hcd.c ****   uint32_t USBx_BASE = (uint32_t)USBx;
 1803              		.loc 1 1376 26 is_stmt 0 view .LVU543
 1804 0002 0368     		ldr	r3, [r0]
 1805              	.LVL124:
1377:Libraries/STM32F4xx_HAL_Driver/Src/stm32f4xx_hal_hcd.c ****   uint32_t ch_num = (uint32_t)chnum;
 1806              		.loc 1 1377 3 is_stmt 1 view .LVU544
1378:Libraries/STM32F4xx_HAL_Driver/Src/stm32f4xx_hal_hcd.c ****   uint32_t tmpreg;
 1807              		.loc 1 1378 3 view .LVU545
1379:Libraries/STM32F4xx_HAL_Driver/Src/stm32f4xx_hal_hcd.c **** 
 1808              		.loc 1 1379 3 view .LVU546
1381:Libraries/STM32F4xx_HAL_Driver/Src/stm32f4xx_hal_hcd.c ****   {
 1809              		.loc 1 1381 3 view .LVU547
1381:Libraries/STM32F4xx_HAL_Driver/Src/stm32f4xx_hal_hcd.c ****   {
 1810              		.loc 1 1381 8 is_stmt 0 view .LVU548
 1811 0004 03EB4113 		add	r3, r3, r1, lsl #5
 1812              	.LVL125:
1381:Libraries/STM32F4xx_HAL_Driver/Src/stm32f4xx_hal_hcd.c ****   {
 1813              		.loc 1 1381 8 view .LVU549
 1814 0008 03F5A065 		add	r5, r3, #1280
1381:Libraries/STM32F4xx_HAL_Driver/Src/stm32f4xx_hal_hcd.c ****   {
 1815              		.loc 1 1381 23 view .LVU550
 1816 000c AA68     		ldr	r2, [r5, #8]
1381:Libraries/STM32F4xx_HAL_Driver/Src/stm32f4xx_hal_hcd.c ****   {
 1817              		.loc 1 1381 6 view .LVU551
 1818 000e 12F0040F 		tst	r2, #4
 1819 0012 06D0     		beq	.L118
1383:Libraries/STM32F4xx_HAL_Driver/Src/stm32f4xx_hal_hcd.c ****     __HAL_HCD_UNMASK_HALT_HC_INT(ch_num);
 1820              		.loc 1 1383 5 is_stmt 1 view .LVU552
 1821 0014 0423     		movs	r3, #4
 1822 0016 AB60     		str	r3, [r5, #8]
 1823              	.LVL126:
1384:Libraries/STM32F4xx_HAL_Driver/Src/stm32f4xx_hal_hcd.c ****   }
 1824              		.loc 1 1384 5 view .LVU553
 1825 0018 EB68     		ldr	r3, [r5, #12]
 1826 001a 43F00203 		orr	r3, r3, #2
ARM GAS  C:\Users\yzy\AppData\Local\Temp\cco1yVr9.s 			page 70


 1827 001e EB60     		str	r3, [r5, #12]
 1828              	.LVL127:
 1829              	.L117:
1517:Libraries/STM32F4xx_HAL_Driver/Src/stm32f4xx_hal_hcd.c **** 
 1830              		.loc 1 1517 1 is_stmt 0 view .LVU554
 1831 0020 F8BD     		pop	{r3, r4, r5, r6, r7, pc}
 1832              	.LVL128:
 1833              	.L118:
1517:Libraries/STM32F4xx_HAL_Driver/Src/stm32f4xx_hal_hcd.c **** 
 1834              		.loc 1 1517 1 view .LVU555
 1835 0022 0646     		mov	r6, r0
 1836 0024 0C46     		mov	r4, r1
1386:Libraries/STM32F4xx_HAL_Driver/Src/stm32f4xx_hal_hcd.c ****   {
 1837              		.loc 1 1386 8 is_stmt 1 view .LVU556
1386:Libraries/STM32F4xx_HAL_Driver/Src/stm32f4xx_hal_hcd.c ****   {
 1838              		.loc 1 1386 28 is_stmt 0 view .LVU557
 1839 0026 AA68     		ldr	r2, [r5, #8]
1386:Libraries/STM32F4xx_HAL_Driver/Src/stm32f4xx_hal_hcd.c ****   {
 1840              		.loc 1 1386 11 view .LVU558
 1841 0028 12F0200F 		tst	r2, #32
 1842 002c 1ED0     		beq	.L120
1388:Libraries/STM32F4xx_HAL_Driver/Src/stm32f4xx_hal_hcd.c **** 
 1843              		.loc 1 1388 5 is_stmt 1 view .LVU559
 1844 002e 2023     		movs	r3, #32
 1845 0030 AB60     		str	r3, [r5, #8]
 1846              	.LVL129:
1390:Libraries/STM32F4xx_HAL_Driver/Src/stm32f4xx_hal_hcd.c ****     {
 1847              		.loc 1 1390 5 view .LVU560
1390:Libraries/STM32F4xx_HAL_Driver/Src/stm32f4xx_hal_hcd.c ****     {
 1848              		.loc 1 1390 25 is_stmt 0 view .LVU561
 1849 0032 01EB8103 		add	r3, r1, r1, lsl #2
 1850 0036 00EBC303 		add	r3, r0, r3, lsl #3
 1851 003a 93F83D30 		ldrb	r3, [r3, #61]	@ zero_extendqisi2
1390:Libraries/STM32F4xx_HAL_Driver/Src/stm32f4xx_hal_hcd.c ****     {
 1852              		.loc 1 1390 8 view .LVU562
 1853 003e 012B     		cmp	r3, #1
 1854 0040 EED1     		bne	.L117
1392:Libraries/STM32F4xx_HAL_Driver/Src/stm32f4xx_hal_hcd.c ****       hhcd->hc[ch_num].urb_state  = URB_NOTREADY;
 1855              		.loc 1 1392 7 is_stmt 1 view .LVU563
1392:Libraries/STM32F4xx_HAL_Driver/Src/stm32f4xx_hal_hcd.c ****       hhcd->hc[ch_num].urb_state  = URB_NOTREADY;
 1856              		.loc 1 1392 32 is_stmt 0 view .LVU564
 1857 0042 01EB8103 		add	r3, r1, r1, lsl #2
 1858 0046 00EBC303 		add	r3, r0, r3, lsl #3
 1859 004a 0022     		movs	r2, #0
 1860 004c 83F83D20 		strb	r2, [r3, #61]
1393:Libraries/STM32F4xx_HAL_Driver/Src/stm32f4xx_hal_hcd.c ****       __HAL_HCD_UNMASK_HALT_HC_INT(ch_num);
 1861              		.loc 1 1393 7 is_stmt 1 view .LVU565
1393:Libraries/STM32F4xx_HAL_Driver/Src/stm32f4xx_hal_hcd.c ****       __HAL_HCD_UNMASK_HALT_HC_INT(ch_num);
 1862              		.loc 1 1393 35 is_stmt 0 view .LVU566
 1863 0050 01EB8103 		add	r3, r1, r1, lsl #2
 1864 0054 00EBC303 		add	r3, r0, r3, lsl #3
 1865 0058 0222     		movs	r2, #2
 1866 005a 83F85C20 		strb	r2, [r3, #92]
1394:Libraries/STM32F4xx_HAL_Driver/Src/stm32f4xx_hal_hcd.c ****       (void)USB_HC_Halt(hhcd->Instance, (uint8_t)ch_num);
 1867              		.loc 1 1394 7 is_stmt 1 view .LVU567
 1868 005e EB68     		ldr	r3, [r5, #12]
 1869 0060 1343     		orrs	r3, r3, r2
ARM GAS  C:\Users\yzy\AppData\Local\Temp\cco1yVr9.s 			page 71


 1870 0062 EB60     		str	r3, [r5, #12]
1395:Libraries/STM32F4xx_HAL_Driver/Src/stm32f4xx_hal_hcd.c ****     }
 1871              		.loc 1 1395 7 view .LVU568
1395:Libraries/STM32F4xx_HAL_Driver/Src/stm32f4xx_hal_hcd.c ****     }
 1872              		.loc 1 1395 13 is_stmt 0 view .LVU569
 1873 0064 0068     		ldr	r0, [r0]
 1874              	.LVL130:
1395:Libraries/STM32F4xx_HAL_Driver/Src/stm32f4xx_hal_hcd.c ****     }
 1875              		.loc 1 1395 13 view .LVU570
 1876 0066 FFF7FEFF 		bl	USB_HC_Halt
 1877              	.LVL131:
1395:Libraries/STM32F4xx_HAL_Driver/Src/stm32f4xx_hal_hcd.c ****     }
 1878              		.loc 1 1395 13 view .LVU571
 1879 006a D9E7     		b	.L117
 1880              	.LVL132:
 1881              	.L120:
1398:Libraries/STM32F4xx_HAL_Driver/Src/stm32f4xx_hal_hcd.c ****   {
 1882              		.loc 1 1398 8 is_stmt 1 view .LVU572
1398:Libraries/STM32F4xx_HAL_Driver/Src/stm32f4xx_hal_hcd.c ****   {
 1883              		.loc 1 1398 28 is_stmt 0 view .LVU573
 1884 006c AA68     		ldr	r2, [r5, #8]
1398:Libraries/STM32F4xx_HAL_Driver/Src/stm32f4xx_hal_hcd.c ****   {
 1885              		.loc 1 1398 11 view .LVU574
 1886 006e 12F0400F 		tst	r2, #64
 1887 0072 34D1     		bne	.L138
1407:Libraries/STM32F4xx_HAL_Driver/Src/stm32f4xx_hal_hcd.c ****   {
 1888              		.loc 1 1407 8 is_stmt 1 view .LVU575
1407:Libraries/STM32F4xx_HAL_Driver/Src/stm32f4xx_hal_hcd.c ****   {
 1889              		.loc 1 1407 28 is_stmt 0 view .LVU576
 1890 0074 AA68     		ldr	r2, [r5, #8]
1407:Libraries/STM32F4xx_HAL_Driver/Src/stm32f4xx_hal_hcd.c ****   {
 1891              		.loc 1 1407 11 view .LVU577
 1892 0076 12F4007F 		tst	r2, #512
 1893 007a 4AD1     		bne	.L139
1413:Libraries/STM32F4xx_HAL_Driver/Src/stm32f4xx_hal_hcd.c ****   {
 1894              		.loc 1 1413 8 is_stmt 1 view .LVU578
1413:Libraries/STM32F4xx_HAL_Driver/Src/stm32f4xx_hal_hcd.c ****   {
 1895              		.loc 1 1413 28 is_stmt 0 view .LVU579
 1896 007c AA68     		ldr	r2, [r5, #8]
1413:Libraries/STM32F4xx_HAL_Driver/Src/stm32f4xx_hal_hcd.c ****   {
 1897              		.loc 1 1413 11 view .LVU580
 1898 007e 12F0010F 		tst	r2, #1
 1899 0082 51D1     		bne	.L140
1421:Libraries/STM32F4xx_HAL_Driver/Src/stm32f4xx_hal_hcd.c ****   {
 1900              		.loc 1 1421 8 is_stmt 1 view .LVU581
1421:Libraries/STM32F4xx_HAL_Driver/Src/stm32f4xx_hal_hcd.c ****   {
 1901              		.loc 1 1421 28 is_stmt 0 view .LVU582
 1902 0084 AA68     		ldr	r2, [r5, #8]
1421:Libraries/STM32F4xx_HAL_Driver/Src/stm32f4xx_hal_hcd.c ****   {
 1903              		.loc 1 1421 11 view .LVU583
 1904 0086 12F0080F 		tst	r2, #8
 1905 008a 63D1     		bne	.L141
1428:Libraries/STM32F4xx_HAL_Driver/Src/stm32f4xx_hal_hcd.c ****   {
 1906              		.loc 1 1428 8 is_stmt 1 view .LVU584
1428:Libraries/STM32F4xx_HAL_Driver/Src/stm32f4xx_hal_hcd.c ****   {
 1907              		.loc 1 1428 28 is_stmt 0 view .LVU585
 1908 008c AA68     		ldr	r2, [r5, #8]
ARM GAS  C:\Users\yzy\AppData\Local\Temp\cco1yVr9.s 			page 72


1428:Libraries/STM32F4xx_HAL_Driver/Src/stm32f4xx_hal_hcd.c ****   {
 1909              		.loc 1 1428 11 view .LVU586
 1910 008e 12F0100F 		tst	r2, #16
 1911 0092 70D0     		beq	.L125
1430:Libraries/STM32F4xx_HAL_Driver/Src/stm32f4xx_hal_hcd.c ****     hhcd->hc[ch_num].state = HC_NAK;
 1912              		.loc 1 1430 5 is_stmt 1 view .LVU587
1430:Libraries/STM32F4xx_HAL_Driver/Src/stm32f4xx_hal_hcd.c ****     hhcd->hc[ch_num].state = HC_NAK;
 1913              		.loc 1 1430 29 is_stmt 0 view .LVU588
 1914 0094 01EB8103 		add	r3, r1, r1, lsl #2
 1915 0098 00EBC303 		add	r3, r0, r3, lsl #3
 1916 009c 0022     		movs	r2, #0
 1917 009e 9A65     		str	r2, [r3, #88]
 1918              	.LVL133:
1431:Libraries/STM32F4xx_HAL_Driver/Src/stm32f4xx_hal_hcd.c **** 
 1919              		.loc 1 1431 5 is_stmt 1 view .LVU589
1431:Libraries/STM32F4xx_HAL_Driver/Src/stm32f4xx_hal_hcd.c **** 
 1920              		.loc 1 1431 28 is_stmt 0 view .LVU590
 1921 00a0 0322     		movs	r2, #3
 1922 00a2 83F85D20 		strb	r2, [r3, #93]
1433:Libraries/STM32F4xx_HAL_Driver/Src/stm32f4xx_hal_hcd.c ****     {
 1923              		.loc 1 1433 5 is_stmt 1 view .LVU591
1433:Libraries/STM32F4xx_HAL_Driver/Src/stm32f4xx_hal_hcd.c ****     {
 1924              		.loc 1 1433 25 is_stmt 0 view .LVU592
 1925 00a6 93F83D30 		ldrb	r3, [r3, #61]	@ zero_extendqisi2
1433:Libraries/STM32F4xx_HAL_Driver/Src/stm32f4xx_hal_hcd.c ****     {
 1926              		.loc 1 1433 8 view .LVU593
 1927 00aa 6BB9     		cbnz	r3, .L126
1435:Libraries/STM32F4xx_HAL_Driver/Src/stm32f4xx_hal_hcd.c ****       {
 1928              		.loc 1 1435 7 is_stmt 1 view .LVU594
1435:Libraries/STM32F4xx_HAL_Driver/Src/stm32f4xx_hal_hcd.c ****       {
 1929              		.loc 1 1435 27 is_stmt 0 view .LVU595
 1930 00ac 01EB8103 		add	r3, r1, r1, lsl #2
 1931 00b0 00EBC303 		add	r3, r0, r3, lsl #3
 1932 00b4 93F83C30 		ldrb	r3, [r3, #60]	@ zero_extendqisi2
1435:Libraries/STM32F4xx_HAL_Driver/Src/stm32f4xx_hal_hcd.c ****       {
 1933              		.loc 1 1435 10 view .LVU596
 1934 00b8 33B9     		cbnz	r3, .L126
1437:Libraries/STM32F4xx_HAL_Driver/Src/stm32f4xx_hal_hcd.c ****       }
 1935              		.loc 1 1437 9 is_stmt 1 view .LVU597
1437:Libraries/STM32F4xx_HAL_Driver/Src/stm32f4xx_hal_hcd.c ****       }
 1936              		.loc 1 1437 34 is_stmt 0 view .LVU598
 1937 00ba 01EB8103 		add	r3, r1, r1, lsl #2
 1938 00be 00EBC303 		add	r3, r0, r3, lsl #3
 1939 00c2 0122     		movs	r2, #1
 1940 00c4 83F83D20 		strb	r2, [r3, #61]
 1941              	.L126:
1441:Libraries/STM32F4xx_HAL_Driver/Src/stm32f4xx_hal_hcd.c ****     (void)USB_HC_Halt(hhcd->Instance, (uint8_t)ch_num);
 1942              		.loc 1 1441 5 is_stmt 1 view .LVU599
 1943 00c8 EB68     		ldr	r3, [r5, #12]
 1944 00ca 43F00203 		orr	r3, r3, #2
 1945 00ce EB60     		str	r3, [r5, #12]
1442:Libraries/STM32F4xx_HAL_Driver/Src/stm32f4xx_hal_hcd.c ****     __HAL_HCD_CLEAR_HC_INT(ch_num, USB_OTG_HCINT_NAK);
 1946              		.loc 1 1442 5 view .LVU600
1442:Libraries/STM32F4xx_HAL_Driver/Src/stm32f4xx_hal_hcd.c ****     __HAL_HCD_CLEAR_HC_INT(ch_num, USB_OTG_HCINT_NAK);
 1947              		.loc 1 1442 11 is_stmt 0 view .LVU601
 1948 00d0 2146     		mov	r1, r4
 1949              	.LVL134:
ARM GAS  C:\Users\yzy\AppData\Local\Temp\cco1yVr9.s 			page 73


1442:Libraries/STM32F4xx_HAL_Driver/Src/stm32f4xx_hal_hcd.c ****     __HAL_HCD_CLEAR_HC_INT(ch_num, USB_OTG_HCINT_NAK);
 1950              		.loc 1 1442 11 view .LVU602
 1951 00d2 3068     		ldr	r0, [r6]
 1952              	.LVL135:
1442:Libraries/STM32F4xx_HAL_Driver/Src/stm32f4xx_hal_hcd.c ****     __HAL_HCD_CLEAR_HC_INT(ch_num, USB_OTG_HCINT_NAK);
 1953              		.loc 1 1442 11 view .LVU603
 1954 00d4 FFF7FEFF 		bl	USB_HC_Halt
 1955              	.LVL136:
1443:Libraries/STM32F4xx_HAL_Driver/Src/stm32f4xx_hal_hcd.c ****   }
 1956              		.loc 1 1443 5 is_stmt 1 view .LVU604
 1957 00d8 1023     		movs	r3, #16
 1958 00da AB60     		str	r3, [r5, #8]
 1959 00dc A0E7     		b	.L117
 1960              	.LVL137:
 1961              	.L138:
1400:Libraries/STM32F4xx_HAL_Driver/Src/stm32f4xx_hal_hcd.c ****     hhcd->hc[ch_num].do_ping = 1U;
 1962              		.loc 1 1400 5 view .LVU605
1400:Libraries/STM32F4xx_HAL_Driver/Src/stm32f4xx_hal_hcd.c ****     hhcd->hc[ch_num].do_ping = 1U;
 1963              		.loc 1 1400 28 is_stmt 0 view .LVU606
 1964 00de 01EB8103 		add	r3, r1, r1, lsl #2
 1965 00e2 00EBC303 		add	r3, r0, r3, lsl #3
 1966 00e6 0422     		movs	r2, #4
 1967 00e8 83F85D20 		strb	r2, [r3, #93]
 1968              	.LVL138:
1401:Libraries/STM32F4xx_HAL_Driver/Src/stm32f4xx_hal_hcd.c ****     hhcd->hc[ch_num].ErrCnt = 0U;
 1969              		.loc 1 1401 5 is_stmt 1 view .LVU607
1401:Libraries/STM32F4xx_HAL_Driver/Src/stm32f4xx_hal_hcd.c ****     hhcd->hc[ch_num].ErrCnt = 0U;
 1970              		.loc 1 1401 30 is_stmt 0 view .LVU608
 1971 00ec 0122     		movs	r2, #1
 1972 00ee 83F83D20 		strb	r2, [r3, #61]
1402:Libraries/STM32F4xx_HAL_Driver/Src/stm32f4xx_hal_hcd.c ****     __HAL_HCD_UNMASK_HALT_HC_INT(ch_num);
 1973              		.loc 1 1402 5 is_stmt 1 view .LVU609
1402:Libraries/STM32F4xx_HAL_Driver/Src/stm32f4xx_hal_hcd.c ****     __HAL_HCD_UNMASK_HALT_HC_INT(ch_num);
 1974              		.loc 1 1402 29 is_stmt 0 view .LVU610
 1975 00f2 01EB8103 		add	r3, r1, r1, lsl #2
 1976 00f6 00EBC303 		add	r3, r0, r3, lsl #3
 1977 00fa 0022     		movs	r2, #0
 1978 00fc 9A65     		str	r2, [r3, #88]
1403:Libraries/STM32F4xx_HAL_Driver/Src/stm32f4xx_hal_hcd.c ****     (void)USB_HC_Halt(hhcd->Instance, (uint8_t)ch_num);
 1979              		.loc 1 1403 5 is_stmt 1 view .LVU611
 1980 00fe EB68     		ldr	r3, [r5, #12]
 1981 0100 43F00203 		orr	r3, r3, #2
 1982 0104 EB60     		str	r3, [r5, #12]
1404:Libraries/STM32F4xx_HAL_Driver/Src/stm32f4xx_hal_hcd.c ****     __HAL_HCD_CLEAR_HC_INT(ch_num, USB_OTG_HCINT_NYET);
 1983              		.loc 1 1404 5 view .LVU612
1404:Libraries/STM32F4xx_HAL_Driver/Src/stm32f4xx_hal_hcd.c ****     __HAL_HCD_CLEAR_HC_INT(ch_num, USB_OTG_HCINT_NYET);
 1984              		.loc 1 1404 11 is_stmt 0 view .LVU613
 1985 0106 0068     		ldr	r0, [r0]
 1986              	.LVL139:
1404:Libraries/STM32F4xx_HAL_Driver/Src/stm32f4xx_hal_hcd.c ****     __HAL_HCD_CLEAR_HC_INT(ch_num, USB_OTG_HCINT_NYET);
 1987              		.loc 1 1404 11 view .LVU614
 1988 0108 FFF7FEFF 		bl	USB_HC_Halt
 1989              	.LVL140:
1405:Libraries/STM32F4xx_HAL_Driver/Src/stm32f4xx_hal_hcd.c ****   }
 1990              		.loc 1 1405 5 is_stmt 1 view .LVU615
 1991 010c 4023     		movs	r3, #64
 1992 010e AB60     		str	r3, [r5, #8]
ARM GAS  C:\Users\yzy\AppData\Local\Temp\cco1yVr9.s 			page 74


 1993 0110 86E7     		b	.L117
 1994              	.LVL141:
 1995              	.L139:
1409:Libraries/STM32F4xx_HAL_Driver/Src/stm32f4xx_hal_hcd.c ****     (void)USB_HC_Halt(hhcd->Instance, (uint8_t)ch_num);
 1996              		.loc 1 1409 5 view .LVU616
 1997 0112 EB68     		ldr	r3, [r5, #12]
 1998 0114 43F00203 		orr	r3, r3, #2
 1999 0118 EB60     		str	r3, [r5, #12]
 2000              	.LVL142:
1410:Libraries/STM32F4xx_HAL_Driver/Src/stm32f4xx_hal_hcd.c ****     __HAL_HCD_CLEAR_HC_INT(ch_num, USB_OTG_HCINT_FRMOR);
 2001              		.loc 1 1410 5 view .LVU617
1410:Libraries/STM32F4xx_HAL_Driver/Src/stm32f4xx_hal_hcd.c ****     __HAL_HCD_CLEAR_HC_INT(ch_num, USB_OTG_HCINT_FRMOR);
 2002              		.loc 1 1410 11 is_stmt 0 view .LVU618
 2003 011a 0068     		ldr	r0, [r0]
 2004              	.LVL143:
1410:Libraries/STM32F4xx_HAL_Driver/Src/stm32f4xx_hal_hcd.c ****     __HAL_HCD_CLEAR_HC_INT(ch_num, USB_OTG_HCINT_FRMOR);
 2005              		.loc 1 1410 11 view .LVU619
 2006 011c FFF7FEFF 		bl	USB_HC_Halt
 2007              	.LVL144:
1411:Libraries/STM32F4xx_HAL_Driver/Src/stm32f4xx_hal_hcd.c ****   }
 2008              		.loc 1 1411 5 is_stmt 1 view .LVU620
 2009 0120 4FF40073 		mov	r3, #512
 2010 0124 AB60     		str	r3, [r5, #8]
 2011 0126 7BE7     		b	.L117
 2012              	.LVL145:
 2013              	.L140:
1415:Libraries/STM32F4xx_HAL_Driver/Src/stm32f4xx_hal_hcd.c ****     __HAL_HCD_UNMASK_HALT_HC_INT(ch_num);
 2014              		.loc 1 1415 5 view .LVU621
1415:Libraries/STM32F4xx_HAL_Driver/Src/stm32f4xx_hal_hcd.c ****     __HAL_HCD_UNMASK_HALT_HC_INT(ch_num);
 2015              		.loc 1 1415 29 is_stmt 0 view .LVU622
 2016 0128 8F00     		lsls	r7, r1, #2
 2017 012a 01EB8103 		add	r3, r1, r1, lsl #2
 2018 012e 00EBC303 		add	r3, r0, r3, lsl #3
 2019 0132 0022     		movs	r2, #0
 2020 0134 9A65     		str	r2, [r3, #88]
 2021              	.LVL146:
1416:Libraries/STM32F4xx_HAL_Driver/Src/stm32f4xx_hal_hcd.c ****     (void)USB_HC_Halt(hhcd->Instance, (uint8_t)ch_num);
 2022              		.loc 1 1416 5 is_stmt 1 view .LVU623
 2023 0136 EB68     		ldr	r3, [r5, #12]
 2024 0138 43F00203 		orr	r3, r3, #2
 2025 013c EB60     		str	r3, [r5, #12]
1417:Libraries/STM32F4xx_HAL_Driver/Src/stm32f4xx_hal_hcd.c ****     __HAL_HCD_CLEAR_HC_INT(ch_num, USB_OTG_HCINT_XFRC);
 2026              		.loc 1 1417 5 view .LVU624
1417:Libraries/STM32F4xx_HAL_Driver/Src/stm32f4xx_hal_hcd.c ****     __HAL_HCD_CLEAR_HC_INT(ch_num, USB_OTG_HCINT_XFRC);
 2027              		.loc 1 1417 11 is_stmt 0 view .LVU625
 2028 013e 0068     		ldr	r0, [r0]
 2029              	.LVL147:
1417:Libraries/STM32F4xx_HAL_Driver/Src/stm32f4xx_hal_hcd.c ****     __HAL_HCD_CLEAR_HC_INT(ch_num, USB_OTG_HCINT_XFRC);
 2030              		.loc 1 1417 11 view .LVU626
 2031 0140 FFF7FEFF 		bl	USB_HC_Halt
 2032              	.LVL148:
1418:Libraries/STM32F4xx_HAL_Driver/Src/stm32f4xx_hal_hcd.c ****     hhcd->hc[ch_num].state = HC_XFRC;
 2033              		.loc 1 1418 5 is_stmt 1 view .LVU627
 2034 0144 0123     		movs	r3, #1
 2035 0146 AB60     		str	r3, [r5, #8]
1419:Libraries/STM32F4xx_HAL_Driver/Src/stm32f4xx_hal_hcd.c ****   }
 2036              		.loc 1 1419 5 view .LVU628
ARM GAS  C:\Users\yzy\AppData\Local\Temp\cco1yVr9.s 			page 75


1419:Libraries/STM32F4xx_HAL_Driver/Src/stm32f4xx_hal_hcd.c ****   }
 2037              		.loc 1 1419 28 is_stmt 0 view .LVU629
 2038 0148 3C44     		add	r4, r4, r7
 2039              	.LVL149:
1419:Libraries/STM32F4xx_HAL_Driver/Src/stm32f4xx_hal_hcd.c ****   }
 2040              		.loc 1 1419 28 view .LVU630
 2041 014a 06EBC406 		add	r6, r6, r4, lsl #3
 2042              	.LVL150:
1419:Libraries/STM32F4xx_HAL_Driver/Src/stm32f4xx_hal_hcd.c ****   }
 2043              		.loc 1 1419 28 view .LVU631
 2044 014e 86F85D30 		strb	r3, [r6, #93]
 2045 0152 65E7     		b	.L117
 2046              	.LVL151:
 2047              	.L141:
1423:Libraries/STM32F4xx_HAL_Driver/Src/stm32f4xx_hal_hcd.c ****     __HAL_HCD_UNMASK_HALT_HC_INT(ch_num);
 2048              		.loc 1 1423 5 is_stmt 1 view .LVU632
 2049 0154 0823     		movs	r3, #8
 2050 0156 AB60     		str	r3, [r5, #8]
 2051              	.LVL152:
1424:Libraries/STM32F4xx_HAL_Driver/Src/stm32f4xx_hal_hcd.c ****     (void)USB_HC_Halt(hhcd->Instance, (uint8_t)ch_num);
 2052              		.loc 1 1424 5 view .LVU633
 2053 0158 EB68     		ldr	r3, [r5, #12]
 2054 015a 43F00203 		orr	r3, r3, #2
 2055 015e EB60     		str	r3, [r5, #12]
1425:Libraries/STM32F4xx_HAL_Driver/Src/stm32f4xx_hal_hcd.c ****     hhcd->hc[ch_num].state = HC_STALL;
 2056              		.loc 1 1425 5 view .LVU634
1425:Libraries/STM32F4xx_HAL_Driver/Src/stm32f4xx_hal_hcd.c ****     hhcd->hc[ch_num].state = HC_STALL;
 2057              		.loc 1 1425 11 is_stmt 0 view .LVU635
 2058 0160 0068     		ldr	r0, [r0]
 2059              	.LVL153:
1425:Libraries/STM32F4xx_HAL_Driver/Src/stm32f4xx_hal_hcd.c ****     hhcd->hc[ch_num].state = HC_STALL;
 2060              		.loc 1 1425 11 view .LVU636
 2061 0162 FFF7FEFF 		bl	USB_HC_Halt
 2062              	.LVL154:
1426:Libraries/STM32F4xx_HAL_Driver/Src/stm32f4xx_hal_hcd.c ****   }
 2063              		.loc 1 1426 5 is_stmt 1 view .LVU637
1426:Libraries/STM32F4xx_HAL_Driver/Src/stm32f4xx_hal_hcd.c ****   }
 2064              		.loc 1 1426 28 is_stmt 0 view .LVU638
 2065 0166 04EB8404 		add	r4, r4, r4, lsl #2
 2066              	.LVL155:
1426:Libraries/STM32F4xx_HAL_Driver/Src/stm32f4xx_hal_hcd.c ****   }
 2067              		.loc 1 1426 28 view .LVU639
 2068 016a 06EBC406 		add	r6, r6, r4, lsl #3
 2069              	.LVL156:
1426:Libraries/STM32F4xx_HAL_Driver/Src/stm32f4xx_hal_hcd.c ****   }
 2070              		.loc 1 1426 28 view .LVU640
 2071 016e 0523     		movs	r3, #5
 2072 0170 86F85D30 		strb	r3, [r6, #93]
 2073 0174 54E7     		b	.L117
 2074              	.LVL157:
 2075              	.L125:
1445:Libraries/STM32F4xx_HAL_Driver/Src/stm32f4xx_hal_hcd.c ****   {
 2076              		.loc 1 1445 8 is_stmt 1 view .LVU641
1445:Libraries/STM32F4xx_HAL_Driver/Src/stm32f4xx_hal_hcd.c ****   {
 2077              		.loc 1 1445 28 is_stmt 0 view .LVU642
 2078 0176 AA68     		ldr	r2, [r5, #8]
1445:Libraries/STM32F4xx_HAL_Driver/Src/stm32f4xx_hal_hcd.c ****   {
ARM GAS  C:\Users\yzy\AppData\Local\Temp\cco1yVr9.s 			page 76


 2079              		.loc 1 1445 11 view .LVU643
 2080 0178 12F0800F 		tst	r2, #128
 2081 017c 35D1     		bne	.L142
1452:Libraries/STM32F4xx_HAL_Driver/Src/stm32f4xx_hal_hcd.c ****   {
 2082              		.loc 1 1452 8 is_stmt 1 view .LVU644
1452:Libraries/STM32F4xx_HAL_Driver/Src/stm32f4xx_hal_hcd.c ****   {
 2083              		.loc 1 1452 28 is_stmt 0 view .LVU645
 2084 017e AA68     		ldr	r2, [r5, #8]
1452:Libraries/STM32F4xx_HAL_Driver/Src/stm32f4xx_hal_hcd.c ****   {
 2085              		.loc 1 1452 11 view .LVU646
 2086 0180 12F4806F 		tst	r2, #1024
 2087 0184 42D1     		bne	.L143
1460:Libraries/STM32F4xx_HAL_Driver/Src/stm32f4xx_hal_hcd.c ****   {
 2088              		.loc 1 1460 8 is_stmt 1 view .LVU647
1460:Libraries/STM32F4xx_HAL_Driver/Src/stm32f4xx_hal_hcd.c ****   {
 2089              		.loc 1 1460 28 is_stmt 0 view .LVU648
 2090 0186 AA68     		ldr	r2, [r5, #8]
1460:Libraries/STM32F4xx_HAL_Driver/Src/stm32f4xx_hal_hcd.c ****   {
 2091              		.loc 1 1460 11 view .LVU649
 2092 0188 12F0020F 		tst	r2, #2
 2093 018c 3FF448AF 		beq	.L117
1462:Libraries/STM32F4xx_HAL_Driver/Src/stm32f4xx_hal_hcd.c **** 
 2094              		.loc 1 1462 5 is_stmt 1 view .LVU650
 2095 0190 EA68     		ldr	r2, [r5, #12]
 2096 0192 22F00202 		bic	r2, r2, #2
 2097 0196 EA60     		str	r2, [r5, #12]
 2098              	.LVL158:
1464:Libraries/STM32F4xx_HAL_Driver/Src/stm32f4xx_hal_hcd.c ****     {
 2099              		.loc 1 1464 5 view .LVU651
1464:Libraries/STM32F4xx_HAL_Driver/Src/stm32f4xx_hal_hcd.c ****     {
 2100              		.loc 1 1464 25 is_stmt 0 view .LVU652
 2101 0198 01EB8102 		add	r2, r1, r1, lsl #2
 2102 019c 00EBC202 		add	r2, r0, r2, lsl #3
 2103 01a0 92F85D20 		ldrb	r2, [r2, #93]	@ zero_extendqisi2
1464:Libraries/STM32F4xx_HAL_Driver/Src/stm32f4xx_hal_hcd.c ****     {
 2104              		.loc 1 1464 8 view .LVU653
 2105 01a4 012A     		cmp	r2, #1
 2106 01a6 45D0     		beq	.L144
1473:Libraries/STM32F4xx_HAL_Driver/Src/stm32f4xx_hal_hcd.c ****     {
 2107              		.loc 1 1473 10 is_stmt 1 view .LVU654
1473:Libraries/STM32F4xx_HAL_Driver/Src/stm32f4xx_hal_hcd.c ****     {
 2108              		.loc 1 1473 13 is_stmt 0 view .LVU655
 2109 01a8 032A     		cmp	r2, #3
 2110 01aa 59D0     		beq	.L145
1477:Libraries/STM32F4xx_HAL_Driver/Src/stm32f4xx_hal_hcd.c ****     {
 2111              		.loc 1 1477 10 is_stmt 1 view .LVU656
1477:Libraries/STM32F4xx_HAL_Driver/Src/stm32f4xx_hal_hcd.c ****     {
 2112              		.loc 1 1477 13 is_stmt 0 view .LVU657
 2113 01ac 042A     		cmp	r2, #4
 2114 01ae 6BD0     		beq	.L146
1481:Libraries/STM32F4xx_HAL_Driver/Src/stm32f4xx_hal_hcd.c ****     {
 2115              		.loc 1 1481 10 is_stmt 1 view .LVU658
1481:Libraries/STM32F4xx_HAL_Driver/Src/stm32f4xx_hal_hcd.c ****     {
 2116              		.loc 1 1481 13 is_stmt 0 view .LVU659
 2117 01b0 052A     		cmp	r2, #5
 2118 01b2 70D0     		beq	.L147
1485:Libraries/STM32F4xx_HAL_Driver/Src/stm32f4xx_hal_hcd.c ****              (hhcd->hc[ch_num].state == HC_DATATGLERR))
ARM GAS  C:\Users\yzy\AppData\Local\Temp\cco1yVr9.s 			page 77


 2119              		.loc 1 1485 10 is_stmt 1 view .LVU660
1485:Libraries/STM32F4xx_HAL_Driver/Src/stm32f4xx_hal_hcd.c ****              (hhcd->hc[ch_num].state == HC_DATATGLERR))
 2120              		.loc 1 1485 13 is_stmt 0 view .LVU661
 2121 01b4 062A     		cmp	r2, #6
 2122 01b6 01D0     		beq	.L134
1485:Libraries/STM32F4xx_HAL_Driver/Src/stm32f4xx_hal_hcd.c ****              (hhcd->hc[ch_num].state == HC_DATATGLERR))
 2123              		.loc 1 1485 53 discriminator 1 view .LVU662
 2124 01b8 082A     		cmp	r2, #8
 2125 01ba 58D1     		bne	.L130
 2126              	.L134:
1488:Libraries/STM32F4xx_HAL_Driver/Src/stm32f4xx_hal_hcd.c ****       if (hhcd->hc[ch_num].ErrCnt > 3U)
 2127              		.loc 1 1488 7 is_stmt 1 view .LVU663
1488:Libraries/STM32F4xx_HAL_Driver/Src/stm32f4xx_hal_hcd.c ****       if (hhcd->hc[ch_num].ErrCnt > 3U)
 2128              		.loc 1 1488 23 is_stmt 0 view .LVU664
 2129 01bc 2821     		movs	r1, #40
 2130              	.LVL159:
1488:Libraries/STM32F4xx_HAL_Driver/Src/stm32f4xx_hal_hcd.c ****       if (hhcd->hc[ch_num].ErrCnt > 3U)
 2131              		.loc 1 1488 23 view .LVU665
 2132 01be 01FB0461 		mla	r1, r1, r4, r6
 2133 01c2 8A6D     		ldr	r2, [r1, #88]
1488:Libraries/STM32F4xx_HAL_Driver/Src/stm32f4xx_hal_hcd.c ****       if (hhcd->hc[ch_num].ErrCnt > 3U)
 2134              		.loc 1 1488 30 view .LVU666
 2135 01c4 0132     		adds	r2, r2, #1
 2136 01c6 8A65     		str	r2, [r1, #88]
1489:Libraries/STM32F4xx_HAL_Driver/Src/stm32f4xx_hal_hcd.c ****       {
 2137              		.loc 1 1489 7 is_stmt 1 view .LVU667
1489:Libraries/STM32F4xx_HAL_Driver/Src/stm32f4xx_hal_hcd.c ****       {
 2138              		.loc 1 1489 10 is_stmt 0 view .LVU668
 2139 01c8 032A     		cmp	r2, #3
 2140 01ca 6AD9     		bls	.L135
1491:Libraries/STM32F4xx_HAL_Driver/Src/stm32f4xx_hal_hcd.c ****         hhcd->hc[ch_num].urb_state = URB_ERROR;
 2141              		.loc 1 1491 9 is_stmt 1 view .LVU669
1491:Libraries/STM32F4xx_HAL_Driver/Src/stm32f4xx_hal_hcd.c ****         hhcd->hc[ch_num].urb_state = URB_ERROR;
 2142              		.loc 1 1491 33 is_stmt 0 view .LVU670
 2143 01cc 0A46     		mov	r2, r1
 2144 01ce 0021     		movs	r1, #0
 2145 01d0 9165     		str	r1, [r2, #88]
1492:Libraries/STM32F4xx_HAL_Driver/Src/stm32f4xx_hal_hcd.c ****       }
 2146              		.loc 1 1492 9 is_stmt 1 view .LVU671
1492:Libraries/STM32F4xx_HAL_Driver/Src/stm32f4xx_hal_hcd.c ****       }
 2147              		.loc 1 1492 36 is_stmt 0 view .LVU672
 2148 01d2 0421     		movs	r1, #4
 2149 01d4 82F85C10 		strb	r1, [r2, #92]
 2150              	.L136:
1500:Libraries/STM32F4xx_HAL_Driver/Src/stm32f4xx_hal_hcd.c ****       tmpreg &= ~USB_OTG_HCCHAR_CHDIS;
 2151              		.loc 1 1500 7 is_stmt 1 view .LVU673
1500:Libraries/STM32F4xx_HAL_Driver/Src/stm32f4xx_hal_hcd.c ****       tmpreg &= ~USB_OTG_HCCHAR_CHDIS;
 2152              		.loc 1 1500 14 is_stmt 0 view .LVU674
 2153 01d8 D3F80025 		ldr	r2, [r3, #1280]
 2154              	.LVL160:
1501:Libraries/STM32F4xx_HAL_Driver/Src/stm32f4xx_hal_hcd.c ****       tmpreg |= USB_OTG_HCCHAR_CHENA;
 2155              		.loc 1 1501 7 is_stmt 1 view .LVU675
1501:Libraries/STM32F4xx_HAL_Driver/Src/stm32f4xx_hal_hcd.c ****       tmpreg |= USB_OTG_HCCHAR_CHENA;
 2156              		.loc 1 1501 14 is_stmt 0 view .LVU676
 2157 01dc 22F08042 		bic	r2, r2, #1073741824
 2158              	.LVL161:
1502:Libraries/STM32F4xx_HAL_Driver/Src/stm32f4xx_hal_hcd.c ****       USBx_HC(ch_num)->HCCHAR = tmpreg;
ARM GAS  C:\Users\yzy\AppData\Local\Temp\cco1yVr9.s 			page 78


 2159              		.loc 1 1502 7 is_stmt 1 view .LVU677
1502:Libraries/STM32F4xx_HAL_Driver/Src/stm32f4xx_hal_hcd.c ****       USBx_HC(ch_num)->HCCHAR = tmpreg;
 2160              		.loc 1 1502 14 is_stmt 0 view .LVU678
 2161 01e0 42F00042 		orr	r2, r2, #-2147483648
 2162              	.LVL162:
1503:Libraries/STM32F4xx_HAL_Driver/Src/stm32f4xx_hal_hcd.c ****     }
 2163              		.loc 1 1503 7 is_stmt 1 view .LVU679
1503:Libraries/STM32F4xx_HAL_Driver/Src/stm32f4xx_hal_hcd.c ****     }
 2164              		.loc 1 1503 31 is_stmt 0 view .LVU680
 2165 01e4 C3F80025 		str	r2, [r3, #1280]
 2166 01e8 41E0     		b	.L130
 2167              	.LVL163:
 2168              	.L142:
1447:Libraries/STM32F4xx_HAL_Driver/Src/stm32f4xx_hal_hcd.c ****     (void)USB_HC_Halt(hhcd->Instance, (uint8_t)ch_num);
 2169              		.loc 1 1447 5 is_stmt 1 view .LVU681
 2170 01ea EB68     		ldr	r3, [r5, #12]
 2171 01ec 43F00203 		orr	r3, r3, #2
 2172 01f0 EB60     		str	r3, [r5, #12]
 2173              	.LVL164:
1448:Libraries/STM32F4xx_HAL_Driver/Src/stm32f4xx_hal_hcd.c ****     hhcd->hc[ch_num].state = HC_XACTERR;
 2174              		.loc 1 1448 5 view .LVU682
1448:Libraries/STM32F4xx_HAL_Driver/Src/stm32f4xx_hal_hcd.c ****     hhcd->hc[ch_num].state = HC_XACTERR;
 2175              		.loc 1 1448 11 is_stmt 0 view .LVU683
 2176 01f2 0068     		ldr	r0, [r0]
 2177              	.LVL165:
1448:Libraries/STM32F4xx_HAL_Driver/Src/stm32f4xx_hal_hcd.c ****     hhcd->hc[ch_num].state = HC_XACTERR;
 2178              		.loc 1 1448 11 view .LVU684
 2179 01f4 FFF7FEFF 		bl	USB_HC_Halt
 2180              	.LVL166:
1449:Libraries/STM32F4xx_HAL_Driver/Src/stm32f4xx_hal_hcd.c ****     __HAL_HCD_CLEAR_HC_INT(ch_num, USB_OTG_HCINT_TXERR);
 2181              		.loc 1 1449 5 is_stmt 1 view .LVU685
1449:Libraries/STM32F4xx_HAL_Driver/Src/stm32f4xx_hal_hcd.c ****     __HAL_HCD_CLEAR_HC_INT(ch_num, USB_OTG_HCINT_TXERR);
 2182              		.loc 1 1449 28 is_stmt 0 view .LVU686
 2183 01f8 04EB8404 		add	r4, r4, r4, lsl #2
 2184              	.LVL167:
1449:Libraries/STM32F4xx_HAL_Driver/Src/stm32f4xx_hal_hcd.c ****     __HAL_HCD_CLEAR_HC_INT(ch_num, USB_OTG_HCINT_TXERR);
 2185              		.loc 1 1449 28 view .LVU687
 2186 01fc 06EBC406 		add	r6, r6, r4, lsl #3
 2187              	.LVL168:
1449:Libraries/STM32F4xx_HAL_Driver/Src/stm32f4xx_hal_hcd.c ****     __HAL_HCD_CLEAR_HC_INT(ch_num, USB_OTG_HCINT_TXERR);
 2188              		.loc 1 1449 28 view .LVU688
 2189 0200 0623     		movs	r3, #6
 2190 0202 86F85D30 		strb	r3, [r6, #93]
1450:Libraries/STM32F4xx_HAL_Driver/Src/stm32f4xx_hal_hcd.c ****   }
 2191              		.loc 1 1450 5 is_stmt 1 view .LVU689
 2192 0206 8023     		movs	r3, #128
 2193 0208 AB60     		str	r3, [r5, #8]
 2194 020a 09E7     		b	.L117
 2195              	.LVL169:
 2196              	.L143:
1454:Libraries/STM32F4xx_HAL_Driver/Src/stm32f4xx_hal_hcd.c ****     (void)USB_HC_Halt(hhcd->Instance, (uint8_t)ch_num);
 2197              		.loc 1 1454 5 view .LVU690
 2198 020c EB68     		ldr	r3, [r5, #12]
 2199 020e 43F00203 		orr	r3, r3, #2
 2200 0212 EB60     		str	r3, [r5, #12]
 2201              	.LVL170:
1455:Libraries/STM32F4xx_HAL_Driver/Src/stm32f4xx_hal_hcd.c ****     __HAL_HCD_CLEAR_HC_INT(ch_num, USB_OTG_HCINT_NAK);
ARM GAS  C:\Users\yzy\AppData\Local\Temp\cco1yVr9.s 			page 79


 2202              		.loc 1 1455 5 view .LVU691
1455:Libraries/STM32F4xx_HAL_Driver/Src/stm32f4xx_hal_hcd.c ****     __HAL_HCD_CLEAR_HC_INT(ch_num, USB_OTG_HCINT_NAK);
 2203              		.loc 1 1455 11 is_stmt 0 view .LVU692
 2204 0214 0068     		ldr	r0, [r0]
 2205              	.LVL171:
1455:Libraries/STM32F4xx_HAL_Driver/Src/stm32f4xx_hal_hcd.c ****     __HAL_HCD_CLEAR_HC_INT(ch_num, USB_OTG_HCINT_NAK);
 2206              		.loc 1 1455 11 view .LVU693
 2207 0216 FFF7FEFF 		bl	USB_HC_Halt
 2208              	.LVL172:
1456:Libraries/STM32F4xx_HAL_Driver/Src/stm32f4xx_hal_hcd.c ****     __HAL_HCD_CLEAR_HC_INT(ch_num, USB_OTG_HCINT_DTERR);
 2209              		.loc 1 1456 5 is_stmt 1 view .LVU694
 2210 021a 1023     		movs	r3, #16
 2211 021c AB60     		str	r3, [r5, #8]
1457:Libraries/STM32F4xx_HAL_Driver/Src/stm32f4xx_hal_hcd.c ****     hhcd->hc[ch_num].state = HC_DATATGLERR;
 2212              		.loc 1 1457 5 view .LVU695
 2213 021e 4FF48063 		mov	r3, #1024
 2214 0222 AB60     		str	r3, [r5, #8]
1458:Libraries/STM32F4xx_HAL_Driver/Src/stm32f4xx_hal_hcd.c ****   }
 2215              		.loc 1 1458 5 view .LVU696
1458:Libraries/STM32F4xx_HAL_Driver/Src/stm32f4xx_hal_hcd.c ****   }
 2216              		.loc 1 1458 28 is_stmt 0 view .LVU697
 2217 0224 04EB8404 		add	r4, r4, r4, lsl #2
 2218              	.LVL173:
1458:Libraries/STM32F4xx_HAL_Driver/Src/stm32f4xx_hal_hcd.c ****   }
 2219              		.loc 1 1458 28 view .LVU698
 2220 0228 06EBC406 		add	r6, r6, r4, lsl #3
 2221              	.LVL174:
1458:Libraries/STM32F4xx_HAL_Driver/Src/stm32f4xx_hal_hcd.c ****   }
 2222              		.loc 1 1458 28 view .LVU699
 2223 022c 0823     		movs	r3, #8
 2224 022e 86F85D30 		strb	r3, [r6, #93]
 2225 0232 F5E6     		b	.L117
 2226              	.LVL175:
 2227              	.L144:
1466:Libraries/STM32F4xx_HAL_Driver/Src/stm32f4xx_hal_hcd.c ****       if ((hhcd->hc[ch_num].ep_type == EP_TYPE_BULK) ||
 2228              		.loc 1 1466 7 is_stmt 1 view .LVU700
1466:Libraries/STM32F4xx_HAL_Driver/Src/stm32f4xx_hal_hcd.c ****       if ((hhcd->hc[ch_num].ep_type == EP_TYPE_BULK) ||
 2229              		.loc 1 1466 35 is_stmt 0 view .LVU701
 2230 0234 01EB8103 		add	r3, r1, r1, lsl #2
 2231 0238 00EBC303 		add	r3, r0, r3, lsl #3
 2232 023c 83F85C20 		strb	r2, [r3, #92]
1467:Libraries/STM32F4xx_HAL_Driver/Src/stm32f4xx_hal_hcd.c ****           (hhcd->hc[ch_num].ep_type == EP_TYPE_INTR))
 2233              		.loc 1 1467 7 is_stmt 1 view .LVU702
1467:Libraries/STM32F4xx_HAL_Driver/Src/stm32f4xx_hal_hcd.c ****           (hhcd->hc[ch_num].ep_type == EP_TYPE_INTR))
 2234              		.loc 1 1467 28 is_stmt 0 view .LVU703
 2235 0240 93F83F30 		ldrb	r3, [r3, #63]	@ zero_extendqisi2
1467:Libraries/STM32F4xx_HAL_Driver/Src/stm32f4xx_hal_hcd.c ****           (hhcd->hc[ch_num].ep_type == EP_TYPE_INTR))
 2236              		.loc 1 1467 54 view .LVU704
 2237 0244 023B     		subs	r3, r3, #2
 2238 0246 DBB2     		uxtb	r3, r3
1467:Libraries/STM32F4xx_HAL_Driver/Src/stm32f4xx_hal_hcd.c ****           (hhcd->hc[ch_num].ep_type == EP_TYPE_INTR))
 2239              		.loc 1 1467 10 view .LVU705
 2240 0248 9342     		cmp	r3, r2
 2241 024a 10D8     		bhi	.L130
1470:Libraries/STM32F4xx_HAL_Driver/Src/stm32f4xx_hal_hcd.c ****       }
 2242              		.loc 1 1470 9 is_stmt 1 view .LVU706
1470:Libraries/STM32F4xx_HAL_Driver/Src/stm32f4xx_hal_hcd.c ****       }
ARM GAS  C:\Users\yzy\AppData\Local\Temp\cco1yVr9.s 			page 80


 2243              		.loc 1 1470 37 is_stmt 0 view .LVU707
 2244 024c 2823     		movs	r3, #40
 2245 024e 03FB0103 		mla	r3, r3, r1, r0
 2246 0252 93F85120 		ldrb	r2, [r3, #81]	@ zero_extendqisi2
 2247 0256 82F00102 		eor	r2, r2, #1
 2248 025a 83F85120 		strb	r2, [r3, #81]
 2249 025e 06E0     		b	.L130
 2250              	.L145:
1475:Libraries/STM32F4xx_HAL_Driver/Src/stm32f4xx_hal_hcd.c ****     }
 2251              		.loc 1 1475 7 is_stmt 1 view .LVU708
1475:Libraries/STM32F4xx_HAL_Driver/Src/stm32f4xx_hal_hcd.c ****     }
 2252              		.loc 1 1475 34 is_stmt 0 view .LVU709
 2253 0260 01EB8103 		add	r3, r1, r1, lsl #2
 2254 0264 00EBC303 		add	r3, r0, r3, lsl #3
 2255 0268 0222     		movs	r2, #2
 2256 026a 83F85C20 		strb	r2, [r3, #92]
 2257              	.LVL176:
 2258              	.L130:
1510:Libraries/STM32F4xx_HAL_Driver/Src/stm32f4xx_hal_hcd.c ****     HAL_HCD_HC_NotifyURBChange_Callback(hhcd, (uint8_t)ch_num, hhcd->hc[ch_num].urb_state);
 2259              		.loc 1 1510 5 is_stmt 1 view .LVU710
 2260 026e 0223     		movs	r3, #2
 2261 0270 AB60     		str	r3, [r5, #8]
1511:Libraries/STM32F4xx_HAL_Driver/Src/stm32f4xx_hal_hcd.c ****   }
 2262              		.loc 1 1511 5 view .LVU711
 2263 0272 04EB8403 		add	r3, r4, r4, lsl #2
 2264 0276 06EBC303 		add	r3, r6, r3, lsl #3
 2265 027a 93F85C20 		ldrb	r2, [r3, #92]	@ zero_extendqisi2
 2266 027e 2146     		mov	r1, r4
 2267 0280 3046     		mov	r0, r6
 2268              	.LVL177:
1511:Libraries/STM32F4xx_HAL_Driver/Src/stm32f4xx_hal_hcd.c ****   }
 2269              		.loc 1 1511 5 is_stmt 0 view .LVU712
 2270 0282 FFF7FEFF 		bl	HAL_HCD_HC_NotifyURBChange_Callback
 2271              	.LVL178:
1516:Libraries/STM32F4xx_HAL_Driver/Src/stm32f4xx_hal_hcd.c **** }
 2272              		.loc 1 1516 3 is_stmt 1 view .LVU713
1517:Libraries/STM32F4xx_HAL_Driver/Src/stm32f4xx_hal_hcd.c **** 
 2273              		.loc 1 1517 1 is_stmt 0 view .LVU714
 2274 0286 CBE6     		b	.L117
 2275              	.LVL179:
 2276              	.L146:
1479:Libraries/STM32F4xx_HAL_Driver/Src/stm32f4xx_hal_hcd.c ****     }
 2277              		.loc 1 1479 7 is_stmt 1 view .LVU715
1479:Libraries/STM32F4xx_HAL_Driver/Src/stm32f4xx_hal_hcd.c ****     }
 2278              		.loc 1 1479 35 is_stmt 0 view .LVU716
 2279 0288 2823     		movs	r3, #40
 2280 028a 03FB0103 		mla	r3, r3, r1, r0
 2281 028e 0222     		movs	r2, #2
 2282 0290 83F85C20 		strb	r2, [r3, #92]
 2283 0294 EBE7     		b	.L130
 2284              	.L147:
1483:Libraries/STM32F4xx_HAL_Driver/Src/stm32f4xx_hal_hcd.c ****     }
 2285              		.loc 1 1483 7 is_stmt 1 view .LVU717
1483:Libraries/STM32F4xx_HAL_Driver/Src/stm32f4xx_hal_hcd.c ****     }
 2286              		.loc 1 1483 35 is_stmt 0 view .LVU718
 2287 0296 2823     		movs	r3, #40
 2288 0298 03FB0103 		mla	r3, r3, r1, r0
ARM GAS  C:\Users\yzy\AppData\Local\Temp\cco1yVr9.s 			page 81


 2289 029c 83F85C20 		strb	r2, [r3, #92]
 2290 02a0 E5E7     		b	.L130
 2291              	.LVL180:
 2292              	.L135:
1496:Libraries/STM32F4xx_HAL_Driver/Src/stm32f4xx_hal_hcd.c ****       }
 2293              		.loc 1 1496 9 is_stmt 1 view .LVU719
1496:Libraries/STM32F4xx_HAL_Driver/Src/stm32f4xx_hal_hcd.c ****       }
 2294              		.loc 1 1496 36 is_stmt 0 view .LVU720
 2295 02a2 2822     		movs	r2, #40
 2296 02a4 02FB0462 		mla	r2, r2, r4, r6
 2297 02a8 0221     		movs	r1, #2
 2298 02aa 82F85C10 		strb	r1, [r2, #92]
 2299 02ae 93E7     		b	.L136
 2300              		.cfi_endproc
 2301              	.LFE155:
 2303              		.section	.text.HAL_HCD_IRQHandler,"ax",%progbits
 2304              		.align	1
 2305              		.global	HAL_HCD_IRQHandler
 2306              		.syntax unified
 2307              		.thumb
 2308              		.thumb_func
 2309              		.fpu softvfp
 2311              	HAL_HCD_IRQHandler:
 2312              	.LVL181:
 2313              	.LFB137:
 495:Libraries/STM32F4xx_HAL_Driver/Src/stm32f4xx_hal_hcd.c ****   USB_OTG_GlobalTypeDef *USBx = hhcd->Instance;
 2314              		.loc 1 495 1 is_stmt 1 view -0
 2315              		.cfi_startproc
 2316              		@ args = 0, pretend = 0, frame = 0
 2317              		@ frame_needed = 0, uses_anonymous_args = 0
 495:Libraries/STM32F4xx_HAL_Driver/Src/stm32f4xx_hal_hcd.c ****   USB_OTG_GlobalTypeDef *USBx = hhcd->Instance;
 2318              		.loc 1 495 1 is_stmt 0 view .LVU722
 2319 0000 F8B5     		push	{r3, r4, r5, r6, r7, lr}
 2320              	.LCFI21:
 2321              		.cfi_def_cfa_offset 24
 2322              		.cfi_offset 3, -24
 2323              		.cfi_offset 4, -20
 2324              		.cfi_offset 5, -16
 2325              		.cfi_offset 6, -12
 2326              		.cfi_offset 7, -8
 2327              		.cfi_offset 14, -4
 2328 0002 0446     		mov	r4, r0
 496:Libraries/STM32F4xx_HAL_Driver/Src/stm32f4xx_hal_hcd.c ****   uint32_t USBx_BASE = (uint32_t)USBx;
 2329              		.loc 1 496 3 is_stmt 1 view .LVU723
 496:Libraries/STM32F4xx_HAL_Driver/Src/stm32f4xx_hal_hcd.c ****   uint32_t USBx_BASE = (uint32_t)USBx;
 2330              		.loc 1 496 26 is_stmt 0 view .LVU724
 2331 0004 0568     		ldr	r5, [r0]
 497:Libraries/STM32F4xx_HAL_Driver/Src/stm32f4xx_hal_hcd.c ****   uint32_t i, interrupt;
 2332              		.loc 1 497 3 is_stmt 1 view .LVU725
 2333              	.LVL182:
 498:Libraries/STM32F4xx_HAL_Driver/Src/stm32f4xx_hal_hcd.c **** 
 2334              		.loc 1 498 3 view .LVU726
 501:Libraries/STM32F4xx_HAL_Driver/Src/stm32f4xx_hal_hcd.c ****   {
 2335              		.loc 1 501 3 view .LVU727
 501:Libraries/STM32F4xx_HAL_Driver/Src/stm32f4xx_hal_hcd.c ****   {
 2336              		.loc 1 501 7 is_stmt 0 view .LVU728
 2337 0006 2846     		mov	r0, r5
ARM GAS  C:\Users\yzy\AppData\Local\Temp\cco1yVr9.s 			page 82


 2338              	.LVL183:
 501:Libraries/STM32F4xx_HAL_Driver/Src/stm32f4xx_hal_hcd.c ****   {
 2339              		.loc 1 501 7 view .LVU729
 2340 0008 FFF7FEFF 		bl	USB_GetMode
 2341              	.LVL184:
 501:Libraries/STM32F4xx_HAL_Driver/Src/stm32f4xx_hal_hcd.c ****   {
 2342              		.loc 1 501 6 view .LVU730
 2343 000c 0128     		cmp	r0, #1
 2344 000e 00D0     		beq	.L163
 2345              	.L148:
 600:Libraries/STM32F4xx_HAL_Driver/Src/stm32f4xx_hal_hcd.c **** 
 2346              		.loc 1 600 1 view .LVU731
 2347 0010 F8BD     		pop	{r3, r4, r5, r6, r7, pc}
 2348              	.LVL185:
 2349              	.L163:
 504:Libraries/STM32F4xx_HAL_Driver/Src/stm32f4xx_hal_hcd.c ****     {
 2350              		.loc 1 504 5 is_stmt 1 view .LVU732
 504:Libraries/STM32F4xx_HAL_Driver/Src/stm32f4xx_hal_hcd.c ****     {
 2351              		.loc 1 504 9 is_stmt 0 view .LVU733
 2352 0012 2068     		ldr	r0, [r4]
 2353 0014 FFF7FEFF 		bl	USB_ReadInterrupts
 2354              	.LVL186:
 504:Libraries/STM32F4xx_HAL_Driver/Src/stm32f4xx_hal_hcd.c ****     {
 2355              		.loc 1 504 8 view .LVU734
 2356 0018 0028     		cmp	r0, #0
 2357 001a F9D0     		beq	.L148
 509:Libraries/STM32F4xx_HAL_Driver/Src/stm32f4xx_hal_hcd.c ****     {
 2358              		.loc 1 509 5 is_stmt 1 view .LVU735
 509:Libraries/STM32F4xx_HAL_Driver/Src/stm32f4xx_hal_hcd.c ****     {
 2359              		.loc 1 509 9 is_stmt 0 view .LVU736
 2360 001c 2068     		ldr	r0, [r4]
 2361 001e FFF7FEFF 		bl	USB_ReadInterrupts
 2362              	.LVL187:
 509:Libraries/STM32F4xx_HAL_Driver/Src/stm32f4xx_hal_hcd.c ****     {
 2363              		.loc 1 509 8 view .LVU737
 2364 0022 10F4001F 		tst	r0, #2097152
 2365 0026 03D0     		beq	.L150
 512:Libraries/STM32F4xx_HAL_Driver/Src/stm32f4xx_hal_hcd.c ****     }
 2366              		.loc 1 512 7 is_stmt 1 view .LVU738
 2367 0028 2368     		ldr	r3, [r4]
 2368 002a 4FF40012 		mov	r2, #2097152
 2369 002e 5A61     		str	r2, [r3, #20]
 2370              	.L150:
 515:Libraries/STM32F4xx_HAL_Driver/Src/stm32f4xx_hal_hcd.c ****     {
 2371              		.loc 1 515 5 view .LVU739
 515:Libraries/STM32F4xx_HAL_Driver/Src/stm32f4xx_hal_hcd.c ****     {
 2372              		.loc 1 515 9 is_stmt 0 view .LVU740
 2373 0030 2068     		ldr	r0, [r4]
 2374 0032 FFF7FEFF 		bl	USB_ReadInterrupts
 2375              	.LVL188:
 515:Libraries/STM32F4xx_HAL_Driver/Src/stm32f4xx_hal_hcd.c ****     {
 2376              		.loc 1 515 8 view .LVU741
 2377 0036 10F4801F 		tst	r0, #1048576
 2378 003a 03D0     		beq	.L151
 518:Libraries/STM32F4xx_HAL_Driver/Src/stm32f4xx_hal_hcd.c ****     }
 2379              		.loc 1 518 7 is_stmt 1 view .LVU742
 2380 003c 2368     		ldr	r3, [r4]
ARM GAS  C:\Users\yzy\AppData\Local\Temp\cco1yVr9.s 			page 83


 2381 003e 4FF48012 		mov	r2, #1048576
 2382 0042 5A61     		str	r2, [r3, #20]
 2383              	.L151:
 521:Libraries/STM32F4xx_HAL_Driver/Src/stm32f4xx_hal_hcd.c ****     {
 2384              		.loc 1 521 5 view .LVU743
 521:Libraries/STM32F4xx_HAL_Driver/Src/stm32f4xx_hal_hcd.c ****     {
 2385              		.loc 1 521 9 is_stmt 0 view .LVU744
 2386 0044 2068     		ldr	r0, [r4]
 2387 0046 FFF7FEFF 		bl	USB_ReadInterrupts
 2388              	.LVL189:
 521:Libraries/STM32F4xx_HAL_Driver/Src/stm32f4xx_hal_hcd.c ****     {
 2389              		.loc 1 521 8 view .LVU745
 2390 004a 10F0806F 		tst	r0, #67108864
 2391 004e 03D0     		beq	.L152
 524:Libraries/STM32F4xx_HAL_Driver/Src/stm32f4xx_hal_hcd.c ****     }
 2392              		.loc 1 524 7 is_stmt 1 view .LVU746
 2393 0050 2368     		ldr	r3, [r4]
 2394 0052 4FF08062 		mov	r2, #67108864
 2395 0056 5A61     		str	r2, [r3, #20]
 2396              	.L152:
 527:Libraries/STM32F4xx_HAL_Driver/Src/stm32f4xx_hal_hcd.c ****     {
 2397              		.loc 1 527 5 view .LVU747
 527:Libraries/STM32F4xx_HAL_Driver/Src/stm32f4xx_hal_hcd.c ****     {
 2398              		.loc 1 527 9 is_stmt 0 view .LVU748
 2399 0058 2068     		ldr	r0, [r4]
 2400 005a FFF7FEFF 		bl	USB_ReadInterrupts
 2401              	.LVL190:
 527:Libraries/STM32F4xx_HAL_Driver/Src/stm32f4xx_hal_hcd.c ****     {
 2402              		.loc 1 527 8 view .LVU749
 2403 005e 10F0020F 		tst	r0, #2
 2404 0062 02D0     		beq	.L153
 530:Libraries/STM32F4xx_HAL_Driver/Src/stm32f4xx_hal_hcd.c ****     }
 2405              		.loc 1 530 7 is_stmt 1 view .LVU750
 2406 0064 2368     		ldr	r3, [r4]
 2407 0066 0222     		movs	r2, #2
 2408 0068 5A61     		str	r2, [r3, #20]
 2409              	.L153:
 534:Libraries/STM32F4xx_HAL_Driver/Src/stm32f4xx_hal_hcd.c ****     {
 2410              		.loc 1 534 5 view .LVU751
 534:Libraries/STM32F4xx_HAL_Driver/Src/stm32f4xx_hal_hcd.c ****     {
 2411              		.loc 1 534 9 is_stmt 0 view .LVU752
 2412 006a 2068     		ldr	r0, [r4]
 2413 006c FFF7FEFF 		bl	USB_ReadInterrupts
 2414              	.LVL191:
 534:Libraries/STM32F4xx_HAL_Driver/Src/stm32f4xx_hal_hcd.c ****     {
 2415              		.loc 1 534 8 view .LVU753
 2416 0070 10F0005F 		tst	r0, #536870912
 2417 0074 08D0     		beq	.L154
 536:Libraries/STM32F4xx_HAL_Driver/Src/stm32f4xx_hal_hcd.c **** 
 2418              		.loc 1 536 7 is_stmt 1 view .LVU754
 2419 0076 2368     		ldr	r3, [r4]
 2420 0078 4FF00052 		mov	r2, #536870912
 2421 007c 5A61     		str	r2, [r3, #20]
 538:Libraries/STM32F4xx_HAL_Driver/Src/stm32f4xx_hal_hcd.c ****       {
 2422              		.loc 1 538 7 view .LVU755
 538:Libraries/STM32F4xx_HAL_Driver/Src/stm32f4xx_hal_hcd.c ****       {
 2423              		.loc 1 538 12 is_stmt 0 view .LVU756
ARM GAS  C:\Users\yzy\AppData\Local\Temp\cco1yVr9.s 			page 84


 2424 007e D5F84034 		ldr	r3, [r5, #1088]
 538:Libraries/STM32F4xx_HAL_Driver/Src/stm32f4xx_hal_hcd.c ****       {
 2425              		.loc 1 538 10 view .LVU757
 2426 0082 13F0010F 		tst	r3, #1
 2427 0086 25D0     		beq	.L164
 2428              	.L154:
 552:Libraries/STM32F4xx_HAL_Driver/Src/stm32f4xx_hal_hcd.c ****     {
 2429              		.loc 1 552 5 is_stmt 1 view .LVU758
 552:Libraries/STM32F4xx_HAL_Driver/Src/stm32f4xx_hal_hcd.c ****     {
 2430              		.loc 1 552 9 is_stmt 0 view .LVU759
 2431 0088 2068     		ldr	r0, [r4]
 2432 008a FFF7FEFF 		bl	USB_ReadInterrupts
 2433              	.LVL192:
 552:Libraries/STM32F4xx_HAL_Driver/Src/stm32f4xx_hal_hcd.c ****     {
 2434              		.loc 1 552 8 view .LVU760
 2435 008e 10F0807F 		tst	r0, #16777216
 2436 0092 27D1     		bne	.L165
 2437              	.L155:
 558:Libraries/STM32F4xx_HAL_Driver/Src/stm32f4xx_hal_hcd.c ****     {
 2438              		.loc 1 558 5 is_stmt 1 view .LVU761
 558:Libraries/STM32F4xx_HAL_Driver/Src/stm32f4xx_hal_hcd.c ****     {
 2439              		.loc 1 558 9 is_stmt 0 view .LVU762
 2440 0094 2068     		ldr	r0, [r4]
 2441 0096 FFF7FEFF 		bl	USB_ReadInterrupts
 2442              	.LVL193:
 558:Libraries/STM32F4xx_HAL_Driver/Src/stm32f4xx_hal_hcd.c ****     {
 2443              		.loc 1 558 8 view .LVU763
 2444 009a 10F0080F 		tst	r0, #8
 2445 009e 25D1     		bne	.L166
 2446              	.L156:
 570:Libraries/STM32F4xx_HAL_Driver/Src/stm32f4xx_hal_hcd.c ****     {
 2447              		.loc 1 570 5 is_stmt 1 view .LVU764
 570:Libraries/STM32F4xx_HAL_Driver/Src/stm32f4xx_hal_hcd.c ****     {
 2448              		.loc 1 570 9 is_stmt 0 view .LVU765
 2449 00a0 2068     		ldr	r0, [r4]
 2450 00a2 FFF7FEFF 		bl	USB_ReadInterrupts
 2451              	.LVL194:
 570:Libraries/STM32F4xx_HAL_Driver/Src/stm32f4xx_hal_hcd.c ****     {
 2452              		.loc 1 570 8 view .LVU766
 2453 00a6 10F0007F 		tst	r0, #33554432
 2454 00aa 26D1     		bne	.L167
 2455              	.L157:
 591:Libraries/STM32F4xx_HAL_Driver/Src/stm32f4xx_hal_hcd.c ****     {
 2456              		.loc 1 591 5 is_stmt 1 view .LVU767
 591:Libraries/STM32F4xx_HAL_Driver/Src/stm32f4xx_hal_hcd.c ****     {
 2457              		.loc 1 591 10 is_stmt 0 view .LVU768
 2458 00ac 2068     		ldr	r0, [r4]
 2459 00ae FFF7FEFF 		bl	USB_ReadInterrupts
 2460              	.LVL195:
 591:Libraries/STM32F4xx_HAL_Driver/Src/stm32f4xx_hal_hcd.c ****     {
 2461              		.loc 1 591 60 view .LVU769
 2462 00b2 10F0100F 		tst	r0, #16
 2463 00b6 ABD0     		beq	.L148
 593:Libraries/STM32F4xx_HAL_Driver/Src/stm32f4xx_hal_hcd.c **** 
 2464              		.loc 1 593 7 is_stmt 1 view .LVU770
 2465 00b8 2268     		ldr	r2, [r4]
 2466 00ba 9369     		ldr	r3, [r2, #24]
ARM GAS  C:\Users\yzy\AppData\Local\Temp\cco1yVr9.s 			page 85


 2467 00bc 23F01003 		bic	r3, r3, #16
 2468 00c0 9361     		str	r3, [r2, #24]
 595:Libraries/STM32F4xx_HAL_Driver/Src/stm32f4xx_hal_hcd.c **** 
 2469              		.loc 1 595 7 view .LVU771
 2470 00c2 2046     		mov	r0, r4
 2471 00c4 FFF7FEFF 		bl	HCD_RXQLVL_IRQHandler
 2472              	.LVL196:
 597:Libraries/STM32F4xx_HAL_Driver/Src/stm32f4xx_hal_hcd.c ****     }
 2473              		.loc 1 597 7 view .LVU772
 2474 00c8 2268     		ldr	r2, [r4]
 2475 00ca 9369     		ldr	r3, [r2, #24]
 2476 00cc 43F01003 		orr	r3, r3, #16
 2477 00d0 9361     		str	r3, [r2, #24]
 2478 00d2 9DE7     		b	.L148
 2479              	.L164:
 544:Libraries/STM32F4xx_HAL_Driver/Src/stm32f4xx_hal_hcd.c **** #endif /* USE_HAL_HCD_REGISTER_CALLBACKS */
 2480              		.loc 1 544 9 view .LVU773
 2481 00d4 2046     		mov	r0, r4
 2482 00d6 FFF7FEFF 		bl	HAL_HCD_Disconnect_Callback
 2483              	.LVL197:
 547:Libraries/STM32F4xx_HAL_Driver/Src/stm32f4xx_hal_hcd.c ****       }
 2484              		.loc 1 547 9 view .LVU774
 547:Libraries/STM32F4xx_HAL_Driver/Src/stm32f4xx_hal_hcd.c ****       }
 2485              		.loc 1 547 15 is_stmt 0 view .LVU775
 2486 00da 0121     		movs	r1, #1
 2487 00dc 2068     		ldr	r0, [r4]
 2488 00de FFF7FEFF 		bl	USB_InitFSLSPClkSel
 2489              	.LVL198:
 2490 00e2 D1E7     		b	.L154
 2491              	.L165:
 554:Libraries/STM32F4xx_HAL_Driver/Src/stm32f4xx_hal_hcd.c ****     }
 2492              		.loc 1 554 7 is_stmt 1 view .LVU776
 2493 00e4 2046     		mov	r0, r4
 2494 00e6 FFF7FEFF 		bl	HCD_Port_IRQHandler
 2495              	.LVL199:
 2496 00ea D3E7     		b	.L155
 2497              	.L166:
 563:Libraries/STM32F4xx_HAL_Driver/Src/stm32f4xx_hal_hcd.c **** #endif /* USE_HAL_HCD_REGISTER_CALLBACKS */
 2498              		.loc 1 563 7 view .LVU777
 2499 00ec 2046     		mov	r0, r4
 2500 00ee FFF7FEFF 		bl	HAL_HCD_SOF_Callback
 2501              	.LVL200:
 566:Libraries/STM32F4xx_HAL_Driver/Src/stm32f4xx_hal_hcd.c ****     }
 2502              		.loc 1 566 7 view .LVU778
 2503 00f2 2368     		ldr	r3, [r4]
 2504 00f4 0822     		movs	r2, #8
 2505 00f6 5A61     		str	r2, [r3, #20]
 2506 00f8 D2E7     		b	.L156
 2507              	.L167:
 572:Libraries/STM32F4xx_HAL_Driver/Src/stm32f4xx_hal_hcd.c ****       for (i = 0U; i < hhcd->Init.Host_channels; i++)
 2508              		.loc 1 572 7 view .LVU779
 572:Libraries/STM32F4xx_HAL_Driver/Src/stm32f4xx_hal_hcd.c ****       for (i = 0U; i < hhcd->Init.Host_channels; i++)
 2509              		.loc 1 572 19 is_stmt 0 view .LVU780
 2510 00fa 2068     		ldr	r0, [r4]
 2511 00fc FFF7FEFF 		bl	USB_HC_ReadInterrupt
 2512              	.LVL201:
 2513 0100 0746     		mov	r7, r0
ARM GAS  C:\Users\yzy\AppData\Local\Temp\cco1yVr9.s 			page 86


 2514              	.LVL202:
 573:Libraries/STM32F4xx_HAL_Driver/Src/stm32f4xx_hal_hcd.c ****       {
 2515              		.loc 1 573 7 is_stmt 1 view .LVU781
 573:Libraries/STM32F4xx_HAL_Driver/Src/stm32f4xx_hal_hcd.c ****       {
 2516              		.loc 1 573 14 is_stmt 0 view .LVU782
 2517 0102 0026     		movs	r6, #0
 573:Libraries/STM32F4xx_HAL_Driver/Src/stm32f4xx_hal_hcd.c ****       {
 2518              		.loc 1 573 7 view .LVU783
 2519 0104 04E0     		b	.L158
 2520              	.LVL203:
 2521              	.L160:
 583:Libraries/STM32F4xx_HAL_Driver/Src/stm32f4xx_hal_hcd.c ****           }
 2522              		.loc 1 583 13 is_stmt 1 view .LVU784
 2523 0106 F1B2     		uxtb	r1, r6
 2524 0108 2046     		mov	r0, r4
 2525 010a FFF7FEFF 		bl	HCD_HC_OUT_IRQHandler
 2526              	.LVL204:
 2527              	.L159:
 573:Libraries/STM32F4xx_HAL_Driver/Src/stm32f4xx_hal_hcd.c ****       {
 2528              		.loc 1 573 50 discriminator 2 view .LVU785
 573:Libraries/STM32F4xx_HAL_Driver/Src/stm32f4xx_hal_hcd.c ****       {
 2529              		.loc 1 573 51 is_stmt 0 discriminator 2 view .LVU786
 2530 010e 0136     		adds	r6, r6, #1
 2531              	.LVL205:
 2532              	.L158:
 573:Libraries/STM32F4xx_HAL_Driver/Src/stm32f4xx_hal_hcd.c ****       {
 2533              		.loc 1 573 20 is_stmt 1 discriminator 1 view .LVU787
 573:Libraries/STM32F4xx_HAL_Driver/Src/stm32f4xx_hal_hcd.c ****       {
 2534              		.loc 1 573 34 is_stmt 0 discriminator 1 view .LVU788
 2535 0110 A368     		ldr	r3, [r4, #8]
 573:Libraries/STM32F4xx_HAL_Driver/Src/stm32f4xx_hal_hcd.c ****       {
 2536              		.loc 1 573 7 discriminator 1 view .LVU789
 2537 0112 B342     		cmp	r3, r6
 2538 0114 12D9     		bls	.L168
 575:Libraries/STM32F4xx_HAL_Driver/Src/stm32f4xx_hal_hcd.c ****         {
 2539              		.loc 1 575 9 is_stmt 1 view .LVU790
 575:Libraries/STM32F4xx_HAL_Driver/Src/stm32f4xx_hal_hcd.c ****         {
 2540              		.loc 1 575 37 is_stmt 0 view .LVU791
 2541 0116 06F00F03 		and	r3, r6, #15
 575:Libraries/STM32F4xx_HAL_Driver/Src/stm32f4xx_hal_hcd.c ****         {
 2542              		.loc 1 575 47 view .LVU792
 2543 011a 27FA03F3 		lsr	r3, r7, r3
 575:Libraries/STM32F4xx_HAL_Driver/Src/stm32f4xx_hal_hcd.c ****         {
 2544              		.loc 1 575 12 view .LVU793
 2545 011e 13F0010F 		tst	r3, #1
 2546 0122 F4D0     		beq	.L159
 577:Libraries/STM32F4xx_HAL_Driver/Src/stm32f4xx_hal_hcd.c ****           {
 2547              		.loc 1 577 11 is_stmt 1 view .LVU794
 577:Libraries/STM32F4xx_HAL_Driver/Src/stm32f4xx_hal_hcd.c ****           {
 2548              		.loc 1 577 16 is_stmt 0 view .LVU795
 2549 0124 05EB4613 		add	r3, r5, r6, lsl #5
 577:Libraries/STM32F4xx_HAL_Driver/Src/stm32f4xx_hal_hcd.c ****           {
 2550              		.loc 1 577 26 view .LVU796
 2551 0128 D3F80035 		ldr	r3, [r3, #1280]
 577:Libraries/STM32F4xx_HAL_Driver/Src/stm32f4xx_hal_hcd.c ****           {
 2552              		.loc 1 577 14 view .LVU797
 2553 012c 13F4004F 		tst	r3, #32768
ARM GAS  C:\Users\yzy\AppData\Local\Temp\cco1yVr9.s 			page 87


 2554 0130 E9D0     		beq	.L160
 579:Libraries/STM32F4xx_HAL_Driver/Src/stm32f4xx_hal_hcd.c ****           }
 2555              		.loc 1 579 13 is_stmt 1 view .LVU798
 2556 0132 F1B2     		uxtb	r1, r6
 2557 0134 2046     		mov	r0, r4
 2558 0136 FFF7FEFF 		bl	HCD_HC_IN_IRQHandler
 2559              	.LVL206:
 2560 013a E8E7     		b	.L159
 2561              	.L168:
 587:Libraries/STM32F4xx_HAL_Driver/Src/stm32f4xx_hal_hcd.c ****     }
 2562              		.loc 1 587 7 view .LVU799
 2563 013c 2368     		ldr	r3, [r4]
 2564 013e 4FF00072 		mov	r2, #33554432
 2565 0142 5A61     		str	r2, [r3, #20]
 2566 0144 B2E7     		b	.L157
 2567              		.cfi_endproc
 2568              	.LFE137:
 2570              		.section	.text.HAL_HCD_Start,"ax",%progbits
 2571              		.align	1
 2572              		.global	HAL_HCD_Start
 2573              		.syntax unified
 2574              		.thumb
 2575              		.thumb_func
 2576              		.fpu softvfp
 2578              	HAL_HCD_Start:
 2579              	.LVL207:
 2580              	.LFB145:
1020:Libraries/STM32F4xx_HAL_Driver/Src/stm32f4xx_hal_hcd.c ****   __HAL_LOCK(hhcd);
 2581              		.loc 1 1020 1 view -0
 2582              		.cfi_startproc
 2583              		@ args = 0, pretend = 0, frame = 0
 2584              		@ frame_needed = 0, uses_anonymous_args = 0
1020:Libraries/STM32F4xx_HAL_Driver/Src/stm32f4xx_hal_hcd.c ****   __HAL_LOCK(hhcd);
 2585              		.loc 1 1020 1 is_stmt 0 view .LVU801
 2586 0000 38B5     		push	{r3, r4, r5, lr}
 2587              	.LCFI22:
 2588              		.cfi_def_cfa_offset 16
 2589              		.cfi_offset 3, -16
 2590              		.cfi_offset 4, -12
 2591              		.cfi_offset 5, -8
 2592              		.cfi_offset 14, -4
1021:Libraries/STM32F4xx_HAL_Driver/Src/stm32f4xx_hal_hcd.c ****   __HAL_HCD_ENABLE(hhcd);
 2593              		.loc 1 1021 3 is_stmt 1 view .LVU802
1021:Libraries/STM32F4xx_HAL_Driver/Src/stm32f4xx_hal_hcd.c ****   __HAL_HCD_ENABLE(hhcd);
 2594              		.loc 1 1021 3 view .LVU803
 2595 0002 90F8B832 		ldrb	r3, [r0, #696]	@ zero_extendqisi2
 2596 0006 012B     		cmp	r3, #1
 2597 0008 0ED0     		beq	.L171
 2598 000a 0446     		mov	r4, r0
1021:Libraries/STM32F4xx_HAL_Driver/Src/stm32f4xx_hal_hcd.c ****   __HAL_HCD_ENABLE(hhcd);
 2599              		.loc 1 1021 3 discriminator 2 view .LVU804
 2600 000c 0125     		movs	r5, #1
 2601 000e 80F8B852 		strb	r5, [r0, #696]
1021:Libraries/STM32F4xx_HAL_Driver/Src/stm32f4xx_hal_hcd.c ****   __HAL_HCD_ENABLE(hhcd);
 2602              		.loc 1 1021 3 discriminator 2 view .LVU805
1022:Libraries/STM32F4xx_HAL_Driver/Src/stm32f4xx_hal_hcd.c ****   (void)USB_DriveVbus(hhcd->Instance, 1U);
 2603              		.loc 1 1022 3 discriminator 2 view .LVU806
ARM GAS  C:\Users\yzy\AppData\Local\Temp\cco1yVr9.s 			page 88


 2604 0012 0068     		ldr	r0, [r0]
 2605              	.LVL208:
1022:Libraries/STM32F4xx_HAL_Driver/Src/stm32f4xx_hal_hcd.c ****   (void)USB_DriveVbus(hhcd->Instance, 1U);
 2606              		.loc 1 1022 3 is_stmt 0 discriminator 2 view .LVU807
 2607 0014 FFF7FEFF 		bl	USB_EnableGlobalInt
 2608              	.LVL209:
1023:Libraries/STM32F4xx_HAL_Driver/Src/stm32f4xx_hal_hcd.c ****   __HAL_UNLOCK(hhcd);
 2609              		.loc 1 1023 3 is_stmt 1 discriminator 2 view .LVU808
1023:Libraries/STM32F4xx_HAL_Driver/Src/stm32f4xx_hal_hcd.c ****   __HAL_UNLOCK(hhcd);
 2610              		.loc 1 1023 9 is_stmt 0 discriminator 2 view .LVU809
 2611 0018 2946     		mov	r1, r5
 2612 001a 2068     		ldr	r0, [r4]
 2613 001c FFF7FEFF 		bl	USB_DriveVbus
 2614              	.LVL210:
1024:Libraries/STM32F4xx_HAL_Driver/Src/stm32f4xx_hal_hcd.c **** 
 2615              		.loc 1 1024 3 is_stmt 1 discriminator 2 view .LVU810
1024:Libraries/STM32F4xx_HAL_Driver/Src/stm32f4xx_hal_hcd.c **** 
 2616              		.loc 1 1024 3 discriminator 2 view .LVU811
 2617 0020 0020     		movs	r0, #0
 2618 0022 84F8B802 		strb	r0, [r4, #696]
1024:Libraries/STM32F4xx_HAL_Driver/Src/stm32f4xx_hal_hcd.c **** 
 2619              		.loc 1 1024 3 discriminator 2 view .LVU812
1026:Libraries/STM32F4xx_HAL_Driver/Src/stm32f4xx_hal_hcd.c **** }
 2620              		.loc 1 1026 3 discriminator 2 view .LVU813
 2621              	.LVL211:
 2622              	.L170:
1027:Libraries/STM32F4xx_HAL_Driver/Src/stm32f4xx_hal_hcd.c **** 
 2623              		.loc 1 1027 1 is_stmt 0 view .LVU814
 2624 0026 38BD     		pop	{r3, r4, r5, pc}
 2625              	.LVL212:
 2626              	.L171:
1021:Libraries/STM32F4xx_HAL_Driver/Src/stm32f4xx_hal_hcd.c ****   __HAL_HCD_ENABLE(hhcd);
 2627              		.loc 1 1021 3 view .LVU815
 2628 0028 0220     		movs	r0, #2
 2629              	.LVL213:
1021:Libraries/STM32F4xx_HAL_Driver/Src/stm32f4xx_hal_hcd.c ****   __HAL_HCD_ENABLE(hhcd);
 2630              		.loc 1 1021 3 view .LVU816
 2631 002a FCE7     		b	.L170
 2632              		.cfi_endproc
 2633              	.LFE145:
 2635              		.section	.text.HAL_HCD_Stop,"ax",%progbits
 2636              		.align	1
 2637              		.global	HAL_HCD_Stop
 2638              		.syntax unified
 2639              		.thumb
 2640              		.thumb_func
 2641              		.fpu softvfp
 2643              	HAL_HCD_Stop:
 2644              	.LVL214:
 2645              	.LFB146:
1036:Libraries/STM32F4xx_HAL_Driver/Src/stm32f4xx_hal_hcd.c ****   __HAL_LOCK(hhcd);
 2646              		.loc 1 1036 1 is_stmt 1 view -0
 2647              		.cfi_startproc
 2648              		@ args = 0, pretend = 0, frame = 0
 2649              		@ frame_needed = 0, uses_anonymous_args = 0
1037:Libraries/STM32F4xx_HAL_Driver/Src/stm32f4xx_hal_hcd.c ****   (void)USB_StopHost(hhcd->Instance);
 2650              		.loc 1 1037 3 view .LVU818
ARM GAS  C:\Users\yzy\AppData\Local\Temp\cco1yVr9.s 			page 89


1037:Libraries/STM32F4xx_HAL_Driver/Src/stm32f4xx_hal_hcd.c ****   (void)USB_StopHost(hhcd->Instance);
 2651              		.loc 1 1037 3 view .LVU819
 2652 0000 90F8B832 		ldrb	r3, [r0, #696]	@ zero_extendqisi2
 2653 0004 012B     		cmp	r3, #1
 2654 0006 0BD0     		beq	.L175
1036:Libraries/STM32F4xx_HAL_Driver/Src/stm32f4xx_hal_hcd.c ****   __HAL_LOCK(hhcd);
 2655              		.loc 1 1036 1 is_stmt 0 discriminator 2 view .LVU820
 2656 0008 10B5     		push	{r4, lr}
 2657              	.LCFI23:
 2658              		.cfi_def_cfa_offset 8
 2659              		.cfi_offset 4, -8
 2660              		.cfi_offset 14, -4
 2661 000a 0446     		mov	r4, r0
1037:Libraries/STM32F4xx_HAL_Driver/Src/stm32f4xx_hal_hcd.c ****   (void)USB_StopHost(hhcd->Instance);
 2662              		.loc 1 1037 3 is_stmt 1 discriminator 2 view .LVU821
 2663 000c 0123     		movs	r3, #1
 2664 000e 80F8B832 		strb	r3, [r0, #696]
1037:Libraries/STM32F4xx_HAL_Driver/Src/stm32f4xx_hal_hcd.c ****   (void)USB_StopHost(hhcd->Instance);
 2665              		.loc 1 1037 3 discriminator 2 view .LVU822
1038:Libraries/STM32F4xx_HAL_Driver/Src/stm32f4xx_hal_hcd.c ****   __HAL_UNLOCK(hhcd);
 2666              		.loc 1 1038 3 discriminator 2 view .LVU823
1038:Libraries/STM32F4xx_HAL_Driver/Src/stm32f4xx_hal_hcd.c ****   __HAL_UNLOCK(hhcd);
 2667              		.loc 1 1038 9 is_stmt 0 discriminator 2 view .LVU824
 2668 0012 0068     		ldr	r0, [r0]
 2669              	.LVL215:
1038:Libraries/STM32F4xx_HAL_Driver/Src/stm32f4xx_hal_hcd.c ****   __HAL_UNLOCK(hhcd);
 2670              		.loc 1 1038 9 discriminator 2 view .LVU825
 2671 0014 FFF7FEFF 		bl	USB_StopHost
 2672              	.LVL216:
1039:Libraries/STM32F4xx_HAL_Driver/Src/stm32f4xx_hal_hcd.c **** 
 2673              		.loc 1 1039 3 is_stmt 1 discriminator 2 view .LVU826
1039:Libraries/STM32F4xx_HAL_Driver/Src/stm32f4xx_hal_hcd.c **** 
 2674              		.loc 1 1039 3 discriminator 2 view .LVU827
 2675 0018 0020     		movs	r0, #0
 2676 001a 84F8B802 		strb	r0, [r4, #696]
1039:Libraries/STM32F4xx_HAL_Driver/Src/stm32f4xx_hal_hcd.c **** 
 2677              		.loc 1 1039 3 discriminator 2 view .LVU828
1041:Libraries/STM32F4xx_HAL_Driver/Src/stm32f4xx_hal_hcd.c **** }
 2678              		.loc 1 1041 3 discriminator 2 view .LVU829
1042:Libraries/STM32F4xx_HAL_Driver/Src/stm32f4xx_hal_hcd.c **** 
 2679              		.loc 1 1042 1 is_stmt 0 discriminator 2 view .LVU830
 2680 001e 10BD     		pop	{r4, pc}
 2681              	.LVL217:
 2682              	.L175:
 2683              	.LCFI24:
 2684              		.cfi_def_cfa_offset 0
 2685              		.cfi_restore 4
 2686              		.cfi_restore 14
1037:Libraries/STM32F4xx_HAL_Driver/Src/stm32f4xx_hal_hcd.c ****   (void)USB_StopHost(hhcd->Instance);
 2687              		.loc 1 1037 3 view .LVU831
 2688 0020 0220     		movs	r0, #2
 2689              	.LVL218:
1042:Libraries/STM32F4xx_HAL_Driver/Src/stm32f4xx_hal_hcd.c **** 
 2690              		.loc 1 1042 1 view .LVU832
 2691 0022 7047     		bx	lr
 2692              		.cfi_endproc
 2693              	.LFE146:
ARM GAS  C:\Users\yzy\AppData\Local\Temp\cco1yVr9.s 			page 90


 2695              		.section	.text.HAL_HCD_ResetPort,"ax",%progbits
 2696              		.align	1
 2697              		.global	HAL_HCD_ResetPort
 2698              		.syntax unified
 2699              		.thumb
 2700              		.thumb_func
 2701              		.fpu softvfp
 2703              	HAL_HCD_ResetPort:
 2704              	.LVL219:
 2705              	.LFB147:
1050:Libraries/STM32F4xx_HAL_Driver/Src/stm32f4xx_hal_hcd.c ****   return (USB_ResetPort(hhcd->Instance));
 2706              		.loc 1 1050 1 is_stmt 1 view -0
 2707              		.cfi_startproc
 2708              		@ args = 0, pretend = 0, frame = 0
 2709              		@ frame_needed = 0, uses_anonymous_args = 0
1050:Libraries/STM32F4xx_HAL_Driver/Src/stm32f4xx_hal_hcd.c ****   return (USB_ResetPort(hhcd->Instance));
 2710              		.loc 1 1050 1 is_stmt 0 view .LVU834
 2711 0000 08B5     		push	{r3, lr}
 2712              	.LCFI25:
 2713              		.cfi_def_cfa_offset 8
 2714              		.cfi_offset 3, -8
 2715              		.cfi_offset 14, -4
1051:Libraries/STM32F4xx_HAL_Driver/Src/stm32f4xx_hal_hcd.c **** }
 2716              		.loc 1 1051 3 is_stmt 1 view .LVU835
1051:Libraries/STM32F4xx_HAL_Driver/Src/stm32f4xx_hal_hcd.c **** }
 2717              		.loc 1 1051 11 is_stmt 0 view .LVU836
 2718 0002 0068     		ldr	r0, [r0]
 2719              	.LVL220:
1051:Libraries/STM32F4xx_HAL_Driver/Src/stm32f4xx_hal_hcd.c **** }
 2720              		.loc 1 1051 11 view .LVU837
 2721 0004 FFF7FEFF 		bl	USB_ResetPort
 2722              	.LVL221:
1052:Libraries/STM32F4xx_HAL_Driver/Src/stm32f4xx_hal_hcd.c **** 
 2723              		.loc 1 1052 1 view .LVU838
 2724 0008 08BD     		pop	{r3, pc}
 2725              		.cfi_endproc
 2726              	.LFE147:
 2728              		.section	.text.HAL_HCD_GetState,"ax",%progbits
 2729              		.align	1
 2730              		.global	HAL_HCD_GetState
 2731              		.syntax unified
 2732              		.thumb
 2733              		.thumb_func
 2734              		.fpu softvfp
 2736              	HAL_HCD_GetState:
 2737              	.LVL222:
 2738              	.LFB148:
1079:Libraries/STM32F4xx_HAL_Driver/Src/stm32f4xx_hal_hcd.c ****   return hhcd->State;
 2739              		.loc 1 1079 1 is_stmt 1 view -0
 2740              		.cfi_startproc
 2741              		@ args = 0, pretend = 0, frame = 0
 2742              		@ frame_needed = 0, uses_anonymous_args = 0
 2743              		@ link register save eliminated.
1080:Libraries/STM32F4xx_HAL_Driver/Src/stm32f4xx_hal_hcd.c **** }
 2744              		.loc 1 1080 3 view .LVU840
1080:Libraries/STM32F4xx_HAL_Driver/Src/stm32f4xx_hal_hcd.c **** }
 2745              		.loc 1 1080 14 is_stmt 0 view .LVU841
ARM GAS  C:\Users\yzy\AppData\Local\Temp\cco1yVr9.s 			page 91


 2746 0000 90F8B902 		ldrb	r0, [r0, #697]	@ zero_extendqisi2
 2747              	.LVL223:
1081:Libraries/STM32F4xx_HAL_Driver/Src/stm32f4xx_hal_hcd.c **** 
 2748              		.loc 1 1081 1 view .LVU842
 2749 0004 7047     		bx	lr
 2750              		.cfi_endproc
 2751              	.LFE148:
 2753              		.section	.text.HAL_HCD_HC_GetURBState,"ax",%progbits
 2754              		.align	1
 2755              		.global	HAL_HCD_HC_GetURBState
 2756              		.syntax unified
 2757              		.thumb
 2758              		.thumb_func
 2759              		.fpu softvfp
 2761              	HAL_HCD_HC_GetURBState:
 2762              	.LVL224:
 2763              	.LFB149:
1098:Libraries/STM32F4xx_HAL_Driver/Src/stm32f4xx_hal_hcd.c ****   return hhcd->hc[chnum].urb_state;
 2764              		.loc 1 1098 1 is_stmt 1 view -0
 2765              		.cfi_startproc
 2766              		@ args = 0, pretend = 0, frame = 0
 2767              		@ frame_needed = 0, uses_anonymous_args = 0
 2768              		@ link register save eliminated.
1099:Libraries/STM32F4xx_HAL_Driver/Src/stm32f4xx_hal_hcd.c **** }
 2769              		.loc 1 1099 3 view .LVU844
1099:Libraries/STM32F4xx_HAL_Driver/Src/stm32f4xx_hal_hcd.c **** }
 2770              		.loc 1 1099 25 is_stmt 0 view .LVU845
 2771 0000 01EB8101 		add	r1, r1, r1, lsl #2
 2772              	.LVL225:
1099:Libraries/STM32F4xx_HAL_Driver/Src/stm32f4xx_hal_hcd.c **** }
 2773              		.loc 1 1099 25 view .LVU846
 2774 0004 00EBC101 		add	r1, r0, r1, lsl #3
1100:Libraries/STM32F4xx_HAL_Driver/Src/stm32f4xx_hal_hcd.c **** 
 2775              		.loc 1 1100 1 view .LVU847
 2776 0008 91F85C00 		ldrb	r0, [r1, #92]	@ zero_extendqisi2
 2777              	.LVL226:
1100:Libraries/STM32F4xx_HAL_Driver/Src/stm32f4xx_hal_hcd.c **** 
 2778              		.loc 1 1100 1 view .LVU848
 2779 000c 7047     		bx	lr
 2780              		.cfi_endproc
 2781              	.LFE149:
 2783              		.section	.text.HAL_HCD_HC_GetXferCount,"ax",%progbits
 2784              		.align	1
 2785              		.global	HAL_HCD_HC_GetXferCount
 2786              		.syntax unified
 2787              		.thumb
 2788              		.thumb_func
 2789              		.fpu softvfp
 2791              	HAL_HCD_HC_GetXferCount:
 2792              	.LVL227:
 2793              	.LFB150:
1111:Libraries/STM32F4xx_HAL_Driver/Src/stm32f4xx_hal_hcd.c ****   return hhcd->hc[chnum].xfer_count;
 2794              		.loc 1 1111 1 is_stmt 1 view -0
 2795              		.cfi_startproc
 2796              		@ args = 0, pretend = 0, frame = 0
 2797              		@ frame_needed = 0, uses_anonymous_args = 0
 2798              		@ link register save eliminated.
ARM GAS  C:\Users\yzy\AppData\Local\Temp\cco1yVr9.s 			page 92


1112:Libraries/STM32F4xx_HAL_Driver/Src/stm32f4xx_hal_hcd.c **** }
 2799              		.loc 1 1112 3 view .LVU850
1112:Libraries/STM32F4xx_HAL_Driver/Src/stm32f4xx_hal_hcd.c **** }
 2800              		.loc 1 1112 25 is_stmt 0 view .LVU851
 2801 0000 01EB8101 		add	r1, r1, r1, lsl #2
 2802              	.LVL228:
1112:Libraries/STM32F4xx_HAL_Driver/Src/stm32f4xx_hal_hcd.c **** }
 2803              		.loc 1 1112 25 view .LVU852
 2804 0004 00EBC101 		add	r1, r0, r1, lsl #3
1113:Libraries/STM32F4xx_HAL_Driver/Src/stm32f4xx_hal_hcd.c **** 
 2805              		.loc 1 1113 1 view .LVU853
 2806 0008 C86C     		ldr	r0, [r1, #76]
 2807              	.LVL229:
1113:Libraries/STM32F4xx_HAL_Driver/Src/stm32f4xx_hal_hcd.c **** 
 2808              		.loc 1 1113 1 view .LVU854
 2809 000a 7047     		bx	lr
 2810              		.cfi_endproc
 2811              	.LFE150:
 2813              		.section	.text.HAL_HCD_HC_GetState,"ax",%progbits
 2814              		.align	1
 2815              		.global	HAL_HCD_HC_GetState
 2816              		.syntax unified
 2817              		.thumb
 2818              		.thumb_func
 2819              		.fpu softvfp
 2821              	HAL_HCD_HC_GetState:
 2822              	.LVL230:
 2823              	.LFB151:
1133:Libraries/STM32F4xx_HAL_Driver/Src/stm32f4xx_hal_hcd.c ****   return hhcd->hc[chnum].state;
 2824              		.loc 1 1133 1 is_stmt 1 view -0
 2825              		.cfi_startproc
 2826              		@ args = 0, pretend = 0, frame = 0
 2827              		@ frame_needed = 0, uses_anonymous_args = 0
 2828              		@ link register save eliminated.
1134:Libraries/STM32F4xx_HAL_Driver/Src/stm32f4xx_hal_hcd.c **** }
 2829              		.loc 1 1134 3 view .LVU856
1134:Libraries/STM32F4xx_HAL_Driver/Src/stm32f4xx_hal_hcd.c **** }
 2830              		.loc 1 1134 25 is_stmt 0 view .LVU857
 2831 0000 01EB8101 		add	r1, r1, r1, lsl #2
 2832              	.LVL231:
1134:Libraries/STM32F4xx_HAL_Driver/Src/stm32f4xx_hal_hcd.c **** }
 2833              		.loc 1 1134 25 view .LVU858
 2834 0004 00EBC101 		add	r1, r0, r1, lsl #3
1135:Libraries/STM32F4xx_HAL_Driver/Src/stm32f4xx_hal_hcd.c **** 
 2835              		.loc 1 1135 1 view .LVU859
 2836 0008 91F85D00 		ldrb	r0, [r1, #93]	@ zero_extendqisi2
 2837              	.LVL232:
1135:Libraries/STM32F4xx_HAL_Driver/Src/stm32f4xx_hal_hcd.c **** 
 2838              		.loc 1 1135 1 view .LVU860
 2839 000c 7047     		bx	lr
 2840              		.cfi_endproc
 2841              	.LFE151:
 2843              		.section	.text.HAL_HCD_GetCurrentFrame,"ax",%progbits
 2844              		.align	1
 2845              		.global	HAL_HCD_GetCurrentFrame
 2846              		.syntax unified
 2847              		.thumb
ARM GAS  C:\Users\yzy\AppData\Local\Temp\cco1yVr9.s 			page 93


 2848              		.thumb_func
 2849              		.fpu softvfp
 2851              	HAL_HCD_GetCurrentFrame:
 2852              	.LVL233:
 2853              	.LFB152:
1143:Libraries/STM32F4xx_HAL_Driver/Src/stm32f4xx_hal_hcd.c ****   return (USB_GetCurrentFrame(hhcd->Instance));
 2854              		.loc 1 1143 1 is_stmt 1 view -0
 2855              		.cfi_startproc
 2856              		@ args = 0, pretend = 0, frame = 0
 2857              		@ frame_needed = 0, uses_anonymous_args = 0
1143:Libraries/STM32F4xx_HAL_Driver/Src/stm32f4xx_hal_hcd.c ****   return (USB_GetCurrentFrame(hhcd->Instance));
 2858              		.loc 1 1143 1 is_stmt 0 view .LVU862
 2859 0000 08B5     		push	{r3, lr}
 2860              	.LCFI26:
 2861              		.cfi_def_cfa_offset 8
 2862              		.cfi_offset 3, -8
 2863              		.cfi_offset 14, -4
1144:Libraries/STM32F4xx_HAL_Driver/Src/stm32f4xx_hal_hcd.c **** }
 2864              		.loc 1 1144 3 is_stmt 1 view .LVU863
1144:Libraries/STM32F4xx_HAL_Driver/Src/stm32f4xx_hal_hcd.c **** }
 2865              		.loc 1 1144 11 is_stmt 0 view .LVU864
 2866 0002 0068     		ldr	r0, [r0]
 2867              	.LVL234:
1144:Libraries/STM32F4xx_HAL_Driver/Src/stm32f4xx_hal_hcd.c **** }
 2868              		.loc 1 1144 11 view .LVU865
 2869 0004 FFF7FEFF 		bl	USB_GetCurrentFrame
 2870              	.LVL235:
1145:Libraries/STM32F4xx_HAL_Driver/Src/stm32f4xx_hal_hcd.c **** 
 2871              		.loc 1 1145 1 view .LVU866
 2872 0008 08BD     		pop	{r3, pc}
 2873              		.cfi_endproc
 2874              	.LFE152:
 2876              		.section	.text.HAL_HCD_GetCurrentSpeed,"ax",%progbits
 2877              		.align	1
 2878              		.global	HAL_HCD_GetCurrentSpeed
 2879              		.syntax unified
 2880              		.thumb
 2881              		.thumb_func
 2882              		.fpu softvfp
 2884              	HAL_HCD_GetCurrentSpeed:
 2885              	.LVL236:
 2886              	.LFB153:
1153:Libraries/STM32F4xx_HAL_Driver/Src/stm32f4xx_hal_hcd.c ****   return (USB_GetHostSpeed(hhcd->Instance));
 2887              		.loc 1 1153 1 is_stmt 1 view -0
 2888              		.cfi_startproc
 2889              		@ args = 0, pretend = 0, frame = 0
 2890              		@ frame_needed = 0, uses_anonymous_args = 0
1153:Libraries/STM32F4xx_HAL_Driver/Src/stm32f4xx_hal_hcd.c ****   return (USB_GetHostSpeed(hhcd->Instance));
 2891              		.loc 1 1153 1 is_stmt 0 view .LVU868
 2892 0000 08B5     		push	{r3, lr}
 2893              	.LCFI27:
 2894              		.cfi_def_cfa_offset 8
 2895              		.cfi_offset 3, -8
 2896              		.cfi_offset 14, -4
1154:Libraries/STM32F4xx_HAL_Driver/Src/stm32f4xx_hal_hcd.c **** }
 2897              		.loc 1 1154 3 is_stmt 1 view .LVU869
1154:Libraries/STM32F4xx_HAL_Driver/Src/stm32f4xx_hal_hcd.c **** }
ARM GAS  C:\Users\yzy\AppData\Local\Temp\cco1yVr9.s 			page 94


 2898              		.loc 1 1154 11 is_stmt 0 view .LVU870
 2899 0002 0068     		ldr	r0, [r0]
 2900              	.LVL237:
1154:Libraries/STM32F4xx_HAL_Driver/Src/stm32f4xx_hal_hcd.c **** }
 2901              		.loc 1 1154 11 view .LVU871
 2902 0004 FFF7FEFF 		bl	USB_GetHostSpeed
 2903              	.LVL238:
1155:Libraries/STM32F4xx_HAL_Driver/Src/stm32f4xx_hal_hcd.c **** 
 2904              		.loc 1 1155 1 view .LVU872
 2905 0008 08BD     		pop	{r3, pc}
 2906              		.cfi_endproc
 2907              	.LFE153:
 2909              		.text
 2910              	.Letext0:
 2911              		.file 2 "c:\\program files (x86)\\gnu arm embedded toolchain\\2020-q2-update\\arm-none-eabi\\inclu
 2912              		.file 3 "c:\\program files (x86)\\gnu arm embedded toolchain\\2020-q2-update\\arm-none-eabi\\inclu
 2913              		.file 4 "Libraries/CMSIS/Include/core_cm4.h"
 2914              		.file 5 "Libraries/CMSIS/Device/ST/STM32F4xx/Include/system_stm32f4xx.h"
 2915              		.file 6 "Libraries/CMSIS/Device/ST/STM32F4xx/Include/stm32f407xx.h"
 2916              		.file 7 "Libraries/STM32F4xx_HAL_Driver/Inc/stm32f4xx_hal_def.h"
 2917              		.file 8 "Libraries/STM32F4xx_HAL_Driver/Inc/stm32f4xx_ll_usb.h"
 2918              		.file 9 "Libraries/STM32F4xx_HAL_Driver/Inc/stm32f4xx_hal_hcd.h"
 2919              		.file 10 "Libraries/STM32F4xx_HAL_Driver/Inc/stm32f4xx_hal.h"
ARM GAS  C:\Users\yzy\AppData\Local\Temp\cco1yVr9.s 			page 95


DEFINED SYMBOLS
                            *ABS*:00000000 stm32f4xx_hal_hcd.c
C:\Users\yzy\AppData\Local\Temp\cco1yVr9.s:16     .text.HCD_RXQLVL_IRQHandler:00000000 $t
C:\Users\yzy\AppData\Local\Temp\cco1yVr9.s:23     .text.HCD_RXQLVL_IRQHandler:00000000 HCD_RXQLVL_IRQHandler
C:\Users\yzy\AppData\Local\Temp\cco1yVr9.s:153    .text.HCD_RXQLVL_IRQHandler:00000080 $d
C:\Users\yzy\AppData\Local\Temp\cco1yVr9.s:158    .text.HAL_HCD_HC_Init:00000000 $t
C:\Users\yzy\AppData\Local\Temp\cco1yVr9.s:165    .text.HAL_HCD_HC_Init:00000000 HAL_HCD_HC_Init
C:\Users\yzy\AppData\Local\Temp\cco1yVr9.s:281    .text.HAL_HCD_HC_Halt:00000000 $t
C:\Users\yzy\AppData\Local\Temp\cco1yVr9.s:288    .text.HAL_HCD_HC_Halt:00000000 HAL_HCD_HC_Halt
C:\Users\yzy\AppData\Local\Temp\cco1yVr9.s:342    .text.HAL_HCD_MspInit:00000000 $t
C:\Users\yzy\AppData\Local\Temp\cco1yVr9.s:349    .text.HAL_HCD_MspInit:00000000 HAL_HCD_MspInit
C:\Users\yzy\AppData\Local\Temp\cco1yVr9.s:364    .text.HAL_HCD_Init:00000000 $t
C:\Users\yzy\AppData\Local\Temp\cco1yVr9.s:371    .text.HAL_HCD_Init:00000000 HAL_HCD_Init
C:\Users\yzy\AppData\Local\Temp\cco1yVr9.s:513    .text.HAL_HCD_MspDeInit:00000000 $t
C:\Users\yzy\AppData\Local\Temp\cco1yVr9.s:520    .text.HAL_HCD_MspDeInit:00000000 HAL_HCD_MspDeInit
C:\Users\yzy\AppData\Local\Temp\cco1yVr9.s:535    .text.HAL_HCD_DeInit:00000000 $t
C:\Users\yzy\AppData\Local\Temp\cco1yVr9.s:542    .text.HAL_HCD_DeInit:00000000 HAL_HCD_DeInit
C:\Users\yzy\AppData\Local\Temp\cco1yVr9.s:592    .text.HAL_HCD_HC_SubmitRequest:00000000 $t
C:\Users\yzy\AppData\Local\Temp\cco1yVr9.s:599    .text.HAL_HCD_HC_SubmitRequest:00000000 HAL_HCD_HC_SubmitRequest
C:\Users\yzy\AppData\Local\Temp\cco1yVr9.s:645    .text.HAL_HCD_HC_SubmitRequest:0000003c $d
C:\Users\yzy\AppData\Local\Temp\cco1yVr9.s:649    .text.HAL_HCD_HC_SubmitRequest:00000040 $t
C:\Users\yzy\AppData\Local\Temp\cco1yVr9.s:882    .text.HAL_HCD_WKUP_IRQHandler:00000000 $t
C:\Users\yzy\AppData\Local\Temp\cco1yVr9.s:889    .text.HAL_HCD_WKUP_IRQHandler:00000000 HAL_HCD_WKUP_IRQHandler
C:\Users\yzy\AppData\Local\Temp\cco1yVr9.s:904    .text.HAL_HCD_SOF_Callback:00000000 $t
C:\Users\yzy\AppData\Local\Temp\cco1yVr9.s:911    .text.HAL_HCD_SOF_Callback:00000000 HAL_HCD_SOF_Callback
C:\Users\yzy\AppData\Local\Temp\cco1yVr9.s:926    .text.HAL_HCD_Connect_Callback:00000000 $t
C:\Users\yzy\AppData\Local\Temp\cco1yVr9.s:933    .text.HAL_HCD_Connect_Callback:00000000 HAL_HCD_Connect_Callback
C:\Users\yzy\AppData\Local\Temp\cco1yVr9.s:948    .text.HAL_HCD_Disconnect_Callback:00000000 $t
C:\Users\yzy\AppData\Local\Temp\cco1yVr9.s:955    .text.HAL_HCD_Disconnect_Callback:00000000 HAL_HCD_Disconnect_Callback
C:\Users\yzy\AppData\Local\Temp\cco1yVr9.s:970    .text.HAL_HCD_PortEnabled_Callback:00000000 $t
C:\Users\yzy\AppData\Local\Temp\cco1yVr9.s:977    .text.HAL_HCD_PortEnabled_Callback:00000000 HAL_HCD_PortEnabled_Callback
C:\Users\yzy\AppData\Local\Temp\cco1yVr9.s:992    .text.HAL_HCD_PortDisabled_Callback:00000000 $t
C:\Users\yzy\AppData\Local\Temp\cco1yVr9.s:999    .text.HAL_HCD_PortDisabled_Callback:00000000 HAL_HCD_PortDisabled_Callback
C:\Users\yzy\AppData\Local\Temp\cco1yVr9.s:1014   .text.HCD_Port_IRQHandler:00000000 $t
C:\Users\yzy\AppData\Local\Temp\cco1yVr9.s:1020   .text.HCD_Port_IRQHandler:00000000 HCD_Port_IRQHandler
C:\Users\yzy\AppData\Local\Temp\cco1yVr9.s:1185   .text.HAL_HCD_HC_NotifyURBChange_Callback:00000000 $t
C:\Users\yzy\AppData\Local\Temp\cco1yVr9.s:1192   .text.HAL_HCD_HC_NotifyURBChange_Callback:00000000 HAL_HCD_HC_NotifyURBChange_Callback
C:\Users\yzy\AppData\Local\Temp\cco1yVr9.s:1209   .text.HCD_HC_IN_IRQHandler:00000000 $t
C:\Users\yzy\AppData\Local\Temp\cco1yVr9.s:1215   .text.HCD_HC_IN_IRQHandler:00000000 HCD_HC_IN_IRQHandler
C:\Users\yzy\AppData\Local\Temp\cco1yVr9.s:1779   .text.HCD_HC_OUT_IRQHandler:00000000 $t
C:\Users\yzy\AppData\Local\Temp\cco1yVr9.s:1785   .text.HCD_HC_OUT_IRQHandler:00000000 HCD_HC_OUT_IRQHandler
C:\Users\yzy\AppData\Local\Temp\cco1yVr9.s:2304   .text.HAL_HCD_IRQHandler:00000000 $t
C:\Users\yzy\AppData\Local\Temp\cco1yVr9.s:2311   .text.HAL_HCD_IRQHandler:00000000 HAL_HCD_IRQHandler
C:\Users\yzy\AppData\Local\Temp\cco1yVr9.s:2571   .text.HAL_HCD_Start:00000000 $t
C:\Users\yzy\AppData\Local\Temp\cco1yVr9.s:2578   .text.HAL_HCD_Start:00000000 HAL_HCD_Start
C:\Users\yzy\AppData\Local\Temp\cco1yVr9.s:2636   .text.HAL_HCD_Stop:00000000 $t
C:\Users\yzy\AppData\Local\Temp\cco1yVr9.s:2643   .text.HAL_HCD_Stop:00000000 HAL_HCD_Stop
C:\Users\yzy\AppData\Local\Temp\cco1yVr9.s:2696   .text.HAL_HCD_ResetPort:00000000 $t
C:\Users\yzy\AppData\Local\Temp\cco1yVr9.s:2703   .text.HAL_HCD_ResetPort:00000000 HAL_HCD_ResetPort
C:\Users\yzy\AppData\Local\Temp\cco1yVr9.s:2729   .text.HAL_HCD_GetState:00000000 $t
C:\Users\yzy\AppData\Local\Temp\cco1yVr9.s:2736   .text.HAL_HCD_GetState:00000000 HAL_HCD_GetState
C:\Users\yzy\AppData\Local\Temp\cco1yVr9.s:2754   .text.HAL_HCD_HC_GetURBState:00000000 $t
C:\Users\yzy\AppData\Local\Temp\cco1yVr9.s:2761   .text.HAL_HCD_HC_GetURBState:00000000 HAL_HCD_HC_GetURBState
C:\Users\yzy\AppData\Local\Temp\cco1yVr9.s:2784   .text.HAL_HCD_HC_GetXferCount:00000000 $t
C:\Users\yzy\AppData\Local\Temp\cco1yVr9.s:2791   .text.HAL_HCD_HC_GetXferCount:00000000 HAL_HCD_HC_GetXferCount
C:\Users\yzy\AppData\Local\Temp\cco1yVr9.s:2814   .text.HAL_HCD_HC_GetState:00000000 $t
C:\Users\yzy\AppData\Local\Temp\cco1yVr9.s:2821   .text.HAL_HCD_HC_GetState:00000000 HAL_HCD_HC_GetState
ARM GAS  C:\Users\yzy\AppData\Local\Temp\cco1yVr9.s 			page 96


C:\Users\yzy\AppData\Local\Temp\cco1yVr9.s:2844   .text.HAL_HCD_GetCurrentFrame:00000000 $t
C:\Users\yzy\AppData\Local\Temp\cco1yVr9.s:2851   .text.HAL_HCD_GetCurrentFrame:00000000 HAL_HCD_GetCurrentFrame
C:\Users\yzy\AppData\Local\Temp\cco1yVr9.s:2877   .text.HAL_HCD_GetCurrentSpeed:00000000 $t
C:\Users\yzy\AppData\Local\Temp\cco1yVr9.s:2884   .text.HAL_HCD_GetCurrentSpeed:00000000 HAL_HCD_GetCurrentSpeed

UNDEFINED SYMBOLS
USB_ReadPacket
USB_HC_Init
USB_HC_Halt
USB_DisableGlobalInt
USB_CoreInit
USB_SetCurrentMode
USB_HostInit
USB_HC_StartXfer
USB_InitFSLSPClkSel
USB_GetMode
USB_ReadInterrupts
USB_HC_ReadInterrupt
USB_EnableGlobalInt
USB_DriveVbus
USB_StopHost
USB_ResetPort
USB_GetCurrentFrame
USB_GetHostSpeed
