ARM GAS  C:\Users\yzy\AppData\Local\Temp\ccxXXGiZ.s 			page 1


   1              		.cpu cortex-m4
   2              		.eabi_attribute 20, 1
   3              		.eabi_attribute 21, 1
   4              		.eabi_attribute 23, 3
   5              		.eabi_attribute 24, 1
   6              		.eabi_attribute 25, 1
   7              		.eabi_attribute 26, 1
   8              		.eabi_attribute 30, 1
   9              		.eabi_attribute 34, 1
  10              		.eabi_attribute 18, 4
  11              		.file	"stm32f4xx_hal_flash.c"
  12              		.text
  13              	.Ltext0:
  14              		.cfi_sections	.debug_frame
  15              		.section	.text.FLASH_Program_DoubleWord,"ax",%progbits
  16              		.align	1
  17              		.arch armv7e-m
  18              		.syntax unified
  19              		.thumb
  20              		.thumb_func
  21              		.fpu softvfp
  23              	FLASH_Program_DoubleWord:
  24              	.LVL0:
  25              	.LFB142:
  26              		.file 1 "Libraries/STM32F4xx_HAL_Driver/Src/stm32f4xx_hal_flash.c"
   1:Libraries/STM32F4xx_HAL_Driver/Src/stm32f4xx_hal_flash.c **** /**
   2:Libraries/STM32F4xx_HAL_Driver/Src/stm32f4xx_hal_flash.c ****   ******************************************************************************
   3:Libraries/STM32F4xx_HAL_Driver/Src/stm32f4xx_hal_flash.c ****   * @file    stm32f4xx_hal_flash.c
   4:Libraries/STM32F4xx_HAL_Driver/Src/stm32f4xx_hal_flash.c ****   * @author  MCD Application Team
   5:Libraries/STM32F4xx_HAL_Driver/Src/stm32f4xx_hal_flash.c ****   * @brief   FLASH HAL module driver.
   6:Libraries/STM32F4xx_HAL_Driver/Src/stm32f4xx_hal_flash.c ****   *          This file provides firmware functions to manage the following 
   7:Libraries/STM32F4xx_HAL_Driver/Src/stm32f4xx_hal_flash.c ****   *          functionalities of the internal FLASH memory:
   8:Libraries/STM32F4xx_HAL_Driver/Src/stm32f4xx_hal_flash.c ****   *           + Program operations functions
   9:Libraries/STM32F4xx_HAL_Driver/Src/stm32f4xx_hal_flash.c ****   *           + Memory Control functions 
  10:Libraries/STM32F4xx_HAL_Driver/Src/stm32f4xx_hal_flash.c ****   *           + Peripheral Errors functions
  11:Libraries/STM32F4xx_HAL_Driver/Src/stm32f4xx_hal_flash.c ****   *         
  12:Libraries/STM32F4xx_HAL_Driver/Src/stm32f4xx_hal_flash.c ****   @verbatim
  13:Libraries/STM32F4xx_HAL_Driver/Src/stm32f4xx_hal_flash.c ****   ==============================================================================
  14:Libraries/STM32F4xx_HAL_Driver/Src/stm32f4xx_hal_flash.c ****                         ##### FLASH peripheral features #####
  15:Libraries/STM32F4xx_HAL_Driver/Src/stm32f4xx_hal_flash.c ****   ==============================================================================
  16:Libraries/STM32F4xx_HAL_Driver/Src/stm32f4xx_hal_flash.c ****            
  17:Libraries/STM32F4xx_HAL_Driver/Src/stm32f4xx_hal_flash.c ****   [..] The Flash memory interface manages CPU AHB I-Code and D-Code accesses 
  18:Libraries/STM32F4xx_HAL_Driver/Src/stm32f4xx_hal_flash.c ****        to the Flash memory. It implements the erase and program Flash memory operations 
  19:Libraries/STM32F4xx_HAL_Driver/Src/stm32f4xx_hal_flash.c ****        and the read and write protection mechanisms.
  20:Libraries/STM32F4xx_HAL_Driver/Src/stm32f4xx_hal_flash.c ****       
  21:Libraries/STM32F4xx_HAL_Driver/Src/stm32f4xx_hal_flash.c ****   [..] The Flash memory interface accelerates code execution with a system of instruction
  22:Libraries/STM32F4xx_HAL_Driver/Src/stm32f4xx_hal_flash.c ****        prefetch and cache lines. 
  23:Libraries/STM32F4xx_HAL_Driver/Src/stm32f4xx_hal_flash.c **** 
  24:Libraries/STM32F4xx_HAL_Driver/Src/stm32f4xx_hal_flash.c ****   [..] The FLASH main features are:
  25:Libraries/STM32F4xx_HAL_Driver/Src/stm32f4xx_hal_flash.c ****       (+) Flash memory read operations
  26:Libraries/STM32F4xx_HAL_Driver/Src/stm32f4xx_hal_flash.c ****       (+) Flash memory program/erase operations
  27:Libraries/STM32F4xx_HAL_Driver/Src/stm32f4xx_hal_flash.c ****       (+) Read / write protections
  28:Libraries/STM32F4xx_HAL_Driver/Src/stm32f4xx_hal_flash.c ****       (+) Prefetch on I-Code
  29:Libraries/STM32F4xx_HAL_Driver/Src/stm32f4xx_hal_flash.c ****       (+) 64 cache lines of 128 bits on I-Code
  30:Libraries/STM32F4xx_HAL_Driver/Src/stm32f4xx_hal_flash.c ****       (+) 8 cache lines of 128 bits on D-Code
  31:Libraries/STM32F4xx_HAL_Driver/Src/stm32f4xx_hal_flash.c ****       
  32:Libraries/STM32F4xx_HAL_Driver/Src/stm32f4xx_hal_flash.c ****       
ARM GAS  C:\Users\yzy\AppData\Local\Temp\ccxXXGiZ.s 			page 2


  33:Libraries/STM32F4xx_HAL_Driver/Src/stm32f4xx_hal_flash.c ****                      ##### How to use this driver #####
  34:Libraries/STM32F4xx_HAL_Driver/Src/stm32f4xx_hal_flash.c ****   ==============================================================================
  35:Libraries/STM32F4xx_HAL_Driver/Src/stm32f4xx_hal_flash.c ****     [..]                             
  36:Libraries/STM32F4xx_HAL_Driver/Src/stm32f4xx_hal_flash.c ****       This driver provides functions and macros to configure and program the FLASH 
  37:Libraries/STM32F4xx_HAL_Driver/Src/stm32f4xx_hal_flash.c ****       memory of all STM32F4xx devices.
  38:Libraries/STM32F4xx_HAL_Driver/Src/stm32f4xx_hal_flash.c ****     
  39:Libraries/STM32F4xx_HAL_Driver/Src/stm32f4xx_hal_flash.c ****       (#) FLASH Memory IO Programming functions: 
  40:Libraries/STM32F4xx_HAL_Driver/Src/stm32f4xx_hal_flash.c ****            (++) Lock and Unlock the FLASH interface using HAL_FLASH_Unlock() and 
  41:Libraries/STM32F4xx_HAL_Driver/Src/stm32f4xx_hal_flash.c ****                 HAL_FLASH_Lock() functions
  42:Libraries/STM32F4xx_HAL_Driver/Src/stm32f4xx_hal_flash.c ****            (++) Program functions: byte, half word, word and double word
  43:Libraries/STM32F4xx_HAL_Driver/Src/stm32f4xx_hal_flash.c ****            (++) There Two modes of programming :
  44:Libraries/STM32F4xx_HAL_Driver/Src/stm32f4xx_hal_flash.c ****             (+++) Polling mode using HAL_FLASH_Program() function
  45:Libraries/STM32F4xx_HAL_Driver/Src/stm32f4xx_hal_flash.c ****             (+++) Interrupt mode using HAL_FLASH_Program_IT() function
  46:Libraries/STM32F4xx_HAL_Driver/Src/stm32f4xx_hal_flash.c ****     
  47:Libraries/STM32F4xx_HAL_Driver/Src/stm32f4xx_hal_flash.c ****       (#) Interrupts and flags management functions : 
  48:Libraries/STM32F4xx_HAL_Driver/Src/stm32f4xx_hal_flash.c ****            (++) Handle FLASH interrupts by calling HAL_FLASH_IRQHandler()
  49:Libraries/STM32F4xx_HAL_Driver/Src/stm32f4xx_hal_flash.c ****            (++) Wait for last FLASH operation according to its status
  50:Libraries/STM32F4xx_HAL_Driver/Src/stm32f4xx_hal_flash.c ****            (++) Get error flag status by calling HAL_SetErrorCode()          
  51:Libraries/STM32F4xx_HAL_Driver/Src/stm32f4xx_hal_flash.c **** 
  52:Libraries/STM32F4xx_HAL_Driver/Src/stm32f4xx_hal_flash.c ****     [..] 
  53:Libraries/STM32F4xx_HAL_Driver/Src/stm32f4xx_hal_flash.c ****       In addition to these functions, this driver includes a set of macros allowing
  54:Libraries/STM32F4xx_HAL_Driver/Src/stm32f4xx_hal_flash.c ****       to handle the following operations:
  55:Libraries/STM32F4xx_HAL_Driver/Src/stm32f4xx_hal_flash.c ****        (+) Set the latency
  56:Libraries/STM32F4xx_HAL_Driver/Src/stm32f4xx_hal_flash.c ****        (+) Enable/Disable the prefetch buffer
  57:Libraries/STM32F4xx_HAL_Driver/Src/stm32f4xx_hal_flash.c ****        (+) Enable/Disable the Instruction cache and the Data cache
  58:Libraries/STM32F4xx_HAL_Driver/Src/stm32f4xx_hal_flash.c ****        (+) Reset the Instruction cache and the Data cache
  59:Libraries/STM32F4xx_HAL_Driver/Src/stm32f4xx_hal_flash.c ****        (+) Enable/Disable the FLASH interrupts
  60:Libraries/STM32F4xx_HAL_Driver/Src/stm32f4xx_hal_flash.c ****        (+) Monitor the FLASH flags status
  61:Libraries/STM32F4xx_HAL_Driver/Src/stm32f4xx_hal_flash.c ****           
  62:Libraries/STM32F4xx_HAL_Driver/Src/stm32f4xx_hal_flash.c ****   @endverbatim
  63:Libraries/STM32F4xx_HAL_Driver/Src/stm32f4xx_hal_flash.c ****   ******************************************************************************
  64:Libraries/STM32F4xx_HAL_Driver/Src/stm32f4xx_hal_flash.c ****   * @attention
  65:Libraries/STM32F4xx_HAL_Driver/Src/stm32f4xx_hal_flash.c ****   *
  66:Libraries/STM32F4xx_HAL_Driver/Src/stm32f4xx_hal_flash.c ****   * <h2><center>&copy; Copyright (c) 2017 STMicroelectronics.
  67:Libraries/STM32F4xx_HAL_Driver/Src/stm32f4xx_hal_flash.c ****   * All rights reserved.</center></h2>
  68:Libraries/STM32F4xx_HAL_Driver/Src/stm32f4xx_hal_flash.c ****   *
  69:Libraries/STM32F4xx_HAL_Driver/Src/stm32f4xx_hal_flash.c ****   * This software component is licensed by ST under BSD 3-Clause license,
  70:Libraries/STM32F4xx_HAL_Driver/Src/stm32f4xx_hal_flash.c ****   * the "License"; You may not use this file except in compliance with the
  71:Libraries/STM32F4xx_HAL_Driver/Src/stm32f4xx_hal_flash.c ****   * License. You may obtain a copy of the License at:
  72:Libraries/STM32F4xx_HAL_Driver/Src/stm32f4xx_hal_flash.c ****   *                        opensource.org/licenses/BSD-3-Clause
  73:Libraries/STM32F4xx_HAL_Driver/Src/stm32f4xx_hal_flash.c ****   *
  74:Libraries/STM32F4xx_HAL_Driver/Src/stm32f4xx_hal_flash.c ****   ******************************************************************************
  75:Libraries/STM32F4xx_HAL_Driver/Src/stm32f4xx_hal_flash.c ****   */ 
  76:Libraries/STM32F4xx_HAL_Driver/Src/stm32f4xx_hal_flash.c **** 
  77:Libraries/STM32F4xx_HAL_Driver/Src/stm32f4xx_hal_flash.c **** /* Includes ------------------------------------------------------------------*/
  78:Libraries/STM32F4xx_HAL_Driver/Src/stm32f4xx_hal_flash.c **** #include "stm32f4xx_hal.h"
  79:Libraries/STM32F4xx_HAL_Driver/Src/stm32f4xx_hal_flash.c **** 
  80:Libraries/STM32F4xx_HAL_Driver/Src/stm32f4xx_hal_flash.c **** /** @addtogroup STM32F4xx_HAL_Driver
  81:Libraries/STM32F4xx_HAL_Driver/Src/stm32f4xx_hal_flash.c ****   * @{
  82:Libraries/STM32F4xx_HAL_Driver/Src/stm32f4xx_hal_flash.c ****   */
  83:Libraries/STM32F4xx_HAL_Driver/Src/stm32f4xx_hal_flash.c **** 
  84:Libraries/STM32F4xx_HAL_Driver/Src/stm32f4xx_hal_flash.c **** /** @defgroup FLASH FLASH
  85:Libraries/STM32F4xx_HAL_Driver/Src/stm32f4xx_hal_flash.c ****   * @brief FLASH HAL module driver
  86:Libraries/STM32F4xx_HAL_Driver/Src/stm32f4xx_hal_flash.c ****   * @{
  87:Libraries/STM32F4xx_HAL_Driver/Src/stm32f4xx_hal_flash.c ****   */
  88:Libraries/STM32F4xx_HAL_Driver/Src/stm32f4xx_hal_flash.c **** 
  89:Libraries/STM32F4xx_HAL_Driver/Src/stm32f4xx_hal_flash.c **** #ifdef HAL_FLASH_MODULE_ENABLED
ARM GAS  C:\Users\yzy\AppData\Local\Temp\ccxXXGiZ.s 			page 3


  90:Libraries/STM32F4xx_HAL_Driver/Src/stm32f4xx_hal_flash.c **** 
  91:Libraries/STM32F4xx_HAL_Driver/Src/stm32f4xx_hal_flash.c **** /* Private typedef -----------------------------------------------------------*/
  92:Libraries/STM32F4xx_HAL_Driver/Src/stm32f4xx_hal_flash.c **** /* Private define ------------------------------------------------------------*/
  93:Libraries/STM32F4xx_HAL_Driver/Src/stm32f4xx_hal_flash.c **** /** @addtogroup FLASH_Private_Constants
  94:Libraries/STM32F4xx_HAL_Driver/Src/stm32f4xx_hal_flash.c ****   * @{
  95:Libraries/STM32F4xx_HAL_Driver/Src/stm32f4xx_hal_flash.c ****   */
  96:Libraries/STM32F4xx_HAL_Driver/Src/stm32f4xx_hal_flash.c **** #define FLASH_TIMEOUT_VALUE       50000U /* 50 s */
  97:Libraries/STM32F4xx_HAL_Driver/Src/stm32f4xx_hal_flash.c **** /**
  98:Libraries/STM32F4xx_HAL_Driver/Src/stm32f4xx_hal_flash.c ****   * @}
  99:Libraries/STM32F4xx_HAL_Driver/Src/stm32f4xx_hal_flash.c ****   */         
 100:Libraries/STM32F4xx_HAL_Driver/Src/stm32f4xx_hal_flash.c **** /* Private macro -------------------------------------------------------------*/
 101:Libraries/STM32F4xx_HAL_Driver/Src/stm32f4xx_hal_flash.c **** /* Private variables ---------------------------------------------------------*/
 102:Libraries/STM32F4xx_HAL_Driver/Src/stm32f4xx_hal_flash.c **** /** @addtogroup FLASH_Private_Variables
 103:Libraries/STM32F4xx_HAL_Driver/Src/stm32f4xx_hal_flash.c ****   * @{
 104:Libraries/STM32F4xx_HAL_Driver/Src/stm32f4xx_hal_flash.c ****   */
 105:Libraries/STM32F4xx_HAL_Driver/Src/stm32f4xx_hal_flash.c **** /* Variable used for Erase sectors under interruption */
 106:Libraries/STM32F4xx_HAL_Driver/Src/stm32f4xx_hal_flash.c **** FLASH_ProcessTypeDef pFlash;
 107:Libraries/STM32F4xx_HAL_Driver/Src/stm32f4xx_hal_flash.c **** /**
 108:Libraries/STM32F4xx_HAL_Driver/Src/stm32f4xx_hal_flash.c ****   * @}
 109:Libraries/STM32F4xx_HAL_Driver/Src/stm32f4xx_hal_flash.c ****   */
 110:Libraries/STM32F4xx_HAL_Driver/Src/stm32f4xx_hal_flash.c **** 
 111:Libraries/STM32F4xx_HAL_Driver/Src/stm32f4xx_hal_flash.c **** /* Private function prototypes -----------------------------------------------*/
 112:Libraries/STM32F4xx_HAL_Driver/Src/stm32f4xx_hal_flash.c **** /** @addtogroup FLASH_Private_Functions
 113:Libraries/STM32F4xx_HAL_Driver/Src/stm32f4xx_hal_flash.c ****   * @{
 114:Libraries/STM32F4xx_HAL_Driver/Src/stm32f4xx_hal_flash.c ****   */
 115:Libraries/STM32F4xx_HAL_Driver/Src/stm32f4xx_hal_flash.c **** /* Program operations */
 116:Libraries/STM32F4xx_HAL_Driver/Src/stm32f4xx_hal_flash.c **** static void   FLASH_Program_DoubleWord(uint32_t Address, uint64_t Data);
 117:Libraries/STM32F4xx_HAL_Driver/Src/stm32f4xx_hal_flash.c **** static void   FLASH_Program_Word(uint32_t Address, uint32_t Data);
 118:Libraries/STM32F4xx_HAL_Driver/Src/stm32f4xx_hal_flash.c **** static void   FLASH_Program_HalfWord(uint32_t Address, uint16_t Data);
 119:Libraries/STM32F4xx_HAL_Driver/Src/stm32f4xx_hal_flash.c **** static void   FLASH_Program_Byte(uint32_t Address, uint8_t Data);
 120:Libraries/STM32F4xx_HAL_Driver/Src/stm32f4xx_hal_flash.c **** static void   FLASH_SetErrorCode(void);
 121:Libraries/STM32F4xx_HAL_Driver/Src/stm32f4xx_hal_flash.c **** 
 122:Libraries/STM32F4xx_HAL_Driver/Src/stm32f4xx_hal_flash.c **** HAL_StatusTypeDef FLASH_WaitForLastOperation(uint32_t Timeout);
 123:Libraries/STM32F4xx_HAL_Driver/Src/stm32f4xx_hal_flash.c **** /**
 124:Libraries/STM32F4xx_HAL_Driver/Src/stm32f4xx_hal_flash.c ****   * @}
 125:Libraries/STM32F4xx_HAL_Driver/Src/stm32f4xx_hal_flash.c ****   */
 126:Libraries/STM32F4xx_HAL_Driver/Src/stm32f4xx_hal_flash.c **** 
 127:Libraries/STM32F4xx_HAL_Driver/Src/stm32f4xx_hal_flash.c **** /* Exported functions --------------------------------------------------------*/
 128:Libraries/STM32F4xx_HAL_Driver/Src/stm32f4xx_hal_flash.c **** /** @defgroup FLASH_Exported_Functions FLASH Exported Functions
 129:Libraries/STM32F4xx_HAL_Driver/Src/stm32f4xx_hal_flash.c ****   * @{
 130:Libraries/STM32F4xx_HAL_Driver/Src/stm32f4xx_hal_flash.c ****   */
 131:Libraries/STM32F4xx_HAL_Driver/Src/stm32f4xx_hal_flash.c ****   
 132:Libraries/STM32F4xx_HAL_Driver/Src/stm32f4xx_hal_flash.c **** /** @defgroup FLASH_Exported_Functions_Group1 Programming operation functions 
 133:Libraries/STM32F4xx_HAL_Driver/Src/stm32f4xx_hal_flash.c ****  *  @brief   Programming operation functions 
 134:Libraries/STM32F4xx_HAL_Driver/Src/stm32f4xx_hal_flash.c ****  *
 135:Libraries/STM32F4xx_HAL_Driver/Src/stm32f4xx_hal_flash.c **** @verbatim   
 136:Libraries/STM32F4xx_HAL_Driver/Src/stm32f4xx_hal_flash.c ****  ===============================================================================
 137:Libraries/STM32F4xx_HAL_Driver/Src/stm32f4xx_hal_flash.c ****                   ##### Programming operation functions #####
 138:Libraries/STM32F4xx_HAL_Driver/Src/stm32f4xx_hal_flash.c ****  ===============================================================================  
 139:Libraries/STM32F4xx_HAL_Driver/Src/stm32f4xx_hal_flash.c ****     [..]
 140:Libraries/STM32F4xx_HAL_Driver/Src/stm32f4xx_hal_flash.c ****     This subsection provides a set of functions allowing to manage the FLASH 
 141:Libraries/STM32F4xx_HAL_Driver/Src/stm32f4xx_hal_flash.c ****     program operations.
 142:Libraries/STM32F4xx_HAL_Driver/Src/stm32f4xx_hal_flash.c **** 
 143:Libraries/STM32F4xx_HAL_Driver/Src/stm32f4xx_hal_flash.c **** @endverbatim
 144:Libraries/STM32F4xx_HAL_Driver/Src/stm32f4xx_hal_flash.c ****   * @{
 145:Libraries/STM32F4xx_HAL_Driver/Src/stm32f4xx_hal_flash.c ****   */
 146:Libraries/STM32F4xx_HAL_Driver/Src/stm32f4xx_hal_flash.c **** 
ARM GAS  C:\Users\yzy\AppData\Local\Temp\ccxXXGiZ.s 			page 4


 147:Libraries/STM32F4xx_HAL_Driver/Src/stm32f4xx_hal_flash.c **** /**
 148:Libraries/STM32F4xx_HAL_Driver/Src/stm32f4xx_hal_flash.c ****   * @brief  Program byte, halfword, word or double word at a specified address
 149:Libraries/STM32F4xx_HAL_Driver/Src/stm32f4xx_hal_flash.c ****   * @param  TypeProgram  Indicate the way to program at a specified address.
 150:Libraries/STM32F4xx_HAL_Driver/Src/stm32f4xx_hal_flash.c ****   *                           This parameter can be a value of @ref FLASH_Type_Program
 151:Libraries/STM32F4xx_HAL_Driver/Src/stm32f4xx_hal_flash.c ****   * @param  Address  specifies the address to be programmed.
 152:Libraries/STM32F4xx_HAL_Driver/Src/stm32f4xx_hal_flash.c ****   * @param  Data specifies the data to be programmed
 153:Libraries/STM32F4xx_HAL_Driver/Src/stm32f4xx_hal_flash.c ****   * 
 154:Libraries/STM32F4xx_HAL_Driver/Src/stm32f4xx_hal_flash.c ****   * @retval HAL_StatusTypeDef HAL Status
 155:Libraries/STM32F4xx_HAL_Driver/Src/stm32f4xx_hal_flash.c ****   */
 156:Libraries/STM32F4xx_HAL_Driver/Src/stm32f4xx_hal_flash.c **** HAL_StatusTypeDef HAL_FLASH_Program(uint32_t TypeProgram, uint32_t Address, uint64_t Data)
 157:Libraries/STM32F4xx_HAL_Driver/Src/stm32f4xx_hal_flash.c **** {
 158:Libraries/STM32F4xx_HAL_Driver/Src/stm32f4xx_hal_flash.c ****   HAL_StatusTypeDef status = HAL_ERROR;
 159:Libraries/STM32F4xx_HAL_Driver/Src/stm32f4xx_hal_flash.c ****   
 160:Libraries/STM32F4xx_HAL_Driver/Src/stm32f4xx_hal_flash.c ****   /* Process Locked */
 161:Libraries/STM32F4xx_HAL_Driver/Src/stm32f4xx_hal_flash.c ****   __HAL_LOCK(&pFlash);
 162:Libraries/STM32F4xx_HAL_Driver/Src/stm32f4xx_hal_flash.c ****   
 163:Libraries/STM32F4xx_HAL_Driver/Src/stm32f4xx_hal_flash.c ****   /* Check the parameters */
 164:Libraries/STM32F4xx_HAL_Driver/Src/stm32f4xx_hal_flash.c ****   assert_param(IS_FLASH_TYPEPROGRAM(TypeProgram));
 165:Libraries/STM32F4xx_HAL_Driver/Src/stm32f4xx_hal_flash.c ****   
 166:Libraries/STM32F4xx_HAL_Driver/Src/stm32f4xx_hal_flash.c ****   /* Wait for last operation to be completed */
 167:Libraries/STM32F4xx_HAL_Driver/Src/stm32f4xx_hal_flash.c ****   status = FLASH_WaitForLastOperation((uint32_t)FLASH_TIMEOUT_VALUE);
 168:Libraries/STM32F4xx_HAL_Driver/Src/stm32f4xx_hal_flash.c ****   
 169:Libraries/STM32F4xx_HAL_Driver/Src/stm32f4xx_hal_flash.c ****   if(status == HAL_OK)
 170:Libraries/STM32F4xx_HAL_Driver/Src/stm32f4xx_hal_flash.c ****   {
 171:Libraries/STM32F4xx_HAL_Driver/Src/stm32f4xx_hal_flash.c ****     if(TypeProgram == FLASH_TYPEPROGRAM_BYTE)
 172:Libraries/STM32F4xx_HAL_Driver/Src/stm32f4xx_hal_flash.c ****     {
 173:Libraries/STM32F4xx_HAL_Driver/Src/stm32f4xx_hal_flash.c ****       /*Program byte (8-bit) at a specified address.*/
 174:Libraries/STM32F4xx_HAL_Driver/Src/stm32f4xx_hal_flash.c ****       FLASH_Program_Byte(Address, (uint8_t) Data);
 175:Libraries/STM32F4xx_HAL_Driver/Src/stm32f4xx_hal_flash.c ****     }
 176:Libraries/STM32F4xx_HAL_Driver/Src/stm32f4xx_hal_flash.c ****     else if(TypeProgram == FLASH_TYPEPROGRAM_HALFWORD)
 177:Libraries/STM32F4xx_HAL_Driver/Src/stm32f4xx_hal_flash.c ****     {
 178:Libraries/STM32F4xx_HAL_Driver/Src/stm32f4xx_hal_flash.c ****       /*Program halfword (16-bit) at a specified address.*/
 179:Libraries/STM32F4xx_HAL_Driver/Src/stm32f4xx_hal_flash.c ****       FLASH_Program_HalfWord(Address, (uint16_t) Data);
 180:Libraries/STM32F4xx_HAL_Driver/Src/stm32f4xx_hal_flash.c ****     }
 181:Libraries/STM32F4xx_HAL_Driver/Src/stm32f4xx_hal_flash.c ****     else if(TypeProgram == FLASH_TYPEPROGRAM_WORD)
 182:Libraries/STM32F4xx_HAL_Driver/Src/stm32f4xx_hal_flash.c ****     {
 183:Libraries/STM32F4xx_HAL_Driver/Src/stm32f4xx_hal_flash.c ****       /*Program word (32-bit) at a specified address.*/
 184:Libraries/STM32F4xx_HAL_Driver/Src/stm32f4xx_hal_flash.c ****       FLASH_Program_Word(Address, (uint32_t) Data);
 185:Libraries/STM32F4xx_HAL_Driver/Src/stm32f4xx_hal_flash.c ****     }
 186:Libraries/STM32F4xx_HAL_Driver/Src/stm32f4xx_hal_flash.c ****     else
 187:Libraries/STM32F4xx_HAL_Driver/Src/stm32f4xx_hal_flash.c ****     {
 188:Libraries/STM32F4xx_HAL_Driver/Src/stm32f4xx_hal_flash.c ****       /*Program double word (64-bit) at a specified address.*/
 189:Libraries/STM32F4xx_HAL_Driver/Src/stm32f4xx_hal_flash.c ****       FLASH_Program_DoubleWord(Address, Data);
 190:Libraries/STM32F4xx_HAL_Driver/Src/stm32f4xx_hal_flash.c ****     }
 191:Libraries/STM32F4xx_HAL_Driver/Src/stm32f4xx_hal_flash.c ****     
 192:Libraries/STM32F4xx_HAL_Driver/Src/stm32f4xx_hal_flash.c ****     /* Wait for last operation to be completed */
 193:Libraries/STM32F4xx_HAL_Driver/Src/stm32f4xx_hal_flash.c ****     status = FLASH_WaitForLastOperation((uint32_t)FLASH_TIMEOUT_VALUE);
 194:Libraries/STM32F4xx_HAL_Driver/Src/stm32f4xx_hal_flash.c ****     
 195:Libraries/STM32F4xx_HAL_Driver/Src/stm32f4xx_hal_flash.c ****     /* If the program operation is completed, disable the PG Bit */
 196:Libraries/STM32F4xx_HAL_Driver/Src/stm32f4xx_hal_flash.c ****     FLASH->CR &= (~FLASH_CR_PG);  
 197:Libraries/STM32F4xx_HAL_Driver/Src/stm32f4xx_hal_flash.c ****   }
 198:Libraries/STM32F4xx_HAL_Driver/Src/stm32f4xx_hal_flash.c ****   
 199:Libraries/STM32F4xx_HAL_Driver/Src/stm32f4xx_hal_flash.c ****   /* Process Unlocked */
 200:Libraries/STM32F4xx_HAL_Driver/Src/stm32f4xx_hal_flash.c ****   __HAL_UNLOCK(&pFlash);
 201:Libraries/STM32F4xx_HAL_Driver/Src/stm32f4xx_hal_flash.c ****   
 202:Libraries/STM32F4xx_HAL_Driver/Src/stm32f4xx_hal_flash.c ****   return status;
 203:Libraries/STM32F4xx_HAL_Driver/Src/stm32f4xx_hal_flash.c **** }
ARM GAS  C:\Users\yzy\AppData\Local\Temp\ccxXXGiZ.s 			page 5


 204:Libraries/STM32F4xx_HAL_Driver/Src/stm32f4xx_hal_flash.c **** 
 205:Libraries/STM32F4xx_HAL_Driver/Src/stm32f4xx_hal_flash.c **** /**
 206:Libraries/STM32F4xx_HAL_Driver/Src/stm32f4xx_hal_flash.c ****   * @brief   Program byte, halfword, word or double word at a specified address  with interrupt ena
 207:Libraries/STM32F4xx_HAL_Driver/Src/stm32f4xx_hal_flash.c ****   * @param  TypeProgram  Indicate the way to program at a specified address.
 208:Libraries/STM32F4xx_HAL_Driver/Src/stm32f4xx_hal_flash.c ****   *                           This parameter can be a value of @ref FLASH_Type_Program
 209:Libraries/STM32F4xx_HAL_Driver/Src/stm32f4xx_hal_flash.c ****   * @param  Address  specifies the address to be programmed.
 210:Libraries/STM32F4xx_HAL_Driver/Src/stm32f4xx_hal_flash.c ****   * @param  Data specifies the data to be programmed
 211:Libraries/STM32F4xx_HAL_Driver/Src/stm32f4xx_hal_flash.c ****   * 
 212:Libraries/STM32F4xx_HAL_Driver/Src/stm32f4xx_hal_flash.c ****   * @retval HAL Status
 213:Libraries/STM32F4xx_HAL_Driver/Src/stm32f4xx_hal_flash.c ****   */
 214:Libraries/STM32F4xx_HAL_Driver/Src/stm32f4xx_hal_flash.c **** HAL_StatusTypeDef HAL_FLASH_Program_IT(uint32_t TypeProgram, uint32_t Address, uint64_t Data)
 215:Libraries/STM32F4xx_HAL_Driver/Src/stm32f4xx_hal_flash.c **** {
 216:Libraries/STM32F4xx_HAL_Driver/Src/stm32f4xx_hal_flash.c ****   HAL_StatusTypeDef status = HAL_OK;
 217:Libraries/STM32F4xx_HAL_Driver/Src/stm32f4xx_hal_flash.c ****   
 218:Libraries/STM32F4xx_HAL_Driver/Src/stm32f4xx_hal_flash.c ****   /* Process Locked */
 219:Libraries/STM32F4xx_HAL_Driver/Src/stm32f4xx_hal_flash.c ****   __HAL_LOCK(&pFlash);
 220:Libraries/STM32F4xx_HAL_Driver/Src/stm32f4xx_hal_flash.c **** 
 221:Libraries/STM32F4xx_HAL_Driver/Src/stm32f4xx_hal_flash.c ****   /* Check the parameters */
 222:Libraries/STM32F4xx_HAL_Driver/Src/stm32f4xx_hal_flash.c ****   assert_param(IS_FLASH_TYPEPROGRAM(TypeProgram));
 223:Libraries/STM32F4xx_HAL_Driver/Src/stm32f4xx_hal_flash.c **** 
 224:Libraries/STM32F4xx_HAL_Driver/Src/stm32f4xx_hal_flash.c ****   /* Enable End of FLASH Operation interrupt */
 225:Libraries/STM32F4xx_HAL_Driver/Src/stm32f4xx_hal_flash.c ****   __HAL_FLASH_ENABLE_IT(FLASH_IT_EOP);
 226:Libraries/STM32F4xx_HAL_Driver/Src/stm32f4xx_hal_flash.c ****   
 227:Libraries/STM32F4xx_HAL_Driver/Src/stm32f4xx_hal_flash.c ****   /* Enable Error source interrupt */
 228:Libraries/STM32F4xx_HAL_Driver/Src/stm32f4xx_hal_flash.c ****   __HAL_FLASH_ENABLE_IT(FLASH_IT_ERR);
 229:Libraries/STM32F4xx_HAL_Driver/Src/stm32f4xx_hal_flash.c **** 
 230:Libraries/STM32F4xx_HAL_Driver/Src/stm32f4xx_hal_flash.c ****   pFlash.ProcedureOnGoing = FLASH_PROC_PROGRAM;
 231:Libraries/STM32F4xx_HAL_Driver/Src/stm32f4xx_hal_flash.c ****   pFlash.Address = Address;
 232:Libraries/STM32F4xx_HAL_Driver/Src/stm32f4xx_hal_flash.c **** 
 233:Libraries/STM32F4xx_HAL_Driver/Src/stm32f4xx_hal_flash.c ****   if(TypeProgram == FLASH_TYPEPROGRAM_BYTE)
 234:Libraries/STM32F4xx_HAL_Driver/Src/stm32f4xx_hal_flash.c ****   {
 235:Libraries/STM32F4xx_HAL_Driver/Src/stm32f4xx_hal_flash.c ****     /*Program byte (8-bit) at a specified address.*/
 236:Libraries/STM32F4xx_HAL_Driver/Src/stm32f4xx_hal_flash.c ****       FLASH_Program_Byte(Address, (uint8_t) Data);
 237:Libraries/STM32F4xx_HAL_Driver/Src/stm32f4xx_hal_flash.c ****   }
 238:Libraries/STM32F4xx_HAL_Driver/Src/stm32f4xx_hal_flash.c ****   else if(TypeProgram == FLASH_TYPEPROGRAM_HALFWORD)
 239:Libraries/STM32F4xx_HAL_Driver/Src/stm32f4xx_hal_flash.c ****   {
 240:Libraries/STM32F4xx_HAL_Driver/Src/stm32f4xx_hal_flash.c ****     /*Program halfword (16-bit) at a specified address.*/
 241:Libraries/STM32F4xx_HAL_Driver/Src/stm32f4xx_hal_flash.c ****     FLASH_Program_HalfWord(Address, (uint16_t) Data);
 242:Libraries/STM32F4xx_HAL_Driver/Src/stm32f4xx_hal_flash.c ****   }
 243:Libraries/STM32F4xx_HAL_Driver/Src/stm32f4xx_hal_flash.c ****   else if(TypeProgram == FLASH_TYPEPROGRAM_WORD)
 244:Libraries/STM32F4xx_HAL_Driver/Src/stm32f4xx_hal_flash.c ****   {
 245:Libraries/STM32F4xx_HAL_Driver/Src/stm32f4xx_hal_flash.c ****     /*Program word (32-bit) at a specified address.*/
 246:Libraries/STM32F4xx_HAL_Driver/Src/stm32f4xx_hal_flash.c ****     FLASH_Program_Word(Address, (uint32_t) Data);
 247:Libraries/STM32F4xx_HAL_Driver/Src/stm32f4xx_hal_flash.c ****   }
 248:Libraries/STM32F4xx_HAL_Driver/Src/stm32f4xx_hal_flash.c ****   else
 249:Libraries/STM32F4xx_HAL_Driver/Src/stm32f4xx_hal_flash.c ****   {
 250:Libraries/STM32F4xx_HAL_Driver/Src/stm32f4xx_hal_flash.c ****     /*Program double word (64-bit) at a specified address.*/
 251:Libraries/STM32F4xx_HAL_Driver/Src/stm32f4xx_hal_flash.c ****     FLASH_Program_DoubleWord(Address, Data);
 252:Libraries/STM32F4xx_HAL_Driver/Src/stm32f4xx_hal_flash.c ****   }
 253:Libraries/STM32F4xx_HAL_Driver/Src/stm32f4xx_hal_flash.c **** 
 254:Libraries/STM32F4xx_HAL_Driver/Src/stm32f4xx_hal_flash.c ****   return status;
 255:Libraries/STM32F4xx_HAL_Driver/Src/stm32f4xx_hal_flash.c **** }
 256:Libraries/STM32F4xx_HAL_Driver/Src/stm32f4xx_hal_flash.c **** 
 257:Libraries/STM32F4xx_HAL_Driver/Src/stm32f4xx_hal_flash.c **** /**
 258:Libraries/STM32F4xx_HAL_Driver/Src/stm32f4xx_hal_flash.c ****   * @brief This function handles FLASH interrupt request.
 259:Libraries/STM32F4xx_HAL_Driver/Src/stm32f4xx_hal_flash.c ****   * @retval None
 260:Libraries/STM32F4xx_HAL_Driver/Src/stm32f4xx_hal_flash.c ****   */
ARM GAS  C:\Users\yzy\AppData\Local\Temp\ccxXXGiZ.s 			page 6


 261:Libraries/STM32F4xx_HAL_Driver/Src/stm32f4xx_hal_flash.c **** void HAL_FLASH_IRQHandler(void)
 262:Libraries/STM32F4xx_HAL_Driver/Src/stm32f4xx_hal_flash.c **** {
 263:Libraries/STM32F4xx_HAL_Driver/Src/stm32f4xx_hal_flash.c ****   uint32_t addresstmp = 0U;
 264:Libraries/STM32F4xx_HAL_Driver/Src/stm32f4xx_hal_flash.c ****   
 265:Libraries/STM32F4xx_HAL_Driver/Src/stm32f4xx_hal_flash.c ****   /* Check FLASH operation error flags */
 266:Libraries/STM32F4xx_HAL_Driver/Src/stm32f4xx_hal_flash.c **** #if defined(FLASH_SR_RDERR) 
 267:Libraries/STM32F4xx_HAL_Driver/Src/stm32f4xx_hal_flash.c ****   if(__HAL_FLASH_GET_FLAG((FLASH_FLAG_OPERR | FLASH_FLAG_WRPERR | FLASH_FLAG_PGAERR | \
 268:Libraries/STM32F4xx_HAL_Driver/Src/stm32f4xx_hal_flash.c ****     FLASH_FLAG_PGPERR | FLASH_FLAG_PGSERR | FLASH_FLAG_RDERR)) != RESET)
 269:Libraries/STM32F4xx_HAL_Driver/Src/stm32f4xx_hal_flash.c **** #else
 270:Libraries/STM32F4xx_HAL_Driver/Src/stm32f4xx_hal_flash.c ****   if(__HAL_FLASH_GET_FLAG((FLASH_FLAG_OPERR | FLASH_FLAG_WRPERR | FLASH_FLAG_PGAERR | \
 271:Libraries/STM32F4xx_HAL_Driver/Src/stm32f4xx_hal_flash.c ****     FLASH_FLAG_PGPERR | FLASH_FLAG_PGSERR)) != RESET)
 272:Libraries/STM32F4xx_HAL_Driver/Src/stm32f4xx_hal_flash.c **** #endif /* FLASH_SR_RDERR */
 273:Libraries/STM32F4xx_HAL_Driver/Src/stm32f4xx_hal_flash.c ****   {
 274:Libraries/STM32F4xx_HAL_Driver/Src/stm32f4xx_hal_flash.c ****     if(pFlash.ProcedureOnGoing == FLASH_PROC_SECTERASE)
 275:Libraries/STM32F4xx_HAL_Driver/Src/stm32f4xx_hal_flash.c ****     {
 276:Libraries/STM32F4xx_HAL_Driver/Src/stm32f4xx_hal_flash.c ****       /*return the faulty sector*/
 277:Libraries/STM32F4xx_HAL_Driver/Src/stm32f4xx_hal_flash.c ****       addresstmp = pFlash.Sector;
 278:Libraries/STM32F4xx_HAL_Driver/Src/stm32f4xx_hal_flash.c ****       pFlash.Sector = 0xFFFFFFFFU;
 279:Libraries/STM32F4xx_HAL_Driver/Src/stm32f4xx_hal_flash.c ****     }
 280:Libraries/STM32F4xx_HAL_Driver/Src/stm32f4xx_hal_flash.c ****     else if(pFlash.ProcedureOnGoing == FLASH_PROC_MASSERASE)
 281:Libraries/STM32F4xx_HAL_Driver/Src/stm32f4xx_hal_flash.c ****     {
 282:Libraries/STM32F4xx_HAL_Driver/Src/stm32f4xx_hal_flash.c ****       /*return the faulty bank*/
 283:Libraries/STM32F4xx_HAL_Driver/Src/stm32f4xx_hal_flash.c ****       addresstmp = pFlash.Bank;
 284:Libraries/STM32F4xx_HAL_Driver/Src/stm32f4xx_hal_flash.c ****     }
 285:Libraries/STM32F4xx_HAL_Driver/Src/stm32f4xx_hal_flash.c ****     else
 286:Libraries/STM32F4xx_HAL_Driver/Src/stm32f4xx_hal_flash.c ****     {
 287:Libraries/STM32F4xx_HAL_Driver/Src/stm32f4xx_hal_flash.c ****       /*return the faulty address*/
 288:Libraries/STM32F4xx_HAL_Driver/Src/stm32f4xx_hal_flash.c ****       addresstmp = pFlash.Address;
 289:Libraries/STM32F4xx_HAL_Driver/Src/stm32f4xx_hal_flash.c ****     }
 290:Libraries/STM32F4xx_HAL_Driver/Src/stm32f4xx_hal_flash.c ****     
 291:Libraries/STM32F4xx_HAL_Driver/Src/stm32f4xx_hal_flash.c ****     /*Save the Error code*/
 292:Libraries/STM32F4xx_HAL_Driver/Src/stm32f4xx_hal_flash.c ****     FLASH_SetErrorCode();
 293:Libraries/STM32F4xx_HAL_Driver/Src/stm32f4xx_hal_flash.c ****     
 294:Libraries/STM32F4xx_HAL_Driver/Src/stm32f4xx_hal_flash.c ****     /* FLASH error interrupt user callback */
 295:Libraries/STM32F4xx_HAL_Driver/Src/stm32f4xx_hal_flash.c ****     HAL_FLASH_OperationErrorCallback(addresstmp);
 296:Libraries/STM32F4xx_HAL_Driver/Src/stm32f4xx_hal_flash.c ****     
 297:Libraries/STM32F4xx_HAL_Driver/Src/stm32f4xx_hal_flash.c ****     /*Stop the procedure ongoing*/
 298:Libraries/STM32F4xx_HAL_Driver/Src/stm32f4xx_hal_flash.c ****     pFlash.ProcedureOnGoing = FLASH_PROC_NONE;
 299:Libraries/STM32F4xx_HAL_Driver/Src/stm32f4xx_hal_flash.c ****   }
 300:Libraries/STM32F4xx_HAL_Driver/Src/stm32f4xx_hal_flash.c ****   
 301:Libraries/STM32F4xx_HAL_Driver/Src/stm32f4xx_hal_flash.c ****   /* Check FLASH End of Operation flag  */
 302:Libraries/STM32F4xx_HAL_Driver/Src/stm32f4xx_hal_flash.c ****   if(__HAL_FLASH_GET_FLAG(FLASH_FLAG_EOP) != RESET)
 303:Libraries/STM32F4xx_HAL_Driver/Src/stm32f4xx_hal_flash.c ****   {
 304:Libraries/STM32F4xx_HAL_Driver/Src/stm32f4xx_hal_flash.c ****     /* Clear FLASH End of Operation pending bit */
 305:Libraries/STM32F4xx_HAL_Driver/Src/stm32f4xx_hal_flash.c ****     __HAL_FLASH_CLEAR_FLAG(FLASH_FLAG_EOP);
 306:Libraries/STM32F4xx_HAL_Driver/Src/stm32f4xx_hal_flash.c ****     
 307:Libraries/STM32F4xx_HAL_Driver/Src/stm32f4xx_hal_flash.c ****     if(pFlash.ProcedureOnGoing == FLASH_PROC_SECTERASE)
 308:Libraries/STM32F4xx_HAL_Driver/Src/stm32f4xx_hal_flash.c ****     {
 309:Libraries/STM32F4xx_HAL_Driver/Src/stm32f4xx_hal_flash.c ****       /*Nb of sector to erased can be decreased*/
 310:Libraries/STM32F4xx_HAL_Driver/Src/stm32f4xx_hal_flash.c ****       pFlash.NbSectorsToErase--;
 311:Libraries/STM32F4xx_HAL_Driver/Src/stm32f4xx_hal_flash.c ****       
 312:Libraries/STM32F4xx_HAL_Driver/Src/stm32f4xx_hal_flash.c ****       /* Check if there are still sectors to erase*/
 313:Libraries/STM32F4xx_HAL_Driver/Src/stm32f4xx_hal_flash.c ****       if(pFlash.NbSectorsToErase != 0U)
 314:Libraries/STM32F4xx_HAL_Driver/Src/stm32f4xx_hal_flash.c ****       {
 315:Libraries/STM32F4xx_HAL_Driver/Src/stm32f4xx_hal_flash.c ****         addresstmp = pFlash.Sector;
 316:Libraries/STM32F4xx_HAL_Driver/Src/stm32f4xx_hal_flash.c ****         /*Indicate user which sector has been erased*/
 317:Libraries/STM32F4xx_HAL_Driver/Src/stm32f4xx_hal_flash.c ****         HAL_FLASH_EndOfOperationCallback(addresstmp);
ARM GAS  C:\Users\yzy\AppData\Local\Temp\ccxXXGiZ.s 			page 7


 318:Libraries/STM32F4xx_HAL_Driver/Src/stm32f4xx_hal_flash.c ****         
 319:Libraries/STM32F4xx_HAL_Driver/Src/stm32f4xx_hal_flash.c ****         /*Increment sector number*/
 320:Libraries/STM32F4xx_HAL_Driver/Src/stm32f4xx_hal_flash.c ****         pFlash.Sector++;
 321:Libraries/STM32F4xx_HAL_Driver/Src/stm32f4xx_hal_flash.c ****         addresstmp = pFlash.Sector;
 322:Libraries/STM32F4xx_HAL_Driver/Src/stm32f4xx_hal_flash.c ****         FLASH_Erase_Sector(addresstmp, pFlash.VoltageForErase);
 323:Libraries/STM32F4xx_HAL_Driver/Src/stm32f4xx_hal_flash.c ****       }
 324:Libraries/STM32F4xx_HAL_Driver/Src/stm32f4xx_hal_flash.c ****       else
 325:Libraries/STM32F4xx_HAL_Driver/Src/stm32f4xx_hal_flash.c ****       {
 326:Libraries/STM32F4xx_HAL_Driver/Src/stm32f4xx_hal_flash.c ****         /*No more sectors to Erase, user callback can be called.*/
 327:Libraries/STM32F4xx_HAL_Driver/Src/stm32f4xx_hal_flash.c ****         /*Reset Sector and stop Erase sectors procedure*/
 328:Libraries/STM32F4xx_HAL_Driver/Src/stm32f4xx_hal_flash.c ****         pFlash.Sector = addresstmp = 0xFFFFFFFFU;
 329:Libraries/STM32F4xx_HAL_Driver/Src/stm32f4xx_hal_flash.c ****         pFlash.ProcedureOnGoing = FLASH_PROC_NONE;
 330:Libraries/STM32F4xx_HAL_Driver/Src/stm32f4xx_hal_flash.c ****         
 331:Libraries/STM32F4xx_HAL_Driver/Src/stm32f4xx_hal_flash.c ****         /* Flush the caches to be sure of the data consistency */
 332:Libraries/STM32F4xx_HAL_Driver/Src/stm32f4xx_hal_flash.c ****         FLASH_FlushCaches() ;
 333:Libraries/STM32F4xx_HAL_Driver/Src/stm32f4xx_hal_flash.c ****                 
 334:Libraries/STM32F4xx_HAL_Driver/Src/stm32f4xx_hal_flash.c ****         /* FLASH EOP interrupt user callback */
 335:Libraries/STM32F4xx_HAL_Driver/Src/stm32f4xx_hal_flash.c ****         HAL_FLASH_EndOfOperationCallback(addresstmp);
 336:Libraries/STM32F4xx_HAL_Driver/Src/stm32f4xx_hal_flash.c ****       }
 337:Libraries/STM32F4xx_HAL_Driver/Src/stm32f4xx_hal_flash.c ****     }
 338:Libraries/STM32F4xx_HAL_Driver/Src/stm32f4xx_hal_flash.c ****     else 
 339:Libraries/STM32F4xx_HAL_Driver/Src/stm32f4xx_hal_flash.c ****     {
 340:Libraries/STM32F4xx_HAL_Driver/Src/stm32f4xx_hal_flash.c ****       if(pFlash.ProcedureOnGoing == FLASH_PROC_MASSERASE) 
 341:Libraries/STM32F4xx_HAL_Driver/Src/stm32f4xx_hal_flash.c ****       {
 342:Libraries/STM32F4xx_HAL_Driver/Src/stm32f4xx_hal_flash.c ****         /* MassErase ended. Return the selected bank */
 343:Libraries/STM32F4xx_HAL_Driver/Src/stm32f4xx_hal_flash.c ****         /* Flush the caches to be sure of the data consistency */
 344:Libraries/STM32F4xx_HAL_Driver/Src/stm32f4xx_hal_flash.c ****         FLASH_FlushCaches() ;
 345:Libraries/STM32F4xx_HAL_Driver/Src/stm32f4xx_hal_flash.c **** 
 346:Libraries/STM32F4xx_HAL_Driver/Src/stm32f4xx_hal_flash.c ****         /* FLASH EOP interrupt user callback */
 347:Libraries/STM32F4xx_HAL_Driver/Src/stm32f4xx_hal_flash.c ****         HAL_FLASH_EndOfOperationCallback(pFlash.Bank);
 348:Libraries/STM32F4xx_HAL_Driver/Src/stm32f4xx_hal_flash.c ****       }
 349:Libraries/STM32F4xx_HAL_Driver/Src/stm32f4xx_hal_flash.c ****       else
 350:Libraries/STM32F4xx_HAL_Driver/Src/stm32f4xx_hal_flash.c ****       {
 351:Libraries/STM32F4xx_HAL_Driver/Src/stm32f4xx_hal_flash.c ****         /*Program ended. Return the selected address*/
 352:Libraries/STM32F4xx_HAL_Driver/Src/stm32f4xx_hal_flash.c ****         /* FLASH EOP interrupt user callback */
 353:Libraries/STM32F4xx_HAL_Driver/Src/stm32f4xx_hal_flash.c ****         HAL_FLASH_EndOfOperationCallback(pFlash.Address);
 354:Libraries/STM32F4xx_HAL_Driver/Src/stm32f4xx_hal_flash.c ****       }
 355:Libraries/STM32F4xx_HAL_Driver/Src/stm32f4xx_hal_flash.c ****       pFlash.ProcedureOnGoing = FLASH_PROC_NONE;
 356:Libraries/STM32F4xx_HAL_Driver/Src/stm32f4xx_hal_flash.c ****     }
 357:Libraries/STM32F4xx_HAL_Driver/Src/stm32f4xx_hal_flash.c ****   }
 358:Libraries/STM32F4xx_HAL_Driver/Src/stm32f4xx_hal_flash.c ****   
 359:Libraries/STM32F4xx_HAL_Driver/Src/stm32f4xx_hal_flash.c ****   if(pFlash.ProcedureOnGoing == FLASH_PROC_NONE)
 360:Libraries/STM32F4xx_HAL_Driver/Src/stm32f4xx_hal_flash.c ****   {
 361:Libraries/STM32F4xx_HAL_Driver/Src/stm32f4xx_hal_flash.c ****     /* Operation is completed, disable the PG, SER, SNB and MER Bits */
 362:Libraries/STM32F4xx_HAL_Driver/Src/stm32f4xx_hal_flash.c ****     CLEAR_BIT(FLASH->CR, (FLASH_CR_PG | FLASH_CR_SER | FLASH_CR_SNB | FLASH_MER_BIT));
 363:Libraries/STM32F4xx_HAL_Driver/Src/stm32f4xx_hal_flash.c **** 
 364:Libraries/STM32F4xx_HAL_Driver/Src/stm32f4xx_hal_flash.c ****     /* Disable End of FLASH Operation interrupt */
 365:Libraries/STM32F4xx_HAL_Driver/Src/stm32f4xx_hal_flash.c ****     __HAL_FLASH_DISABLE_IT(FLASH_IT_EOP);
 366:Libraries/STM32F4xx_HAL_Driver/Src/stm32f4xx_hal_flash.c ****     
 367:Libraries/STM32F4xx_HAL_Driver/Src/stm32f4xx_hal_flash.c ****     /* Disable Error source interrupt */
 368:Libraries/STM32F4xx_HAL_Driver/Src/stm32f4xx_hal_flash.c ****     __HAL_FLASH_DISABLE_IT(FLASH_IT_ERR);
 369:Libraries/STM32F4xx_HAL_Driver/Src/stm32f4xx_hal_flash.c ****     
 370:Libraries/STM32F4xx_HAL_Driver/Src/stm32f4xx_hal_flash.c ****     /* Process Unlocked */
 371:Libraries/STM32F4xx_HAL_Driver/Src/stm32f4xx_hal_flash.c ****     __HAL_UNLOCK(&pFlash);
 372:Libraries/STM32F4xx_HAL_Driver/Src/stm32f4xx_hal_flash.c ****   }
 373:Libraries/STM32F4xx_HAL_Driver/Src/stm32f4xx_hal_flash.c **** }
 374:Libraries/STM32F4xx_HAL_Driver/Src/stm32f4xx_hal_flash.c **** 
ARM GAS  C:\Users\yzy\AppData\Local\Temp\ccxXXGiZ.s 			page 8


 375:Libraries/STM32F4xx_HAL_Driver/Src/stm32f4xx_hal_flash.c **** /**
 376:Libraries/STM32F4xx_HAL_Driver/Src/stm32f4xx_hal_flash.c ****   * @brief  FLASH end of operation interrupt callback
 377:Libraries/STM32F4xx_HAL_Driver/Src/stm32f4xx_hal_flash.c ****   * @param  ReturnValue The value saved in this parameter depends on the ongoing procedure
 378:Libraries/STM32F4xx_HAL_Driver/Src/stm32f4xx_hal_flash.c ****   *                  Mass Erase: Bank number which has been requested to erase
 379:Libraries/STM32F4xx_HAL_Driver/Src/stm32f4xx_hal_flash.c ****   *                  Sectors Erase: Sector which has been erased 
 380:Libraries/STM32F4xx_HAL_Driver/Src/stm32f4xx_hal_flash.c ****   *                    (if 0xFFFFFFFFU, it means that all the selected sectors have been erased)
 381:Libraries/STM32F4xx_HAL_Driver/Src/stm32f4xx_hal_flash.c ****   *                  Program: Address which was selected for data program
 382:Libraries/STM32F4xx_HAL_Driver/Src/stm32f4xx_hal_flash.c ****   * @retval None
 383:Libraries/STM32F4xx_HAL_Driver/Src/stm32f4xx_hal_flash.c ****   */
 384:Libraries/STM32F4xx_HAL_Driver/Src/stm32f4xx_hal_flash.c **** __weak void HAL_FLASH_EndOfOperationCallback(uint32_t ReturnValue)
 385:Libraries/STM32F4xx_HAL_Driver/Src/stm32f4xx_hal_flash.c **** {
 386:Libraries/STM32F4xx_HAL_Driver/Src/stm32f4xx_hal_flash.c ****   /* Prevent unused argument(s) compilation warning */
 387:Libraries/STM32F4xx_HAL_Driver/Src/stm32f4xx_hal_flash.c ****   UNUSED(ReturnValue);
 388:Libraries/STM32F4xx_HAL_Driver/Src/stm32f4xx_hal_flash.c ****   /* NOTE : This function Should not be modified, when the callback is needed,
 389:Libraries/STM32F4xx_HAL_Driver/Src/stm32f4xx_hal_flash.c ****             the HAL_FLASH_EndOfOperationCallback could be implemented in the user file
 390:Libraries/STM32F4xx_HAL_Driver/Src/stm32f4xx_hal_flash.c ****    */ 
 391:Libraries/STM32F4xx_HAL_Driver/Src/stm32f4xx_hal_flash.c **** }
 392:Libraries/STM32F4xx_HAL_Driver/Src/stm32f4xx_hal_flash.c **** 
 393:Libraries/STM32F4xx_HAL_Driver/Src/stm32f4xx_hal_flash.c **** /**
 394:Libraries/STM32F4xx_HAL_Driver/Src/stm32f4xx_hal_flash.c ****   * @brief  FLASH operation error interrupt callback
 395:Libraries/STM32F4xx_HAL_Driver/Src/stm32f4xx_hal_flash.c ****   * @param  ReturnValue The value saved in this parameter depends on the ongoing procedure
 396:Libraries/STM32F4xx_HAL_Driver/Src/stm32f4xx_hal_flash.c ****   *                 Mass Erase: Bank number which has been requested to erase
 397:Libraries/STM32F4xx_HAL_Driver/Src/stm32f4xx_hal_flash.c ****   *                 Sectors Erase: Sector number which returned an error
 398:Libraries/STM32F4xx_HAL_Driver/Src/stm32f4xx_hal_flash.c ****   *                 Program: Address which was selected for data program
 399:Libraries/STM32F4xx_HAL_Driver/Src/stm32f4xx_hal_flash.c ****   * @retval None
 400:Libraries/STM32F4xx_HAL_Driver/Src/stm32f4xx_hal_flash.c ****   */
 401:Libraries/STM32F4xx_HAL_Driver/Src/stm32f4xx_hal_flash.c **** __weak void HAL_FLASH_OperationErrorCallback(uint32_t ReturnValue)
 402:Libraries/STM32F4xx_HAL_Driver/Src/stm32f4xx_hal_flash.c **** {
 403:Libraries/STM32F4xx_HAL_Driver/Src/stm32f4xx_hal_flash.c ****   /* Prevent unused argument(s) compilation warning */
 404:Libraries/STM32F4xx_HAL_Driver/Src/stm32f4xx_hal_flash.c ****   UNUSED(ReturnValue);
 405:Libraries/STM32F4xx_HAL_Driver/Src/stm32f4xx_hal_flash.c ****   /* NOTE : This function Should not be modified, when the callback is needed,
 406:Libraries/STM32F4xx_HAL_Driver/Src/stm32f4xx_hal_flash.c ****             the HAL_FLASH_OperationErrorCallback could be implemented in the user file
 407:Libraries/STM32F4xx_HAL_Driver/Src/stm32f4xx_hal_flash.c ****    */ 
 408:Libraries/STM32F4xx_HAL_Driver/Src/stm32f4xx_hal_flash.c **** }
 409:Libraries/STM32F4xx_HAL_Driver/Src/stm32f4xx_hal_flash.c **** 
 410:Libraries/STM32F4xx_HAL_Driver/Src/stm32f4xx_hal_flash.c **** /**
 411:Libraries/STM32F4xx_HAL_Driver/Src/stm32f4xx_hal_flash.c ****   * @}
 412:Libraries/STM32F4xx_HAL_Driver/Src/stm32f4xx_hal_flash.c ****   */
 413:Libraries/STM32F4xx_HAL_Driver/Src/stm32f4xx_hal_flash.c **** 
 414:Libraries/STM32F4xx_HAL_Driver/Src/stm32f4xx_hal_flash.c **** /** @defgroup FLASH_Exported_Functions_Group2 Peripheral Control functions 
 415:Libraries/STM32F4xx_HAL_Driver/Src/stm32f4xx_hal_flash.c ****  *  @brief   management functions 
 416:Libraries/STM32F4xx_HAL_Driver/Src/stm32f4xx_hal_flash.c ****  *
 417:Libraries/STM32F4xx_HAL_Driver/Src/stm32f4xx_hal_flash.c **** @verbatim   
 418:Libraries/STM32F4xx_HAL_Driver/Src/stm32f4xx_hal_flash.c ****  ===============================================================================
 419:Libraries/STM32F4xx_HAL_Driver/Src/stm32f4xx_hal_flash.c ****                       ##### Peripheral Control functions #####
 420:Libraries/STM32F4xx_HAL_Driver/Src/stm32f4xx_hal_flash.c ****  ===============================================================================  
 421:Libraries/STM32F4xx_HAL_Driver/Src/stm32f4xx_hal_flash.c ****     [..]
 422:Libraries/STM32F4xx_HAL_Driver/Src/stm32f4xx_hal_flash.c ****     This subsection provides a set of functions allowing to control the FLASH 
 423:Libraries/STM32F4xx_HAL_Driver/Src/stm32f4xx_hal_flash.c ****     memory operations.
 424:Libraries/STM32F4xx_HAL_Driver/Src/stm32f4xx_hal_flash.c **** 
 425:Libraries/STM32F4xx_HAL_Driver/Src/stm32f4xx_hal_flash.c **** @endverbatim
 426:Libraries/STM32F4xx_HAL_Driver/Src/stm32f4xx_hal_flash.c ****   * @{
 427:Libraries/STM32F4xx_HAL_Driver/Src/stm32f4xx_hal_flash.c ****   */
 428:Libraries/STM32F4xx_HAL_Driver/Src/stm32f4xx_hal_flash.c **** 
 429:Libraries/STM32F4xx_HAL_Driver/Src/stm32f4xx_hal_flash.c **** /**
 430:Libraries/STM32F4xx_HAL_Driver/Src/stm32f4xx_hal_flash.c ****   * @brief  Unlock the FLASH control register access
 431:Libraries/STM32F4xx_HAL_Driver/Src/stm32f4xx_hal_flash.c ****   * @retval HAL Status
ARM GAS  C:\Users\yzy\AppData\Local\Temp\ccxXXGiZ.s 			page 9


 432:Libraries/STM32F4xx_HAL_Driver/Src/stm32f4xx_hal_flash.c ****   */
 433:Libraries/STM32F4xx_HAL_Driver/Src/stm32f4xx_hal_flash.c **** HAL_StatusTypeDef HAL_FLASH_Unlock(void)
 434:Libraries/STM32F4xx_HAL_Driver/Src/stm32f4xx_hal_flash.c **** {
 435:Libraries/STM32F4xx_HAL_Driver/Src/stm32f4xx_hal_flash.c ****   HAL_StatusTypeDef status = HAL_OK;
 436:Libraries/STM32F4xx_HAL_Driver/Src/stm32f4xx_hal_flash.c **** 
 437:Libraries/STM32F4xx_HAL_Driver/Src/stm32f4xx_hal_flash.c ****   if(READ_BIT(FLASH->CR, FLASH_CR_LOCK) != RESET)
 438:Libraries/STM32F4xx_HAL_Driver/Src/stm32f4xx_hal_flash.c ****   {
 439:Libraries/STM32F4xx_HAL_Driver/Src/stm32f4xx_hal_flash.c ****     /* Authorize the FLASH Registers access */
 440:Libraries/STM32F4xx_HAL_Driver/Src/stm32f4xx_hal_flash.c ****     WRITE_REG(FLASH->KEYR, FLASH_KEY1);
 441:Libraries/STM32F4xx_HAL_Driver/Src/stm32f4xx_hal_flash.c ****     WRITE_REG(FLASH->KEYR, FLASH_KEY2);
 442:Libraries/STM32F4xx_HAL_Driver/Src/stm32f4xx_hal_flash.c **** 
 443:Libraries/STM32F4xx_HAL_Driver/Src/stm32f4xx_hal_flash.c ****     /* Verify Flash is unlocked */
 444:Libraries/STM32F4xx_HAL_Driver/Src/stm32f4xx_hal_flash.c ****     if(READ_BIT(FLASH->CR, FLASH_CR_LOCK) != RESET)
 445:Libraries/STM32F4xx_HAL_Driver/Src/stm32f4xx_hal_flash.c ****     {
 446:Libraries/STM32F4xx_HAL_Driver/Src/stm32f4xx_hal_flash.c ****       status = HAL_ERROR;
 447:Libraries/STM32F4xx_HAL_Driver/Src/stm32f4xx_hal_flash.c ****     }
 448:Libraries/STM32F4xx_HAL_Driver/Src/stm32f4xx_hal_flash.c ****   }
 449:Libraries/STM32F4xx_HAL_Driver/Src/stm32f4xx_hal_flash.c **** 
 450:Libraries/STM32F4xx_HAL_Driver/Src/stm32f4xx_hal_flash.c ****   return status;
 451:Libraries/STM32F4xx_HAL_Driver/Src/stm32f4xx_hal_flash.c **** }
 452:Libraries/STM32F4xx_HAL_Driver/Src/stm32f4xx_hal_flash.c **** 
 453:Libraries/STM32F4xx_HAL_Driver/Src/stm32f4xx_hal_flash.c **** /**
 454:Libraries/STM32F4xx_HAL_Driver/Src/stm32f4xx_hal_flash.c ****   * @brief  Locks the FLASH control register access
 455:Libraries/STM32F4xx_HAL_Driver/Src/stm32f4xx_hal_flash.c ****   * @retval HAL Status
 456:Libraries/STM32F4xx_HAL_Driver/Src/stm32f4xx_hal_flash.c ****   */
 457:Libraries/STM32F4xx_HAL_Driver/Src/stm32f4xx_hal_flash.c **** HAL_StatusTypeDef HAL_FLASH_Lock(void)
 458:Libraries/STM32F4xx_HAL_Driver/Src/stm32f4xx_hal_flash.c **** {
 459:Libraries/STM32F4xx_HAL_Driver/Src/stm32f4xx_hal_flash.c ****   /* Set the LOCK Bit to lock the FLASH Registers access */
 460:Libraries/STM32F4xx_HAL_Driver/Src/stm32f4xx_hal_flash.c ****   FLASH->CR |= FLASH_CR_LOCK;
 461:Libraries/STM32F4xx_HAL_Driver/Src/stm32f4xx_hal_flash.c ****   
 462:Libraries/STM32F4xx_HAL_Driver/Src/stm32f4xx_hal_flash.c ****   return HAL_OK;  
 463:Libraries/STM32F4xx_HAL_Driver/Src/stm32f4xx_hal_flash.c **** }
 464:Libraries/STM32F4xx_HAL_Driver/Src/stm32f4xx_hal_flash.c **** 
 465:Libraries/STM32F4xx_HAL_Driver/Src/stm32f4xx_hal_flash.c **** /**
 466:Libraries/STM32F4xx_HAL_Driver/Src/stm32f4xx_hal_flash.c ****   * @brief  Unlock the FLASH Option Control Registers access.
 467:Libraries/STM32F4xx_HAL_Driver/Src/stm32f4xx_hal_flash.c ****   * @retval HAL Status
 468:Libraries/STM32F4xx_HAL_Driver/Src/stm32f4xx_hal_flash.c ****   */
 469:Libraries/STM32F4xx_HAL_Driver/Src/stm32f4xx_hal_flash.c **** HAL_StatusTypeDef HAL_FLASH_OB_Unlock(void)
 470:Libraries/STM32F4xx_HAL_Driver/Src/stm32f4xx_hal_flash.c **** {
 471:Libraries/STM32F4xx_HAL_Driver/Src/stm32f4xx_hal_flash.c ****   if((FLASH->OPTCR & FLASH_OPTCR_OPTLOCK) != RESET)
 472:Libraries/STM32F4xx_HAL_Driver/Src/stm32f4xx_hal_flash.c ****   {
 473:Libraries/STM32F4xx_HAL_Driver/Src/stm32f4xx_hal_flash.c ****     /* Authorizes the Option Byte register programming */
 474:Libraries/STM32F4xx_HAL_Driver/Src/stm32f4xx_hal_flash.c ****     FLASH->OPTKEYR = FLASH_OPT_KEY1;
 475:Libraries/STM32F4xx_HAL_Driver/Src/stm32f4xx_hal_flash.c ****     FLASH->OPTKEYR = FLASH_OPT_KEY2;
 476:Libraries/STM32F4xx_HAL_Driver/Src/stm32f4xx_hal_flash.c ****   }
 477:Libraries/STM32F4xx_HAL_Driver/Src/stm32f4xx_hal_flash.c ****   else
 478:Libraries/STM32F4xx_HAL_Driver/Src/stm32f4xx_hal_flash.c ****   {
 479:Libraries/STM32F4xx_HAL_Driver/Src/stm32f4xx_hal_flash.c ****     return HAL_ERROR;
 480:Libraries/STM32F4xx_HAL_Driver/Src/stm32f4xx_hal_flash.c ****   }  
 481:Libraries/STM32F4xx_HAL_Driver/Src/stm32f4xx_hal_flash.c ****   
 482:Libraries/STM32F4xx_HAL_Driver/Src/stm32f4xx_hal_flash.c ****   return HAL_OK;  
 483:Libraries/STM32F4xx_HAL_Driver/Src/stm32f4xx_hal_flash.c **** }
 484:Libraries/STM32F4xx_HAL_Driver/Src/stm32f4xx_hal_flash.c **** 
 485:Libraries/STM32F4xx_HAL_Driver/Src/stm32f4xx_hal_flash.c **** /**
 486:Libraries/STM32F4xx_HAL_Driver/Src/stm32f4xx_hal_flash.c ****   * @brief  Lock the FLASH Option Control Registers access.
 487:Libraries/STM32F4xx_HAL_Driver/Src/stm32f4xx_hal_flash.c ****   * @retval HAL Status 
 488:Libraries/STM32F4xx_HAL_Driver/Src/stm32f4xx_hal_flash.c ****   */
ARM GAS  C:\Users\yzy\AppData\Local\Temp\ccxXXGiZ.s 			page 10


 489:Libraries/STM32F4xx_HAL_Driver/Src/stm32f4xx_hal_flash.c **** HAL_StatusTypeDef HAL_FLASH_OB_Lock(void)
 490:Libraries/STM32F4xx_HAL_Driver/Src/stm32f4xx_hal_flash.c **** {
 491:Libraries/STM32F4xx_HAL_Driver/Src/stm32f4xx_hal_flash.c ****   /* Set the OPTLOCK Bit to lock the FLASH Option Byte Registers access */
 492:Libraries/STM32F4xx_HAL_Driver/Src/stm32f4xx_hal_flash.c ****   FLASH->OPTCR |= FLASH_OPTCR_OPTLOCK;
 493:Libraries/STM32F4xx_HAL_Driver/Src/stm32f4xx_hal_flash.c ****   
 494:Libraries/STM32F4xx_HAL_Driver/Src/stm32f4xx_hal_flash.c ****   return HAL_OK;  
 495:Libraries/STM32F4xx_HAL_Driver/Src/stm32f4xx_hal_flash.c **** }
 496:Libraries/STM32F4xx_HAL_Driver/Src/stm32f4xx_hal_flash.c **** 
 497:Libraries/STM32F4xx_HAL_Driver/Src/stm32f4xx_hal_flash.c **** /**
 498:Libraries/STM32F4xx_HAL_Driver/Src/stm32f4xx_hal_flash.c ****   * @brief  Launch the option byte loading.
 499:Libraries/STM32F4xx_HAL_Driver/Src/stm32f4xx_hal_flash.c ****   * @retval HAL Status
 500:Libraries/STM32F4xx_HAL_Driver/Src/stm32f4xx_hal_flash.c ****   */
 501:Libraries/STM32F4xx_HAL_Driver/Src/stm32f4xx_hal_flash.c **** HAL_StatusTypeDef HAL_FLASH_OB_Launch(void)
 502:Libraries/STM32F4xx_HAL_Driver/Src/stm32f4xx_hal_flash.c **** {
 503:Libraries/STM32F4xx_HAL_Driver/Src/stm32f4xx_hal_flash.c ****   /* Set the OPTSTRT bit in OPTCR register */
 504:Libraries/STM32F4xx_HAL_Driver/Src/stm32f4xx_hal_flash.c ****   *(__IO uint8_t *)OPTCR_BYTE0_ADDRESS |= FLASH_OPTCR_OPTSTRT;
 505:Libraries/STM32F4xx_HAL_Driver/Src/stm32f4xx_hal_flash.c **** 
 506:Libraries/STM32F4xx_HAL_Driver/Src/stm32f4xx_hal_flash.c ****   /* Wait for last operation to be completed */
 507:Libraries/STM32F4xx_HAL_Driver/Src/stm32f4xx_hal_flash.c ****   return(FLASH_WaitForLastOperation((uint32_t)FLASH_TIMEOUT_VALUE)); 
 508:Libraries/STM32F4xx_HAL_Driver/Src/stm32f4xx_hal_flash.c **** }
 509:Libraries/STM32F4xx_HAL_Driver/Src/stm32f4xx_hal_flash.c **** 
 510:Libraries/STM32F4xx_HAL_Driver/Src/stm32f4xx_hal_flash.c **** /**
 511:Libraries/STM32F4xx_HAL_Driver/Src/stm32f4xx_hal_flash.c ****   * @}
 512:Libraries/STM32F4xx_HAL_Driver/Src/stm32f4xx_hal_flash.c ****   */
 513:Libraries/STM32F4xx_HAL_Driver/Src/stm32f4xx_hal_flash.c **** 
 514:Libraries/STM32F4xx_HAL_Driver/Src/stm32f4xx_hal_flash.c **** /** @defgroup FLASH_Exported_Functions_Group3 Peripheral State and Errors functions 
 515:Libraries/STM32F4xx_HAL_Driver/Src/stm32f4xx_hal_flash.c ****  *  @brief   Peripheral Errors functions 
 516:Libraries/STM32F4xx_HAL_Driver/Src/stm32f4xx_hal_flash.c ****  *
 517:Libraries/STM32F4xx_HAL_Driver/Src/stm32f4xx_hal_flash.c **** @verbatim   
 518:Libraries/STM32F4xx_HAL_Driver/Src/stm32f4xx_hal_flash.c ****  ===============================================================================
 519:Libraries/STM32F4xx_HAL_Driver/Src/stm32f4xx_hal_flash.c ****                 ##### Peripheral Errors functions #####
 520:Libraries/STM32F4xx_HAL_Driver/Src/stm32f4xx_hal_flash.c ****  ===============================================================================  
 521:Libraries/STM32F4xx_HAL_Driver/Src/stm32f4xx_hal_flash.c ****     [..]
 522:Libraries/STM32F4xx_HAL_Driver/Src/stm32f4xx_hal_flash.c ****     This subsection permits to get in run-time Errors of the FLASH peripheral.
 523:Libraries/STM32F4xx_HAL_Driver/Src/stm32f4xx_hal_flash.c **** 
 524:Libraries/STM32F4xx_HAL_Driver/Src/stm32f4xx_hal_flash.c **** @endverbatim
 525:Libraries/STM32F4xx_HAL_Driver/Src/stm32f4xx_hal_flash.c ****   * @{
 526:Libraries/STM32F4xx_HAL_Driver/Src/stm32f4xx_hal_flash.c ****   */
 527:Libraries/STM32F4xx_HAL_Driver/Src/stm32f4xx_hal_flash.c **** 
 528:Libraries/STM32F4xx_HAL_Driver/Src/stm32f4xx_hal_flash.c **** /**
 529:Libraries/STM32F4xx_HAL_Driver/Src/stm32f4xx_hal_flash.c ****   * @brief  Get the specific FLASH error flag.
 530:Libraries/STM32F4xx_HAL_Driver/Src/stm32f4xx_hal_flash.c ****   * @retval FLASH_ErrorCode: The returned value can be a combination of:
 531:Libraries/STM32F4xx_HAL_Driver/Src/stm32f4xx_hal_flash.c ****   *            @arg HAL_FLASH_ERROR_RD: FLASH Read Protection error flag (PCROP)
 532:Libraries/STM32F4xx_HAL_Driver/Src/stm32f4xx_hal_flash.c ****   *            @arg HAL_FLASH_ERROR_PGS: FLASH Programming Sequence error flag 
 533:Libraries/STM32F4xx_HAL_Driver/Src/stm32f4xx_hal_flash.c ****   *            @arg HAL_FLASH_ERROR_PGP: FLASH Programming Parallelism error flag  
 534:Libraries/STM32F4xx_HAL_Driver/Src/stm32f4xx_hal_flash.c ****   *            @arg HAL_FLASH_ERROR_PGA: FLASH Programming Alignment error flag
 535:Libraries/STM32F4xx_HAL_Driver/Src/stm32f4xx_hal_flash.c ****   *            @arg HAL_FLASH_ERROR_WRP: FLASH Write protected error flag
 536:Libraries/STM32F4xx_HAL_Driver/Src/stm32f4xx_hal_flash.c ****   *            @arg HAL_FLASH_ERROR_OPERATION: FLASH operation Error flag 
 537:Libraries/STM32F4xx_HAL_Driver/Src/stm32f4xx_hal_flash.c ****   */
 538:Libraries/STM32F4xx_HAL_Driver/Src/stm32f4xx_hal_flash.c **** uint32_t HAL_FLASH_GetError(void)
 539:Libraries/STM32F4xx_HAL_Driver/Src/stm32f4xx_hal_flash.c **** { 
 540:Libraries/STM32F4xx_HAL_Driver/Src/stm32f4xx_hal_flash.c ****    return pFlash.ErrorCode;
 541:Libraries/STM32F4xx_HAL_Driver/Src/stm32f4xx_hal_flash.c **** }  
 542:Libraries/STM32F4xx_HAL_Driver/Src/stm32f4xx_hal_flash.c ****   
 543:Libraries/STM32F4xx_HAL_Driver/Src/stm32f4xx_hal_flash.c **** /**
 544:Libraries/STM32F4xx_HAL_Driver/Src/stm32f4xx_hal_flash.c ****   * @}
 545:Libraries/STM32F4xx_HAL_Driver/Src/stm32f4xx_hal_flash.c ****   */    
ARM GAS  C:\Users\yzy\AppData\Local\Temp\ccxXXGiZ.s 			page 11


 546:Libraries/STM32F4xx_HAL_Driver/Src/stm32f4xx_hal_flash.c **** 
 547:Libraries/STM32F4xx_HAL_Driver/Src/stm32f4xx_hal_flash.c **** /**
 548:Libraries/STM32F4xx_HAL_Driver/Src/stm32f4xx_hal_flash.c ****   * @brief  Wait for a FLASH operation to complete.
 549:Libraries/STM32F4xx_HAL_Driver/Src/stm32f4xx_hal_flash.c ****   * @param  Timeout maximum flash operationtimeout
 550:Libraries/STM32F4xx_HAL_Driver/Src/stm32f4xx_hal_flash.c ****   * @retval HAL Status
 551:Libraries/STM32F4xx_HAL_Driver/Src/stm32f4xx_hal_flash.c ****   */
 552:Libraries/STM32F4xx_HAL_Driver/Src/stm32f4xx_hal_flash.c **** HAL_StatusTypeDef FLASH_WaitForLastOperation(uint32_t Timeout)
 553:Libraries/STM32F4xx_HAL_Driver/Src/stm32f4xx_hal_flash.c **** { 
 554:Libraries/STM32F4xx_HAL_Driver/Src/stm32f4xx_hal_flash.c ****   uint32_t tickstart = 0U;
 555:Libraries/STM32F4xx_HAL_Driver/Src/stm32f4xx_hal_flash.c ****   
 556:Libraries/STM32F4xx_HAL_Driver/Src/stm32f4xx_hal_flash.c ****   /* Clear Error Code */
 557:Libraries/STM32F4xx_HAL_Driver/Src/stm32f4xx_hal_flash.c ****   pFlash.ErrorCode = HAL_FLASH_ERROR_NONE;
 558:Libraries/STM32F4xx_HAL_Driver/Src/stm32f4xx_hal_flash.c ****   
 559:Libraries/STM32F4xx_HAL_Driver/Src/stm32f4xx_hal_flash.c ****   /* Wait for the FLASH operation to complete by polling on BUSY flag to be reset.
 560:Libraries/STM32F4xx_HAL_Driver/Src/stm32f4xx_hal_flash.c ****      Even if the FLASH operation fails, the BUSY flag will be reset and an error
 561:Libraries/STM32F4xx_HAL_Driver/Src/stm32f4xx_hal_flash.c ****      flag will be set */
 562:Libraries/STM32F4xx_HAL_Driver/Src/stm32f4xx_hal_flash.c ****   /* Get tick */
 563:Libraries/STM32F4xx_HAL_Driver/Src/stm32f4xx_hal_flash.c ****   tickstart = HAL_GetTick();
 564:Libraries/STM32F4xx_HAL_Driver/Src/stm32f4xx_hal_flash.c **** 
 565:Libraries/STM32F4xx_HAL_Driver/Src/stm32f4xx_hal_flash.c ****   while(__HAL_FLASH_GET_FLAG(FLASH_FLAG_BSY) != RESET) 
 566:Libraries/STM32F4xx_HAL_Driver/Src/stm32f4xx_hal_flash.c ****   { 
 567:Libraries/STM32F4xx_HAL_Driver/Src/stm32f4xx_hal_flash.c ****     if(Timeout != HAL_MAX_DELAY)
 568:Libraries/STM32F4xx_HAL_Driver/Src/stm32f4xx_hal_flash.c ****     {
 569:Libraries/STM32F4xx_HAL_Driver/Src/stm32f4xx_hal_flash.c ****       if((Timeout == 0U)||((HAL_GetTick() - tickstart ) > Timeout))
 570:Libraries/STM32F4xx_HAL_Driver/Src/stm32f4xx_hal_flash.c ****       {
 571:Libraries/STM32F4xx_HAL_Driver/Src/stm32f4xx_hal_flash.c ****         return HAL_TIMEOUT;
 572:Libraries/STM32F4xx_HAL_Driver/Src/stm32f4xx_hal_flash.c ****       }
 573:Libraries/STM32F4xx_HAL_Driver/Src/stm32f4xx_hal_flash.c ****     } 
 574:Libraries/STM32F4xx_HAL_Driver/Src/stm32f4xx_hal_flash.c ****   }
 575:Libraries/STM32F4xx_HAL_Driver/Src/stm32f4xx_hal_flash.c **** 
 576:Libraries/STM32F4xx_HAL_Driver/Src/stm32f4xx_hal_flash.c ****   /* Check FLASH End of Operation flag  */
 577:Libraries/STM32F4xx_HAL_Driver/Src/stm32f4xx_hal_flash.c ****   if (__HAL_FLASH_GET_FLAG(FLASH_FLAG_EOP) != RESET)
 578:Libraries/STM32F4xx_HAL_Driver/Src/stm32f4xx_hal_flash.c ****   {
 579:Libraries/STM32F4xx_HAL_Driver/Src/stm32f4xx_hal_flash.c ****     /* Clear FLASH End of Operation pending bit */
 580:Libraries/STM32F4xx_HAL_Driver/Src/stm32f4xx_hal_flash.c ****     __HAL_FLASH_CLEAR_FLAG(FLASH_FLAG_EOP);
 581:Libraries/STM32F4xx_HAL_Driver/Src/stm32f4xx_hal_flash.c ****   }
 582:Libraries/STM32F4xx_HAL_Driver/Src/stm32f4xx_hal_flash.c **** #if defined(FLASH_SR_RDERR)  
 583:Libraries/STM32F4xx_HAL_Driver/Src/stm32f4xx_hal_flash.c ****   if(__HAL_FLASH_GET_FLAG((FLASH_FLAG_OPERR | FLASH_FLAG_WRPERR | FLASH_FLAG_PGAERR | \
 584:Libraries/STM32F4xx_HAL_Driver/Src/stm32f4xx_hal_flash.c ****                            FLASH_FLAG_PGPERR | FLASH_FLAG_PGSERR | FLASH_FLAG_RDERR)) != RESET)
 585:Libraries/STM32F4xx_HAL_Driver/Src/stm32f4xx_hal_flash.c **** #else
 586:Libraries/STM32F4xx_HAL_Driver/Src/stm32f4xx_hal_flash.c ****   if(__HAL_FLASH_GET_FLAG((FLASH_FLAG_OPERR | FLASH_FLAG_WRPERR | FLASH_FLAG_PGAERR | \
 587:Libraries/STM32F4xx_HAL_Driver/Src/stm32f4xx_hal_flash.c ****                            FLASH_FLAG_PGPERR | FLASH_FLAG_PGSERR)) != RESET)
 588:Libraries/STM32F4xx_HAL_Driver/Src/stm32f4xx_hal_flash.c **** #endif /* FLASH_SR_RDERR */
 589:Libraries/STM32F4xx_HAL_Driver/Src/stm32f4xx_hal_flash.c ****   {
 590:Libraries/STM32F4xx_HAL_Driver/Src/stm32f4xx_hal_flash.c ****     /*Save the error code*/
 591:Libraries/STM32F4xx_HAL_Driver/Src/stm32f4xx_hal_flash.c ****     FLASH_SetErrorCode();
 592:Libraries/STM32F4xx_HAL_Driver/Src/stm32f4xx_hal_flash.c ****     return HAL_ERROR;
 593:Libraries/STM32F4xx_HAL_Driver/Src/stm32f4xx_hal_flash.c ****   }
 594:Libraries/STM32F4xx_HAL_Driver/Src/stm32f4xx_hal_flash.c **** 
 595:Libraries/STM32F4xx_HAL_Driver/Src/stm32f4xx_hal_flash.c ****   /* If there is no error flag set */
 596:Libraries/STM32F4xx_HAL_Driver/Src/stm32f4xx_hal_flash.c ****   return HAL_OK;
 597:Libraries/STM32F4xx_HAL_Driver/Src/stm32f4xx_hal_flash.c ****   
 598:Libraries/STM32F4xx_HAL_Driver/Src/stm32f4xx_hal_flash.c **** }  
 599:Libraries/STM32F4xx_HAL_Driver/Src/stm32f4xx_hal_flash.c **** 
 600:Libraries/STM32F4xx_HAL_Driver/Src/stm32f4xx_hal_flash.c **** /**
 601:Libraries/STM32F4xx_HAL_Driver/Src/stm32f4xx_hal_flash.c ****   * @brief  Program a double word (64-bit) at a specified address.
 602:Libraries/STM32F4xx_HAL_Driver/Src/stm32f4xx_hal_flash.c ****   * @note   This function must be used when the device voltage range is from
ARM GAS  C:\Users\yzy\AppData\Local\Temp\ccxXXGiZ.s 			page 12


 603:Libraries/STM32F4xx_HAL_Driver/Src/stm32f4xx_hal_flash.c ****   *         2.7V to 3.6V and Vpp in the range 7V to 9V.
 604:Libraries/STM32F4xx_HAL_Driver/Src/stm32f4xx_hal_flash.c ****   *
 605:Libraries/STM32F4xx_HAL_Driver/Src/stm32f4xx_hal_flash.c ****   * @note   If an erase and a program operations are requested simultaneously,    
 606:Libraries/STM32F4xx_HAL_Driver/Src/stm32f4xx_hal_flash.c ****   *         the erase operation is performed before the program one.
 607:Libraries/STM32F4xx_HAL_Driver/Src/stm32f4xx_hal_flash.c ****   *  
 608:Libraries/STM32F4xx_HAL_Driver/Src/stm32f4xx_hal_flash.c ****   * @param  Address specifies the address to be programmed.
 609:Libraries/STM32F4xx_HAL_Driver/Src/stm32f4xx_hal_flash.c ****   * @param  Data specifies the data to be programmed.
 610:Libraries/STM32F4xx_HAL_Driver/Src/stm32f4xx_hal_flash.c ****   * @retval None
 611:Libraries/STM32F4xx_HAL_Driver/Src/stm32f4xx_hal_flash.c ****   */
 612:Libraries/STM32F4xx_HAL_Driver/Src/stm32f4xx_hal_flash.c **** static void FLASH_Program_DoubleWord(uint32_t Address, uint64_t Data)
 613:Libraries/STM32F4xx_HAL_Driver/Src/stm32f4xx_hal_flash.c **** {
  27              		.loc 1 613 1 view -0
  28              		.cfi_startproc
  29              		@ args = 0, pretend = 0, frame = 0
  30              		@ frame_needed = 0, uses_anonymous_args = 0
  31              		@ link register save eliminated.
  32              		.loc 1 613 1 is_stmt 0 view .LVU1
  33 0000 10B4     		push	{r4}
  34              	.LCFI0:
  35              		.cfi_def_cfa_offset 4
  36              		.cfi_offset 4, -4
 614:Libraries/STM32F4xx_HAL_Driver/Src/stm32f4xx_hal_flash.c ****   /* Check the parameters */
 615:Libraries/STM32F4xx_HAL_Driver/Src/stm32f4xx_hal_flash.c ****   assert_param(IS_FLASH_ADDRESS(Address));
  37              		.loc 1 615 3 is_stmt 1 view .LVU2
 616:Libraries/STM32F4xx_HAL_Driver/Src/stm32f4xx_hal_flash.c ****   
 617:Libraries/STM32F4xx_HAL_Driver/Src/stm32f4xx_hal_flash.c ****   /* If the previous operation is completed, proceed to program the new data */
 618:Libraries/STM32F4xx_HAL_Driver/Src/stm32f4xx_hal_flash.c ****   CLEAR_BIT(FLASH->CR, FLASH_CR_PSIZE);
  38              		.loc 1 618 3 view .LVU3
  39 0002 0949     		ldr	r1, .L3
  40 0004 0C69     		ldr	r4, [r1, #16]
  41 0006 24F44074 		bic	r4, r4, #768
  42 000a 0C61     		str	r4, [r1, #16]
 619:Libraries/STM32F4xx_HAL_Driver/Src/stm32f4xx_hal_flash.c ****   FLASH->CR |= FLASH_PSIZE_DOUBLE_WORD;
  43              		.loc 1 619 3 view .LVU4
  44              		.loc 1 619 13 is_stmt 0 view .LVU5
  45 000c 0C69     		ldr	r4, [r1, #16]
  46 000e 44F44074 		orr	r4, r4, #768
  47 0012 0C61     		str	r4, [r1, #16]
 620:Libraries/STM32F4xx_HAL_Driver/Src/stm32f4xx_hal_flash.c ****   FLASH->CR |= FLASH_CR_PG;
  48              		.loc 1 620 3 is_stmt 1 view .LVU6
  49              		.loc 1 620 13 is_stmt 0 view .LVU7
  50 0014 0C69     		ldr	r4, [r1, #16]
  51 0016 44F00104 		orr	r4, r4, #1
  52 001a 0C61     		str	r4, [r1, #16]
 621:Libraries/STM32F4xx_HAL_Driver/Src/stm32f4xx_hal_flash.c **** 
 622:Libraries/STM32F4xx_HAL_Driver/Src/stm32f4xx_hal_flash.c ****   /* Program first word */
 623:Libraries/STM32F4xx_HAL_Driver/Src/stm32f4xx_hal_flash.c ****   *(__IO uint32_t*)Address = (uint32_t)Data;
  53              		.loc 1 623 3 is_stmt 1 view .LVU8
  54              		.loc 1 623 28 is_stmt 0 view .LVU9
  55 001c 0260     		str	r2, [r0]
 624:Libraries/STM32F4xx_HAL_Driver/Src/stm32f4xx_hal_flash.c **** 
 625:Libraries/STM32F4xx_HAL_Driver/Src/stm32f4xx_hal_flash.c ****   /* Barrier to ensure programming is performed in 2 steps, in right order
 626:Libraries/STM32F4xx_HAL_Driver/Src/stm32f4xx_hal_flash.c ****     (independently of compiler optimization behavior) */
 627:Libraries/STM32F4xx_HAL_Driver/Src/stm32f4xx_hal_flash.c ****   __ISB();
  56              		.loc 1 627 3 is_stmt 1 view .LVU10
  57              	.LBB4:
  58              	.LBI4:
ARM GAS  C:\Users\yzy\AppData\Local\Temp\ccxXXGiZ.s 			page 13


  59              		.file 2 "Libraries/CMSIS/Include/cmsis_gcc.h"
   1:Libraries/CMSIS/Include/cmsis_gcc.h **** /**************************************************************************//**
   2:Libraries/CMSIS/Include/cmsis_gcc.h ****  * @file     cmsis_gcc.h
   3:Libraries/CMSIS/Include/cmsis_gcc.h ****  * @brief    CMSIS compiler GCC header file
   4:Libraries/CMSIS/Include/cmsis_gcc.h ****  * @version  V5.0.4
   5:Libraries/CMSIS/Include/cmsis_gcc.h ****  * @date     09. April 2018
   6:Libraries/CMSIS/Include/cmsis_gcc.h ****  ******************************************************************************/
   7:Libraries/CMSIS/Include/cmsis_gcc.h **** /*
   8:Libraries/CMSIS/Include/cmsis_gcc.h ****  * Copyright (c) 2009-2018 Arm Limited. All rights reserved.
   9:Libraries/CMSIS/Include/cmsis_gcc.h ****  *
  10:Libraries/CMSIS/Include/cmsis_gcc.h ****  * SPDX-License-Identifier: Apache-2.0
  11:Libraries/CMSIS/Include/cmsis_gcc.h ****  *
  12:Libraries/CMSIS/Include/cmsis_gcc.h ****  * Licensed under the Apache License, Version 2.0 (the License); you may
  13:Libraries/CMSIS/Include/cmsis_gcc.h ****  * not use this file except in compliance with the License.
  14:Libraries/CMSIS/Include/cmsis_gcc.h ****  * You may obtain a copy of the License at
  15:Libraries/CMSIS/Include/cmsis_gcc.h ****  *
  16:Libraries/CMSIS/Include/cmsis_gcc.h ****  * www.apache.org/licenses/LICENSE-2.0
  17:Libraries/CMSIS/Include/cmsis_gcc.h ****  *
  18:Libraries/CMSIS/Include/cmsis_gcc.h ****  * Unless required by applicable law or agreed to in writing, software
  19:Libraries/CMSIS/Include/cmsis_gcc.h ****  * distributed under the License is distributed on an AS IS BASIS, WITHOUT
  20:Libraries/CMSIS/Include/cmsis_gcc.h ****  * WARRANTIES OR CONDITIONS OF ANY KIND, either express or implied.
  21:Libraries/CMSIS/Include/cmsis_gcc.h ****  * See the License for the specific language governing permissions and
  22:Libraries/CMSIS/Include/cmsis_gcc.h ****  * limitations under the License.
  23:Libraries/CMSIS/Include/cmsis_gcc.h ****  */
  24:Libraries/CMSIS/Include/cmsis_gcc.h **** 
  25:Libraries/CMSIS/Include/cmsis_gcc.h **** #ifndef __CMSIS_GCC_H
  26:Libraries/CMSIS/Include/cmsis_gcc.h **** #define __CMSIS_GCC_H
  27:Libraries/CMSIS/Include/cmsis_gcc.h **** 
  28:Libraries/CMSIS/Include/cmsis_gcc.h **** /* ignore some GCC warnings */
  29:Libraries/CMSIS/Include/cmsis_gcc.h **** #pragma GCC diagnostic push
  30:Libraries/CMSIS/Include/cmsis_gcc.h **** #pragma GCC diagnostic ignored "-Wsign-conversion"
  31:Libraries/CMSIS/Include/cmsis_gcc.h **** #pragma GCC diagnostic ignored "-Wconversion"
  32:Libraries/CMSIS/Include/cmsis_gcc.h **** #pragma GCC diagnostic ignored "-Wunused-parameter"
  33:Libraries/CMSIS/Include/cmsis_gcc.h **** 
  34:Libraries/CMSIS/Include/cmsis_gcc.h **** /* Fallback for __has_builtin */
  35:Libraries/CMSIS/Include/cmsis_gcc.h **** #ifndef __has_builtin
  36:Libraries/CMSIS/Include/cmsis_gcc.h ****   #define __has_builtin(x) (0)
  37:Libraries/CMSIS/Include/cmsis_gcc.h **** #endif
  38:Libraries/CMSIS/Include/cmsis_gcc.h **** 
  39:Libraries/CMSIS/Include/cmsis_gcc.h **** /* CMSIS compiler specific defines */
  40:Libraries/CMSIS/Include/cmsis_gcc.h **** #ifndef   __ASM
  41:Libraries/CMSIS/Include/cmsis_gcc.h ****   #define __ASM                                  __asm
  42:Libraries/CMSIS/Include/cmsis_gcc.h **** #endif
  43:Libraries/CMSIS/Include/cmsis_gcc.h **** #ifndef   __INLINE
  44:Libraries/CMSIS/Include/cmsis_gcc.h ****   #define __INLINE                               inline
  45:Libraries/CMSIS/Include/cmsis_gcc.h **** #endif
  46:Libraries/CMSIS/Include/cmsis_gcc.h **** #ifndef   __STATIC_INLINE
  47:Libraries/CMSIS/Include/cmsis_gcc.h ****   #define __STATIC_INLINE                        static inline
  48:Libraries/CMSIS/Include/cmsis_gcc.h **** #endif
  49:Libraries/CMSIS/Include/cmsis_gcc.h **** #ifndef   __STATIC_FORCEINLINE                 
  50:Libraries/CMSIS/Include/cmsis_gcc.h ****   #define __STATIC_FORCEINLINE                   __attribute__((always_inline)) static inline
  51:Libraries/CMSIS/Include/cmsis_gcc.h **** #endif                                           
  52:Libraries/CMSIS/Include/cmsis_gcc.h **** #ifndef   __NO_RETURN
  53:Libraries/CMSIS/Include/cmsis_gcc.h ****   #define __NO_RETURN                            __attribute__((__noreturn__))
  54:Libraries/CMSIS/Include/cmsis_gcc.h **** #endif
  55:Libraries/CMSIS/Include/cmsis_gcc.h **** #ifndef   __USED
  56:Libraries/CMSIS/Include/cmsis_gcc.h ****   #define __USED                                 __attribute__((used))
ARM GAS  C:\Users\yzy\AppData\Local\Temp\ccxXXGiZ.s 			page 14


  57:Libraries/CMSIS/Include/cmsis_gcc.h **** #endif
  58:Libraries/CMSIS/Include/cmsis_gcc.h **** #ifndef   __WEAK
  59:Libraries/CMSIS/Include/cmsis_gcc.h ****   #define __WEAK                                 __attribute__((weak))
  60:Libraries/CMSIS/Include/cmsis_gcc.h **** #endif
  61:Libraries/CMSIS/Include/cmsis_gcc.h **** #ifndef   __PACKED
  62:Libraries/CMSIS/Include/cmsis_gcc.h ****   #define __PACKED                               __attribute__((packed, aligned(1)))
  63:Libraries/CMSIS/Include/cmsis_gcc.h **** #endif
  64:Libraries/CMSIS/Include/cmsis_gcc.h **** #ifndef   __PACKED_STRUCT
  65:Libraries/CMSIS/Include/cmsis_gcc.h ****   #define __PACKED_STRUCT                        struct __attribute__((packed, aligned(1)))
  66:Libraries/CMSIS/Include/cmsis_gcc.h **** #endif
  67:Libraries/CMSIS/Include/cmsis_gcc.h **** #ifndef   __PACKED_UNION
  68:Libraries/CMSIS/Include/cmsis_gcc.h ****   #define __PACKED_UNION                         union __attribute__((packed, aligned(1)))
  69:Libraries/CMSIS/Include/cmsis_gcc.h **** #endif
  70:Libraries/CMSIS/Include/cmsis_gcc.h **** #ifndef   __UNALIGNED_UINT32        /* deprecated */
  71:Libraries/CMSIS/Include/cmsis_gcc.h ****   #pragma GCC diagnostic push
  72:Libraries/CMSIS/Include/cmsis_gcc.h ****   #pragma GCC diagnostic ignored "-Wpacked"
  73:Libraries/CMSIS/Include/cmsis_gcc.h ****   #pragma GCC diagnostic ignored "-Wattributes"
  74:Libraries/CMSIS/Include/cmsis_gcc.h ****   struct __attribute__((packed)) T_UINT32 { uint32_t v; };
  75:Libraries/CMSIS/Include/cmsis_gcc.h ****   #pragma GCC diagnostic pop
  76:Libraries/CMSIS/Include/cmsis_gcc.h ****   #define __UNALIGNED_UINT32(x)                  (((struct T_UINT32 *)(x))->v)
  77:Libraries/CMSIS/Include/cmsis_gcc.h **** #endif
  78:Libraries/CMSIS/Include/cmsis_gcc.h **** #ifndef   __UNALIGNED_UINT16_WRITE
  79:Libraries/CMSIS/Include/cmsis_gcc.h ****   #pragma GCC diagnostic push
  80:Libraries/CMSIS/Include/cmsis_gcc.h ****   #pragma GCC diagnostic ignored "-Wpacked"
  81:Libraries/CMSIS/Include/cmsis_gcc.h ****   #pragma GCC diagnostic ignored "-Wattributes"
  82:Libraries/CMSIS/Include/cmsis_gcc.h ****   __PACKED_STRUCT T_UINT16_WRITE { uint16_t v; };
  83:Libraries/CMSIS/Include/cmsis_gcc.h ****   #pragma GCC diagnostic pop
  84:Libraries/CMSIS/Include/cmsis_gcc.h ****   #define __UNALIGNED_UINT16_WRITE(addr, val)    (void)((((struct T_UINT16_WRITE *)(void *)(addr))-
  85:Libraries/CMSIS/Include/cmsis_gcc.h **** #endif
  86:Libraries/CMSIS/Include/cmsis_gcc.h **** #ifndef   __UNALIGNED_UINT16_READ
  87:Libraries/CMSIS/Include/cmsis_gcc.h ****   #pragma GCC diagnostic push
  88:Libraries/CMSIS/Include/cmsis_gcc.h ****   #pragma GCC diagnostic ignored "-Wpacked"
  89:Libraries/CMSIS/Include/cmsis_gcc.h ****   #pragma GCC diagnostic ignored "-Wattributes"
  90:Libraries/CMSIS/Include/cmsis_gcc.h ****   __PACKED_STRUCT T_UINT16_READ { uint16_t v; };
  91:Libraries/CMSIS/Include/cmsis_gcc.h ****   #pragma GCC diagnostic pop
  92:Libraries/CMSIS/Include/cmsis_gcc.h ****   #define __UNALIGNED_UINT16_READ(addr)          (((const struct T_UINT16_READ *)(const void *)(add
  93:Libraries/CMSIS/Include/cmsis_gcc.h **** #endif
  94:Libraries/CMSIS/Include/cmsis_gcc.h **** #ifndef   __UNALIGNED_UINT32_WRITE
  95:Libraries/CMSIS/Include/cmsis_gcc.h ****   #pragma GCC diagnostic push
  96:Libraries/CMSIS/Include/cmsis_gcc.h ****   #pragma GCC diagnostic ignored "-Wpacked"
  97:Libraries/CMSIS/Include/cmsis_gcc.h ****   #pragma GCC diagnostic ignored "-Wattributes"
  98:Libraries/CMSIS/Include/cmsis_gcc.h ****   __PACKED_STRUCT T_UINT32_WRITE { uint32_t v; };
  99:Libraries/CMSIS/Include/cmsis_gcc.h ****   #pragma GCC diagnostic pop
 100:Libraries/CMSIS/Include/cmsis_gcc.h ****   #define __UNALIGNED_UINT32_WRITE(addr, val)    (void)((((struct T_UINT32_WRITE *)(void *)(addr))-
 101:Libraries/CMSIS/Include/cmsis_gcc.h **** #endif
 102:Libraries/CMSIS/Include/cmsis_gcc.h **** #ifndef   __UNALIGNED_UINT32_READ
 103:Libraries/CMSIS/Include/cmsis_gcc.h ****   #pragma GCC diagnostic push
 104:Libraries/CMSIS/Include/cmsis_gcc.h ****   #pragma GCC diagnostic ignored "-Wpacked"
 105:Libraries/CMSIS/Include/cmsis_gcc.h ****   #pragma GCC diagnostic ignored "-Wattributes"
 106:Libraries/CMSIS/Include/cmsis_gcc.h ****   __PACKED_STRUCT T_UINT32_READ { uint32_t v; };
 107:Libraries/CMSIS/Include/cmsis_gcc.h ****   #pragma GCC diagnostic pop
 108:Libraries/CMSIS/Include/cmsis_gcc.h ****   #define __UNALIGNED_UINT32_READ(addr)          (((const struct T_UINT32_READ *)(const void *)(add
 109:Libraries/CMSIS/Include/cmsis_gcc.h **** #endif
 110:Libraries/CMSIS/Include/cmsis_gcc.h **** #ifndef   __ALIGNED
 111:Libraries/CMSIS/Include/cmsis_gcc.h ****   #define __ALIGNED(x)                           __attribute__((aligned(x)))
 112:Libraries/CMSIS/Include/cmsis_gcc.h **** #endif
 113:Libraries/CMSIS/Include/cmsis_gcc.h **** #ifndef   __RESTRICT
ARM GAS  C:\Users\yzy\AppData\Local\Temp\ccxXXGiZ.s 			page 15


 114:Libraries/CMSIS/Include/cmsis_gcc.h ****   #define __RESTRICT                             __restrict
 115:Libraries/CMSIS/Include/cmsis_gcc.h **** #endif
 116:Libraries/CMSIS/Include/cmsis_gcc.h **** 
 117:Libraries/CMSIS/Include/cmsis_gcc.h **** 
 118:Libraries/CMSIS/Include/cmsis_gcc.h **** /* ###########################  Core Function Access  ########################### */
 119:Libraries/CMSIS/Include/cmsis_gcc.h **** /** \ingroup  CMSIS_Core_FunctionInterface
 120:Libraries/CMSIS/Include/cmsis_gcc.h ****     \defgroup CMSIS_Core_RegAccFunctions CMSIS Core Register Access Functions
 121:Libraries/CMSIS/Include/cmsis_gcc.h ****   @{
 122:Libraries/CMSIS/Include/cmsis_gcc.h ****  */
 123:Libraries/CMSIS/Include/cmsis_gcc.h **** 
 124:Libraries/CMSIS/Include/cmsis_gcc.h **** /**
 125:Libraries/CMSIS/Include/cmsis_gcc.h ****   \brief   Enable IRQ Interrupts
 126:Libraries/CMSIS/Include/cmsis_gcc.h ****   \details Enables IRQ interrupts by clearing the I-bit in the CPSR.
 127:Libraries/CMSIS/Include/cmsis_gcc.h ****            Can only be executed in Privileged modes.
 128:Libraries/CMSIS/Include/cmsis_gcc.h ****  */
 129:Libraries/CMSIS/Include/cmsis_gcc.h **** __STATIC_FORCEINLINE void __enable_irq(void)
 130:Libraries/CMSIS/Include/cmsis_gcc.h **** {
 131:Libraries/CMSIS/Include/cmsis_gcc.h ****   __ASM volatile ("cpsie i" : : : "memory");
 132:Libraries/CMSIS/Include/cmsis_gcc.h **** }
 133:Libraries/CMSIS/Include/cmsis_gcc.h **** 
 134:Libraries/CMSIS/Include/cmsis_gcc.h **** 
 135:Libraries/CMSIS/Include/cmsis_gcc.h **** /**
 136:Libraries/CMSIS/Include/cmsis_gcc.h ****   \brief   Disable IRQ Interrupts
 137:Libraries/CMSIS/Include/cmsis_gcc.h ****   \details Disables IRQ interrupts by setting the I-bit in the CPSR.
 138:Libraries/CMSIS/Include/cmsis_gcc.h ****            Can only be executed in Privileged modes.
 139:Libraries/CMSIS/Include/cmsis_gcc.h ****  */
 140:Libraries/CMSIS/Include/cmsis_gcc.h **** __STATIC_FORCEINLINE void __disable_irq(void)
 141:Libraries/CMSIS/Include/cmsis_gcc.h **** {
 142:Libraries/CMSIS/Include/cmsis_gcc.h ****   __ASM volatile ("cpsid i" : : : "memory");
 143:Libraries/CMSIS/Include/cmsis_gcc.h **** }
 144:Libraries/CMSIS/Include/cmsis_gcc.h **** 
 145:Libraries/CMSIS/Include/cmsis_gcc.h **** 
 146:Libraries/CMSIS/Include/cmsis_gcc.h **** /**
 147:Libraries/CMSIS/Include/cmsis_gcc.h ****   \brief   Get Control Register
 148:Libraries/CMSIS/Include/cmsis_gcc.h ****   \details Returns the content of the Control Register.
 149:Libraries/CMSIS/Include/cmsis_gcc.h ****   \return               Control Register value
 150:Libraries/CMSIS/Include/cmsis_gcc.h ****  */
 151:Libraries/CMSIS/Include/cmsis_gcc.h **** __STATIC_FORCEINLINE uint32_t __get_CONTROL(void)
 152:Libraries/CMSIS/Include/cmsis_gcc.h **** {
 153:Libraries/CMSIS/Include/cmsis_gcc.h ****   uint32_t result;
 154:Libraries/CMSIS/Include/cmsis_gcc.h **** 
 155:Libraries/CMSIS/Include/cmsis_gcc.h ****   __ASM volatile ("MRS %0, control" : "=r" (result) );
 156:Libraries/CMSIS/Include/cmsis_gcc.h ****   return(result);
 157:Libraries/CMSIS/Include/cmsis_gcc.h **** }
 158:Libraries/CMSIS/Include/cmsis_gcc.h **** 
 159:Libraries/CMSIS/Include/cmsis_gcc.h **** 
 160:Libraries/CMSIS/Include/cmsis_gcc.h **** #if (defined (__ARM_FEATURE_CMSE ) && (__ARM_FEATURE_CMSE == 3))
 161:Libraries/CMSIS/Include/cmsis_gcc.h **** /**
 162:Libraries/CMSIS/Include/cmsis_gcc.h ****   \brief   Get Control Register (non-secure)
 163:Libraries/CMSIS/Include/cmsis_gcc.h ****   \details Returns the content of the non-secure Control Register when in secure mode.
 164:Libraries/CMSIS/Include/cmsis_gcc.h ****   \return               non-secure Control Register value
 165:Libraries/CMSIS/Include/cmsis_gcc.h ****  */
 166:Libraries/CMSIS/Include/cmsis_gcc.h **** __STATIC_FORCEINLINE uint32_t __TZ_get_CONTROL_NS(void)
 167:Libraries/CMSIS/Include/cmsis_gcc.h **** {
 168:Libraries/CMSIS/Include/cmsis_gcc.h ****   uint32_t result;
 169:Libraries/CMSIS/Include/cmsis_gcc.h **** 
 170:Libraries/CMSIS/Include/cmsis_gcc.h ****   __ASM volatile ("MRS %0, control_ns" : "=r" (result) );
ARM GAS  C:\Users\yzy\AppData\Local\Temp\ccxXXGiZ.s 			page 16


 171:Libraries/CMSIS/Include/cmsis_gcc.h ****   return(result);
 172:Libraries/CMSIS/Include/cmsis_gcc.h **** }
 173:Libraries/CMSIS/Include/cmsis_gcc.h **** #endif
 174:Libraries/CMSIS/Include/cmsis_gcc.h **** 
 175:Libraries/CMSIS/Include/cmsis_gcc.h **** 
 176:Libraries/CMSIS/Include/cmsis_gcc.h **** /**
 177:Libraries/CMSIS/Include/cmsis_gcc.h ****   \brief   Set Control Register
 178:Libraries/CMSIS/Include/cmsis_gcc.h ****   \details Writes the given value to the Control Register.
 179:Libraries/CMSIS/Include/cmsis_gcc.h ****   \param [in]    control  Control Register value to set
 180:Libraries/CMSIS/Include/cmsis_gcc.h ****  */
 181:Libraries/CMSIS/Include/cmsis_gcc.h **** __STATIC_FORCEINLINE void __set_CONTROL(uint32_t control)
 182:Libraries/CMSIS/Include/cmsis_gcc.h **** {
 183:Libraries/CMSIS/Include/cmsis_gcc.h ****   __ASM volatile ("MSR control, %0" : : "r" (control) : "memory");
 184:Libraries/CMSIS/Include/cmsis_gcc.h **** }
 185:Libraries/CMSIS/Include/cmsis_gcc.h **** 
 186:Libraries/CMSIS/Include/cmsis_gcc.h **** 
 187:Libraries/CMSIS/Include/cmsis_gcc.h **** #if (defined (__ARM_FEATURE_CMSE ) && (__ARM_FEATURE_CMSE == 3))
 188:Libraries/CMSIS/Include/cmsis_gcc.h **** /**
 189:Libraries/CMSIS/Include/cmsis_gcc.h ****   \brief   Set Control Register (non-secure)
 190:Libraries/CMSIS/Include/cmsis_gcc.h ****   \details Writes the given value to the non-secure Control Register when in secure state.
 191:Libraries/CMSIS/Include/cmsis_gcc.h ****   \param [in]    control  Control Register value to set
 192:Libraries/CMSIS/Include/cmsis_gcc.h ****  */
 193:Libraries/CMSIS/Include/cmsis_gcc.h **** __STATIC_FORCEINLINE void __TZ_set_CONTROL_NS(uint32_t control)
 194:Libraries/CMSIS/Include/cmsis_gcc.h **** {
 195:Libraries/CMSIS/Include/cmsis_gcc.h ****   __ASM volatile ("MSR control_ns, %0" : : "r" (control) : "memory");
 196:Libraries/CMSIS/Include/cmsis_gcc.h **** }
 197:Libraries/CMSIS/Include/cmsis_gcc.h **** #endif
 198:Libraries/CMSIS/Include/cmsis_gcc.h **** 
 199:Libraries/CMSIS/Include/cmsis_gcc.h **** 
 200:Libraries/CMSIS/Include/cmsis_gcc.h **** /**
 201:Libraries/CMSIS/Include/cmsis_gcc.h ****   \brief   Get IPSR Register
 202:Libraries/CMSIS/Include/cmsis_gcc.h ****   \details Returns the content of the IPSR Register.
 203:Libraries/CMSIS/Include/cmsis_gcc.h ****   \return               IPSR Register value
 204:Libraries/CMSIS/Include/cmsis_gcc.h ****  */
 205:Libraries/CMSIS/Include/cmsis_gcc.h **** __STATIC_FORCEINLINE uint32_t __get_IPSR(void)
 206:Libraries/CMSIS/Include/cmsis_gcc.h **** {
 207:Libraries/CMSIS/Include/cmsis_gcc.h ****   uint32_t result;
 208:Libraries/CMSIS/Include/cmsis_gcc.h **** 
 209:Libraries/CMSIS/Include/cmsis_gcc.h ****   __ASM volatile ("MRS %0, ipsr" : "=r" (result) );
 210:Libraries/CMSIS/Include/cmsis_gcc.h ****   return(result);
 211:Libraries/CMSIS/Include/cmsis_gcc.h **** }
 212:Libraries/CMSIS/Include/cmsis_gcc.h **** 
 213:Libraries/CMSIS/Include/cmsis_gcc.h **** 
 214:Libraries/CMSIS/Include/cmsis_gcc.h **** /**
 215:Libraries/CMSIS/Include/cmsis_gcc.h ****   \brief   Get APSR Register
 216:Libraries/CMSIS/Include/cmsis_gcc.h ****   \details Returns the content of the APSR Register.
 217:Libraries/CMSIS/Include/cmsis_gcc.h ****   \return               APSR Register value
 218:Libraries/CMSIS/Include/cmsis_gcc.h ****  */
 219:Libraries/CMSIS/Include/cmsis_gcc.h **** __STATIC_FORCEINLINE uint32_t __get_APSR(void)
 220:Libraries/CMSIS/Include/cmsis_gcc.h **** {
 221:Libraries/CMSIS/Include/cmsis_gcc.h ****   uint32_t result;
 222:Libraries/CMSIS/Include/cmsis_gcc.h **** 
 223:Libraries/CMSIS/Include/cmsis_gcc.h ****   __ASM volatile ("MRS %0, apsr" : "=r" (result) );
 224:Libraries/CMSIS/Include/cmsis_gcc.h ****   return(result);
 225:Libraries/CMSIS/Include/cmsis_gcc.h **** }
 226:Libraries/CMSIS/Include/cmsis_gcc.h **** 
 227:Libraries/CMSIS/Include/cmsis_gcc.h **** 
ARM GAS  C:\Users\yzy\AppData\Local\Temp\ccxXXGiZ.s 			page 17


 228:Libraries/CMSIS/Include/cmsis_gcc.h **** /**
 229:Libraries/CMSIS/Include/cmsis_gcc.h ****   \brief   Get xPSR Register
 230:Libraries/CMSIS/Include/cmsis_gcc.h ****   \details Returns the content of the xPSR Register.
 231:Libraries/CMSIS/Include/cmsis_gcc.h ****   \return               xPSR Register value
 232:Libraries/CMSIS/Include/cmsis_gcc.h ****  */
 233:Libraries/CMSIS/Include/cmsis_gcc.h **** __STATIC_FORCEINLINE uint32_t __get_xPSR(void)
 234:Libraries/CMSIS/Include/cmsis_gcc.h **** {
 235:Libraries/CMSIS/Include/cmsis_gcc.h ****   uint32_t result;
 236:Libraries/CMSIS/Include/cmsis_gcc.h **** 
 237:Libraries/CMSIS/Include/cmsis_gcc.h ****   __ASM volatile ("MRS %0, xpsr" : "=r" (result) );
 238:Libraries/CMSIS/Include/cmsis_gcc.h ****   return(result);
 239:Libraries/CMSIS/Include/cmsis_gcc.h **** }
 240:Libraries/CMSIS/Include/cmsis_gcc.h **** 
 241:Libraries/CMSIS/Include/cmsis_gcc.h **** 
 242:Libraries/CMSIS/Include/cmsis_gcc.h **** /**
 243:Libraries/CMSIS/Include/cmsis_gcc.h ****   \brief   Get Process Stack Pointer
 244:Libraries/CMSIS/Include/cmsis_gcc.h ****   \details Returns the current value of the Process Stack Pointer (PSP).
 245:Libraries/CMSIS/Include/cmsis_gcc.h ****   \return               PSP Register value
 246:Libraries/CMSIS/Include/cmsis_gcc.h ****  */
 247:Libraries/CMSIS/Include/cmsis_gcc.h **** __STATIC_FORCEINLINE uint32_t __get_PSP(void)
 248:Libraries/CMSIS/Include/cmsis_gcc.h **** {
 249:Libraries/CMSIS/Include/cmsis_gcc.h ****   uint32_t result;
 250:Libraries/CMSIS/Include/cmsis_gcc.h **** 
 251:Libraries/CMSIS/Include/cmsis_gcc.h ****   __ASM volatile ("MRS %0, psp"  : "=r" (result) );
 252:Libraries/CMSIS/Include/cmsis_gcc.h ****   return(result);
 253:Libraries/CMSIS/Include/cmsis_gcc.h **** }
 254:Libraries/CMSIS/Include/cmsis_gcc.h **** 
 255:Libraries/CMSIS/Include/cmsis_gcc.h **** 
 256:Libraries/CMSIS/Include/cmsis_gcc.h **** #if (defined (__ARM_FEATURE_CMSE ) && (__ARM_FEATURE_CMSE == 3))
 257:Libraries/CMSIS/Include/cmsis_gcc.h **** /**
 258:Libraries/CMSIS/Include/cmsis_gcc.h ****   \brief   Get Process Stack Pointer (non-secure)
 259:Libraries/CMSIS/Include/cmsis_gcc.h ****   \details Returns the current value of the non-secure Process Stack Pointer (PSP) when in secure s
 260:Libraries/CMSIS/Include/cmsis_gcc.h ****   \return               PSP Register value
 261:Libraries/CMSIS/Include/cmsis_gcc.h ****  */
 262:Libraries/CMSIS/Include/cmsis_gcc.h **** __STATIC_FORCEINLINE uint32_t __TZ_get_PSP_NS(void)
 263:Libraries/CMSIS/Include/cmsis_gcc.h **** {
 264:Libraries/CMSIS/Include/cmsis_gcc.h ****   uint32_t result;
 265:Libraries/CMSIS/Include/cmsis_gcc.h **** 
 266:Libraries/CMSIS/Include/cmsis_gcc.h ****   __ASM volatile ("MRS %0, psp_ns"  : "=r" (result) );
 267:Libraries/CMSIS/Include/cmsis_gcc.h ****   return(result);
 268:Libraries/CMSIS/Include/cmsis_gcc.h **** }
 269:Libraries/CMSIS/Include/cmsis_gcc.h **** #endif
 270:Libraries/CMSIS/Include/cmsis_gcc.h **** 
 271:Libraries/CMSIS/Include/cmsis_gcc.h **** 
 272:Libraries/CMSIS/Include/cmsis_gcc.h **** /**
 273:Libraries/CMSIS/Include/cmsis_gcc.h ****   \brief   Set Process Stack Pointer
 274:Libraries/CMSIS/Include/cmsis_gcc.h ****   \details Assigns the given value to the Process Stack Pointer (PSP).
 275:Libraries/CMSIS/Include/cmsis_gcc.h ****   \param [in]    topOfProcStack  Process Stack Pointer value to set
 276:Libraries/CMSIS/Include/cmsis_gcc.h ****  */
 277:Libraries/CMSIS/Include/cmsis_gcc.h **** __STATIC_FORCEINLINE void __set_PSP(uint32_t topOfProcStack)
 278:Libraries/CMSIS/Include/cmsis_gcc.h **** {
 279:Libraries/CMSIS/Include/cmsis_gcc.h ****   __ASM volatile ("MSR psp, %0" : : "r" (topOfProcStack) : );
 280:Libraries/CMSIS/Include/cmsis_gcc.h **** }
 281:Libraries/CMSIS/Include/cmsis_gcc.h **** 
 282:Libraries/CMSIS/Include/cmsis_gcc.h **** 
 283:Libraries/CMSIS/Include/cmsis_gcc.h **** #if (defined (__ARM_FEATURE_CMSE ) && (__ARM_FEATURE_CMSE == 3))
 284:Libraries/CMSIS/Include/cmsis_gcc.h **** /**
ARM GAS  C:\Users\yzy\AppData\Local\Temp\ccxXXGiZ.s 			page 18


 285:Libraries/CMSIS/Include/cmsis_gcc.h ****   \brief   Set Process Stack Pointer (non-secure)
 286:Libraries/CMSIS/Include/cmsis_gcc.h ****   \details Assigns the given value to the non-secure Process Stack Pointer (PSP) when in secure sta
 287:Libraries/CMSIS/Include/cmsis_gcc.h ****   \param [in]    topOfProcStack  Process Stack Pointer value to set
 288:Libraries/CMSIS/Include/cmsis_gcc.h ****  */
 289:Libraries/CMSIS/Include/cmsis_gcc.h **** __STATIC_FORCEINLINE void __TZ_set_PSP_NS(uint32_t topOfProcStack)
 290:Libraries/CMSIS/Include/cmsis_gcc.h **** {
 291:Libraries/CMSIS/Include/cmsis_gcc.h ****   __ASM volatile ("MSR psp_ns, %0" : : "r" (topOfProcStack) : );
 292:Libraries/CMSIS/Include/cmsis_gcc.h **** }
 293:Libraries/CMSIS/Include/cmsis_gcc.h **** #endif
 294:Libraries/CMSIS/Include/cmsis_gcc.h **** 
 295:Libraries/CMSIS/Include/cmsis_gcc.h **** 
 296:Libraries/CMSIS/Include/cmsis_gcc.h **** /**
 297:Libraries/CMSIS/Include/cmsis_gcc.h ****   \brief   Get Main Stack Pointer
 298:Libraries/CMSIS/Include/cmsis_gcc.h ****   \details Returns the current value of the Main Stack Pointer (MSP).
 299:Libraries/CMSIS/Include/cmsis_gcc.h ****   \return               MSP Register value
 300:Libraries/CMSIS/Include/cmsis_gcc.h ****  */
 301:Libraries/CMSIS/Include/cmsis_gcc.h **** __STATIC_FORCEINLINE uint32_t __get_MSP(void)
 302:Libraries/CMSIS/Include/cmsis_gcc.h **** {
 303:Libraries/CMSIS/Include/cmsis_gcc.h ****   uint32_t result;
 304:Libraries/CMSIS/Include/cmsis_gcc.h **** 
 305:Libraries/CMSIS/Include/cmsis_gcc.h ****   __ASM volatile ("MRS %0, msp" : "=r" (result) );
 306:Libraries/CMSIS/Include/cmsis_gcc.h ****   return(result);
 307:Libraries/CMSIS/Include/cmsis_gcc.h **** }
 308:Libraries/CMSIS/Include/cmsis_gcc.h **** 
 309:Libraries/CMSIS/Include/cmsis_gcc.h **** 
 310:Libraries/CMSIS/Include/cmsis_gcc.h **** #if (defined (__ARM_FEATURE_CMSE ) && (__ARM_FEATURE_CMSE == 3))
 311:Libraries/CMSIS/Include/cmsis_gcc.h **** /**
 312:Libraries/CMSIS/Include/cmsis_gcc.h ****   \brief   Get Main Stack Pointer (non-secure)
 313:Libraries/CMSIS/Include/cmsis_gcc.h ****   \details Returns the current value of the non-secure Main Stack Pointer (MSP) when in secure stat
 314:Libraries/CMSIS/Include/cmsis_gcc.h ****   \return               MSP Register value
 315:Libraries/CMSIS/Include/cmsis_gcc.h ****  */
 316:Libraries/CMSIS/Include/cmsis_gcc.h **** __STATIC_FORCEINLINE uint32_t __TZ_get_MSP_NS(void)
 317:Libraries/CMSIS/Include/cmsis_gcc.h **** {
 318:Libraries/CMSIS/Include/cmsis_gcc.h ****   uint32_t result;
 319:Libraries/CMSIS/Include/cmsis_gcc.h **** 
 320:Libraries/CMSIS/Include/cmsis_gcc.h ****   __ASM volatile ("MRS %0, msp_ns" : "=r" (result) );
 321:Libraries/CMSIS/Include/cmsis_gcc.h ****   return(result);
 322:Libraries/CMSIS/Include/cmsis_gcc.h **** }
 323:Libraries/CMSIS/Include/cmsis_gcc.h **** #endif
 324:Libraries/CMSIS/Include/cmsis_gcc.h **** 
 325:Libraries/CMSIS/Include/cmsis_gcc.h **** 
 326:Libraries/CMSIS/Include/cmsis_gcc.h **** /**
 327:Libraries/CMSIS/Include/cmsis_gcc.h ****   \brief   Set Main Stack Pointer
 328:Libraries/CMSIS/Include/cmsis_gcc.h ****   \details Assigns the given value to the Main Stack Pointer (MSP).
 329:Libraries/CMSIS/Include/cmsis_gcc.h ****   \param [in]    topOfMainStack  Main Stack Pointer value to set
 330:Libraries/CMSIS/Include/cmsis_gcc.h ****  */
 331:Libraries/CMSIS/Include/cmsis_gcc.h **** __STATIC_FORCEINLINE void __set_MSP(uint32_t topOfMainStack)
 332:Libraries/CMSIS/Include/cmsis_gcc.h **** {
 333:Libraries/CMSIS/Include/cmsis_gcc.h ****   __ASM volatile ("MSR msp, %0" : : "r" (topOfMainStack) : );
 334:Libraries/CMSIS/Include/cmsis_gcc.h **** }
 335:Libraries/CMSIS/Include/cmsis_gcc.h **** 
 336:Libraries/CMSIS/Include/cmsis_gcc.h **** 
 337:Libraries/CMSIS/Include/cmsis_gcc.h **** #if (defined (__ARM_FEATURE_CMSE ) && (__ARM_FEATURE_CMSE == 3))
 338:Libraries/CMSIS/Include/cmsis_gcc.h **** /**
 339:Libraries/CMSIS/Include/cmsis_gcc.h ****   \brief   Set Main Stack Pointer (non-secure)
 340:Libraries/CMSIS/Include/cmsis_gcc.h ****   \details Assigns the given value to the non-secure Main Stack Pointer (MSP) when in secure state.
 341:Libraries/CMSIS/Include/cmsis_gcc.h ****   \param [in]    topOfMainStack  Main Stack Pointer value to set
ARM GAS  C:\Users\yzy\AppData\Local\Temp\ccxXXGiZ.s 			page 19


 342:Libraries/CMSIS/Include/cmsis_gcc.h ****  */
 343:Libraries/CMSIS/Include/cmsis_gcc.h **** __STATIC_FORCEINLINE void __TZ_set_MSP_NS(uint32_t topOfMainStack)
 344:Libraries/CMSIS/Include/cmsis_gcc.h **** {
 345:Libraries/CMSIS/Include/cmsis_gcc.h ****   __ASM volatile ("MSR msp_ns, %0" : : "r" (topOfMainStack) : );
 346:Libraries/CMSIS/Include/cmsis_gcc.h **** }
 347:Libraries/CMSIS/Include/cmsis_gcc.h **** #endif
 348:Libraries/CMSIS/Include/cmsis_gcc.h **** 
 349:Libraries/CMSIS/Include/cmsis_gcc.h **** 
 350:Libraries/CMSIS/Include/cmsis_gcc.h **** #if (defined (__ARM_FEATURE_CMSE ) && (__ARM_FEATURE_CMSE == 3))
 351:Libraries/CMSIS/Include/cmsis_gcc.h **** /**
 352:Libraries/CMSIS/Include/cmsis_gcc.h ****   \brief   Get Stack Pointer (non-secure)
 353:Libraries/CMSIS/Include/cmsis_gcc.h ****   \details Returns the current value of the non-secure Stack Pointer (SP) when in secure state.
 354:Libraries/CMSIS/Include/cmsis_gcc.h ****   \return               SP Register value
 355:Libraries/CMSIS/Include/cmsis_gcc.h ****  */
 356:Libraries/CMSIS/Include/cmsis_gcc.h **** __STATIC_FORCEINLINE uint32_t __TZ_get_SP_NS(void)
 357:Libraries/CMSIS/Include/cmsis_gcc.h **** {
 358:Libraries/CMSIS/Include/cmsis_gcc.h ****   uint32_t result;
 359:Libraries/CMSIS/Include/cmsis_gcc.h **** 
 360:Libraries/CMSIS/Include/cmsis_gcc.h ****   __ASM volatile ("MRS %0, sp_ns" : "=r" (result) );
 361:Libraries/CMSIS/Include/cmsis_gcc.h ****   return(result);
 362:Libraries/CMSIS/Include/cmsis_gcc.h **** }
 363:Libraries/CMSIS/Include/cmsis_gcc.h **** 
 364:Libraries/CMSIS/Include/cmsis_gcc.h **** 
 365:Libraries/CMSIS/Include/cmsis_gcc.h **** /**
 366:Libraries/CMSIS/Include/cmsis_gcc.h ****   \brief   Set Stack Pointer (non-secure)
 367:Libraries/CMSIS/Include/cmsis_gcc.h ****   \details Assigns the given value to the non-secure Stack Pointer (SP) when in secure state.
 368:Libraries/CMSIS/Include/cmsis_gcc.h ****   \param [in]    topOfStack  Stack Pointer value to set
 369:Libraries/CMSIS/Include/cmsis_gcc.h ****  */
 370:Libraries/CMSIS/Include/cmsis_gcc.h **** __STATIC_FORCEINLINE void __TZ_set_SP_NS(uint32_t topOfStack)
 371:Libraries/CMSIS/Include/cmsis_gcc.h **** {
 372:Libraries/CMSIS/Include/cmsis_gcc.h ****   __ASM volatile ("MSR sp_ns, %0" : : "r" (topOfStack) : );
 373:Libraries/CMSIS/Include/cmsis_gcc.h **** }
 374:Libraries/CMSIS/Include/cmsis_gcc.h **** #endif
 375:Libraries/CMSIS/Include/cmsis_gcc.h **** 
 376:Libraries/CMSIS/Include/cmsis_gcc.h **** 
 377:Libraries/CMSIS/Include/cmsis_gcc.h **** /**
 378:Libraries/CMSIS/Include/cmsis_gcc.h ****   \brief   Get Priority Mask
 379:Libraries/CMSIS/Include/cmsis_gcc.h ****   \details Returns the current state of the priority mask bit from the Priority Mask Register.
 380:Libraries/CMSIS/Include/cmsis_gcc.h ****   \return               Priority Mask value
 381:Libraries/CMSIS/Include/cmsis_gcc.h ****  */
 382:Libraries/CMSIS/Include/cmsis_gcc.h **** __STATIC_FORCEINLINE uint32_t __get_PRIMASK(void)
 383:Libraries/CMSIS/Include/cmsis_gcc.h **** {
 384:Libraries/CMSIS/Include/cmsis_gcc.h ****   uint32_t result;
 385:Libraries/CMSIS/Include/cmsis_gcc.h **** 
 386:Libraries/CMSIS/Include/cmsis_gcc.h ****   __ASM volatile ("MRS %0, primask" : "=r" (result) :: "memory");
 387:Libraries/CMSIS/Include/cmsis_gcc.h ****   return(result);
 388:Libraries/CMSIS/Include/cmsis_gcc.h **** }
 389:Libraries/CMSIS/Include/cmsis_gcc.h **** 
 390:Libraries/CMSIS/Include/cmsis_gcc.h **** 
 391:Libraries/CMSIS/Include/cmsis_gcc.h **** #if (defined (__ARM_FEATURE_CMSE ) && (__ARM_FEATURE_CMSE == 3))
 392:Libraries/CMSIS/Include/cmsis_gcc.h **** /**
 393:Libraries/CMSIS/Include/cmsis_gcc.h ****   \brief   Get Priority Mask (non-secure)
 394:Libraries/CMSIS/Include/cmsis_gcc.h ****   \details Returns the current state of the non-secure priority mask bit from the Priority Mask Reg
 395:Libraries/CMSIS/Include/cmsis_gcc.h ****   \return               Priority Mask value
 396:Libraries/CMSIS/Include/cmsis_gcc.h ****  */
 397:Libraries/CMSIS/Include/cmsis_gcc.h **** __STATIC_FORCEINLINE uint32_t __TZ_get_PRIMASK_NS(void)
 398:Libraries/CMSIS/Include/cmsis_gcc.h **** {
ARM GAS  C:\Users\yzy\AppData\Local\Temp\ccxXXGiZ.s 			page 20


 399:Libraries/CMSIS/Include/cmsis_gcc.h ****   uint32_t result;
 400:Libraries/CMSIS/Include/cmsis_gcc.h **** 
 401:Libraries/CMSIS/Include/cmsis_gcc.h ****   __ASM volatile ("MRS %0, primask_ns" : "=r" (result) :: "memory");
 402:Libraries/CMSIS/Include/cmsis_gcc.h ****   return(result);
 403:Libraries/CMSIS/Include/cmsis_gcc.h **** }
 404:Libraries/CMSIS/Include/cmsis_gcc.h **** #endif
 405:Libraries/CMSIS/Include/cmsis_gcc.h **** 
 406:Libraries/CMSIS/Include/cmsis_gcc.h **** 
 407:Libraries/CMSIS/Include/cmsis_gcc.h **** /**
 408:Libraries/CMSIS/Include/cmsis_gcc.h ****   \brief   Set Priority Mask
 409:Libraries/CMSIS/Include/cmsis_gcc.h ****   \details Assigns the given value to the Priority Mask Register.
 410:Libraries/CMSIS/Include/cmsis_gcc.h ****   \param [in]    priMask  Priority Mask
 411:Libraries/CMSIS/Include/cmsis_gcc.h ****  */
 412:Libraries/CMSIS/Include/cmsis_gcc.h **** __STATIC_FORCEINLINE void __set_PRIMASK(uint32_t priMask)
 413:Libraries/CMSIS/Include/cmsis_gcc.h **** {
 414:Libraries/CMSIS/Include/cmsis_gcc.h ****   __ASM volatile ("MSR primask, %0" : : "r" (priMask) : "memory");
 415:Libraries/CMSIS/Include/cmsis_gcc.h **** }
 416:Libraries/CMSIS/Include/cmsis_gcc.h **** 
 417:Libraries/CMSIS/Include/cmsis_gcc.h **** 
 418:Libraries/CMSIS/Include/cmsis_gcc.h **** #if (defined (__ARM_FEATURE_CMSE ) && (__ARM_FEATURE_CMSE == 3))
 419:Libraries/CMSIS/Include/cmsis_gcc.h **** /**
 420:Libraries/CMSIS/Include/cmsis_gcc.h ****   \brief   Set Priority Mask (non-secure)
 421:Libraries/CMSIS/Include/cmsis_gcc.h ****   \details Assigns the given value to the non-secure Priority Mask Register when in secure state.
 422:Libraries/CMSIS/Include/cmsis_gcc.h ****   \param [in]    priMask  Priority Mask
 423:Libraries/CMSIS/Include/cmsis_gcc.h ****  */
 424:Libraries/CMSIS/Include/cmsis_gcc.h **** __STATIC_FORCEINLINE void __TZ_set_PRIMASK_NS(uint32_t priMask)
 425:Libraries/CMSIS/Include/cmsis_gcc.h **** {
 426:Libraries/CMSIS/Include/cmsis_gcc.h ****   __ASM volatile ("MSR primask_ns, %0" : : "r" (priMask) : "memory");
 427:Libraries/CMSIS/Include/cmsis_gcc.h **** }
 428:Libraries/CMSIS/Include/cmsis_gcc.h **** #endif
 429:Libraries/CMSIS/Include/cmsis_gcc.h **** 
 430:Libraries/CMSIS/Include/cmsis_gcc.h **** 
 431:Libraries/CMSIS/Include/cmsis_gcc.h **** #if ((defined (__ARM_ARCH_7M__      ) && (__ARM_ARCH_7M__      == 1)) || \
 432:Libraries/CMSIS/Include/cmsis_gcc.h ****      (defined (__ARM_ARCH_7EM__     ) && (__ARM_ARCH_7EM__     == 1)) || \
 433:Libraries/CMSIS/Include/cmsis_gcc.h ****      (defined (__ARM_ARCH_8M_MAIN__ ) && (__ARM_ARCH_8M_MAIN__ == 1))    )
 434:Libraries/CMSIS/Include/cmsis_gcc.h **** /**
 435:Libraries/CMSIS/Include/cmsis_gcc.h ****   \brief   Enable FIQ
 436:Libraries/CMSIS/Include/cmsis_gcc.h ****   \details Enables FIQ interrupts by clearing the F-bit in the CPSR.
 437:Libraries/CMSIS/Include/cmsis_gcc.h ****            Can only be executed in Privileged modes.
 438:Libraries/CMSIS/Include/cmsis_gcc.h ****  */
 439:Libraries/CMSIS/Include/cmsis_gcc.h **** __STATIC_FORCEINLINE void __enable_fault_irq(void)
 440:Libraries/CMSIS/Include/cmsis_gcc.h **** {
 441:Libraries/CMSIS/Include/cmsis_gcc.h ****   __ASM volatile ("cpsie f" : : : "memory");
 442:Libraries/CMSIS/Include/cmsis_gcc.h **** }
 443:Libraries/CMSIS/Include/cmsis_gcc.h **** 
 444:Libraries/CMSIS/Include/cmsis_gcc.h **** 
 445:Libraries/CMSIS/Include/cmsis_gcc.h **** /**
 446:Libraries/CMSIS/Include/cmsis_gcc.h ****   \brief   Disable FIQ
 447:Libraries/CMSIS/Include/cmsis_gcc.h ****   \details Disables FIQ interrupts by setting the F-bit in the CPSR.
 448:Libraries/CMSIS/Include/cmsis_gcc.h ****            Can only be executed in Privileged modes.
 449:Libraries/CMSIS/Include/cmsis_gcc.h ****  */
 450:Libraries/CMSIS/Include/cmsis_gcc.h **** __STATIC_FORCEINLINE void __disable_fault_irq(void)
 451:Libraries/CMSIS/Include/cmsis_gcc.h **** {
 452:Libraries/CMSIS/Include/cmsis_gcc.h ****   __ASM volatile ("cpsid f" : : : "memory");
 453:Libraries/CMSIS/Include/cmsis_gcc.h **** }
 454:Libraries/CMSIS/Include/cmsis_gcc.h **** 
 455:Libraries/CMSIS/Include/cmsis_gcc.h **** 
ARM GAS  C:\Users\yzy\AppData\Local\Temp\ccxXXGiZ.s 			page 21


 456:Libraries/CMSIS/Include/cmsis_gcc.h **** /**
 457:Libraries/CMSIS/Include/cmsis_gcc.h ****   \brief   Get Base Priority
 458:Libraries/CMSIS/Include/cmsis_gcc.h ****   \details Returns the current value of the Base Priority register.
 459:Libraries/CMSIS/Include/cmsis_gcc.h ****   \return               Base Priority register value
 460:Libraries/CMSIS/Include/cmsis_gcc.h ****  */
 461:Libraries/CMSIS/Include/cmsis_gcc.h **** __STATIC_FORCEINLINE uint32_t __get_BASEPRI(void)
 462:Libraries/CMSIS/Include/cmsis_gcc.h **** {
 463:Libraries/CMSIS/Include/cmsis_gcc.h ****   uint32_t result;
 464:Libraries/CMSIS/Include/cmsis_gcc.h **** 
 465:Libraries/CMSIS/Include/cmsis_gcc.h ****   __ASM volatile ("MRS %0, basepri" : "=r" (result) );
 466:Libraries/CMSIS/Include/cmsis_gcc.h ****   return(result);
 467:Libraries/CMSIS/Include/cmsis_gcc.h **** }
 468:Libraries/CMSIS/Include/cmsis_gcc.h **** 
 469:Libraries/CMSIS/Include/cmsis_gcc.h **** 
 470:Libraries/CMSIS/Include/cmsis_gcc.h **** #if (defined (__ARM_FEATURE_CMSE ) && (__ARM_FEATURE_CMSE == 3))
 471:Libraries/CMSIS/Include/cmsis_gcc.h **** /**
 472:Libraries/CMSIS/Include/cmsis_gcc.h ****   \brief   Get Base Priority (non-secure)
 473:Libraries/CMSIS/Include/cmsis_gcc.h ****   \details Returns the current value of the non-secure Base Priority register when in secure state.
 474:Libraries/CMSIS/Include/cmsis_gcc.h ****   \return               Base Priority register value
 475:Libraries/CMSIS/Include/cmsis_gcc.h ****  */
 476:Libraries/CMSIS/Include/cmsis_gcc.h **** __STATIC_FORCEINLINE uint32_t __TZ_get_BASEPRI_NS(void)
 477:Libraries/CMSIS/Include/cmsis_gcc.h **** {
 478:Libraries/CMSIS/Include/cmsis_gcc.h ****   uint32_t result;
 479:Libraries/CMSIS/Include/cmsis_gcc.h **** 
 480:Libraries/CMSIS/Include/cmsis_gcc.h ****   __ASM volatile ("MRS %0, basepri_ns" : "=r" (result) );
 481:Libraries/CMSIS/Include/cmsis_gcc.h ****   return(result);
 482:Libraries/CMSIS/Include/cmsis_gcc.h **** }
 483:Libraries/CMSIS/Include/cmsis_gcc.h **** #endif
 484:Libraries/CMSIS/Include/cmsis_gcc.h **** 
 485:Libraries/CMSIS/Include/cmsis_gcc.h **** 
 486:Libraries/CMSIS/Include/cmsis_gcc.h **** /**
 487:Libraries/CMSIS/Include/cmsis_gcc.h ****   \brief   Set Base Priority
 488:Libraries/CMSIS/Include/cmsis_gcc.h ****   \details Assigns the given value to the Base Priority register.
 489:Libraries/CMSIS/Include/cmsis_gcc.h ****   \param [in]    basePri  Base Priority value to set
 490:Libraries/CMSIS/Include/cmsis_gcc.h ****  */
 491:Libraries/CMSIS/Include/cmsis_gcc.h **** __STATIC_FORCEINLINE void __set_BASEPRI(uint32_t basePri)
 492:Libraries/CMSIS/Include/cmsis_gcc.h **** {
 493:Libraries/CMSIS/Include/cmsis_gcc.h ****   __ASM volatile ("MSR basepri, %0" : : "r" (basePri) : "memory");
 494:Libraries/CMSIS/Include/cmsis_gcc.h **** }
 495:Libraries/CMSIS/Include/cmsis_gcc.h **** 
 496:Libraries/CMSIS/Include/cmsis_gcc.h **** 
 497:Libraries/CMSIS/Include/cmsis_gcc.h **** #if (defined (__ARM_FEATURE_CMSE ) && (__ARM_FEATURE_CMSE == 3))
 498:Libraries/CMSIS/Include/cmsis_gcc.h **** /**
 499:Libraries/CMSIS/Include/cmsis_gcc.h ****   \brief   Set Base Priority (non-secure)
 500:Libraries/CMSIS/Include/cmsis_gcc.h ****   \details Assigns the given value to the non-secure Base Priority register when in secure state.
 501:Libraries/CMSIS/Include/cmsis_gcc.h ****   \param [in]    basePri  Base Priority value to set
 502:Libraries/CMSIS/Include/cmsis_gcc.h ****  */
 503:Libraries/CMSIS/Include/cmsis_gcc.h **** __STATIC_FORCEINLINE void __TZ_set_BASEPRI_NS(uint32_t basePri)
 504:Libraries/CMSIS/Include/cmsis_gcc.h **** {
 505:Libraries/CMSIS/Include/cmsis_gcc.h ****   __ASM volatile ("MSR basepri_ns, %0" : : "r" (basePri) : "memory");
 506:Libraries/CMSIS/Include/cmsis_gcc.h **** }
 507:Libraries/CMSIS/Include/cmsis_gcc.h **** #endif
 508:Libraries/CMSIS/Include/cmsis_gcc.h **** 
 509:Libraries/CMSIS/Include/cmsis_gcc.h **** 
 510:Libraries/CMSIS/Include/cmsis_gcc.h **** /**
 511:Libraries/CMSIS/Include/cmsis_gcc.h ****   \brief   Set Base Priority with condition
 512:Libraries/CMSIS/Include/cmsis_gcc.h ****   \details Assigns the given value to the Base Priority register only if BASEPRI masking is disable
ARM GAS  C:\Users\yzy\AppData\Local\Temp\ccxXXGiZ.s 			page 22


 513:Libraries/CMSIS/Include/cmsis_gcc.h ****            or the new value increases the BASEPRI priority level.
 514:Libraries/CMSIS/Include/cmsis_gcc.h ****   \param [in]    basePri  Base Priority value to set
 515:Libraries/CMSIS/Include/cmsis_gcc.h ****  */
 516:Libraries/CMSIS/Include/cmsis_gcc.h **** __STATIC_FORCEINLINE void __set_BASEPRI_MAX(uint32_t basePri)
 517:Libraries/CMSIS/Include/cmsis_gcc.h **** {
 518:Libraries/CMSIS/Include/cmsis_gcc.h ****   __ASM volatile ("MSR basepri_max, %0" : : "r" (basePri) : "memory");
 519:Libraries/CMSIS/Include/cmsis_gcc.h **** }
 520:Libraries/CMSIS/Include/cmsis_gcc.h **** 
 521:Libraries/CMSIS/Include/cmsis_gcc.h **** 
 522:Libraries/CMSIS/Include/cmsis_gcc.h **** /**
 523:Libraries/CMSIS/Include/cmsis_gcc.h ****   \brief   Get Fault Mask
 524:Libraries/CMSIS/Include/cmsis_gcc.h ****   \details Returns the current value of the Fault Mask register.
 525:Libraries/CMSIS/Include/cmsis_gcc.h ****   \return               Fault Mask register value
 526:Libraries/CMSIS/Include/cmsis_gcc.h ****  */
 527:Libraries/CMSIS/Include/cmsis_gcc.h **** __STATIC_FORCEINLINE uint32_t __get_FAULTMASK(void)
 528:Libraries/CMSIS/Include/cmsis_gcc.h **** {
 529:Libraries/CMSIS/Include/cmsis_gcc.h ****   uint32_t result;
 530:Libraries/CMSIS/Include/cmsis_gcc.h **** 
 531:Libraries/CMSIS/Include/cmsis_gcc.h ****   __ASM volatile ("MRS %0, faultmask" : "=r" (result) );
 532:Libraries/CMSIS/Include/cmsis_gcc.h ****   return(result);
 533:Libraries/CMSIS/Include/cmsis_gcc.h **** }
 534:Libraries/CMSIS/Include/cmsis_gcc.h **** 
 535:Libraries/CMSIS/Include/cmsis_gcc.h **** 
 536:Libraries/CMSIS/Include/cmsis_gcc.h **** #if (defined (__ARM_FEATURE_CMSE ) && (__ARM_FEATURE_CMSE == 3))
 537:Libraries/CMSIS/Include/cmsis_gcc.h **** /**
 538:Libraries/CMSIS/Include/cmsis_gcc.h ****   \brief   Get Fault Mask (non-secure)
 539:Libraries/CMSIS/Include/cmsis_gcc.h ****   \details Returns the current value of the non-secure Fault Mask register when in secure state.
 540:Libraries/CMSIS/Include/cmsis_gcc.h ****   \return               Fault Mask register value
 541:Libraries/CMSIS/Include/cmsis_gcc.h ****  */
 542:Libraries/CMSIS/Include/cmsis_gcc.h **** __STATIC_FORCEINLINE uint32_t __TZ_get_FAULTMASK_NS(void)
 543:Libraries/CMSIS/Include/cmsis_gcc.h **** {
 544:Libraries/CMSIS/Include/cmsis_gcc.h ****   uint32_t result;
 545:Libraries/CMSIS/Include/cmsis_gcc.h **** 
 546:Libraries/CMSIS/Include/cmsis_gcc.h ****   __ASM volatile ("MRS %0, faultmask_ns" : "=r" (result) );
 547:Libraries/CMSIS/Include/cmsis_gcc.h ****   return(result);
 548:Libraries/CMSIS/Include/cmsis_gcc.h **** }
 549:Libraries/CMSIS/Include/cmsis_gcc.h **** #endif
 550:Libraries/CMSIS/Include/cmsis_gcc.h **** 
 551:Libraries/CMSIS/Include/cmsis_gcc.h **** 
 552:Libraries/CMSIS/Include/cmsis_gcc.h **** /**
 553:Libraries/CMSIS/Include/cmsis_gcc.h ****   \brief   Set Fault Mask
 554:Libraries/CMSIS/Include/cmsis_gcc.h ****   \details Assigns the given value to the Fault Mask register.
 555:Libraries/CMSIS/Include/cmsis_gcc.h ****   \param [in]    faultMask  Fault Mask value to set
 556:Libraries/CMSIS/Include/cmsis_gcc.h ****  */
 557:Libraries/CMSIS/Include/cmsis_gcc.h **** __STATIC_FORCEINLINE void __set_FAULTMASK(uint32_t faultMask)
 558:Libraries/CMSIS/Include/cmsis_gcc.h **** {
 559:Libraries/CMSIS/Include/cmsis_gcc.h ****   __ASM volatile ("MSR faultmask, %0" : : "r" (faultMask) : "memory");
 560:Libraries/CMSIS/Include/cmsis_gcc.h **** }
 561:Libraries/CMSIS/Include/cmsis_gcc.h **** 
 562:Libraries/CMSIS/Include/cmsis_gcc.h **** 
 563:Libraries/CMSIS/Include/cmsis_gcc.h **** #if (defined (__ARM_FEATURE_CMSE ) && (__ARM_FEATURE_CMSE == 3))
 564:Libraries/CMSIS/Include/cmsis_gcc.h **** /**
 565:Libraries/CMSIS/Include/cmsis_gcc.h ****   \brief   Set Fault Mask (non-secure)
 566:Libraries/CMSIS/Include/cmsis_gcc.h ****   \details Assigns the given value to the non-secure Fault Mask register when in secure state.
 567:Libraries/CMSIS/Include/cmsis_gcc.h ****   \param [in]    faultMask  Fault Mask value to set
 568:Libraries/CMSIS/Include/cmsis_gcc.h ****  */
 569:Libraries/CMSIS/Include/cmsis_gcc.h **** __STATIC_FORCEINLINE void __TZ_set_FAULTMASK_NS(uint32_t faultMask)
ARM GAS  C:\Users\yzy\AppData\Local\Temp\ccxXXGiZ.s 			page 23


 570:Libraries/CMSIS/Include/cmsis_gcc.h **** {
 571:Libraries/CMSIS/Include/cmsis_gcc.h ****   __ASM volatile ("MSR faultmask_ns, %0" : : "r" (faultMask) : "memory");
 572:Libraries/CMSIS/Include/cmsis_gcc.h **** }
 573:Libraries/CMSIS/Include/cmsis_gcc.h **** #endif
 574:Libraries/CMSIS/Include/cmsis_gcc.h **** 
 575:Libraries/CMSIS/Include/cmsis_gcc.h **** #endif /* ((defined (__ARM_ARCH_7M__      ) && (__ARM_ARCH_7M__      == 1)) || \
 576:Libraries/CMSIS/Include/cmsis_gcc.h ****            (defined (__ARM_ARCH_7EM__     ) && (__ARM_ARCH_7EM__     == 1)) || \
 577:Libraries/CMSIS/Include/cmsis_gcc.h ****            (defined (__ARM_ARCH_8M_MAIN__ ) && (__ARM_ARCH_8M_MAIN__ == 1))    ) */
 578:Libraries/CMSIS/Include/cmsis_gcc.h **** 
 579:Libraries/CMSIS/Include/cmsis_gcc.h **** 
 580:Libraries/CMSIS/Include/cmsis_gcc.h **** #if ((defined (__ARM_ARCH_8M_MAIN__ ) && (__ARM_ARCH_8M_MAIN__ == 1)) || \
 581:Libraries/CMSIS/Include/cmsis_gcc.h ****      (defined (__ARM_ARCH_8M_BASE__ ) && (__ARM_ARCH_8M_BASE__ == 1))    )
 582:Libraries/CMSIS/Include/cmsis_gcc.h **** 
 583:Libraries/CMSIS/Include/cmsis_gcc.h **** /**
 584:Libraries/CMSIS/Include/cmsis_gcc.h ****   \brief   Get Process Stack Pointer Limit
 585:Libraries/CMSIS/Include/cmsis_gcc.h ****   Devices without ARMv8-M Main Extensions (i.e. Cortex-M23) lack the non-secure
 586:Libraries/CMSIS/Include/cmsis_gcc.h ****   Stack Pointer Limit register hence zero is returned always in non-secure
 587:Libraries/CMSIS/Include/cmsis_gcc.h ****   mode.
 588:Libraries/CMSIS/Include/cmsis_gcc.h ****   
 589:Libraries/CMSIS/Include/cmsis_gcc.h ****   \details Returns the current value of the Process Stack Pointer Limit (PSPLIM).
 590:Libraries/CMSIS/Include/cmsis_gcc.h ****   \return               PSPLIM Register value
 591:Libraries/CMSIS/Include/cmsis_gcc.h ****  */
 592:Libraries/CMSIS/Include/cmsis_gcc.h **** __STATIC_FORCEINLINE uint32_t __get_PSPLIM(void)
 593:Libraries/CMSIS/Include/cmsis_gcc.h **** {
 594:Libraries/CMSIS/Include/cmsis_gcc.h **** #if (!(defined (__ARM_ARCH_8M_MAIN__ ) && (__ARM_ARCH_8M_MAIN__ == 1)) && \
 595:Libraries/CMSIS/Include/cmsis_gcc.h ****     (!defined (__ARM_FEATURE_CMSE) || (__ARM_FEATURE_CMSE < 3)))
 596:Libraries/CMSIS/Include/cmsis_gcc.h ****     // without main extensions, the non-secure PSPLIM is RAZ/WI
 597:Libraries/CMSIS/Include/cmsis_gcc.h ****   return 0U;
 598:Libraries/CMSIS/Include/cmsis_gcc.h **** #else
 599:Libraries/CMSIS/Include/cmsis_gcc.h ****   uint32_t result;
 600:Libraries/CMSIS/Include/cmsis_gcc.h ****   __ASM volatile ("MRS %0, psplim"  : "=r" (result) );
 601:Libraries/CMSIS/Include/cmsis_gcc.h ****   return result;
 602:Libraries/CMSIS/Include/cmsis_gcc.h **** #endif
 603:Libraries/CMSIS/Include/cmsis_gcc.h **** }
 604:Libraries/CMSIS/Include/cmsis_gcc.h **** 
 605:Libraries/CMSIS/Include/cmsis_gcc.h **** #if (defined (__ARM_FEATURE_CMSE) && (__ARM_FEATURE_CMSE == 3))
 606:Libraries/CMSIS/Include/cmsis_gcc.h **** /**
 607:Libraries/CMSIS/Include/cmsis_gcc.h ****   \brief   Get Process Stack Pointer Limit (non-secure)
 608:Libraries/CMSIS/Include/cmsis_gcc.h ****   Devices without ARMv8-M Main Extensions (i.e. Cortex-M23) lack the non-secure
 609:Libraries/CMSIS/Include/cmsis_gcc.h ****   Stack Pointer Limit register hence zero is returned always.
 610:Libraries/CMSIS/Include/cmsis_gcc.h **** 
 611:Libraries/CMSIS/Include/cmsis_gcc.h ****   \details Returns the current value of the non-secure Process Stack Pointer Limit (PSPLIM) when in
 612:Libraries/CMSIS/Include/cmsis_gcc.h ****   \return               PSPLIM Register value
 613:Libraries/CMSIS/Include/cmsis_gcc.h ****  */
 614:Libraries/CMSIS/Include/cmsis_gcc.h **** __STATIC_FORCEINLINE uint32_t __TZ_get_PSPLIM_NS(void)
 615:Libraries/CMSIS/Include/cmsis_gcc.h **** {
 616:Libraries/CMSIS/Include/cmsis_gcc.h **** #if (!(defined (__ARM_ARCH_8M_MAIN__ ) && (__ARM_ARCH_8M_MAIN__ == 1)))
 617:Libraries/CMSIS/Include/cmsis_gcc.h ****   // without main extensions, the non-secure PSPLIM is RAZ/WI
 618:Libraries/CMSIS/Include/cmsis_gcc.h ****   return 0U;
 619:Libraries/CMSIS/Include/cmsis_gcc.h **** #else
 620:Libraries/CMSIS/Include/cmsis_gcc.h ****   uint32_t result;
 621:Libraries/CMSIS/Include/cmsis_gcc.h ****   __ASM volatile ("MRS %0, psplim_ns"  : "=r" (result) );
 622:Libraries/CMSIS/Include/cmsis_gcc.h ****   return result;
 623:Libraries/CMSIS/Include/cmsis_gcc.h **** #endif
 624:Libraries/CMSIS/Include/cmsis_gcc.h **** }
 625:Libraries/CMSIS/Include/cmsis_gcc.h **** #endif
 626:Libraries/CMSIS/Include/cmsis_gcc.h **** 
ARM GAS  C:\Users\yzy\AppData\Local\Temp\ccxXXGiZ.s 			page 24


 627:Libraries/CMSIS/Include/cmsis_gcc.h **** 
 628:Libraries/CMSIS/Include/cmsis_gcc.h **** /**
 629:Libraries/CMSIS/Include/cmsis_gcc.h ****   \brief   Set Process Stack Pointer Limit
 630:Libraries/CMSIS/Include/cmsis_gcc.h ****   Devices without ARMv8-M Main Extensions (i.e. Cortex-M23) lack the non-secure
 631:Libraries/CMSIS/Include/cmsis_gcc.h ****   Stack Pointer Limit register hence the write is silently ignored in non-secure
 632:Libraries/CMSIS/Include/cmsis_gcc.h ****   mode.
 633:Libraries/CMSIS/Include/cmsis_gcc.h ****   
 634:Libraries/CMSIS/Include/cmsis_gcc.h ****   \details Assigns the given value to the Process Stack Pointer Limit (PSPLIM).
 635:Libraries/CMSIS/Include/cmsis_gcc.h ****   \param [in]    ProcStackPtrLimit  Process Stack Pointer Limit value to set
 636:Libraries/CMSIS/Include/cmsis_gcc.h ****  */
 637:Libraries/CMSIS/Include/cmsis_gcc.h **** __STATIC_FORCEINLINE void __set_PSPLIM(uint32_t ProcStackPtrLimit)
 638:Libraries/CMSIS/Include/cmsis_gcc.h **** {
 639:Libraries/CMSIS/Include/cmsis_gcc.h **** #if (!(defined (__ARM_ARCH_8M_MAIN__ ) && (__ARM_ARCH_8M_MAIN__ == 1)) && \
 640:Libraries/CMSIS/Include/cmsis_gcc.h ****     (!defined (__ARM_FEATURE_CMSE) || (__ARM_FEATURE_CMSE < 3)))
 641:Libraries/CMSIS/Include/cmsis_gcc.h ****   // without main extensions, the non-secure PSPLIM is RAZ/WI
 642:Libraries/CMSIS/Include/cmsis_gcc.h ****   (void)ProcStackPtrLimit;
 643:Libraries/CMSIS/Include/cmsis_gcc.h **** #else
 644:Libraries/CMSIS/Include/cmsis_gcc.h ****   __ASM volatile ("MSR psplim, %0" : : "r" (ProcStackPtrLimit));
 645:Libraries/CMSIS/Include/cmsis_gcc.h **** #endif
 646:Libraries/CMSIS/Include/cmsis_gcc.h **** }
 647:Libraries/CMSIS/Include/cmsis_gcc.h **** 
 648:Libraries/CMSIS/Include/cmsis_gcc.h **** 
 649:Libraries/CMSIS/Include/cmsis_gcc.h **** #if (defined (__ARM_FEATURE_CMSE  ) && (__ARM_FEATURE_CMSE   == 3))
 650:Libraries/CMSIS/Include/cmsis_gcc.h **** /**
 651:Libraries/CMSIS/Include/cmsis_gcc.h ****   \brief   Set Process Stack Pointer (non-secure)
 652:Libraries/CMSIS/Include/cmsis_gcc.h ****   Devices without ARMv8-M Main Extensions (i.e. Cortex-M23) lack the non-secure
 653:Libraries/CMSIS/Include/cmsis_gcc.h ****   Stack Pointer Limit register hence the write is silently ignored.
 654:Libraries/CMSIS/Include/cmsis_gcc.h **** 
 655:Libraries/CMSIS/Include/cmsis_gcc.h ****   \details Assigns the given value to the non-secure Process Stack Pointer Limit (PSPLIM) when in s
 656:Libraries/CMSIS/Include/cmsis_gcc.h ****   \param [in]    ProcStackPtrLimit  Process Stack Pointer Limit value to set
 657:Libraries/CMSIS/Include/cmsis_gcc.h ****  */
 658:Libraries/CMSIS/Include/cmsis_gcc.h **** __STATIC_FORCEINLINE void __TZ_set_PSPLIM_NS(uint32_t ProcStackPtrLimit)
 659:Libraries/CMSIS/Include/cmsis_gcc.h **** {
 660:Libraries/CMSIS/Include/cmsis_gcc.h **** #if (!(defined (__ARM_ARCH_8M_MAIN__ ) && (__ARM_ARCH_8M_MAIN__ == 1)))
 661:Libraries/CMSIS/Include/cmsis_gcc.h ****   // without main extensions, the non-secure PSPLIM is RAZ/WI
 662:Libraries/CMSIS/Include/cmsis_gcc.h ****   (void)ProcStackPtrLimit;
 663:Libraries/CMSIS/Include/cmsis_gcc.h **** #else
 664:Libraries/CMSIS/Include/cmsis_gcc.h ****   __ASM volatile ("MSR psplim_ns, %0\n" : : "r" (ProcStackPtrLimit));
 665:Libraries/CMSIS/Include/cmsis_gcc.h **** #endif
 666:Libraries/CMSIS/Include/cmsis_gcc.h **** }
 667:Libraries/CMSIS/Include/cmsis_gcc.h **** #endif
 668:Libraries/CMSIS/Include/cmsis_gcc.h **** 
 669:Libraries/CMSIS/Include/cmsis_gcc.h **** 
 670:Libraries/CMSIS/Include/cmsis_gcc.h **** /**
 671:Libraries/CMSIS/Include/cmsis_gcc.h ****   \brief   Get Main Stack Pointer Limit
 672:Libraries/CMSIS/Include/cmsis_gcc.h ****   Devices without ARMv8-M Main Extensions (i.e. Cortex-M23) lack the non-secure
 673:Libraries/CMSIS/Include/cmsis_gcc.h ****   Stack Pointer Limit register hence zero is returned always in non-secure
 674:Libraries/CMSIS/Include/cmsis_gcc.h ****   mode.
 675:Libraries/CMSIS/Include/cmsis_gcc.h **** 
 676:Libraries/CMSIS/Include/cmsis_gcc.h ****   \details Returns the current value of the Main Stack Pointer Limit (MSPLIM).
 677:Libraries/CMSIS/Include/cmsis_gcc.h ****   \return               MSPLIM Register value
 678:Libraries/CMSIS/Include/cmsis_gcc.h ****  */
 679:Libraries/CMSIS/Include/cmsis_gcc.h **** __STATIC_FORCEINLINE uint32_t __get_MSPLIM(void)
 680:Libraries/CMSIS/Include/cmsis_gcc.h **** {
 681:Libraries/CMSIS/Include/cmsis_gcc.h **** #if (!(defined (__ARM_ARCH_8M_MAIN__ ) && (__ARM_ARCH_8M_MAIN__ == 1)) && \
 682:Libraries/CMSIS/Include/cmsis_gcc.h ****     (!defined (__ARM_FEATURE_CMSE) || (__ARM_FEATURE_CMSE < 3)))
 683:Libraries/CMSIS/Include/cmsis_gcc.h ****   // without main extensions, the non-secure MSPLIM is RAZ/WI
ARM GAS  C:\Users\yzy\AppData\Local\Temp\ccxXXGiZ.s 			page 25


 684:Libraries/CMSIS/Include/cmsis_gcc.h ****   return 0U;
 685:Libraries/CMSIS/Include/cmsis_gcc.h **** #else
 686:Libraries/CMSIS/Include/cmsis_gcc.h ****   uint32_t result;
 687:Libraries/CMSIS/Include/cmsis_gcc.h ****   __ASM volatile ("MRS %0, msplim" : "=r" (result) );
 688:Libraries/CMSIS/Include/cmsis_gcc.h ****   return result;
 689:Libraries/CMSIS/Include/cmsis_gcc.h **** #endif
 690:Libraries/CMSIS/Include/cmsis_gcc.h **** }
 691:Libraries/CMSIS/Include/cmsis_gcc.h **** 
 692:Libraries/CMSIS/Include/cmsis_gcc.h **** 
 693:Libraries/CMSIS/Include/cmsis_gcc.h **** #if (defined (__ARM_FEATURE_CMSE  ) && (__ARM_FEATURE_CMSE   == 3))
 694:Libraries/CMSIS/Include/cmsis_gcc.h **** /**
 695:Libraries/CMSIS/Include/cmsis_gcc.h ****   \brief   Get Main Stack Pointer Limit (non-secure)
 696:Libraries/CMSIS/Include/cmsis_gcc.h ****   Devices without ARMv8-M Main Extensions (i.e. Cortex-M23) lack the non-secure
 697:Libraries/CMSIS/Include/cmsis_gcc.h ****   Stack Pointer Limit register hence zero is returned always.
 698:Libraries/CMSIS/Include/cmsis_gcc.h **** 
 699:Libraries/CMSIS/Include/cmsis_gcc.h ****   \details Returns the current value of the non-secure Main Stack Pointer Limit(MSPLIM) when in sec
 700:Libraries/CMSIS/Include/cmsis_gcc.h ****   \return               MSPLIM Register value
 701:Libraries/CMSIS/Include/cmsis_gcc.h ****  */
 702:Libraries/CMSIS/Include/cmsis_gcc.h **** __STATIC_FORCEINLINE uint32_t __TZ_get_MSPLIM_NS(void)
 703:Libraries/CMSIS/Include/cmsis_gcc.h **** {
 704:Libraries/CMSIS/Include/cmsis_gcc.h **** #if (!(defined (__ARM_ARCH_8M_MAIN__ ) && (__ARM_ARCH_8M_MAIN__ == 1)))
 705:Libraries/CMSIS/Include/cmsis_gcc.h ****   // without main extensions, the non-secure MSPLIM is RAZ/WI
 706:Libraries/CMSIS/Include/cmsis_gcc.h ****   return 0U;
 707:Libraries/CMSIS/Include/cmsis_gcc.h **** #else
 708:Libraries/CMSIS/Include/cmsis_gcc.h ****   uint32_t result;
 709:Libraries/CMSIS/Include/cmsis_gcc.h ****   __ASM volatile ("MRS %0, msplim_ns" : "=r" (result) );
 710:Libraries/CMSIS/Include/cmsis_gcc.h ****   return result;
 711:Libraries/CMSIS/Include/cmsis_gcc.h **** #endif
 712:Libraries/CMSIS/Include/cmsis_gcc.h **** }
 713:Libraries/CMSIS/Include/cmsis_gcc.h **** #endif
 714:Libraries/CMSIS/Include/cmsis_gcc.h **** 
 715:Libraries/CMSIS/Include/cmsis_gcc.h **** 
 716:Libraries/CMSIS/Include/cmsis_gcc.h **** /**
 717:Libraries/CMSIS/Include/cmsis_gcc.h ****   \brief   Set Main Stack Pointer Limit
 718:Libraries/CMSIS/Include/cmsis_gcc.h ****   Devices without ARMv8-M Main Extensions (i.e. Cortex-M23) lack the non-secure
 719:Libraries/CMSIS/Include/cmsis_gcc.h ****   Stack Pointer Limit register hence the write is silently ignored in non-secure
 720:Libraries/CMSIS/Include/cmsis_gcc.h ****   mode.
 721:Libraries/CMSIS/Include/cmsis_gcc.h **** 
 722:Libraries/CMSIS/Include/cmsis_gcc.h ****   \details Assigns the given value to the Main Stack Pointer Limit (MSPLIM).
 723:Libraries/CMSIS/Include/cmsis_gcc.h ****   \param [in]    MainStackPtrLimit  Main Stack Pointer Limit value to set
 724:Libraries/CMSIS/Include/cmsis_gcc.h ****  */
 725:Libraries/CMSIS/Include/cmsis_gcc.h **** __STATIC_FORCEINLINE void __set_MSPLIM(uint32_t MainStackPtrLimit)
 726:Libraries/CMSIS/Include/cmsis_gcc.h **** {
 727:Libraries/CMSIS/Include/cmsis_gcc.h **** #if (!(defined (__ARM_ARCH_8M_MAIN__ ) && (__ARM_ARCH_8M_MAIN__ == 1)) && \
 728:Libraries/CMSIS/Include/cmsis_gcc.h ****     (!defined (__ARM_FEATURE_CMSE) || (__ARM_FEATURE_CMSE < 3)))
 729:Libraries/CMSIS/Include/cmsis_gcc.h ****   // without main extensions, the non-secure MSPLIM is RAZ/WI
 730:Libraries/CMSIS/Include/cmsis_gcc.h ****   (void)MainStackPtrLimit;
 731:Libraries/CMSIS/Include/cmsis_gcc.h **** #else
 732:Libraries/CMSIS/Include/cmsis_gcc.h ****   __ASM volatile ("MSR msplim, %0" : : "r" (MainStackPtrLimit));
 733:Libraries/CMSIS/Include/cmsis_gcc.h **** #endif
 734:Libraries/CMSIS/Include/cmsis_gcc.h **** }
 735:Libraries/CMSIS/Include/cmsis_gcc.h **** 
 736:Libraries/CMSIS/Include/cmsis_gcc.h **** 
 737:Libraries/CMSIS/Include/cmsis_gcc.h **** #if (defined (__ARM_FEATURE_CMSE  ) && (__ARM_FEATURE_CMSE   == 3))
 738:Libraries/CMSIS/Include/cmsis_gcc.h **** /**
 739:Libraries/CMSIS/Include/cmsis_gcc.h ****   \brief   Set Main Stack Pointer Limit (non-secure)
 740:Libraries/CMSIS/Include/cmsis_gcc.h ****   Devices without ARMv8-M Main Extensions (i.e. Cortex-M23) lack the non-secure
ARM GAS  C:\Users\yzy\AppData\Local\Temp\ccxXXGiZ.s 			page 26


 741:Libraries/CMSIS/Include/cmsis_gcc.h ****   Stack Pointer Limit register hence the write is silently ignored.
 742:Libraries/CMSIS/Include/cmsis_gcc.h **** 
 743:Libraries/CMSIS/Include/cmsis_gcc.h ****   \details Assigns the given value to the non-secure Main Stack Pointer Limit (MSPLIM) when in secu
 744:Libraries/CMSIS/Include/cmsis_gcc.h ****   \param [in]    MainStackPtrLimit  Main Stack Pointer value to set
 745:Libraries/CMSIS/Include/cmsis_gcc.h ****  */
 746:Libraries/CMSIS/Include/cmsis_gcc.h **** __STATIC_FORCEINLINE void __TZ_set_MSPLIM_NS(uint32_t MainStackPtrLimit)
 747:Libraries/CMSIS/Include/cmsis_gcc.h **** {
 748:Libraries/CMSIS/Include/cmsis_gcc.h **** #if (!(defined (__ARM_ARCH_8M_MAIN__ ) && (__ARM_ARCH_8M_MAIN__ == 1)))
 749:Libraries/CMSIS/Include/cmsis_gcc.h ****   // without main extensions, the non-secure MSPLIM is RAZ/WI
 750:Libraries/CMSIS/Include/cmsis_gcc.h ****   (void)MainStackPtrLimit;
 751:Libraries/CMSIS/Include/cmsis_gcc.h **** #else
 752:Libraries/CMSIS/Include/cmsis_gcc.h ****   __ASM volatile ("MSR msplim_ns, %0" : : "r" (MainStackPtrLimit));
 753:Libraries/CMSIS/Include/cmsis_gcc.h **** #endif
 754:Libraries/CMSIS/Include/cmsis_gcc.h **** }
 755:Libraries/CMSIS/Include/cmsis_gcc.h **** #endif
 756:Libraries/CMSIS/Include/cmsis_gcc.h **** 
 757:Libraries/CMSIS/Include/cmsis_gcc.h **** #endif /* ((defined (__ARM_ARCH_8M_MAIN__ ) && (__ARM_ARCH_8M_MAIN__ == 1)) || \
 758:Libraries/CMSIS/Include/cmsis_gcc.h ****            (defined (__ARM_ARCH_8M_BASE__ ) && (__ARM_ARCH_8M_BASE__ == 1))    ) */
 759:Libraries/CMSIS/Include/cmsis_gcc.h **** 
 760:Libraries/CMSIS/Include/cmsis_gcc.h **** 
 761:Libraries/CMSIS/Include/cmsis_gcc.h **** /**
 762:Libraries/CMSIS/Include/cmsis_gcc.h ****   \brief   Get FPSCR
 763:Libraries/CMSIS/Include/cmsis_gcc.h ****   \details Returns the current value of the Floating Point Status/Control register.
 764:Libraries/CMSIS/Include/cmsis_gcc.h ****   \return               Floating Point Status/Control register value
 765:Libraries/CMSIS/Include/cmsis_gcc.h ****  */
 766:Libraries/CMSIS/Include/cmsis_gcc.h **** __STATIC_FORCEINLINE uint32_t __get_FPSCR(void)
 767:Libraries/CMSIS/Include/cmsis_gcc.h **** {
 768:Libraries/CMSIS/Include/cmsis_gcc.h **** #if ((defined (__FPU_PRESENT) && (__FPU_PRESENT == 1U)) && \
 769:Libraries/CMSIS/Include/cmsis_gcc.h ****      (defined (__FPU_USED   ) && (__FPU_USED    == 1U))     )
 770:Libraries/CMSIS/Include/cmsis_gcc.h **** #if __has_builtin(__builtin_arm_get_fpscr) 
 771:Libraries/CMSIS/Include/cmsis_gcc.h **** // Re-enable using built-in when GCC has been fixed
 772:Libraries/CMSIS/Include/cmsis_gcc.h **** // || (__GNUC__ > 7) || (__GNUC__ == 7 && __GNUC_MINOR__ >= 2)
 773:Libraries/CMSIS/Include/cmsis_gcc.h ****   /* see https://gcc.gnu.org/ml/gcc-patches/2017-04/msg00443.html */
 774:Libraries/CMSIS/Include/cmsis_gcc.h ****   return __builtin_arm_get_fpscr();
 775:Libraries/CMSIS/Include/cmsis_gcc.h **** #else
 776:Libraries/CMSIS/Include/cmsis_gcc.h ****   uint32_t result;
 777:Libraries/CMSIS/Include/cmsis_gcc.h **** 
 778:Libraries/CMSIS/Include/cmsis_gcc.h ****   __ASM volatile ("VMRS %0, fpscr" : "=r" (result) );
 779:Libraries/CMSIS/Include/cmsis_gcc.h ****   return(result);
 780:Libraries/CMSIS/Include/cmsis_gcc.h **** #endif
 781:Libraries/CMSIS/Include/cmsis_gcc.h **** #else
 782:Libraries/CMSIS/Include/cmsis_gcc.h ****   return(0U);
 783:Libraries/CMSIS/Include/cmsis_gcc.h **** #endif
 784:Libraries/CMSIS/Include/cmsis_gcc.h **** }
 785:Libraries/CMSIS/Include/cmsis_gcc.h **** 
 786:Libraries/CMSIS/Include/cmsis_gcc.h **** 
 787:Libraries/CMSIS/Include/cmsis_gcc.h **** /**
 788:Libraries/CMSIS/Include/cmsis_gcc.h ****   \brief   Set FPSCR
 789:Libraries/CMSIS/Include/cmsis_gcc.h ****   \details Assigns the given value to the Floating Point Status/Control register.
 790:Libraries/CMSIS/Include/cmsis_gcc.h ****   \param [in]    fpscr  Floating Point Status/Control value to set
 791:Libraries/CMSIS/Include/cmsis_gcc.h ****  */
 792:Libraries/CMSIS/Include/cmsis_gcc.h **** __STATIC_FORCEINLINE void __set_FPSCR(uint32_t fpscr)
 793:Libraries/CMSIS/Include/cmsis_gcc.h **** {
 794:Libraries/CMSIS/Include/cmsis_gcc.h **** #if ((defined (__FPU_PRESENT) && (__FPU_PRESENT == 1U)) && \
 795:Libraries/CMSIS/Include/cmsis_gcc.h ****      (defined (__FPU_USED   ) && (__FPU_USED    == 1U))     )
 796:Libraries/CMSIS/Include/cmsis_gcc.h **** #if __has_builtin(__builtin_arm_set_fpscr)
 797:Libraries/CMSIS/Include/cmsis_gcc.h **** // Re-enable using built-in when GCC has been fixed
ARM GAS  C:\Users\yzy\AppData\Local\Temp\ccxXXGiZ.s 			page 27


 798:Libraries/CMSIS/Include/cmsis_gcc.h **** // || (__GNUC__ > 7) || (__GNUC__ == 7 && __GNUC_MINOR__ >= 2)
 799:Libraries/CMSIS/Include/cmsis_gcc.h ****   /* see https://gcc.gnu.org/ml/gcc-patches/2017-04/msg00443.html */
 800:Libraries/CMSIS/Include/cmsis_gcc.h ****   __builtin_arm_set_fpscr(fpscr);
 801:Libraries/CMSIS/Include/cmsis_gcc.h **** #else
 802:Libraries/CMSIS/Include/cmsis_gcc.h ****   __ASM volatile ("VMSR fpscr, %0" : : "r" (fpscr) : "vfpcc", "memory");
 803:Libraries/CMSIS/Include/cmsis_gcc.h **** #endif
 804:Libraries/CMSIS/Include/cmsis_gcc.h **** #else
 805:Libraries/CMSIS/Include/cmsis_gcc.h ****   (void)fpscr;
 806:Libraries/CMSIS/Include/cmsis_gcc.h **** #endif
 807:Libraries/CMSIS/Include/cmsis_gcc.h **** }
 808:Libraries/CMSIS/Include/cmsis_gcc.h **** 
 809:Libraries/CMSIS/Include/cmsis_gcc.h **** 
 810:Libraries/CMSIS/Include/cmsis_gcc.h **** /*@} end of CMSIS_Core_RegAccFunctions */
 811:Libraries/CMSIS/Include/cmsis_gcc.h **** 
 812:Libraries/CMSIS/Include/cmsis_gcc.h **** 
 813:Libraries/CMSIS/Include/cmsis_gcc.h **** /* ##########################  Core Instruction Access  ######################### */
 814:Libraries/CMSIS/Include/cmsis_gcc.h **** /** \defgroup CMSIS_Core_InstructionInterface CMSIS Core Instruction Interface
 815:Libraries/CMSIS/Include/cmsis_gcc.h ****   Access to dedicated instructions
 816:Libraries/CMSIS/Include/cmsis_gcc.h ****   @{
 817:Libraries/CMSIS/Include/cmsis_gcc.h **** */
 818:Libraries/CMSIS/Include/cmsis_gcc.h **** 
 819:Libraries/CMSIS/Include/cmsis_gcc.h **** /* Define macros for porting to both thumb1 and thumb2.
 820:Libraries/CMSIS/Include/cmsis_gcc.h ****  * For thumb1, use low register (r0-r7), specified by constraint "l"
 821:Libraries/CMSIS/Include/cmsis_gcc.h ****  * Otherwise, use general registers, specified by constraint "r" */
 822:Libraries/CMSIS/Include/cmsis_gcc.h **** #if defined (__thumb__) && !defined (__thumb2__)
 823:Libraries/CMSIS/Include/cmsis_gcc.h **** #define __CMSIS_GCC_OUT_REG(r) "=l" (r)
 824:Libraries/CMSIS/Include/cmsis_gcc.h **** #define __CMSIS_GCC_RW_REG(r) "+l" (r)
 825:Libraries/CMSIS/Include/cmsis_gcc.h **** #define __CMSIS_GCC_USE_REG(r) "l" (r)
 826:Libraries/CMSIS/Include/cmsis_gcc.h **** #else
 827:Libraries/CMSIS/Include/cmsis_gcc.h **** #define __CMSIS_GCC_OUT_REG(r) "=r" (r)
 828:Libraries/CMSIS/Include/cmsis_gcc.h **** #define __CMSIS_GCC_RW_REG(r) "+r" (r)
 829:Libraries/CMSIS/Include/cmsis_gcc.h **** #define __CMSIS_GCC_USE_REG(r) "r" (r)
 830:Libraries/CMSIS/Include/cmsis_gcc.h **** #endif
 831:Libraries/CMSIS/Include/cmsis_gcc.h **** 
 832:Libraries/CMSIS/Include/cmsis_gcc.h **** /**
 833:Libraries/CMSIS/Include/cmsis_gcc.h ****   \brief   No Operation
 834:Libraries/CMSIS/Include/cmsis_gcc.h ****   \details No Operation does nothing. This instruction can be used for code alignment purposes.
 835:Libraries/CMSIS/Include/cmsis_gcc.h ****  */
 836:Libraries/CMSIS/Include/cmsis_gcc.h **** #define __NOP()                             __ASM volatile ("nop")
 837:Libraries/CMSIS/Include/cmsis_gcc.h **** 
 838:Libraries/CMSIS/Include/cmsis_gcc.h **** /**
 839:Libraries/CMSIS/Include/cmsis_gcc.h ****   \brief   Wait For Interrupt
 840:Libraries/CMSIS/Include/cmsis_gcc.h ****   \details Wait For Interrupt is a hint instruction that suspends execution until one of a number o
 841:Libraries/CMSIS/Include/cmsis_gcc.h ****  */
 842:Libraries/CMSIS/Include/cmsis_gcc.h **** #define __WFI()                             __ASM volatile ("wfi")
 843:Libraries/CMSIS/Include/cmsis_gcc.h **** 
 844:Libraries/CMSIS/Include/cmsis_gcc.h **** 
 845:Libraries/CMSIS/Include/cmsis_gcc.h **** /**
 846:Libraries/CMSIS/Include/cmsis_gcc.h ****   \brief   Wait For Event
 847:Libraries/CMSIS/Include/cmsis_gcc.h ****   \details Wait For Event is a hint instruction that permits the processor to enter
 848:Libraries/CMSIS/Include/cmsis_gcc.h ****            a low-power state until one of a number of events occurs.
 849:Libraries/CMSIS/Include/cmsis_gcc.h ****  */
 850:Libraries/CMSIS/Include/cmsis_gcc.h **** #define __WFE()                             __ASM volatile ("wfe")
 851:Libraries/CMSIS/Include/cmsis_gcc.h **** 
 852:Libraries/CMSIS/Include/cmsis_gcc.h **** 
 853:Libraries/CMSIS/Include/cmsis_gcc.h **** /**
 854:Libraries/CMSIS/Include/cmsis_gcc.h ****   \brief   Send Event
ARM GAS  C:\Users\yzy\AppData\Local\Temp\ccxXXGiZ.s 			page 28


 855:Libraries/CMSIS/Include/cmsis_gcc.h ****   \details Send Event is a hint instruction. It causes an event to be signaled to the CPU.
 856:Libraries/CMSIS/Include/cmsis_gcc.h ****  */
 857:Libraries/CMSIS/Include/cmsis_gcc.h **** #define __SEV()                             __ASM volatile ("sev")
 858:Libraries/CMSIS/Include/cmsis_gcc.h **** 
 859:Libraries/CMSIS/Include/cmsis_gcc.h **** 
 860:Libraries/CMSIS/Include/cmsis_gcc.h **** /**
 861:Libraries/CMSIS/Include/cmsis_gcc.h ****   \brief   Instruction Synchronization Barrier
 862:Libraries/CMSIS/Include/cmsis_gcc.h ****   \details Instruction Synchronization Barrier flushes the pipeline in the processor,
 863:Libraries/CMSIS/Include/cmsis_gcc.h ****            so that all instructions following the ISB are fetched from cache or memory,
 864:Libraries/CMSIS/Include/cmsis_gcc.h ****            after the instruction has been completed.
 865:Libraries/CMSIS/Include/cmsis_gcc.h ****  */
 866:Libraries/CMSIS/Include/cmsis_gcc.h **** __STATIC_FORCEINLINE void __ISB(void)
  60              		.loc 2 866 27 view .LVU11
  61              	.LBB5:
 867:Libraries/CMSIS/Include/cmsis_gcc.h **** {
 868:Libraries/CMSIS/Include/cmsis_gcc.h ****   __ASM volatile ("isb 0xF":::"memory");
  62              		.loc 2 868 3 view .LVU12
  63              		.syntax unified
  64              	@ 868 "Libraries/CMSIS/Include/cmsis_gcc.h" 1
  65 001e BFF36F8F 		isb 0xF
  66              	@ 0 "" 2
  67              		.thumb
  68              		.syntax unified
  69              	.LBE5:
  70              	.LBE4:
 628:Libraries/STM32F4xx_HAL_Driver/Src/stm32f4xx_hal_flash.c **** 
 629:Libraries/STM32F4xx_HAL_Driver/Src/stm32f4xx_hal_flash.c ****   /* Program second word */
 630:Libraries/STM32F4xx_HAL_Driver/Src/stm32f4xx_hal_flash.c ****   *(__IO uint32_t*)(Address+4) = (uint32_t)(Data >> 32);
  71              		.loc 1 630 3 view .LVU13
  72              		.loc 1 630 32 is_stmt 0 view .LVU14
  73 0022 4360     		str	r3, [r0, #4]
 631:Libraries/STM32F4xx_HAL_Driver/Src/stm32f4xx_hal_flash.c **** }
  74              		.loc 1 631 1 view .LVU15
  75 0024 10BC     		pop	{r4}
  76              	.LCFI1:
  77              		.cfi_restore 4
  78              		.cfi_def_cfa_offset 0
  79 0026 7047     		bx	lr
  80              	.L4:
  81              		.align	2
  82              	.L3:
  83 0028 003C0240 		.word	1073888256
  84              		.cfi_endproc
  85              	.LFE142:
  87              		.section	.text.FLASH_Program_Word,"ax",%progbits
  88              		.align	1
  89              		.syntax unified
  90              		.thumb
  91              		.thumb_func
  92              		.fpu softvfp
  94              	FLASH_Program_Word:
  95              	.LVL1:
  96              	.LFB143:
 632:Libraries/STM32F4xx_HAL_Driver/Src/stm32f4xx_hal_flash.c **** 
 633:Libraries/STM32F4xx_HAL_Driver/Src/stm32f4xx_hal_flash.c **** 
 634:Libraries/STM32F4xx_HAL_Driver/Src/stm32f4xx_hal_flash.c **** /**
 635:Libraries/STM32F4xx_HAL_Driver/Src/stm32f4xx_hal_flash.c ****   * @brief  Program word (32-bit) at a specified address.
ARM GAS  C:\Users\yzy\AppData\Local\Temp\ccxXXGiZ.s 			page 29


 636:Libraries/STM32F4xx_HAL_Driver/Src/stm32f4xx_hal_flash.c ****   * @note   This function must be used when the device voltage range is from
 637:Libraries/STM32F4xx_HAL_Driver/Src/stm32f4xx_hal_flash.c ****   *         2.7V to 3.6V.
 638:Libraries/STM32F4xx_HAL_Driver/Src/stm32f4xx_hal_flash.c ****   *
 639:Libraries/STM32F4xx_HAL_Driver/Src/stm32f4xx_hal_flash.c ****   * @note   If an erase and a program operations are requested simultaneously,    
 640:Libraries/STM32F4xx_HAL_Driver/Src/stm32f4xx_hal_flash.c ****   *         the erase operation is performed before the program one.
 641:Libraries/STM32F4xx_HAL_Driver/Src/stm32f4xx_hal_flash.c ****   *  
 642:Libraries/STM32F4xx_HAL_Driver/Src/stm32f4xx_hal_flash.c ****   * @param  Address specifies the address to be programmed.
 643:Libraries/STM32F4xx_HAL_Driver/Src/stm32f4xx_hal_flash.c ****   * @param  Data specifies the data to be programmed.
 644:Libraries/STM32F4xx_HAL_Driver/Src/stm32f4xx_hal_flash.c ****   * @retval None
 645:Libraries/STM32F4xx_HAL_Driver/Src/stm32f4xx_hal_flash.c ****   */
 646:Libraries/STM32F4xx_HAL_Driver/Src/stm32f4xx_hal_flash.c **** static void FLASH_Program_Word(uint32_t Address, uint32_t Data)
 647:Libraries/STM32F4xx_HAL_Driver/Src/stm32f4xx_hal_flash.c **** {
  97              		.loc 1 647 1 is_stmt 1 view -0
  98              		.cfi_startproc
  99              		@ args = 0, pretend = 0, frame = 0
 100              		@ frame_needed = 0, uses_anonymous_args = 0
 101              		@ link register save eliminated.
 648:Libraries/STM32F4xx_HAL_Driver/Src/stm32f4xx_hal_flash.c ****   /* Check the parameters */
 649:Libraries/STM32F4xx_HAL_Driver/Src/stm32f4xx_hal_flash.c ****   assert_param(IS_FLASH_ADDRESS(Address));
 102              		.loc 1 649 3 view .LVU17
 650:Libraries/STM32F4xx_HAL_Driver/Src/stm32f4xx_hal_flash.c ****   
 651:Libraries/STM32F4xx_HAL_Driver/Src/stm32f4xx_hal_flash.c ****   /* If the previous operation is completed, proceed to program the new data */
 652:Libraries/STM32F4xx_HAL_Driver/Src/stm32f4xx_hal_flash.c ****   CLEAR_BIT(FLASH->CR, FLASH_CR_PSIZE);
 103              		.loc 1 652 3 view .LVU18
 104 0000 074B     		ldr	r3, .L6
 105 0002 1A69     		ldr	r2, [r3, #16]
 106 0004 22F44072 		bic	r2, r2, #768
 107 0008 1A61     		str	r2, [r3, #16]
 653:Libraries/STM32F4xx_HAL_Driver/Src/stm32f4xx_hal_flash.c ****   FLASH->CR |= FLASH_PSIZE_WORD;
 108              		.loc 1 653 3 view .LVU19
 109              		.loc 1 653 13 is_stmt 0 view .LVU20
 110 000a 1A69     		ldr	r2, [r3, #16]
 111 000c 42F40072 		orr	r2, r2, #512
 112 0010 1A61     		str	r2, [r3, #16]
 654:Libraries/STM32F4xx_HAL_Driver/Src/stm32f4xx_hal_flash.c ****   FLASH->CR |= FLASH_CR_PG;
 113              		.loc 1 654 3 is_stmt 1 view .LVU21
 114              		.loc 1 654 13 is_stmt 0 view .LVU22
 115 0012 1A69     		ldr	r2, [r3, #16]
 116 0014 42F00102 		orr	r2, r2, #1
 117 0018 1A61     		str	r2, [r3, #16]
 655:Libraries/STM32F4xx_HAL_Driver/Src/stm32f4xx_hal_flash.c **** 
 656:Libraries/STM32F4xx_HAL_Driver/Src/stm32f4xx_hal_flash.c ****   *(__IO uint32_t*)Address = Data;
 118              		.loc 1 656 3 is_stmt 1 view .LVU23
 119              		.loc 1 656 28 is_stmt 0 view .LVU24
 120 001a 0160     		str	r1, [r0]
 657:Libraries/STM32F4xx_HAL_Driver/Src/stm32f4xx_hal_flash.c **** }
 121              		.loc 1 657 1 view .LVU25
 122 001c 7047     		bx	lr
 123              	.L7:
 124 001e 00BF     		.align	2
 125              	.L6:
 126 0020 003C0240 		.word	1073888256
 127              		.cfi_endproc
 128              	.LFE143:
 130              		.section	.text.FLASH_Program_HalfWord,"ax",%progbits
 131              		.align	1
 132              		.syntax unified
ARM GAS  C:\Users\yzy\AppData\Local\Temp\ccxXXGiZ.s 			page 30


 133              		.thumb
 134              		.thumb_func
 135              		.fpu softvfp
 137              	FLASH_Program_HalfWord:
 138              	.LVL2:
 139              	.LFB144:
 658:Libraries/STM32F4xx_HAL_Driver/Src/stm32f4xx_hal_flash.c **** 
 659:Libraries/STM32F4xx_HAL_Driver/Src/stm32f4xx_hal_flash.c **** /**
 660:Libraries/STM32F4xx_HAL_Driver/Src/stm32f4xx_hal_flash.c ****   * @brief  Program a half-word (16-bit) at a specified address.
 661:Libraries/STM32F4xx_HAL_Driver/Src/stm32f4xx_hal_flash.c ****   * @note   This function must be used when the device voltage range is from
 662:Libraries/STM32F4xx_HAL_Driver/Src/stm32f4xx_hal_flash.c ****   *         2.1V to 3.6V.
 663:Libraries/STM32F4xx_HAL_Driver/Src/stm32f4xx_hal_flash.c ****   *
 664:Libraries/STM32F4xx_HAL_Driver/Src/stm32f4xx_hal_flash.c ****   * @note   If an erase and a program operations are requested simultaneously,    
 665:Libraries/STM32F4xx_HAL_Driver/Src/stm32f4xx_hal_flash.c ****   *         the erase operation is performed before the program one.
 666:Libraries/STM32F4xx_HAL_Driver/Src/stm32f4xx_hal_flash.c ****   *  
 667:Libraries/STM32F4xx_HAL_Driver/Src/stm32f4xx_hal_flash.c ****   * @param  Address specifies the address to be programmed.
 668:Libraries/STM32F4xx_HAL_Driver/Src/stm32f4xx_hal_flash.c ****   * @param  Data specifies the data to be programmed.
 669:Libraries/STM32F4xx_HAL_Driver/Src/stm32f4xx_hal_flash.c ****   * @retval None
 670:Libraries/STM32F4xx_HAL_Driver/Src/stm32f4xx_hal_flash.c ****   */
 671:Libraries/STM32F4xx_HAL_Driver/Src/stm32f4xx_hal_flash.c **** static void FLASH_Program_HalfWord(uint32_t Address, uint16_t Data)
 672:Libraries/STM32F4xx_HAL_Driver/Src/stm32f4xx_hal_flash.c **** {
 140              		.loc 1 672 1 is_stmt 1 view -0
 141              		.cfi_startproc
 142              		@ args = 0, pretend = 0, frame = 0
 143              		@ frame_needed = 0, uses_anonymous_args = 0
 144              		@ link register save eliminated.
 673:Libraries/STM32F4xx_HAL_Driver/Src/stm32f4xx_hal_flash.c ****   /* Check the parameters */
 674:Libraries/STM32F4xx_HAL_Driver/Src/stm32f4xx_hal_flash.c ****   assert_param(IS_FLASH_ADDRESS(Address));
 145              		.loc 1 674 3 view .LVU27
 675:Libraries/STM32F4xx_HAL_Driver/Src/stm32f4xx_hal_flash.c ****   
 676:Libraries/STM32F4xx_HAL_Driver/Src/stm32f4xx_hal_flash.c ****   /* If the previous operation is completed, proceed to program the new data */
 677:Libraries/STM32F4xx_HAL_Driver/Src/stm32f4xx_hal_flash.c ****   CLEAR_BIT(FLASH->CR, FLASH_CR_PSIZE);
 146              		.loc 1 677 3 view .LVU28
 147 0000 074B     		ldr	r3, .L9
 148 0002 1A69     		ldr	r2, [r3, #16]
 149 0004 22F44072 		bic	r2, r2, #768
 150 0008 1A61     		str	r2, [r3, #16]
 678:Libraries/STM32F4xx_HAL_Driver/Src/stm32f4xx_hal_flash.c ****   FLASH->CR |= FLASH_PSIZE_HALF_WORD;
 151              		.loc 1 678 3 view .LVU29
 152              		.loc 1 678 13 is_stmt 0 view .LVU30
 153 000a 1A69     		ldr	r2, [r3, #16]
 154 000c 42F48072 		orr	r2, r2, #256
 155 0010 1A61     		str	r2, [r3, #16]
 679:Libraries/STM32F4xx_HAL_Driver/Src/stm32f4xx_hal_flash.c ****   FLASH->CR |= FLASH_CR_PG;
 156              		.loc 1 679 3 is_stmt 1 view .LVU31
 157              		.loc 1 679 13 is_stmt 0 view .LVU32
 158 0012 1A69     		ldr	r2, [r3, #16]
 159 0014 42F00102 		orr	r2, r2, #1
 160 0018 1A61     		str	r2, [r3, #16]
 680:Libraries/STM32F4xx_HAL_Driver/Src/stm32f4xx_hal_flash.c **** 
 681:Libraries/STM32F4xx_HAL_Driver/Src/stm32f4xx_hal_flash.c ****   *(__IO uint16_t*)Address = Data;
 161              		.loc 1 681 3 is_stmt 1 view .LVU33
 162              		.loc 1 681 28 is_stmt 0 view .LVU34
 163 001a 0180     		strh	r1, [r0]	@ movhi
 682:Libraries/STM32F4xx_HAL_Driver/Src/stm32f4xx_hal_flash.c **** }
 164              		.loc 1 682 1 view .LVU35
 165 001c 7047     		bx	lr
ARM GAS  C:\Users\yzy\AppData\Local\Temp\ccxXXGiZ.s 			page 31


 166              	.L10:
 167 001e 00BF     		.align	2
 168              	.L9:
 169 0020 003C0240 		.word	1073888256
 170              		.cfi_endproc
 171              	.LFE144:
 173              		.section	.text.FLASH_Program_Byte,"ax",%progbits
 174              		.align	1
 175              		.syntax unified
 176              		.thumb
 177              		.thumb_func
 178              		.fpu softvfp
 180              	FLASH_Program_Byte:
 181              	.LVL3:
 182              	.LFB145:
 683:Libraries/STM32F4xx_HAL_Driver/Src/stm32f4xx_hal_flash.c **** 
 684:Libraries/STM32F4xx_HAL_Driver/Src/stm32f4xx_hal_flash.c **** /**
 685:Libraries/STM32F4xx_HAL_Driver/Src/stm32f4xx_hal_flash.c ****   * @brief  Program byte (8-bit) at a specified address.
 686:Libraries/STM32F4xx_HAL_Driver/Src/stm32f4xx_hal_flash.c ****   * @note   This function must be used when the device voltage range is from
 687:Libraries/STM32F4xx_HAL_Driver/Src/stm32f4xx_hal_flash.c ****   *         1.8V to 3.6V.
 688:Libraries/STM32F4xx_HAL_Driver/Src/stm32f4xx_hal_flash.c ****   *
 689:Libraries/STM32F4xx_HAL_Driver/Src/stm32f4xx_hal_flash.c ****   * @note   If an erase and a program operations are requested simultaneously,    
 690:Libraries/STM32F4xx_HAL_Driver/Src/stm32f4xx_hal_flash.c ****   *         the erase operation is performed before the program one.
 691:Libraries/STM32F4xx_HAL_Driver/Src/stm32f4xx_hal_flash.c ****   *  
 692:Libraries/STM32F4xx_HAL_Driver/Src/stm32f4xx_hal_flash.c ****   * @param  Address specifies the address to be programmed.
 693:Libraries/STM32F4xx_HAL_Driver/Src/stm32f4xx_hal_flash.c ****   * @param  Data specifies the data to be programmed.
 694:Libraries/STM32F4xx_HAL_Driver/Src/stm32f4xx_hal_flash.c ****   * @retval None
 695:Libraries/STM32F4xx_HAL_Driver/Src/stm32f4xx_hal_flash.c ****   */
 696:Libraries/STM32F4xx_HAL_Driver/Src/stm32f4xx_hal_flash.c **** static void FLASH_Program_Byte(uint32_t Address, uint8_t Data)
 697:Libraries/STM32F4xx_HAL_Driver/Src/stm32f4xx_hal_flash.c **** {
 183              		.loc 1 697 1 is_stmt 1 view -0
 184              		.cfi_startproc
 185              		@ args = 0, pretend = 0, frame = 0
 186              		@ frame_needed = 0, uses_anonymous_args = 0
 187              		@ link register save eliminated.
 698:Libraries/STM32F4xx_HAL_Driver/Src/stm32f4xx_hal_flash.c ****   /* Check the parameters */
 699:Libraries/STM32F4xx_HAL_Driver/Src/stm32f4xx_hal_flash.c ****   assert_param(IS_FLASH_ADDRESS(Address));
 188              		.loc 1 699 3 view .LVU37
 700:Libraries/STM32F4xx_HAL_Driver/Src/stm32f4xx_hal_flash.c ****   
 701:Libraries/STM32F4xx_HAL_Driver/Src/stm32f4xx_hal_flash.c ****   /* If the previous operation is completed, proceed to program the new data */
 702:Libraries/STM32F4xx_HAL_Driver/Src/stm32f4xx_hal_flash.c ****   CLEAR_BIT(FLASH->CR, FLASH_CR_PSIZE);
 189              		.loc 1 702 3 view .LVU38
 190 0000 064B     		ldr	r3, .L12
 191 0002 1A69     		ldr	r2, [r3, #16]
 192 0004 22F44072 		bic	r2, r2, #768
 193 0008 1A61     		str	r2, [r3, #16]
 703:Libraries/STM32F4xx_HAL_Driver/Src/stm32f4xx_hal_flash.c ****   FLASH->CR |= FLASH_PSIZE_BYTE;
 194              		.loc 1 703 3 view .LVU39
 195              		.loc 1 703 13 is_stmt 0 view .LVU40
 196 000a 1A69     		ldr	r2, [r3, #16]
 197 000c 1A61     		str	r2, [r3, #16]
 704:Libraries/STM32F4xx_HAL_Driver/Src/stm32f4xx_hal_flash.c ****   FLASH->CR |= FLASH_CR_PG;
 198              		.loc 1 704 3 is_stmt 1 view .LVU41
 199              		.loc 1 704 13 is_stmt 0 view .LVU42
 200 000e 1A69     		ldr	r2, [r3, #16]
 201 0010 42F00102 		orr	r2, r2, #1
 202 0014 1A61     		str	r2, [r3, #16]
ARM GAS  C:\Users\yzy\AppData\Local\Temp\ccxXXGiZ.s 			page 32


 705:Libraries/STM32F4xx_HAL_Driver/Src/stm32f4xx_hal_flash.c **** 
 706:Libraries/STM32F4xx_HAL_Driver/Src/stm32f4xx_hal_flash.c ****   *(__IO uint8_t*)Address = Data;
 203              		.loc 1 706 3 is_stmt 1 view .LVU43
 204              		.loc 1 706 27 is_stmt 0 view .LVU44
 205 0016 0170     		strb	r1, [r0]
 707:Libraries/STM32F4xx_HAL_Driver/Src/stm32f4xx_hal_flash.c **** }
 206              		.loc 1 707 1 view .LVU45
 207 0018 7047     		bx	lr
 208              	.L13:
 209 001a 00BF     		.align	2
 210              	.L12:
 211 001c 003C0240 		.word	1073888256
 212              		.cfi_endproc
 213              	.LFE145:
 215              		.section	.text.FLASH_SetErrorCode,"ax",%progbits
 216              		.align	1
 217              		.syntax unified
 218              		.thumb
 219              		.thumb_func
 220              		.fpu softvfp
 222              	FLASH_SetErrorCode:
 223              	.LFB146:
 708:Libraries/STM32F4xx_HAL_Driver/Src/stm32f4xx_hal_flash.c **** 
 709:Libraries/STM32F4xx_HAL_Driver/Src/stm32f4xx_hal_flash.c **** /**
 710:Libraries/STM32F4xx_HAL_Driver/Src/stm32f4xx_hal_flash.c ****   * @brief  Set the specific FLASH error flag.
 711:Libraries/STM32F4xx_HAL_Driver/Src/stm32f4xx_hal_flash.c ****   * @retval None
 712:Libraries/STM32F4xx_HAL_Driver/Src/stm32f4xx_hal_flash.c ****   */
 713:Libraries/STM32F4xx_HAL_Driver/Src/stm32f4xx_hal_flash.c **** static void FLASH_SetErrorCode(void)
 714:Libraries/STM32F4xx_HAL_Driver/Src/stm32f4xx_hal_flash.c **** { 
 224              		.loc 1 714 1 is_stmt 1 view -0
 225              		.cfi_startproc
 226              		@ args = 0, pretend = 0, frame = 0
 227              		@ frame_needed = 0, uses_anonymous_args = 0
 228              		@ link register save eliminated.
 715:Libraries/STM32F4xx_HAL_Driver/Src/stm32f4xx_hal_flash.c ****   if(__HAL_FLASH_GET_FLAG(FLASH_FLAG_WRPERR) != RESET)
 229              		.loc 1 715 3 view .LVU47
 230              		.loc 1 715 6 is_stmt 0 view .LVU48
 231 0000 204B     		ldr	r3, .L20
 232 0002 DB68     		ldr	r3, [r3, #12]
 233              		.loc 1 715 5 view .LVU49
 234 0004 13F0100F 		tst	r3, #16
 235 0008 07D0     		beq	.L15
 716:Libraries/STM32F4xx_HAL_Driver/Src/stm32f4xx_hal_flash.c ****   {
 717:Libraries/STM32F4xx_HAL_Driver/Src/stm32f4xx_hal_flash.c ****    pFlash.ErrorCode |= HAL_FLASH_ERROR_WRP;
 236              		.loc 1 717 4 is_stmt 1 view .LVU50
 237              		.loc 1 717 21 is_stmt 0 view .LVU51
 238 000a 1F4A     		ldr	r2, .L20+4
 239 000c D369     		ldr	r3, [r2, #28]
 240 000e 43F01003 		orr	r3, r3, #16
 241 0012 D361     		str	r3, [r2, #28]
 718:Libraries/STM32F4xx_HAL_Driver/Src/stm32f4xx_hal_flash.c ****    
 719:Libraries/STM32F4xx_HAL_Driver/Src/stm32f4xx_hal_flash.c ****    /* Clear FLASH write protection error pending bit */
 720:Libraries/STM32F4xx_HAL_Driver/Src/stm32f4xx_hal_flash.c ****    __HAL_FLASH_CLEAR_FLAG(FLASH_FLAG_WRPERR);
 242              		.loc 1 720 4 is_stmt 1 view .LVU52
 243 0014 1B4B     		ldr	r3, .L20
 244 0016 1022     		movs	r2, #16
 245 0018 DA60     		str	r2, [r3, #12]
ARM GAS  C:\Users\yzy\AppData\Local\Temp\ccxXXGiZ.s 			page 33


 246              	.L15:
 721:Libraries/STM32F4xx_HAL_Driver/Src/stm32f4xx_hal_flash.c ****   }
 722:Libraries/STM32F4xx_HAL_Driver/Src/stm32f4xx_hal_flash.c ****   
 723:Libraries/STM32F4xx_HAL_Driver/Src/stm32f4xx_hal_flash.c ****   if(__HAL_FLASH_GET_FLAG(FLASH_FLAG_PGAERR) != RESET)
 247              		.loc 1 723 3 view .LVU53
 248              		.loc 1 723 6 is_stmt 0 view .LVU54
 249 001a 1A4B     		ldr	r3, .L20
 250 001c DB68     		ldr	r3, [r3, #12]
 251              		.loc 1 723 5 view .LVU55
 252 001e 13F0200F 		tst	r3, #32
 253 0022 07D0     		beq	.L16
 724:Libraries/STM32F4xx_HAL_Driver/Src/stm32f4xx_hal_flash.c ****   {
 725:Libraries/STM32F4xx_HAL_Driver/Src/stm32f4xx_hal_flash.c ****    pFlash.ErrorCode |= HAL_FLASH_ERROR_PGA;
 254              		.loc 1 725 4 is_stmt 1 view .LVU56
 255              		.loc 1 725 21 is_stmt 0 view .LVU57
 256 0024 184A     		ldr	r2, .L20+4
 257 0026 D369     		ldr	r3, [r2, #28]
 258 0028 43F00803 		orr	r3, r3, #8
 259 002c D361     		str	r3, [r2, #28]
 726:Libraries/STM32F4xx_HAL_Driver/Src/stm32f4xx_hal_flash.c ****    
 727:Libraries/STM32F4xx_HAL_Driver/Src/stm32f4xx_hal_flash.c ****    /* Clear FLASH Programming alignment error pending bit */
 728:Libraries/STM32F4xx_HAL_Driver/Src/stm32f4xx_hal_flash.c ****    __HAL_FLASH_CLEAR_FLAG(FLASH_FLAG_PGAERR);
 260              		.loc 1 728 4 is_stmt 1 view .LVU58
 261 002e 154B     		ldr	r3, .L20
 262 0030 2022     		movs	r2, #32
 263 0032 DA60     		str	r2, [r3, #12]
 264              	.L16:
 729:Libraries/STM32F4xx_HAL_Driver/Src/stm32f4xx_hal_flash.c ****   }
 730:Libraries/STM32F4xx_HAL_Driver/Src/stm32f4xx_hal_flash.c ****   
 731:Libraries/STM32F4xx_HAL_Driver/Src/stm32f4xx_hal_flash.c ****   if(__HAL_FLASH_GET_FLAG(FLASH_FLAG_PGPERR) != RESET)
 265              		.loc 1 731 3 view .LVU59
 266              		.loc 1 731 6 is_stmt 0 view .LVU60
 267 0034 134B     		ldr	r3, .L20
 268 0036 DB68     		ldr	r3, [r3, #12]
 269              		.loc 1 731 5 view .LVU61
 270 0038 13F0400F 		tst	r3, #64
 271 003c 07D0     		beq	.L17
 732:Libraries/STM32F4xx_HAL_Driver/Src/stm32f4xx_hal_flash.c ****   {
 733:Libraries/STM32F4xx_HAL_Driver/Src/stm32f4xx_hal_flash.c ****     pFlash.ErrorCode |= HAL_FLASH_ERROR_PGP;
 272              		.loc 1 733 5 is_stmt 1 view .LVU62
 273              		.loc 1 733 22 is_stmt 0 view .LVU63
 274 003e 124A     		ldr	r2, .L20+4
 275 0040 D369     		ldr	r3, [r2, #28]
 276 0042 43F00403 		orr	r3, r3, #4
 277 0046 D361     		str	r3, [r2, #28]
 734:Libraries/STM32F4xx_HAL_Driver/Src/stm32f4xx_hal_flash.c ****     
 735:Libraries/STM32F4xx_HAL_Driver/Src/stm32f4xx_hal_flash.c ****     /* Clear FLASH Programming parallelism error pending bit */
 736:Libraries/STM32F4xx_HAL_Driver/Src/stm32f4xx_hal_flash.c ****     __HAL_FLASH_CLEAR_FLAG(FLASH_FLAG_PGPERR);
 278              		.loc 1 736 5 is_stmt 1 view .LVU64
 279 0048 0E4B     		ldr	r3, .L20
 280 004a 4022     		movs	r2, #64
 281 004c DA60     		str	r2, [r3, #12]
 282              	.L17:
 737:Libraries/STM32F4xx_HAL_Driver/Src/stm32f4xx_hal_flash.c ****   }
 738:Libraries/STM32F4xx_HAL_Driver/Src/stm32f4xx_hal_flash.c ****   
 739:Libraries/STM32F4xx_HAL_Driver/Src/stm32f4xx_hal_flash.c ****   if(__HAL_FLASH_GET_FLAG(FLASH_FLAG_PGSERR) != RESET)
 283              		.loc 1 739 3 view .LVU65
ARM GAS  C:\Users\yzy\AppData\Local\Temp\ccxXXGiZ.s 			page 34


 284              		.loc 1 739 6 is_stmt 0 view .LVU66
 285 004e 0D4B     		ldr	r3, .L20
 286 0050 DB68     		ldr	r3, [r3, #12]
 287              		.loc 1 739 5 view .LVU67
 288 0052 13F0800F 		tst	r3, #128
 289 0056 07D0     		beq	.L18
 740:Libraries/STM32F4xx_HAL_Driver/Src/stm32f4xx_hal_flash.c ****   {
 741:Libraries/STM32F4xx_HAL_Driver/Src/stm32f4xx_hal_flash.c ****     pFlash.ErrorCode |= HAL_FLASH_ERROR_PGS;
 290              		.loc 1 741 5 is_stmt 1 view .LVU68
 291              		.loc 1 741 22 is_stmt 0 view .LVU69
 292 0058 0B4A     		ldr	r2, .L20+4
 293 005a D369     		ldr	r3, [r2, #28]
 294 005c 43F00203 		orr	r3, r3, #2
 295 0060 D361     		str	r3, [r2, #28]
 742:Libraries/STM32F4xx_HAL_Driver/Src/stm32f4xx_hal_flash.c ****     
 743:Libraries/STM32F4xx_HAL_Driver/Src/stm32f4xx_hal_flash.c ****     /* Clear FLASH Programming sequence error pending bit */
 744:Libraries/STM32F4xx_HAL_Driver/Src/stm32f4xx_hal_flash.c ****     __HAL_FLASH_CLEAR_FLAG(FLASH_FLAG_PGSERR);
 296              		.loc 1 744 5 is_stmt 1 view .LVU70
 297 0062 084B     		ldr	r3, .L20
 298 0064 8022     		movs	r2, #128
 299 0066 DA60     		str	r2, [r3, #12]
 300              	.L18:
 745:Libraries/STM32F4xx_HAL_Driver/Src/stm32f4xx_hal_flash.c ****   }
 746:Libraries/STM32F4xx_HAL_Driver/Src/stm32f4xx_hal_flash.c **** #if defined(FLASH_SR_RDERR) 
 747:Libraries/STM32F4xx_HAL_Driver/Src/stm32f4xx_hal_flash.c ****   if(__HAL_FLASH_GET_FLAG(FLASH_FLAG_RDERR) != RESET)
 748:Libraries/STM32F4xx_HAL_Driver/Src/stm32f4xx_hal_flash.c ****   {
 749:Libraries/STM32F4xx_HAL_Driver/Src/stm32f4xx_hal_flash.c ****     pFlash.ErrorCode |= HAL_FLASH_ERROR_RD;
 750:Libraries/STM32F4xx_HAL_Driver/Src/stm32f4xx_hal_flash.c ****     
 751:Libraries/STM32F4xx_HAL_Driver/Src/stm32f4xx_hal_flash.c ****     /* Clear FLASH Proprietary readout protection error pending bit */
 752:Libraries/STM32F4xx_HAL_Driver/Src/stm32f4xx_hal_flash.c ****     __HAL_FLASH_CLEAR_FLAG(FLASH_FLAG_RDERR);
 753:Libraries/STM32F4xx_HAL_Driver/Src/stm32f4xx_hal_flash.c ****   }
 754:Libraries/STM32F4xx_HAL_Driver/Src/stm32f4xx_hal_flash.c **** #endif /* FLASH_SR_RDERR */  
 755:Libraries/STM32F4xx_HAL_Driver/Src/stm32f4xx_hal_flash.c ****   if(__HAL_FLASH_GET_FLAG(FLASH_FLAG_OPERR) != RESET)
 301              		.loc 1 755 3 view .LVU71
 302              		.loc 1 755 6 is_stmt 0 view .LVU72
 303 0068 064B     		ldr	r3, .L20
 304 006a DB68     		ldr	r3, [r3, #12]
 305              		.loc 1 755 5 view .LVU73
 306 006c 13F0020F 		tst	r3, #2
 307 0070 07D0     		beq	.L14
 756:Libraries/STM32F4xx_HAL_Driver/Src/stm32f4xx_hal_flash.c ****   {
 757:Libraries/STM32F4xx_HAL_Driver/Src/stm32f4xx_hal_flash.c ****     pFlash.ErrorCode |= HAL_FLASH_ERROR_OPERATION;
 308              		.loc 1 757 5 is_stmt 1 view .LVU74
 309              		.loc 1 757 22 is_stmt 0 view .LVU75
 310 0072 054A     		ldr	r2, .L20+4
 311 0074 D369     		ldr	r3, [r2, #28]
 312 0076 43F02003 		orr	r3, r3, #32
 313 007a D361     		str	r3, [r2, #28]
 758:Libraries/STM32F4xx_HAL_Driver/Src/stm32f4xx_hal_flash.c ****     
 759:Libraries/STM32F4xx_HAL_Driver/Src/stm32f4xx_hal_flash.c ****     /* Clear FLASH Operation error pending bit */
 760:Libraries/STM32F4xx_HAL_Driver/Src/stm32f4xx_hal_flash.c ****     __HAL_FLASH_CLEAR_FLAG(FLASH_FLAG_OPERR);
 314              		.loc 1 760 5 is_stmt 1 view .LVU76
 315 007c 014B     		ldr	r3, .L20
 316 007e 0222     		movs	r2, #2
 317 0080 DA60     		str	r2, [r3, #12]
 318              	.L14:
 761:Libraries/STM32F4xx_HAL_Driver/Src/stm32f4xx_hal_flash.c ****   }
ARM GAS  C:\Users\yzy\AppData\Local\Temp\ccxXXGiZ.s 			page 35


 762:Libraries/STM32F4xx_HAL_Driver/Src/stm32f4xx_hal_flash.c **** }
 319              		.loc 1 762 1 is_stmt 0 view .LVU77
 320 0082 7047     		bx	lr
 321              	.L21:
 322              		.align	2
 323              	.L20:
 324 0084 003C0240 		.word	1073888256
 325 0088 00000000 		.word	pFlash
 326              		.cfi_endproc
 327              	.LFE146:
 329              		.section	.text.HAL_FLASH_Program_IT,"ax",%progbits
 330              		.align	1
 331              		.global	HAL_FLASH_Program_IT
 332              		.syntax unified
 333              		.thumb
 334              		.thumb_func
 335              		.fpu softvfp
 337              	HAL_FLASH_Program_IT:
 338              	.LVL4:
 339              	.LFB131:
 215:Libraries/STM32F4xx_HAL_Driver/Src/stm32f4xx_hal_flash.c ****   HAL_StatusTypeDef status = HAL_OK;
 340              		.loc 1 215 1 is_stmt 1 view -0
 341              		.cfi_startproc
 342              		@ args = 0, pretend = 0, frame = 0
 343              		@ frame_needed = 0, uses_anonymous_args = 0
 215:Libraries/STM32F4xx_HAL_Driver/Src/stm32f4xx_hal_flash.c ****   HAL_StatusTypeDef status = HAL_OK;
 344              		.loc 1 215 1 is_stmt 0 view .LVU79
 345 0000 F8B5     		push	{r3, r4, r5, r6, r7, lr}
 346              	.LCFI2:
 347              		.cfi_def_cfa_offset 24
 348              		.cfi_offset 3, -24
 349              		.cfi_offset 4, -20
 350              		.cfi_offset 5, -16
 351              		.cfi_offset 6, -12
 352              		.cfi_offset 7, -8
 353              		.cfi_offset 14, -4
 216:Libraries/STM32F4xx_HAL_Driver/Src/stm32f4xx_hal_flash.c ****   
 354              		.loc 1 216 3 is_stmt 1 view .LVU80
 355              	.LVL5:
 219:Libraries/STM32F4xx_HAL_Driver/Src/stm32f4xx_hal_flash.c **** 
 356              		.loc 1 219 3 view .LVU81
 219:Libraries/STM32F4xx_HAL_Driver/Src/stm32f4xx_hal_flash.c **** 
 357              		.loc 1 219 3 view .LVU82
 358 0002 174D     		ldr	r5, .L32
 359 0004 2D7E     		ldrb	r5, [r5, #24]	@ zero_extendqisi2
 360 0006 012D     		cmp	r5, #1
 361 0008 28D0     		beq	.L27
 362 000a 0446     		mov	r4, r0
 363 000c 0846     		mov	r0, r1
 364              	.LVL6:
 219:Libraries/STM32F4xx_HAL_Driver/Src/stm32f4xx_hal_flash.c **** 
 365              		.loc 1 219 3 discriminator 2 view .LVU83
 366 000e 144E     		ldr	r6, .L32
 367 0010 0121     		movs	r1, #1
 368              	.LVL7:
 219:Libraries/STM32F4xx_HAL_Driver/Src/stm32f4xx_hal_flash.c **** 
 369              		.loc 1 219 3 is_stmt 0 discriminator 2 view .LVU84
ARM GAS  C:\Users\yzy\AppData\Local\Temp\ccxXXGiZ.s 			page 36


 370 0012 3176     		strb	r1, [r6, #24]
 219:Libraries/STM32F4xx_HAL_Driver/Src/stm32f4xx_hal_flash.c **** 
 371              		.loc 1 219 3 is_stmt 1 discriminator 2 view .LVU85
 222:Libraries/STM32F4xx_HAL_Driver/Src/stm32f4xx_hal_flash.c **** 
 372              		.loc 1 222 3 discriminator 2 view .LVU86
 225:Libraries/STM32F4xx_HAL_Driver/Src/stm32f4xx_hal_flash.c ****   
 373              		.loc 1 225 3 discriminator 2 view .LVU87
 374 0014 134D     		ldr	r5, .L32+4
 375 0016 2F69     		ldr	r7, [r5, #16]
 376 0018 47F08077 		orr	r7, r7, #16777216
 377 001c 2F61     		str	r7, [r5, #16]
 228:Libraries/STM32F4xx_HAL_Driver/Src/stm32f4xx_hal_flash.c **** 
 378              		.loc 1 228 3 discriminator 2 view .LVU88
 379 001e 2F69     		ldr	r7, [r5, #16]
 380 0020 47F00077 		orr	r7, r7, #33554432
 381 0024 2F61     		str	r7, [r5, #16]
 230:Libraries/STM32F4xx_HAL_Driver/Src/stm32f4xx_hal_flash.c ****   pFlash.Address = Address;
 382              		.loc 1 230 3 discriminator 2 view .LVU89
 230:Libraries/STM32F4xx_HAL_Driver/Src/stm32f4xx_hal_flash.c ****   pFlash.Address = Address;
 383              		.loc 1 230 27 is_stmt 0 discriminator 2 view .LVU90
 384 0026 0321     		movs	r1, #3
 385 0028 3170     		strb	r1, [r6]
 231:Libraries/STM32F4xx_HAL_Driver/Src/stm32f4xx_hal_flash.c **** 
 386              		.loc 1 231 3 is_stmt 1 discriminator 2 view .LVU91
 231:Libraries/STM32F4xx_HAL_Driver/Src/stm32f4xx_hal_flash.c **** 
 387              		.loc 1 231 18 is_stmt 0 discriminator 2 view .LVU92
 388 002a 7061     		str	r0, [r6, #20]
 233:Libraries/STM32F4xx_HAL_Driver/Src/stm32f4xx_hal_flash.c ****   {
 389              		.loc 1 233 3 is_stmt 1 discriminator 2 view .LVU93
 233:Libraries/STM32F4xx_HAL_Driver/Src/stm32f4xx_hal_flash.c ****   {
 390              		.loc 1 233 5 is_stmt 0 discriminator 2 view .LVU94
 391 002c 3CB1     		cbz	r4, .L29
 238:Libraries/STM32F4xx_HAL_Driver/Src/stm32f4xx_hal_flash.c ****   {
 392              		.loc 1 238 8 is_stmt 1 view .LVU95
 238:Libraries/STM32F4xx_HAL_Driver/Src/stm32f4xx_hal_flash.c ****   {
 393              		.loc 1 238 10 is_stmt 0 view .LVU96
 394 002e 012C     		cmp	r4, #1
 395 0030 0AD0     		beq	.L30
 243:Libraries/STM32F4xx_HAL_Driver/Src/stm32f4xx_hal_flash.c ****   {
 396              		.loc 1 243 8 is_stmt 1 view .LVU97
 243:Libraries/STM32F4xx_HAL_Driver/Src/stm32f4xx_hal_flash.c ****   {
 397              		.loc 1 243 10 is_stmt 0 view .LVU98
 398 0032 022C     		cmp	r4, #2
 399 0034 0DD0     		beq	.L31
 251:Libraries/STM32F4xx_HAL_Driver/Src/stm32f4xx_hal_flash.c ****   }
 400              		.loc 1 251 5 is_stmt 1 view .LVU99
 401 0036 FFF7FEFF 		bl	FLASH_Program_DoubleWord
 402              	.LVL8:
 254:Libraries/STM32F4xx_HAL_Driver/Src/stm32f4xx_hal_flash.c **** }
 403              		.loc 1 254 10 is_stmt 0 view .LVU100
 404 003a 0020     		movs	r0, #0
 405              	.LVL9:
 406              	.L23:
 255:Libraries/STM32F4xx_HAL_Driver/Src/stm32f4xx_hal_flash.c **** 
 407              		.loc 1 255 1 view .LVU101
 408 003c F8BD     		pop	{r3, r4, r5, r6, r7, pc}
 409              	.LVL10:
ARM GAS  C:\Users\yzy\AppData\Local\Temp\ccxXXGiZ.s 			page 37


 410              	.L29:
 236:Libraries/STM32F4xx_HAL_Driver/Src/stm32f4xx_hal_flash.c ****   }
 411              		.loc 1 236 7 is_stmt 1 view .LVU102
 412 003e D1B2     		uxtb	r1, r2
 413 0040 FFF7FEFF 		bl	FLASH_Program_Byte
 414              	.LVL11:
 254:Libraries/STM32F4xx_HAL_Driver/Src/stm32f4xx_hal_flash.c **** }
 415              		.loc 1 254 10 is_stmt 0 view .LVU103
 416 0044 0020     		movs	r0, #0
 417 0046 F9E7     		b	.L23
 418              	.LVL12:
 419              	.L30:
 241:Libraries/STM32F4xx_HAL_Driver/Src/stm32f4xx_hal_flash.c ****   }
 420              		.loc 1 241 5 is_stmt 1 view .LVU104
 421 0048 91B2     		uxth	r1, r2
 422 004a FFF7FEFF 		bl	FLASH_Program_HalfWord
 423              	.LVL13:
 254:Libraries/STM32F4xx_HAL_Driver/Src/stm32f4xx_hal_flash.c **** }
 424              		.loc 1 254 10 is_stmt 0 view .LVU105
 425 004e 0020     		movs	r0, #0
 426 0050 F4E7     		b	.L23
 427              	.LVL14:
 428              	.L31:
 246:Libraries/STM32F4xx_HAL_Driver/Src/stm32f4xx_hal_flash.c ****   }
 429              		.loc 1 246 5 is_stmt 1 view .LVU106
 430 0052 1146     		mov	r1, r2
 431 0054 FFF7FEFF 		bl	FLASH_Program_Word
 432              	.LVL15:
 254:Libraries/STM32F4xx_HAL_Driver/Src/stm32f4xx_hal_flash.c **** }
 433              		.loc 1 254 10 is_stmt 0 view .LVU107
 434 0058 0020     		movs	r0, #0
 435 005a EFE7     		b	.L23
 436              	.LVL16:
 437              	.L27:
 219:Libraries/STM32F4xx_HAL_Driver/Src/stm32f4xx_hal_flash.c **** 
 438              		.loc 1 219 3 view .LVU108
 439 005c 0220     		movs	r0, #2
 440              	.LVL17:
 219:Libraries/STM32F4xx_HAL_Driver/Src/stm32f4xx_hal_flash.c **** 
 441              		.loc 1 219 3 view .LVU109
 442 005e EDE7     		b	.L23
 443              	.L33:
 444              		.align	2
 445              	.L32:
 446 0060 00000000 		.word	pFlash
 447 0064 003C0240 		.word	1073888256
 448              		.cfi_endproc
 449              	.LFE131:
 451              		.section	.text.HAL_FLASH_EndOfOperationCallback,"ax",%progbits
 452              		.align	1
 453              		.weak	HAL_FLASH_EndOfOperationCallback
 454              		.syntax unified
 455              		.thumb
 456              		.thumb_func
 457              		.fpu softvfp
 459              	HAL_FLASH_EndOfOperationCallback:
 460              	.LVL18:
ARM GAS  C:\Users\yzy\AppData\Local\Temp\ccxXXGiZ.s 			page 38


 461              	.LFB133:
 385:Libraries/STM32F4xx_HAL_Driver/Src/stm32f4xx_hal_flash.c ****   /* Prevent unused argument(s) compilation warning */
 462              		.loc 1 385 1 is_stmt 1 view -0
 463              		.cfi_startproc
 464              		@ args = 0, pretend = 0, frame = 0
 465              		@ frame_needed = 0, uses_anonymous_args = 0
 466              		@ link register save eliminated.
 387:Libraries/STM32F4xx_HAL_Driver/Src/stm32f4xx_hal_flash.c ****   /* NOTE : This function Should not be modified, when the callback is needed,
 467              		.loc 1 387 3 view .LVU111
 391:Libraries/STM32F4xx_HAL_Driver/Src/stm32f4xx_hal_flash.c **** 
 468              		.loc 1 391 1 is_stmt 0 view .LVU112
 469 0000 7047     		bx	lr
 470              		.cfi_endproc
 471              	.LFE133:
 473              		.section	.text.HAL_FLASH_OperationErrorCallback,"ax",%progbits
 474              		.align	1
 475              		.weak	HAL_FLASH_OperationErrorCallback
 476              		.syntax unified
 477              		.thumb
 478              		.thumb_func
 479              		.fpu softvfp
 481              	HAL_FLASH_OperationErrorCallback:
 482              	.LVL19:
 483              	.LFB134:
 402:Libraries/STM32F4xx_HAL_Driver/Src/stm32f4xx_hal_flash.c ****   /* Prevent unused argument(s) compilation warning */
 484              		.loc 1 402 1 is_stmt 1 view -0
 485              		.cfi_startproc
 486              		@ args = 0, pretend = 0, frame = 0
 487              		@ frame_needed = 0, uses_anonymous_args = 0
 488              		@ link register save eliminated.
 404:Libraries/STM32F4xx_HAL_Driver/Src/stm32f4xx_hal_flash.c ****   /* NOTE : This function Should not be modified, when the callback is needed,
 489              		.loc 1 404 3 view .LVU114
 408:Libraries/STM32F4xx_HAL_Driver/Src/stm32f4xx_hal_flash.c **** 
 490              		.loc 1 408 1 is_stmt 0 view .LVU115
 491 0000 7047     		bx	lr
 492              		.cfi_endproc
 493              	.LFE134:
 495              		.section	.text.HAL_FLASH_IRQHandler,"ax",%progbits
 496              		.align	1
 497              		.global	HAL_FLASH_IRQHandler
 498              		.syntax unified
 499              		.thumb
 500              		.thumb_func
 501              		.fpu softvfp
 503              	HAL_FLASH_IRQHandler:
 504              	.LFB132:
 262:Libraries/STM32F4xx_HAL_Driver/Src/stm32f4xx_hal_flash.c ****   uint32_t addresstmp = 0U;
 505              		.loc 1 262 1 is_stmt 1 view -0
 506              		.cfi_startproc
 507              		@ args = 0, pretend = 0, frame = 0
 508              		@ frame_needed = 0, uses_anonymous_args = 0
 509 0000 10B5     		push	{r4, lr}
 510              	.LCFI3:
 511              		.cfi_def_cfa_offset 8
 512              		.cfi_offset 4, -8
 513              		.cfi_offset 14, -4
 263:Libraries/STM32F4xx_HAL_Driver/Src/stm32f4xx_hal_flash.c ****   
ARM GAS  C:\Users\yzy\AppData\Local\Temp\ccxXXGiZ.s 			page 39


 514              		.loc 1 263 3 view .LVU117
 515              	.LVL20:
 270:Libraries/STM32F4xx_HAL_Driver/Src/stm32f4xx_hal_flash.c ****     FLASH_FLAG_PGPERR | FLASH_FLAG_PGSERR)) != RESET)
 516              		.loc 1 270 3 view .LVU118
 270:Libraries/STM32F4xx_HAL_Driver/Src/stm32f4xx_hal_flash.c ****     FLASH_FLAG_PGPERR | FLASH_FLAG_PGSERR)) != RESET)
 517              		.loc 1 270 6 is_stmt 0 view .LVU119
 518 0002 3A4B     		ldr	r3, .L52
 519 0004 DB68     		ldr	r3, [r3, #12]
 270:Libraries/STM32F4xx_HAL_Driver/Src/stm32f4xx_hal_flash.c ****     FLASH_FLAG_PGPERR | FLASH_FLAG_PGSERR)) != RESET)
 520              		.loc 1 270 5 view .LVU120
 521 0006 13F0F20F 		tst	r3, #242
 522 000a 13D0     		beq	.L37
 274:Libraries/STM32F4xx_HAL_Driver/Src/stm32f4xx_hal_flash.c ****     {
 523              		.loc 1 274 5 is_stmt 1 view .LVU121
 274:Libraries/STM32F4xx_HAL_Driver/Src/stm32f4xx_hal_flash.c ****     {
 524              		.loc 1 274 14 is_stmt 0 view .LVU122
 525 000c 384B     		ldr	r3, .L52+4
 526 000e 1B78     		ldrb	r3, [r3]	@ zero_extendqisi2
 527 0010 DBB2     		uxtb	r3, r3
 274:Libraries/STM32F4xx_HAL_Driver/Src/stm32f4xx_hal_flash.c ****     {
 528              		.loc 1 274 7 view .LVU123
 529 0012 012B     		cmp	r3, #1
 530 0014 3BD0     		beq	.L48
 280:Libraries/STM32F4xx_HAL_Driver/Src/stm32f4xx_hal_flash.c ****     {
 531              		.loc 1 280 10 is_stmt 1 view .LVU124
 280:Libraries/STM32F4xx_HAL_Driver/Src/stm32f4xx_hal_flash.c ****     {
 532              		.loc 1 280 19 is_stmt 0 view .LVU125
 533 0016 364B     		ldr	r3, .L52+4
 534 0018 1B78     		ldrb	r3, [r3]	@ zero_extendqisi2
 535 001a DBB2     		uxtb	r3, r3
 280:Libraries/STM32F4xx_HAL_Driver/Src/stm32f4xx_hal_flash.c ****     {
 536              		.loc 1 280 12 view .LVU126
 537 001c 022B     		cmp	r3, #2
 538 001e 3CD0     		beq	.L49
 288:Libraries/STM32F4xx_HAL_Driver/Src/stm32f4xx_hal_flash.c ****     }
 539              		.loc 1 288 7 is_stmt 1 view .LVU127
 288:Libraries/STM32F4xx_HAL_Driver/Src/stm32f4xx_hal_flash.c ****     }
 540              		.loc 1 288 18 is_stmt 0 view .LVU128
 541 0020 334B     		ldr	r3, .L52+4
 542 0022 5C69     		ldr	r4, [r3, #20]
 543              	.LVL21:
 544              	.L39:
 292:Libraries/STM32F4xx_HAL_Driver/Src/stm32f4xx_hal_flash.c ****     
 545              		.loc 1 292 5 is_stmt 1 view .LVU129
 546 0024 FFF7FEFF 		bl	FLASH_SetErrorCode
 547              	.LVL22:
 295:Libraries/STM32F4xx_HAL_Driver/Src/stm32f4xx_hal_flash.c ****     
 548              		.loc 1 295 5 view .LVU130
 549 0028 2046     		mov	r0, r4
 550 002a FFF7FEFF 		bl	HAL_FLASH_OperationErrorCallback
 551              	.LVL23:
 298:Libraries/STM32F4xx_HAL_Driver/Src/stm32f4xx_hal_flash.c ****   }
 552              		.loc 1 298 5 view .LVU131
 298:Libraries/STM32F4xx_HAL_Driver/Src/stm32f4xx_hal_flash.c ****   }
 553              		.loc 1 298 29 is_stmt 0 view .LVU132
 554 002e 304B     		ldr	r3, .L52+4
 555 0030 0022     		movs	r2, #0
ARM GAS  C:\Users\yzy\AppData\Local\Temp\ccxXXGiZ.s 			page 40


 556 0032 1A70     		strb	r2, [r3]
 557              	.LVL24:
 558              	.L37:
 302:Libraries/STM32F4xx_HAL_Driver/Src/stm32f4xx_hal_flash.c ****   {
 559              		.loc 1 302 3 is_stmt 1 view .LVU133
 302:Libraries/STM32F4xx_HAL_Driver/Src/stm32f4xx_hal_flash.c ****   {
 560              		.loc 1 302 6 is_stmt 0 view .LVU134
 561 0034 2D4B     		ldr	r3, .L52
 562 0036 DB68     		ldr	r3, [r3, #12]
 302:Libraries/STM32F4xx_HAL_Driver/Src/stm32f4xx_hal_flash.c ****   {
 563              		.loc 1 302 5 view .LVU135
 564 0038 13F0010F 		tst	r3, #1
 565 003c 13D0     		beq	.L41
 305:Libraries/STM32F4xx_HAL_Driver/Src/stm32f4xx_hal_flash.c ****     
 566              		.loc 1 305 5 is_stmt 1 view .LVU136
 567 003e 2B4B     		ldr	r3, .L52
 568 0040 0122     		movs	r2, #1
 569 0042 DA60     		str	r2, [r3, #12]
 307:Libraries/STM32F4xx_HAL_Driver/Src/stm32f4xx_hal_flash.c ****     {
 570              		.loc 1 307 5 view .LVU137
 307:Libraries/STM32F4xx_HAL_Driver/Src/stm32f4xx_hal_flash.c ****     {
 571              		.loc 1 307 14 is_stmt 0 view .LVU138
 572 0044 2A4B     		ldr	r3, .L52+4
 573 0046 1B78     		ldrb	r3, [r3]	@ zero_extendqisi2
 574 0048 DBB2     		uxtb	r3, r3
 307:Libraries/STM32F4xx_HAL_Driver/Src/stm32f4xx_hal_flash.c ****     {
 575              		.loc 1 307 7 view .LVU139
 576 004a 9342     		cmp	r3, r2
 577 004c 28D0     		beq	.L50
 340:Libraries/STM32F4xx_HAL_Driver/Src/stm32f4xx_hal_flash.c ****       {
 578              		.loc 1 340 7 is_stmt 1 view .LVU140
 340:Libraries/STM32F4xx_HAL_Driver/Src/stm32f4xx_hal_flash.c ****       {
 579              		.loc 1 340 16 is_stmt 0 view .LVU141
 580 004e 284B     		ldr	r3, .L52+4
 581 0050 1B78     		ldrb	r3, [r3]	@ zero_extendqisi2
 582 0052 DBB2     		uxtb	r3, r3
 340:Libraries/STM32F4xx_HAL_Driver/Src/stm32f4xx_hal_flash.c ****       {
 583              		.loc 1 340 9 view .LVU142
 584 0054 022B     		cmp	r3, #2
 585 0056 41D0     		beq	.L51
 353:Libraries/STM32F4xx_HAL_Driver/Src/stm32f4xx_hal_flash.c ****       }
 586              		.loc 1 353 9 is_stmt 1 view .LVU143
 587 0058 254B     		ldr	r3, .L52+4
 588 005a 5869     		ldr	r0, [r3, #20]
 589 005c FFF7FEFF 		bl	HAL_FLASH_EndOfOperationCallback
 590              	.LVL25:
 591              	.L45:
 355:Libraries/STM32F4xx_HAL_Driver/Src/stm32f4xx_hal_flash.c ****     }
 592              		.loc 1 355 7 view .LVU144
 355:Libraries/STM32F4xx_HAL_Driver/Src/stm32f4xx_hal_flash.c ****     }
 593              		.loc 1 355 31 is_stmt 0 view .LVU145
 594 0060 234B     		ldr	r3, .L52+4
 595 0062 0022     		movs	r2, #0
 596 0064 1A70     		strb	r2, [r3]
 597              	.L41:
 359:Libraries/STM32F4xx_HAL_Driver/Src/stm32f4xx_hal_flash.c ****   {
 598              		.loc 1 359 3 is_stmt 1 view .LVU146
ARM GAS  C:\Users\yzy\AppData\Local\Temp\ccxXXGiZ.s 			page 41


 359:Libraries/STM32F4xx_HAL_Driver/Src/stm32f4xx_hal_flash.c ****   {
 599              		.loc 1 359 12 is_stmt 0 view .LVU147
 600 0066 224B     		ldr	r3, .L52+4
 601 0068 1B78     		ldrb	r3, [r3]	@ zero_extendqisi2
 359:Libraries/STM32F4xx_HAL_Driver/Src/stm32f4xx_hal_flash.c ****   {
 602              		.loc 1 359 5 view .LVU148
 603 006a 7BB9     		cbnz	r3, .L36
 362:Libraries/STM32F4xx_HAL_Driver/Src/stm32f4xx_hal_flash.c **** 
 604              		.loc 1 362 5 is_stmt 1 view .LVU149
 605 006c 1F4B     		ldr	r3, .L52
 606 006e 1A69     		ldr	r2, [r3, #16]
 607 0070 22F0FF02 		bic	r2, r2, #255
 608 0074 1A61     		str	r2, [r3, #16]
 365:Libraries/STM32F4xx_HAL_Driver/Src/stm32f4xx_hal_flash.c ****     
 609              		.loc 1 365 5 view .LVU150
 610 0076 1A69     		ldr	r2, [r3, #16]
 611 0078 22F08072 		bic	r2, r2, #16777216
 612 007c 1A61     		str	r2, [r3, #16]
 368:Libraries/STM32F4xx_HAL_Driver/Src/stm32f4xx_hal_flash.c ****     
 613              		.loc 1 368 5 view .LVU151
 614 007e 1A69     		ldr	r2, [r3, #16]
 615 0080 22F00072 		bic	r2, r2, #33554432
 616 0084 1A61     		str	r2, [r3, #16]
 371:Libraries/STM32F4xx_HAL_Driver/Src/stm32f4xx_hal_flash.c ****   }
 617              		.loc 1 371 5 view .LVU152
 371:Libraries/STM32F4xx_HAL_Driver/Src/stm32f4xx_hal_flash.c ****   }
 618              		.loc 1 371 5 view .LVU153
 619 0086 1A4B     		ldr	r3, .L52+4
 620 0088 0022     		movs	r2, #0
 621 008a 1A76     		strb	r2, [r3, #24]
 371:Libraries/STM32F4xx_HAL_Driver/Src/stm32f4xx_hal_flash.c ****   }
 622              		.loc 1 371 5 view .LVU154
 623              	.L36:
 373:Libraries/STM32F4xx_HAL_Driver/Src/stm32f4xx_hal_flash.c **** 
 624              		.loc 1 373 1 is_stmt 0 view .LVU155
 625 008c 10BD     		pop	{r4, pc}
 626              	.LVL26:
 627              	.L48:
 277:Libraries/STM32F4xx_HAL_Driver/Src/stm32f4xx_hal_flash.c ****       pFlash.Sector = 0xFFFFFFFFU;
 628              		.loc 1 277 7 is_stmt 1 view .LVU156
 277:Libraries/STM32F4xx_HAL_Driver/Src/stm32f4xx_hal_flash.c ****       pFlash.Sector = 0xFFFFFFFFU;
 629              		.loc 1 277 18 is_stmt 0 view .LVU157
 630 008e 184B     		ldr	r3, .L52+4
 631 0090 DC68     		ldr	r4, [r3, #12]
 632              	.LVL27:
 278:Libraries/STM32F4xx_HAL_Driver/Src/stm32f4xx_hal_flash.c ****     }
 633              		.loc 1 278 7 is_stmt 1 view .LVU158
 278:Libraries/STM32F4xx_HAL_Driver/Src/stm32f4xx_hal_flash.c ****     }
 634              		.loc 1 278 21 is_stmt 0 view .LVU159
 635 0092 4FF0FF32 		mov	r2, #-1
 636 0096 DA60     		str	r2, [r3, #12]
 637 0098 C4E7     		b	.L39
 638              	.LVL28:
 639              	.L49:
 283:Libraries/STM32F4xx_HAL_Driver/Src/stm32f4xx_hal_flash.c ****     }
 640              		.loc 1 283 7 is_stmt 1 view .LVU160
 283:Libraries/STM32F4xx_HAL_Driver/Src/stm32f4xx_hal_flash.c ****     }
ARM GAS  C:\Users\yzy\AppData\Local\Temp\ccxXXGiZ.s 			page 42


 641              		.loc 1 283 18 is_stmt 0 view .LVU161
 642 009a 154B     		ldr	r3, .L52+4
 643 009c 1C69     		ldr	r4, [r3, #16]
 644              	.LVL29:
 283:Libraries/STM32F4xx_HAL_Driver/Src/stm32f4xx_hal_flash.c ****     }
 645              		.loc 1 283 18 view .LVU162
 646 009e C1E7     		b	.L39
 647              	.LVL30:
 648              	.L50:
 310:Libraries/STM32F4xx_HAL_Driver/Src/stm32f4xx_hal_flash.c ****       
 649              		.loc 1 310 7 is_stmt 1 view .LVU163
 310:Libraries/STM32F4xx_HAL_Driver/Src/stm32f4xx_hal_flash.c ****       
 650              		.loc 1 310 13 is_stmt 0 view .LVU164
 651 00a0 134B     		ldr	r3, .L52+4
 652 00a2 5A68     		ldr	r2, [r3, #4]
 310:Libraries/STM32F4xx_HAL_Driver/Src/stm32f4xx_hal_flash.c ****       
 653              		.loc 1 310 30 view .LVU165
 654 00a4 013A     		subs	r2, r2, #1
 655 00a6 5A60     		str	r2, [r3, #4]
 313:Libraries/STM32F4xx_HAL_Driver/Src/stm32f4xx_hal_flash.c ****       {
 656              		.loc 1 313 7 is_stmt 1 view .LVU166
 313:Libraries/STM32F4xx_HAL_Driver/Src/stm32f4xx_hal_flash.c ****       {
 657              		.loc 1 313 16 is_stmt 0 view .LVU167
 658 00a8 5B68     		ldr	r3, [r3, #4]
 313:Libraries/STM32F4xx_HAL_Driver/Src/stm32f4xx_hal_flash.c ****       {
 659              		.loc 1 313 9 view .LVU168
 660 00aa 5BB1     		cbz	r3, .L43
 315:Libraries/STM32F4xx_HAL_Driver/Src/stm32f4xx_hal_flash.c ****         /*Indicate user which sector has been erased*/
 661              		.loc 1 315 9 is_stmt 1 view .LVU169
 315:Libraries/STM32F4xx_HAL_Driver/Src/stm32f4xx_hal_flash.c ****         /*Indicate user which sector has been erased*/
 662              		.loc 1 315 20 is_stmt 0 view .LVU170
 663 00ac 104C     		ldr	r4, .L52+4
 664 00ae E068     		ldr	r0, [r4, #12]
 665              	.LVL31:
 317:Libraries/STM32F4xx_HAL_Driver/Src/stm32f4xx_hal_flash.c ****         
 666              		.loc 1 317 9 is_stmt 1 view .LVU171
 667 00b0 FFF7FEFF 		bl	HAL_FLASH_EndOfOperationCallback
 668              	.LVL32:
 320:Libraries/STM32F4xx_HAL_Driver/Src/stm32f4xx_hal_flash.c ****         addresstmp = pFlash.Sector;
 669              		.loc 1 320 9 view .LVU172
 320:Libraries/STM32F4xx_HAL_Driver/Src/stm32f4xx_hal_flash.c ****         addresstmp = pFlash.Sector;
 670              		.loc 1 320 15 is_stmt 0 view .LVU173
 671 00b4 E368     		ldr	r3, [r4, #12]
 320:Libraries/STM32F4xx_HAL_Driver/Src/stm32f4xx_hal_flash.c ****         addresstmp = pFlash.Sector;
 672              		.loc 1 320 22 view .LVU174
 673 00b6 0133     		adds	r3, r3, #1
 674 00b8 E360     		str	r3, [r4, #12]
 321:Libraries/STM32F4xx_HAL_Driver/Src/stm32f4xx_hal_flash.c ****         FLASH_Erase_Sector(addresstmp, pFlash.VoltageForErase);
 675              		.loc 1 321 9 is_stmt 1 view .LVU175
 321:Libraries/STM32F4xx_HAL_Driver/Src/stm32f4xx_hal_flash.c ****         FLASH_Erase_Sector(addresstmp, pFlash.VoltageForErase);
 676              		.loc 1 321 20 is_stmt 0 view .LVU176
 677 00ba E068     		ldr	r0, [r4, #12]
 678              	.LVL33:
 322:Libraries/STM32F4xx_HAL_Driver/Src/stm32f4xx_hal_flash.c ****       }
 679              		.loc 1 322 9 is_stmt 1 view .LVU177
 680 00bc 217A     		ldrb	r1, [r4, #8]	@ zero_extendqisi2
 681 00be FFF7FEFF 		bl	FLASH_Erase_Sector
ARM GAS  C:\Users\yzy\AppData\Local\Temp\ccxXXGiZ.s 			page 43


 682              	.LVL34:
 322:Libraries/STM32F4xx_HAL_Driver/Src/stm32f4xx_hal_flash.c ****       }
 683              		.loc 1 322 9 is_stmt 0 view .LVU178
 684 00c2 D0E7     		b	.L41
 685              	.L43:
 328:Libraries/STM32F4xx_HAL_Driver/Src/stm32f4xx_hal_flash.c ****         pFlash.ProcedureOnGoing = FLASH_PROC_NONE;
 686              		.loc 1 328 9 is_stmt 1 view .LVU179
 687              	.LVL35:
 328:Libraries/STM32F4xx_HAL_Driver/Src/stm32f4xx_hal_flash.c ****         pFlash.ProcedureOnGoing = FLASH_PROC_NONE;
 688              		.loc 1 328 23 is_stmt 0 view .LVU180
 689 00c4 0A4B     		ldr	r3, .L52+4
 690 00c6 4FF0FF34 		mov	r4, #-1
 691 00ca DC60     		str	r4, [r3, #12]
 329:Libraries/STM32F4xx_HAL_Driver/Src/stm32f4xx_hal_flash.c ****         
 692              		.loc 1 329 9 is_stmt 1 view .LVU181
 329:Libraries/STM32F4xx_HAL_Driver/Src/stm32f4xx_hal_flash.c ****         
 693              		.loc 1 329 33 is_stmt 0 view .LVU182
 694 00cc 0022     		movs	r2, #0
 695 00ce 1A70     		strb	r2, [r3]
 332:Libraries/STM32F4xx_HAL_Driver/Src/stm32f4xx_hal_flash.c ****                 
 696              		.loc 1 332 9 is_stmt 1 view .LVU183
 697 00d0 FFF7FEFF 		bl	FLASH_FlushCaches
 698              	.LVL36:
 335:Libraries/STM32F4xx_HAL_Driver/Src/stm32f4xx_hal_flash.c ****       }
 699              		.loc 1 335 9 view .LVU184
 700 00d4 2046     		mov	r0, r4
 701 00d6 FFF7FEFF 		bl	HAL_FLASH_EndOfOperationCallback
 702              	.LVL37:
 703 00da C4E7     		b	.L41
 704              	.LVL38:
 705              	.L51:
 344:Libraries/STM32F4xx_HAL_Driver/Src/stm32f4xx_hal_flash.c **** 
 706              		.loc 1 344 9 view .LVU185
 707 00dc FFF7FEFF 		bl	FLASH_FlushCaches
 708              	.LVL39:
 347:Libraries/STM32F4xx_HAL_Driver/Src/stm32f4xx_hal_flash.c ****       }
 709              		.loc 1 347 9 view .LVU186
 710 00e0 034B     		ldr	r3, .L52+4
 711 00e2 1869     		ldr	r0, [r3, #16]
 712 00e4 FFF7FEFF 		bl	HAL_FLASH_EndOfOperationCallback
 713              	.LVL40:
 714 00e8 BAE7     		b	.L45
 715              	.L53:
 716 00ea 00BF     		.align	2
 717              	.L52:
 718 00ec 003C0240 		.word	1073888256
 719 00f0 00000000 		.word	pFlash
 720              		.cfi_endproc
 721              	.LFE132:
 723              		.section	.text.HAL_FLASH_Unlock,"ax",%progbits
 724              		.align	1
 725              		.global	HAL_FLASH_Unlock
 726              		.syntax unified
 727              		.thumb
 728              		.thumb_func
 729              		.fpu softvfp
 731              	HAL_FLASH_Unlock:
ARM GAS  C:\Users\yzy\AppData\Local\Temp\ccxXXGiZ.s 			page 44


 732              	.LFB135:
 434:Libraries/STM32F4xx_HAL_Driver/Src/stm32f4xx_hal_flash.c ****   HAL_StatusTypeDef status = HAL_OK;
 733              		.loc 1 434 1 view -0
 734              		.cfi_startproc
 735              		@ args = 0, pretend = 0, frame = 0
 736              		@ frame_needed = 0, uses_anonymous_args = 0
 737              		@ link register save eliminated.
 435:Libraries/STM32F4xx_HAL_Driver/Src/stm32f4xx_hal_flash.c **** 
 738              		.loc 1 435 3 view .LVU188
 739              	.LVL41:
 437:Libraries/STM32F4xx_HAL_Driver/Src/stm32f4xx_hal_flash.c ****   {
 740              		.loc 1 437 3 view .LVU189
 437:Libraries/STM32F4xx_HAL_Driver/Src/stm32f4xx_hal_flash.c ****   {
 741              		.loc 1 437 6 is_stmt 0 view .LVU190
 742 0000 094B     		ldr	r3, .L59
 743 0002 1B69     		ldr	r3, [r3, #16]
 437:Libraries/STM32F4xx_HAL_Driver/Src/stm32f4xx_hal_flash.c ****   {
 744              		.loc 1 437 5 view .LVU191
 745 0004 002B     		cmp	r3, #0
 746 0006 01DB     		blt	.L58
 435:Libraries/STM32F4xx_HAL_Driver/Src/stm32f4xx_hal_flash.c **** 
 747              		.loc 1 435 21 view .LVU192
 748 0008 0020     		movs	r0, #0
 749 000a 7047     		bx	lr
 750              	.L58:
 440:Libraries/STM32F4xx_HAL_Driver/Src/stm32f4xx_hal_flash.c ****     WRITE_REG(FLASH->KEYR, FLASH_KEY2);
 751              		.loc 1 440 5 is_stmt 1 view .LVU193
 752 000c 064B     		ldr	r3, .L59
 753 000e 074A     		ldr	r2, .L59+4
 754 0010 5A60     		str	r2, [r3, #4]
 441:Libraries/STM32F4xx_HAL_Driver/Src/stm32f4xx_hal_flash.c **** 
 755              		.loc 1 441 5 view .LVU194
 756 0012 02F18832 		add	r2, r2, #-2004318072
 757 0016 5A60     		str	r2, [r3, #4]
 444:Libraries/STM32F4xx_HAL_Driver/Src/stm32f4xx_hal_flash.c ****     {
 758              		.loc 1 444 5 view .LVU195
 444:Libraries/STM32F4xx_HAL_Driver/Src/stm32f4xx_hal_flash.c ****     {
 759              		.loc 1 444 8 is_stmt 0 view .LVU196
 760 0018 1B69     		ldr	r3, [r3, #16]
 444:Libraries/STM32F4xx_HAL_Driver/Src/stm32f4xx_hal_flash.c ****     {
 761              		.loc 1 444 7 view .LVU197
 762 001a 002B     		cmp	r3, #0
 763 001c 01DB     		blt	.L57
 435:Libraries/STM32F4xx_HAL_Driver/Src/stm32f4xx_hal_flash.c **** 
 764              		.loc 1 435 21 view .LVU198
 765 001e 0020     		movs	r0, #0
 766 0020 7047     		bx	lr
 767              	.L57:
 446:Libraries/STM32F4xx_HAL_Driver/Src/stm32f4xx_hal_flash.c ****     }
 768              		.loc 1 446 14 view .LVU199
 769 0022 0120     		movs	r0, #1
 770              	.LVL42:
 450:Libraries/STM32F4xx_HAL_Driver/Src/stm32f4xx_hal_flash.c **** }
 771              		.loc 1 450 3 is_stmt 1 view .LVU200
 451:Libraries/STM32F4xx_HAL_Driver/Src/stm32f4xx_hal_flash.c **** 
 772              		.loc 1 451 1 is_stmt 0 view .LVU201
 773 0024 7047     		bx	lr
ARM GAS  C:\Users\yzy\AppData\Local\Temp\ccxXXGiZ.s 			page 45


 774              	.L60:
 775 0026 00BF     		.align	2
 776              	.L59:
 777 0028 003C0240 		.word	1073888256
 778 002c 23016745 		.word	1164378403
 779              		.cfi_endproc
 780              	.LFE135:
 782              		.section	.text.HAL_FLASH_Lock,"ax",%progbits
 783              		.align	1
 784              		.global	HAL_FLASH_Lock
 785              		.syntax unified
 786              		.thumb
 787              		.thumb_func
 788              		.fpu softvfp
 790              	HAL_FLASH_Lock:
 791              	.LFB136:
 458:Libraries/STM32F4xx_HAL_Driver/Src/stm32f4xx_hal_flash.c ****   /* Set the LOCK Bit to lock the FLASH Registers access */
 792              		.loc 1 458 1 is_stmt 1 view -0
 793              		.cfi_startproc
 794              		@ args = 0, pretend = 0, frame = 0
 795              		@ frame_needed = 0, uses_anonymous_args = 0
 796              		@ link register save eliminated.
 460:Libraries/STM32F4xx_HAL_Driver/Src/stm32f4xx_hal_flash.c ****   
 797              		.loc 1 460 3 view .LVU203
 460:Libraries/STM32F4xx_HAL_Driver/Src/stm32f4xx_hal_flash.c ****   
 798              		.loc 1 460 13 is_stmt 0 view .LVU204
 799 0000 034A     		ldr	r2, .L62
 800 0002 1369     		ldr	r3, [r2, #16]
 801 0004 43F00043 		orr	r3, r3, #-2147483648
 802 0008 1361     		str	r3, [r2, #16]
 462:Libraries/STM32F4xx_HAL_Driver/Src/stm32f4xx_hal_flash.c **** }
 803              		.loc 1 462 3 is_stmt 1 view .LVU205
 463:Libraries/STM32F4xx_HAL_Driver/Src/stm32f4xx_hal_flash.c **** 
 804              		.loc 1 463 1 is_stmt 0 view .LVU206
 805 000a 0020     		movs	r0, #0
 806 000c 7047     		bx	lr
 807              	.L63:
 808 000e 00BF     		.align	2
 809              	.L62:
 810 0010 003C0240 		.word	1073888256
 811              		.cfi_endproc
 812              	.LFE136:
 814              		.section	.text.HAL_FLASH_OB_Unlock,"ax",%progbits
 815              		.align	1
 816              		.global	HAL_FLASH_OB_Unlock
 817              		.syntax unified
 818              		.thumb
 819              		.thumb_func
 820              		.fpu softvfp
 822              	HAL_FLASH_OB_Unlock:
 823              	.LFB137:
 470:Libraries/STM32F4xx_HAL_Driver/Src/stm32f4xx_hal_flash.c ****   if((FLASH->OPTCR & FLASH_OPTCR_OPTLOCK) != RESET)
 824              		.loc 1 470 1 is_stmt 1 view -0
 825              		.cfi_startproc
 826              		@ args = 0, pretend = 0, frame = 0
 827              		@ frame_needed = 0, uses_anonymous_args = 0
 828              		@ link register save eliminated.
ARM GAS  C:\Users\yzy\AppData\Local\Temp\ccxXXGiZ.s 			page 46


 471:Libraries/STM32F4xx_HAL_Driver/Src/stm32f4xx_hal_flash.c ****   {
 829              		.loc 1 471 3 view .LVU208
 471:Libraries/STM32F4xx_HAL_Driver/Src/stm32f4xx_hal_flash.c ****   {
 830              		.loc 1 471 12 is_stmt 0 view .LVU209
 831 0000 074B     		ldr	r3, .L67
 832 0002 5B69     		ldr	r3, [r3, #20]
 471:Libraries/STM32F4xx_HAL_Driver/Src/stm32f4xx_hal_flash.c ****   {
 833              		.loc 1 471 5 view .LVU210
 834 0004 13F0010F 		tst	r3, #1
 835 0008 07D0     		beq	.L66
 474:Libraries/STM32F4xx_HAL_Driver/Src/stm32f4xx_hal_flash.c ****     FLASH->OPTKEYR = FLASH_OPT_KEY2;
 836              		.loc 1 474 5 is_stmt 1 view .LVU211
 474:Libraries/STM32F4xx_HAL_Driver/Src/stm32f4xx_hal_flash.c ****     FLASH->OPTKEYR = FLASH_OPT_KEY2;
 837              		.loc 1 474 20 is_stmt 0 view .LVU212
 838 000a 054B     		ldr	r3, .L67
 839 000c 054A     		ldr	r2, .L67+4
 840 000e 9A60     		str	r2, [r3, #8]
 475:Libraries/STM32F4xx_HAL_Driver/Src/stm32f4xx_hal_flash.c ****   }
 841              		.loc 1 475 5 is_stmt 1 view .LVU213
 475:Libraries/STM32F4xx_HAL_Driver/Src/stm32f4xx_hal_flash.c ****   }
 842              		.loc 1 475 20 is_stmt 0 view .LVU214
 843 0010 02F14432 		add	r2, r2, #1145324612
 844 0014 9A60     		str	r2, [r3, #8]
 482:Libraries/STM32F4xx_HAL_Driver/Src/stm32f4xx_hal_flash.c **** }
 845              		.loc 1 482 3 is_stmt 1 view .LVU215
 482:Libraries/STM32F4xx_HAL_Driver/Src/stm32f4xx_hal_flash.c **** }
 846              		.loc 1 482 10 is_stmt 0 view .LVU216
 847 0016 0020     		movs	r0, #0
 848 0018 7047     		bx	lr
 849              	.L66:
 479:Libraries/STM32F4xx_HAL_Driver/Src/stm32f4xx_hal_flash.c ****   }  
 850              		.loc 1 479 12 view .LVU217
 851 001a 0120     		movs	r0, #1
 483:Libraries/STM32F4xx_HAL_Driver/Src/stm32f4xx_hal_flash.c **** 
 852              		.loc 1 483 1 view .LVU218
 853 001c 7047     		bx	lr
 854              	.L68:
 855 001e 00BF     		.align	2
 856              	.L67:
 857 0020 003C0240 		.word	1073888256
 858 0024 3B2A1908 		.word	135866939
 859              		.cfi_endproc
 860              	.LFE137:
 862              		.section	.text.HAL_FLASH_OB_Lock,"ax",%progbits
 863              		.align	1
 864              		.global	HAL_FLASH_OB_Lock
 865              		.syntax unified
 866              		.thumb
 867              		.thumb_func
 868              		.fpu softvfp
 870              	HAL_FLASH_OB_Lock:
 871              	.LFB138:
 490:Libraries/STM32F4xx_HAL_Driver/Src/stm32f4xx_hal_flash.c ****   /* Set the OPTLOCK Bit to lock the FLASH Option Byte Registers access */
 872              		.loc 1 490 1 is_stmt 1 view -0
 873              		.cfi_startproc
 874              		@ args = 0, pretend = 0, frame = 0
 875              		@ frame_needed = 0, uses_anonymous_args = 0
ARM GAS  C:\Users\yzy\AppData\Local\Temp\ccxXXGiZ.s 			page 47


 876              		@ link register save eliminated.
 492:Libraries/STM32F4xx_HAL_Driver/Src/stm32f4xx_hal_flash.c ****   
 877              		.loc 1 492 3 view .LVU220
 492:Libraries/STM32F4xx_HAL_Driver/Src/stm32f4xx_hal_flash.c ****   
 878              		.loc 1 492 16 is_stmt 0 view .LVU221
 879 0000 034A     		ldr	r2, .L70
 880 0002 5369     		ldr	r3, [r2, #20]
 881 0004 43F00103 		orr	r3, r3, #1
 882 0008 5361     		str	r3, [r2, #20]
 494:Libraries/STM32F4xx_HAL_Driver/Src/stm32f4xx_hal_flash.c **** }
 883              		.loc 1 494 3 is_stmt 1 view .LVU222
 495:Libraries/STM32F4xx_HAL_Driver/Src/stm32f4xx_hal_flash.c **** 
 884              		.loc 1 495 1 is_stmt 0 view .LVU223
 885 000a 0020     		movs	r0, #0
 886 000c 7047     		bx	lr
 887              	.L71:
 888 000e 00BF     		.align	2
 889              	.L70:
 890 0010 003C0240 		.word	1073888256
 891              		.cfi_endproc
 892              	.LFE138:
 894              		.section	.text.HAL_FLASH_GetError,"ax",%progbits
 895              		.align	1
 896              		.global	HAL_FLASH_GetError
 897              		.syntax unified
 898              		.thumb
 899              		.thumb_func
 900              		.fpu softvfp
 902              	HAL_FLASH_GetError:
 903              	.LFB140:
 539:Libraries/STM32F4xx_HAL_Driver/Src/stm32f4xx_hal_flash.c ****    return pFlash.ErrorCode;
 904              		.loc 1 539 1 is_stmt 1 view -0
 905              		.cfi_startproc
 906              		@ args = 0, pretend = 0, frame = 0
 907              		@ frame_needed = 0, uses_anonymous_args = 0
 908              		@ link register save eliminated.
 540:Libraries/STM32F4xx_HAL_Driver/Src/stm32f4xx_hal_flash.c **** }  
 909              		.loc 1 540 4 view .LVU225
 540:Libraries/STM32F4xx_HAL_Driver/Src/stm32f4xx_hal_flash.c **** }  
 910              		.loc 1 540 17 is_stmt 0 view .LVU226
 911 0000 014B     		ldr	r3, .L73
 912 0002 D869     		ldr	r0, [r3, #28]
 541:Libraries/STM32F4xx_HAL_Driver/Src/stm32f4xx_hal_flash.c ****   
 913              		.loc 1 541 1 view .LVU227
 914 0004 7047     		bx	lr
 915              	.L74:
 916 0006 00BF     		.align	2
 917              	.L73:
 918 0008 00000000 		.word	pFlash
 919              		.cfi_endproc
 920              	.LFE140:
 922              		.section	.text.FLASH_WaitForLastOperation,"ax",%progbits
 923              		.align	1
 924              		.global	FLASH_WaitForLastOperation
 925              		.syntax unified
 926              		.thumb
 927              		.thumb_func
ARM GAS  C:\Users\yzy\AppData\Local\Temp\ccxXXGiZ.s 			page 48


 928              		.fpu softvfp
 930              	FLASH_WaitForLastOperation:
 931              	.LVL43:
 932              	.LFB141:
 553:Libraries/STM32F4xx_HAL_Driver/Src/stm32f4xx_hal_flash.c ****   uint32_t tickstart = 0U;
 933              		.loc 1 553 1 is_stmt 1 view -0
 934              		.cfi_startproc
 935              		@ args = 0, pretend = 0, frame = 0
 936              		@ frame_needed = 0, uses_anonymous_args = 0
 553:Libraries/STM32F4xx_HAL_Driver/Src/stm32f4xx_hal_flash.c ****   uint32_t tickstart = 0U;
 937              		.loc 1 553 1 is_stmt 0 view .LVU229
 938 0000 38B5     		push	{r3, r4, r5, lr}
 939              	.LCFI4:
 940              		.cfi_def_cfa_offset 16
 941              		.cfi_offset 3, -16
 942              		.cfi_offset 4, -12
 943              		.cfi_offset 5, -8
 944              		.cfi_offset 14, -4
 945 0002 0446     		mov	r4, r0
 554:Libraries/STM32F4xx_HAL_Driver/Src/stm32f4xx_hal_flash.c ****   
 946              		.loc 1 554 3 is_stmt 1 view .LVU230
 947              	.LVL44:
 557:Libraries/STM32F4xx_HAL_Driver/Src/stm32f4xx_hal_flash.c ****   
 948              		.loc 1 557 3 view .LVU231
 557:Libraries/STM32F4xx_HAL_Driver/Src/stm32f4xx_hal_flash.c ****   
 949              		.loc 1 557 20 is_stmt 0 view .LVU232
 950 0004 144B     		ldr	r3, .L86
 951 0006 0022     		movs	r2, #0
 952 0008 DA61     		str	r2, [r3, #28]
 563:Libraries/STM32F4xx_HAL_Driver/Src/stm32f4xx_hal_flash.c **** 
 953              		.loc 1 563 3 is_stmt 1 view .LVU233
 563:Libraries/STM32F4xx_HAL_Driver/Src/stm32f4xx_hal_flash.c **** 
 954              		.loc 1 563 15 is_stmt 0 view .LVU234
 955 000a FFF7FEFF 		bl	HAL_GetTick
 956              	.LVL45:
 563:Libraries/STM32F4xx_HAL_Driver/Src/stm32f4xx_hal_flash.c **** 
 957              		.loc 1 563 15 view .LVU235
 958 000e 0546     		mov	r5, r0
 959              	.LVL46:
 565:Libraries/STM32F4xx_HAL_Driver/Src/stm32f4xx_hal_flash.c ****   { 
 960              		.loc 1 565 3 is_stmt 1 view .LVU236
 961              	.L77:
 565:Libraries/STM32F4xx_HAL_Driver/Src/stm32f4xx_hal_flash.c ****   { 
 962              		.loc 1 565 8 view .LVU237
 565:Libraries/STM32F4xx_HAL_Driver/Src/stm32f4xx_hal_flash.c ****   { 
 963              		.loc 1 565 9 is_stmt 0 view .LVU238
 964 0010 124B     		ldr	r3, .L86+4
 965 0012 DB68     		ldr	r3, [r3, #12]
 565:Libraries/STM32F4xx_HAL_Driver/Src/stm32f4xx_hal_flash.c ****   { 
 966              		.loc 1 565 8 view .LVU239
 967 0014 13F4803F 		tst	r3, #65536
 968 0018 0AD0     		beq	.L84
 567:Libraries/STM32F4xx_HAL_Driver/Src/stm32f4xx_hal_flash.c ****     {
 969              		.loc 1 567 5 is_stmt 1 view .LVU240
 567:Libraries/STM32F4xx_HAL_Driver/Src/stm32f4xx_hal_flash.c ****     {
 970              		.loc 1 567 7 is_stmt 0 view .LVU241
 971 001a B4F1FF3F 		cmp	r4, #-1
ARM GAS  C:\Users\yzy\AppData\Local\Temp\ccxXXGiZ.s 			page 49


 972 001e F7D0     		beq	.L77
 569:Libraries/STM32F4xx_HAL_Driver/Src/stm32f4xx_hal_flash.c ****       {
 973              		.loc 1 569 7 is_stmt 1 view .LVU242
 569:Libraries/STM32F4xx_HAL_Driver/Src/stm32f4xx_hal_flash.c ****       {
 974              		.loc 1 569 9 is_stmt 0 view .LVU243
 975 0020 24B1     		cbz	r4, .L78
 569:Libraries/STM32F4xx_HAL_Driver/Src/stm32f4xx_hal_flash.c ****       {
 976              		.loc 1 569 29 discriminator 1 view .LVU244
 977 0022 FFF7FEFF 		bl	HAL_GetTick
 978              	.LVL47:
 569:Libraries/STM32F4xx_HAL_Driver/Src/stm32f4xx_hal_flash.c ****       {
 979              		.loc 1 569 43 discriminator 1 view .LVU245
 980 0026 401B     		subs	r0, r0, r5
 569:Libraries/STM32F4xx_HAL_Driver/Src/stm32f4xx_hal_flash.c ****       {
 981              		.loc 1 569 25 discriminator 1 view .LVU246
 982 0028 A042     		cmp	r0, r4
 983 002a F1D9     		bls	.L77
 984              	.L78:
 571:Libraries/STM32F4xx_HAL_Driver/Src/stm32f4xx_hal_flash.c ****       }
 985              		.loc 1 571 9 is_stmt 1 view .LVU247
 571:Libraries/STM32F4xx_HAL_Driver/Src/stm32f4xx_hal_flash.c ****       }
 986              		.loc 1 571 16 is_stmt 0 view .LVU248
 987 002c 0320     		movs	r0, #3
 988 002e 0DE0     		b	.L79
 989              	.L84:
 577:Libraries/STM32F4xx_HAL_Driver/Src/stm32f4xx_hal_flash.c ****   {
 990              		.loc 1 577 3 is_stmt 1 view .LVU249
 577:Libraries/STM32F4xx_HAL_Driver/Src/stm32f4xx_hal_flash.c ****   {
 991              		.loc 1 577 7 is_stmt 0 view .LVU250
 992 0030 0A4B     		ldr	r3, .L86+4
 993 0032 DB68     		ldr	r3, [r3, #12]
 577:Libraries/STM32F4xx_HAL_Driver/Src/stm32f4xx_hal_flash.c ****   {
 994              		.loc 1 577 6 view .LVU251
 995 0034 13F0010F 		tst	r3, #1
 996 0038 02D0     		beq	.L81
 580:Libraries/STM32F4xx_HAL_Driver/Src/stm32f4xx_hal_flash.c ****   }
 997              		.loc 1 580 5 is_stmt 1 view .LVU252
 998 003a 084B     		ldr	r3, .L86+4
 999 003c 0122     		movs	r2, #1
 1000 003e DA60     		str	r2, [r3, #12]
 1001              	.L81:
 586:Libraries/STM32F4xx_HAL_Driver/Src/stm32f4xx_hal_flash.c ****                            FLASH_FLAG_PGPERR | FLASH_FLAG_PGSERR)) != RESET)
 1002              		.loc 1 586 3 view .LVU253
 586:Libraries/STM32F4xx_HAL_Driver/Src/stm32f4xx_hal_flash.c ****                            FLASH_FLAG_PGPERR | FLASH_FLAG_PGSERR)) != RESET)
 1003              		.loc 1 586 6 is_stmt 0 view .LVU254
 1004 0040 064B     		ldr	r3, .L86+4
 1005 0042 DB68     		ldr	r3, [r3, #12]
 586:Libraries/STM32F4xx_HAL_Driver/Src/stm32f4xx_hal_flash.c ****                            FLASH_FLAG_PGPERR | FLASH_FLAG_PGSERR)) != RESET)
 1006              		.loc 1 586 5 view .LVU255
 1007 0044 13F0F20F 		tst	r3, #242
 1008 0048 01D1     		bne	.L85
 596:Libraries/STM32F4xx_HAL_Driver/Src/stm32f4xx_hal_flash.c ****   
 1009              		.loc 1 596 10 view .LVU256
 1010 004a 0020     		movs	r0, #0
 1011              	.L79:
 598:Libraries/STM32F4xx_HAL_Driver/Src/stm32f4xx_hal_flash.c **** 
 1012              		.loc 1 598 1 view .LVU257
ARM GAS  C:\Users\yzy\AppData\Local\Temp\ccxXXGiZ.s 			page 50


 1013 004c 38BD     		pop	{r3, r4, r5, pc}
 1014              	.LVL48:
 1015              	.L85:
 591:Libraries/STM32F4xx_HAL_Driver/Src/stm32f4xx_hal_flash.c ****     return HAL_ERROR;
 1016              		.loc 1 591 5 is_stmt 1 view .LVU258
 1017 004e FFF7FEFF 		bl	FLASH_SetErrorCode
 1018              	.LVL49:
 592:Libraries/STM32F4xx_HAL_Driver/Src/stm32f4xx_hal_flash.c ****   }
 1019              		.loc 1 592 5 view .LVU259
 592:Libraries/STM32F4xx_HAL_Driver/Src/stm32f4xx_hal_flash.c ****   }
 1020              		.loc 1 592 12 is_stmt 0 view .LVU260
 1021 0052 0120     		movs	r0, #1
 1022 0054 FAE7     		b	.L79
 1023              	.L87:
 1024 0056 00BF     		.align	2
 1025              	.L86:
 1026 0058 00000000 		.word	pFlash
 1027 005c 003C0240 		.word	1073888256
 1028              		.cfi_endproc
 1029              	.LFE141:
 1031              		.section	.text.HAL_FLASH_Program,"ax",%progbits
 1032              		.align	1
 1033              		.global	HAL_FLASH_Program
 1034              		.syntax unified
 1035              		.thumb
 1036              		.thumb_func
 1037              		.fpu softvfp
 1039              	HAL_FLASH_Program:
 1040              	.LVL50:
 1041              	.LFB130:
 157:Libraries/STM32F4xx_HAL_Driver/Src/stm32f4xx_hal_flash.c ****   HAL_StatusTypeDef status = HAL_ERROR;
 1042              		.loc 1 157 1 is_stmt 1 view -0
 1043              		.cfi_startproc
 1044              		@ args = 0, pretend = 0, frame = 0
 1045              		@ frame_needed = 0, uses_anonymous_args = 0
 157:Libraries/STM32F4xx_HAL_Driver/Src/stm32f4xx_hal_flash.c ****   HAL_StatusTypeDef status = HAL_ERROR;
 1046              		.loc 1 157 1 is_stmt 0 view .LVU262
 1047 0000 F8B5     		push	{r3, r4, r5, r6, r7, lr}
 1048              	.LCFI5:
 1049              		.cfi_def_cfa_offset 24
 1050              		.cfi_offset 3, -24
 1051              		.cfi_offset 4, -20
 1052              		.cfi_offset 5, -16
 1053              		.cfi_offset 6, -12
 1054              		.cfi_offset 7, -8
 1055              		.cfi_offset 14, -4
 1056 0002 1646     		mov	r6, r2
 158:Libraries/STM32F4xx_HAL_Driver/Src/stm32f4xx_hal_flash.c ****   
 1057              		.loc 1 158 3 is_stmt 1 view .LVU263
 1058              	.LVL51:
 161:Libraries/STM32F4xx_HAL_Driver/Src/stm32f4xx_hal_flash.c ****   
 1059              		.loc 1 161 3 view .LVU264
 161:Libraries/STM32F4xx_HAL_Driver/Src/stm32f4xx_hal_flash.c ****   
 1060              		.loc 1 161 3 view .LVU265
 1061 0004 1B4A     		ldr	r2, .L100
 1062              	.LVL52:
 161:Libraries/STM32F4xx_HAL_Driver/Src/stm32f4xx_hal_flash.c ****   
ARM GAS  C:\Users\yzy\AppData\Local\Temp\ccxXXGiZ.s 			page 51


 1063              		.loc 1 161 3 is_stmt 0 view .LVU266
 1064 0006 127E     		ldrb	r2, [r2, #24]	@ zero_extendqisi2
 1065 0008 012A     		cmp	r2, #1
 1066 000a 30D0     		beq	.L95
 1067 000c 0446     		mov	r4, r0
 1068 000e 0D46     		mov	r5, r1
 1069 0010 1F46     		mov	r7, r3
 161:Libraries/STM32F4xx_HAL_Driver/Src/stm32f4xx_hal_flash.c ****   
 1070              		.loc 1 161 3 is_stmt 1 discriminator 2 view .LVU267
 1071 0012 184B     		ldr	r3, .L100
 1072 0014 0122     		movs	r2, #1
 1073 0016 1A76     		strb	r2, [r3, #24]
 161:Libraries/STM32F4xx_HAL_Driver/Src/stm32f4xx_hal_flash.c ****   
 1074              		.loc 1 161 3 discriminator 2 view .LVU268
 164:Libraries/STM32F4xx_HAL_Driver/Src/stm32f4xx_hal_flash.c ****   
 1075              		.loc 1 164 3 discriminator 2 view .LVU269
 167:Libraries/STM32F4xx_HAL_Driver/Src/stm32f4xx_hal_flash.c ****   
 1076              		.loc 1 167 3 discriminator 2 view .LVU270
 167:Libraries/STM32F4xx_HAL_Driver/Src/stm32f4xx_hal_flash.c ****   
 1077              		.loc 1 167 12 is_stmt 0 discriminator 2 view .LVU271
 1078 0018 4CF25030 		movw	r0, #50000
 1079              	.LVL53:
 167:Libraries/STM32F4xx_HAL_Driver/Src/stm32f4xx_hal_flash.c ****   
 1080              		.loc 1 167 12 discriminator 2 view .LVU272
 1081 001c FFF7FEFF 		bl	FLASH_WaitForLastOperation
 1082              	.LVL54:
 169:Libraries/STM32F4xx_HAL_Driver/Src/stm32f4xx_hal_flash.c ****   {
 1083              		.loc 1 169 3 is_stmt 1 discriminator 2 view .LVU273
 169:Libraries/STM32F4xx_HAL_Driver/Src/stm32f4xx_hal_flash.c ****   {
 1084              		.loc 1 169 5 is_stmt 0 discriminator 2 view .LVU274
 1085 0020 90B9     		cbnz	r0, .L90
 171:Libraries/STM32F4xx_HAL_Driver/Src/stm32f4xx_hal_flash.c ****     {
 1086              		.loc 1 171 5 is_stmt 1 view .LVU275
 171:Libraries/STM32F4xx_HAL_Driver/Src/stm32f4xx_hal_flash.c ****     {
 1087              		.loc 1 171 7 is_stmt 0 view .LVU276
 1088 0022 ACB1     		cbz	r4, .L97
 176:Libraries/STM32F4xx_HAL_Driver/Src/stm32f4xx_hal_flash.c ****     {
 1089              		.loc 1 176 10 is_stmt 1 view .LVU277
 176:Libraries/STM32F4xx_HAL_Driver/Src/stm32f4xx_hal_flash.c ****     {
 1090              		.loc 1 176 12 is_stmt 0 view .LVU278
 1091 0024 012C     		cmp	r4, #1
 1092 0026 18D0     		beq	.L98
 181:Libraries/STM32F4xx_HAL_Driver/Src/stm32f4xx_hal_flash.c ****     {
 1093              		.loc 1 181 10 is_stmt 1 view .LVU279
 181:Libraries/STM32F4xx_HAL_Driver/Src/stm32f4xx_hal_flash.c ****     {
 1094              		.loc 1 181 12 is_stmt 0 view .LVU280
 1095 0028 022C     		cmp	r4, #2
 1096 002a 1BD0     		beq	.L99
 189:Libraries/STM32F4xx_HAL_Driver/Src/stm32f4xx_hal_flash.c ****     }
 1097              		.loc 1 189 7 is_stmt 1 view .LVU281
 1098 002c 3246     		mov	r2, r6
 1099 002e 3B46     		mov	r3, r7
 1100 0030 2846     		mov	r0, r5
 1101              	.LVL55:
 189:Libraries/STM32F4xx_HAL_Driver/Src/stm32f4xx_hal_flash.c ****     }
 1102              		.loc 1 189 7 is_stmt 0 view .LVU282
 1103 0032 FFF7FEFF 		bl	FLASH_Program_DoubleWord
ARM GAS  C:\Users\yzy\AppData\Local\Temp\ccxXXGiZ.s 			page 52


 1104              	.LVL56:
 1105              	.L92:
 193:Libraries/STM32F4xx_HAL_Driver/Src/stm32f4xx_hal_flash.c ****     
 1106              		.loc 1 193 5 is_stmt 1 view .LVU283
 193:Libraries/STM32F4xx_HAL_Driver/Src/stm32f4xx_hal_flash.c ****     
 1107              		.loc 1 193 14 is_stmt 0 view .LVU284
 1108 0036 4CF25030 		movw	r0, #50000
 1109 003a FFF7FEFF 		bl	FLASH_WaitForLastOperation
 1110              	.LVL57:
 196:Libraries/STM32F4xx_HAL_Driver/Src/stm32f4xx_hal_flash.c ****   }
 1111              		.loc 1 196 5 is_stmt 1 view .LVU285
 196:Libraries/STM32F4xx_HAL_Driver/Src/stm32f4xx_hal_flash.c ****   }
 1112              		.loc 1 196 15 is_stmt 0 view .LVU286
 1113 003e 0E4A     		ldr	r2, .L100+4
 1114 0040 1369     		ldr	r3, [r2, #16]
 1115 0042 23F00103 		bic	r3, r3, #1
 1116 0046 1361     		str	r3, [r2, #16]
 1117              	.L90:
 200:Libraries/STM32F4xx_HAL_Driver/Src/stm32f4xx_hal_flash.c ****   
 1118              		.loc 1 200 3 is_stmt 1 view .LVU287
 200:Libraries/STM32F4xx_HAL_Driver/Src/stm32f4xx_hal_flash.c ****   
 1119              		.loc 1 200 3 view .LVU288
 1120 0048 0A4B     		ldr	r3, .L100
 1121 004a 0022     		movs	r2, #0
 1122 004c 1A76     		strb	r2, [r3, #24]
 200:Libraries/STM32F4xx_HAL_Driver/Src/stm32f4xx_hal_flash.c ****   
 1123              		.loc 1 200 3 view .LVU289
 202:Libraries/STM32F4xx_HAL_Driver/Src/stm32f4xx_hal_flash.c **** }
 1124              		.loc 1 202 3 view .LVU290
 1125              	.LVL58:
 1126              	.L89:
 203:Libraries/STM32F4xx_HAL_Driver/Src/stm32f4xx_hal_flash.c **** 
 1127              		.loc 1 203 1 is_stmt 0 view .LVU291
 1128 004e F8BD     		pop	{r3, r4, r5, r6, r7, pc}
 1129              	.LVL59:
 1130              	.L97:
 174:Libraries/STM32F4xx_HAL_Driver/Src/stm32f4xx_hal_flash.c ****     }
 1131              		.loc 1 174 7 is_stmt 1 view .LVU292
 1132 0050 F1B2     		uxtb	r1, r6
 1133 0052 2846     		mov	r0, r5
 1134              	.LVL60:
 174:Libraries/STM32F4xx_HAL_Driver/Src/stm32f4xx_hal_flash.c ****     }
 1135              		.loc 1 174 7 is_stmt 0 view .LVU293
 1136 0054 FFF7FEFF 		bl	FLASH_Program_Byte
 1137              	.LVL61:
 1138 0058 EDE7     		b	.L92
 1139              	.LVL62:
 1140              	.L98:
 179:Libraries/STM32F4xx_HAL_Driver/Src/stm32f4xx_hal_flash.c ****     }
 1141              		.loc 1 179 7 is_stmt 1 view .LVU294
 1142 005a B1B2     		uxth	r1, r6
 1143 005c 2846     		mov	r0, r5
 1144              	.LVL63:
 179:Libraries/STM32F4xx_HAL_Driver/Src/stm32f4xx_hal_flash.c ****     }
 1145              		.loc 1 179 7 is_stmt 0 view .LVU295
 1146 005e FFF7FEFF 		bl	FLASH_Program_HalfWord
 1147              	.LVL64:
ARM GAS  C:\Users\yzy\AppData\Local\Temp\ccxXXGiZ.s 			page 53


 1148 0062 E8E7     		b	.L92
 1149              	.LVL65:
 1150              	.L99:
 184:Libraries/STM32F4xx_HAL_Driver/Src/stm32f4xx_hal_flash.c ****     }
 1151              		.loc 1 184 7 is_stmt 1 view .LVU296
 1152 0064 3146     		mov	r1, r6
 1153 0066 2846     		mov	r0, r5
 1154              	.LVL66:
 184:Libraries/STM32F4xx_HAL_Driver/Src/stm32f4xx_hal_flash.c ****     }
 1155              		.loc 1 184 7 is_stmt 0 view .LVU297
 1156 0068 FFF7FEFF 		bl	FLASH_Program_Word
 1157              	.LVL67:
 1158 006c E3E7     		b	.L92
 1159              	.LVL68:
 1160              	.L95:
 161:Libraries/STM32F4xx_HAL_Driver/Src/stm32f4xx_hal_flash.c ****   
 1161              		.loc 1 161 3 view .LVU298
 1162 006e 0220     		movs	r0, #2
 1163              	.LVL69:
 161:Libraries/STM32F4xx_HAL_Driver/Src/stm32f4xx_hal_flash.c ****   
 1164              		.loc 1 161 3 view .LVU299
 1165 0070 EDE7     		b	.L89
 1166              	.L101:
 1167 0072 00BF     		.align	2
 1168              	.L100:
 1169 0074 00000000 		.word	pFlash
 1170 0078 003C0240 		.word	1073888256
 1171              		.cfi_endproc
 1172              	.LFE130:
 1174              		.section	.text.HAL_FLASH_OB_Launch,"ax",%progbits
 1175              		.align	1
 1176              		.global	HAL_FLASH_OB_Launch
 1177              		.syntax unified
 1178              		.thumb
 1179              		.thumb_func
 1180              		.fpu softvfp
 1182              	HAL_FLASH_OB_Launch:
 1183              	.LFB139:
 502:Libraries/STM32F4xx_HAL_Driver/Src/stm32f4xx_hal_flash.c ****   /* Set the OPTSTRT bit in OPTCR register */
 1184              		.loc 1 502 1 is_stmt 1 view -0
 1185              		.cfi_startproc
 1186              		@ args = 0, pretend = 0, frame = 0
 1187              		@ frame_needed = 0, uses_anonymous_args = 0
 1188 0000 08B5     		push	{r3, lr}
 1189              	.LCFI6:
 1190              		.cfi_def_cfa_offset 8
 1191              		.cfi_offset 3, -8
 1192              		.cfi_offset 14, -4
 504:Libraries/STM32F4xx_HAL_Driver/Src/stm32f4xx_hal_flash.c **** 
 1193              		.loc 1 504 3 view .LVU301
 504:Libraries/STM32F4xx_HAL_Driver/Src/stm32f4xx_hal_flash.c **** 
 1194              		.loc 1 504 40 is_stmt 0 view .LVU302
 1195 0002 054A     		ldr	r2, .L104
 1196 0004 1378     		ldrb	r3, [r2]	@ zero_extendqisi2
 1197 0006 43F00203 		orr	r3, r3, #2
 1198 000a 1370     		strb	r3, [r2]
 507:Libraries/STM32F4xx_HAL_Driver/Src/stm32f4xx_hal_flash.c **** }
ARM GAS  C:\Users\yzy\AppData\Local\Temp\ccxXXGiZ.s 			page 54


 1199              		.loc 1 507 3 is_stmt 1 view .LVU303
 507:Libraries/STM32F4xx_HAL_Driver/Src/stm32f4xx_hal_flash.c **** }
 1200              		.loc 1 507 10 is_stmt 0 view .LVU304
 1201 000c 4CF25030 		movw	r0, #50000
 1202 0010 FFF7FEFF 		bl	FLASH_WaitForLastOperation
 1203              	.LVL70:
 508:Libraries/STM32F4xx_HAL_Driver/Src/stm32f4xx_hal_flash.c **** 
 1204              		.loc 1 508 1 view .LVU305
 1205 0014 08BD     		pop	{r3, pc}
 1206              	.L105:
 1207 0016 00BF     		.align	2
 1208              	.L104:
 1209 0018 143C0240 		.word	1073888276
 1210              		.cfi_endproc
 1211              	.LFE139:
 1213              		.comm	pFlash,32,4
 1214              		.text
 1215              	.Letext0:
 1216              		.file 3 "c:\\program files (x86)\\gnu arm embedded toolchain\\2020-q2-update\\arm-none-eabi\\inclu
 1217              		.file 4 "c:\\program files (x86)\\gnu arm embedded toolchain\\2020-q2-update\\arm-none-eabi\\inclu
 1218              		.file 5 "Libraries/CMSIS/Include/core_cm4.h"
 1219              		.file 6 "Libraries/CMSIS/Device/ST/STM32F4xx/Include/system_stm32f4xx.h"
 1220              		.file 7 "Libraries/CMSIS/Device/ST/STM32F4xx/Include/stm32f407xx.h"
 1221              		.file 8 "Libraries/CMSIS/Device/ST/STM32F4xx/Include/stm32f4xx.h"
 1222              		.file 9 "Libraries/STM32F4xx_HAL_Driver/Inc/stm32f4xx_hal_def.h"
 1223              		.file 10 "Libraries/STM32F4xx_HAL_Driver/Inc/stm32f4xx_hal_flash.h"
 1224              		.file 11 "Libraries/STM32F4xx_HAL_Driver/Inc/stm32f4xx_hal.h"
 1225              		.file 12 "Libraries/STM32F4xx_HAL_Driver/Inc/stm32f4xx_hal_flash_ex.h"
ARM GAS  C:\Users\yzy\AppData\Local\Temp\ccxXXGiZ.s 			page 55


DEFINED SYMBOLS
                            *ABS*:00000000 stm32f4xx_hal_flash.c
C:\Users\yzy\AppData\Local\Temp\ccxXXGiZ.s:16     .text.FLASH_Program_DoubleWord:00000000 $t
C:\Users\yzy\AppData\Local\Temp\ccxXXGiZ.s:23     .text.FLASH_Program_DoubleWord:00000000 FLASH_Program_DoubleWord
C:\Users\yzy\AppData\Local\Temp\ccxXXGiZ.s:83     .text.FLASH_Program_DoubleWord:00000028 $d
C:\Users\yzy\AppData\Local\Temp\ccxXXGiZ.s:88     .text.FLASH_Program_Word:00000000 $t
C:\Users\yzy\AppData\Local\Temp\ccxXXGiZ.s:94     .text.FLASH_Program_Word:00000000 FLASH_Program_Word
C:\Users\yzy\AppData\Local\Temp\ccxXXGiZ.s:126    .text.FLASH_Program_Word:00000020 $d
C:\Users\yzy\AppData\Local\Temp\ccxXXGiZ.s:131    .text.FLASH_Program_HalfWord:00000000 $t
C:\Users\yzy\AppData\Local\Temp\ccxXXGiZ.s:137    .text.FLASH_Program_HalfWord:00000000 FLASH_Program_HalfWord
C:\Users\yzy\AppData\Local\Temp\ccxXXGiZ.s:169    .text.FLASH_Program_HalfWord:00000020 $d
C:\Users\yzy\AppData\Local\Temp\ccxXXGiZ.s:174    .text.FLASH_Program_Byte:00000000 $t
C:\Users\yzy\AppData\Local\Temp\ccxXXGiZ.s:180    .text.FLASH_Program_Byte:00000000 FLASH_Program_Byte
C:\Users\yzy\AppData\Local\Temp\ccxXXGiZ.s:211    .text.FLASH_Program_Byte:0000001c $d
C:\Users\yzy\AppData\Local\Temp\ccxXXGiZ.s:216    .text.FLASH_SetErrorCode:00000000 $t
C:\Users\yzy\AppData\Local\Temp\ccxXXGiZ.s:222    .text.FLASH_SetErrorCode:00000000 FLASH_SetErrorCode
C:\Users\yzy\AppData\Local\Temp\ccxXXGiZ.s:324    .text.FLASH_SetErrorCode:00000084 $d
                            *COM*:00000020 pFlash
C:\Users\yzy\AppData\Local\Temp\ccxXXGiZ.s:330    .text.HAL_FLASH_Program_IT:00000000 $t
C:\Users\yzy\AppData\Local\Temp\ccxXXGiZ.s:337    .text.HAL_FLASH_Program_IT:00000000 HAL_FLASH_Program_IT
C:\Users\yzy\AppData\Local\Temp\ccxXXGiZ.s:446    .text.HAL_FLASH_Program_IT:00000060 $d
C:\Users\yzy\AppData\Local\Temp\ccxXXGiZ.s:452    .text.HAL_FLASH_EndOfOperationCallback:00000000 $t
C:\Users\yzy\AppData\Local\Temp\ccxXXGiZ.s:459    .text.HAL_FLASH_EndOfOperationCallback:00000000 HAL_FLASH_EndOfOperationCallback
C:\Users\yzy\AppData\Local\Temp\ccxXXGiZ.s:474    .text.HAL_FLASH_OperationErrorCallback:00000000 $t
C:\Users\yzy\AppData\Local\Temp\ccxXXGiZ.s:481    .text.HAL_FLASH_OperationErrorCallback:00000000 HAL_FLASH_OperationErrorCallback
C:\Users\yzy\AppData\Local\Temp\ccxXXGiZ.s:496    .text.HAL_FLASH_IRQHandler:00000000 $t
C:\Users\yzy\AppData\Local\Temp\ccxXXGiZ.s:503    .text.HAL_FLASH_IRQHandler:00000000 HAL_FLASH_IRQHandler
C:\Users\yzy\AppData\Local\Temp\ccxXXGiZ.s:718    .text.HAL_FLASH_IRQHandler:000000ec $d
C:\Users\yzy\AppData\Local\Temp\ccxXXGiZ.s:724    .text.HAL_FLASH_Unlock:00000000 $t
C:\Users\yzy\AppData\Local\Temp\ccxXXGiZ.s:731    .text.HAL_FLASH_Unlock:00000000 HAL_FLASH_Unlock
C:\Users\yzy\AppData\Local\Temp\ccxXXGiZ.s:777    .text.HAL_FLASH_Unlock:00000028 $d
C:\Users\yzy\AppData\Local\Temp\ccxXXGiZ.s:783    .text.HAL_FLASH_Lock:00000000 $t
C:\Users\yzy\AppData\Local\Temp\ccxXXGiZ.s:790    .text.HAL_FLASH_Lock:00000000 HAL_FLASH_Lock
C:\Users\yzy\AppData\Local\Temp\ccxXXGiZ.s:810    .text.HAL_FLASH_Lock:00000010 $d
C:\Users\yzy\AppData\Local\Temp\ccxXXGiZ.s:815    .text.HAL_FLASH_OB_Unlock:00000000 $t
C:\Users\yzy\AppData\Local\Temp\ccxXXGiZ.s:822    .text.HAL_FLASH_OB_Unlock:00000000 HAL_FLASH_OB_Unlock
C:\Users\yzy\AppData\Local\Temp\ccxXXGiZ.s:857    .text.HAL_FLASH_OB_Unlock:00000020 $d
C:\Users\yzy\AppData\Local\Temp\ccxXXGiZ.s:863    .text.HAL_FLASH_OB_Lock:00000000 $t
C:\Users\yzy\AppData\Local\Temp\ccxXXGiZ.s:870    .text.HAL_FLASH_OB_Lock:00000000 HAL_FLASH_OB_Lock
C:\Users\yzy\AppData\Local\Temp\ccxXXGiZ.s:890    .text.HAL_FLASH_OB_Lock:00000010 $d
C:\Users\yzy\AppData\Local\Temp\ccxXXGiZ.s:895    .text.HAL_FLASH_GetError:00000000 $t
C:\Users\yzy\AppData\Local\Temp\ccxXXGiZ.s:902    .text.HAL_FLASH_GetError:00000000 HAL_FLASH_GetError
C:\Users\yzy\AppData\Local\Temp\ccxXXGiZ.s:918    .text.HAL_FLASH_GetError:00000008 $d
C:\Users\yzy\AppData\Local\Temp\ccxXXGiZ.s:923    .text.FLASH_WaitForLastOperation:00000000 $t
C:\Users\yzy\AppData\Local\Temp\ccxXXGiZ.s:930    .text.FLASH_WaitForLastOperation:00000000 FLASH_WaitForLastOperation
C:\Users\yzy\AppData\Local\Temp\ccxXXGiZ.s:1026   .text.FLASH_WaitForLastOperation:00000058 $d
C:\Users\yzy\AppData\Local\Temp\ccxXXGiZ.s:1032   .text.HAL_FLASH_Program:00000000 $t
C:\Users\yzy\AppData\Local\Temp\ccxXXGiZ.s:1039   .text.HAL_FLASH_Program:00000000 HAL_FLASH_Program
C:\Users\yzy\AppData\Local\Temp\ccxXXGiZ.s:1169   .text.HAL_FLASH_Program:00000074 $d
C:\Users\yzy\AppData\Local\Temp\ccxXXGiZ.s:1175   .text.HAL_FLASH_OB_Launch:00000000 $t
C:\Users\yzy\AppData\Local\Temp\ccxXXGiZ.s:1182   .text.HAL_FLASH_OB_Launch:00000000 HAL_FLASH_OB_Launch
C:\Users\yzy\AppData\Local\Temp\ccxXXGiZ.s:1209   .text.HAL_FLASH_OB_Launch:00000018 $d

UNDEFINED SYMBOLS
FLASH_Erase_Sector
FLASH_FlushCaches
HAL_GetTick
ARM GAS  C:\Users\yzy\AppData\Local\Temp\ccxXXGiZ.s 			page 56


