ARM GAS  C:\Users\yzy\AppData\Local\Temp\ccovssh5.s 			page 1


   1              		.cpu cortex-m4
   2              		.eabi_attribute 20, 1
   3              		.eabi_attribute 21, 1
   4              		.eabi_attribute 23, 3
   5              		.eabi_attribute 24, 1
   6              		.eabi_attribute 25, 1
   7              		.eabi_attribute 26, 1
   8              		.eabi_attribute 30, 1
   9              		.eabi_attribute 34, 1
  10              		.eabi_attribute 18, 4
  11              		.file	"stm32f4xx_hal_dcmi.c"
  12              		.text
  13              	.Ltext0:
  14              		.cfi_sections	.debug_frame
  15              		.section	.text.DCMI_DMAXferCplt,"ax",%progbits
  16              		.align	1
  17              		.arch armv7e-m
  18              		.syntax unified
  19              		.thumb
  20              		.thumb_func
  21              		.fpu softvfp
  23              	DCMI_DMAXferCplt:
  24              	.LVL0:
  25              	.LFB149:
  26              		.file 1 "Libraries/STM32F4xx_HAL_Driver/Src/stm32f4xx_hal_dcmi.c"
   1:Libraries/STM32F4xx_HAL_Driver/Src/stm32f4xx_hal_dcmi.c **** /**
   2:Libraries/STM32F4xx_HAL_Driver/Src/stm32f4xx_hal_dcmi.c ****   ******************************************************************************
   3:Libraries/STM32F4xx_HAL_Driver/Src/stm32f4xx_hal_dcmi.c ****   * @file    stm32f4xx_hal_dcmi.c
   4:Libraries/STM32F4xx_HAL_Driver/Src/stm32f4xx_hal_dcmi.c ****   * @author  MCD Application Team
   5:Libraries/STM32F4xx_HAL_Driver/Src/stm32f4xx_hal_dcmi.c ****   * @brief   DCMI HAL module driver
   6:Libraries/STM32F4xx_HAL_Driver/Src/stm32f4xx_hal_dcmi.c ****   *          This file provides firmware functions to manage the following
   7:Libraries/STM32F4xx_HAL_Driver/Src/stm32f4xx_hal_dcmi.c ****   *          functionalities of the Digital Camera Interface (DCMI) peripheral:
   8:Libraries/STM32F4xx_HAL_Driver/Src/stm32f4xx_hal_dcmi.c ****   *           + Initialization and de-initialization functions
   9:Libraries/STM32F4xx_HAL_Driver/Src/stm32f4xx_hal_dcmi.c ****   *           + IO operation functions
  10:Libraries/STM32F4xx_HAL_Driver/Src/stm32f4xx_hal_dcmi.c ****   *           + Peripheral Control functions
  11:Libraries/STM32F4xx_HAL_Driver/Src/stm32f4xx_hal_dcmi.c ****   *           + Peripheral State and Error functions
  12:Libraries/STM32F4xx_HAL_Driver/Src/stm32f4xx_hal_dcmi.c ****   *           
  13:Libraries/STM32F4xx_HAL_Driver/Src/stm32f4xx_hal_dcmi.c ****   @verbatim
  14:Libraries/STM32F4xx_HAL_Driver/Src/stm32f4xx_hal_dcmi.c ****   ==============================================================================
  15:Libraries/STM32F4xx_HAL_Driver/Src/stm32f4xx_hal_dcmi.c ****                         ##### How to use this driver #####
  16:Libraries/STM32F4xx_HAL_Driver/Src/stm32f4xx_hal_dcmi.c ****   ==============================================================================
  17:Libraries/STM32F4xx_HAL_Driver/Src/stm32f4xx_hal_dcmi.c ****   [..]
  18:Libraries/STM32F4xx_HAL_Driver/Src/stm32f4xx_hal_dcmi.c ****       The sequence below describes how to use this driver to capture image
  19:Libraries/STM32F4xx_HAL_Driver/Src/stm32f4xx_hal_dcmi.c ****       from a camera module connected to the DCMI Interface.
  20:Libraries/STM32F4xx_HAL_Driver/Src/stm32f4xx_hal_dcmi.c ****       This sequence does not take into account the configuration of the
  21:Libraries/STM32F4xx_HAL_Driver/Src/stm32f4xx_hal_dcmi.c ****       camera module, which should be made before to configure and enable
  22:Libraries/STM32F4xx_HAL_Driver/Src/stm32f4xx_hal_dcmi.c ****       the DCMI to capture images.
  23:Libraries/STM32F4xx_HAL_Driver/Src/stm32f4xx_hal_dcmi.c **** 
  24:Libraries/STM32F4xx_HAL_Driver/Src/stm32f4xx_hal_dcmi.c ****     (#) Program the required configuration through following parameters:
  25:Libraries/STM32F4xx_HAL_Driver/Src/stm32f4xx_hal_dcmi.c ****         horizontal and vertical polarity, pixel clock polarity, Capture Rate,
  26:Libraries/STM32F4xx_HAL_Driver/Src/stm32f4xx_hal_dcmi.c ****         Synchronization Mode, code of the frame delimiter and data width 
  27:Libraries/STM32F4xx_HAL_Driver/Src/stm32f4xx_hal_dcmi.c ****         using HAL_DCMI_Init() function.
  28:Libraries/STM32F4xx_HAL_Driver/Src/stm32f4xx_hal_dcmi.c **** 
  29:Libraries/STM32F4xx_HAL_Driver/Src/stm32f4xx_hal_dcmi.c ****     (#) Configure the DMA2_Stream1 channel1 to transfer Data from DCMI DR
  30:Libraries/STM32F4xx_HAL_Driver/Src/stm32f4xx_hal_dcmi.c ****         register to the destination memory buffer.
  31:Libraries/STM32F4xx_HAL_Driver/Src/stm32f4xx_hal_dcmi.c **** 
  32:Libraries/STM32F4xx_HAL_Driver/Src/stm32f4xx_hal_dcmi.c ****     (#) Program the required configuration through following parameters:
ARM GAS  C:\Users\yzy\AppData\Local\Temp\ccovssh5.s 			page 2


  33:Libraries/STM32F4xx_HAL_Driver/Src/stm32f4xx_hal_dcmi.c ****         DCMI mode, destination memory Buffer address and the data length
  34:Libraries/STM32F4xx_HAL_Driver/Src/stm32f4xx_hal_dcmi.c ****         and enable capture using HAL_DCMI_Start_DMA() function.
  35:Libraries/STM32F4xx_HAL_Driver/Src/stm32f4xx_hal_dcmi.c **** 
  36:Libraries/STM32F4xx_HAL_Driver/Src/stm32f4xx_hal_dcmi.c ****     (#) Optionally, configure and Enable the CROP feature to select a rectangular
  37:Libraries/STM32F4xx_HAL_Driver/Src/stm32f4xx_hal_dcmi.c ****         window from the received image using HAL_DCMI_ConfigCrop()
  38:Libraries/STM32F4xx_HAL_Driver/Src/stm32f4xx_hal_dcmi.c ****         and HAL_DCMI_EnableCROP() functions
  39:Libraries/STM32F4xx_HAL_Driver/Src/stm32f4xx_hal_dcmi.c **** 
  40:Libraries/STM32F4xx_HAL_Driver/Src/stm32f4xx_hal_dcmi.c ****     (#) The capture can be stopped using HAL_DCMI_Stop() function.
  41:Libraries/STM32F4xx_HAL_Driver/Src/stm32f4xx_hal_dcmi.c **** 
  42:Libraries/STM32F4xx_HAL_Driver/Src/stm32f4xx_hal_dcmi.c ****     (#) To control DCMI state you can use the function HAL_DCMI_GetState().
  43:Libraries/STM32F4xx_HAL_Driver/Src/stm32f4xx_hal_dcmi.c **** 
  44:Libraries/STM32F4xx_HAL_Driver/Src/stm32f4xx_hal_dcmi.c ****      *** DCMI HAL driver macros list ***
  45:Libraries/STM32F4xx_HAL_Driver/Src/stm32f4xx_hal_dcmi.c ****      =============================================
  46:Libraries/STM32F4xx_HAL_Driver/Src/stm32f4xx_hal_dcmi.c ****      [..]
  47:Libraries/STM32F4xx_HAL_Driver/Src/stm32f4xx_hal_dcmi.c ****        Below the list of most used macros in DCMI HAL driver.
  48:Libraries/STM32F4xx_HAL_Driver/Src/stm32f4xx_hal_dcmi.c ****        
  49:Libraries/STM32F4xx_HAL_Driver/Src/stm32f4xx_hal_dcmi.c ****       (+) __HAL_DCMI_ENABLE: Enable the DCMI peripheral.
  50:Libraries/STM32F4xx_HAL_Driver/Src/stm32f4xx_hal_dcmi.c ****       (+) __HAL_DCMI_DISABLE: Disable the DCMI peripheral.
  51:Libraries/STM32F4xx_HAL_Driver/Src/stm32f4xx_hal_dcmi.c ****       (+) __HAL_DCMI_GET_FLAG: Get the DCMI pending flags.
  52:Libraries/STM32F4xx_HAL_Driver/Src/stm32f4xx_hal_dcmi.c ****       (+) __HAL_DCMI_CLEAR_FLAG: Clear the DCMI pending flags.
  53:Libraries/STM32F4xx_HAL_Driver/Src/stm32f4xx_hal_dcmi.c ****       (+) __HAL_DCMI_ENABLE_IT: Enable the specified DCMI interrupts.
  54:Libraries/STM32F4xx_HAL_Driver/Src/stm32f4xx_hal_dcmi.c ****       (+) __HAL_DCMI_DISABLE_IT: Disable the specified DCMI interrupts.
  55:Libraries/STM32F4xx_HAL_Driver/Src/stm32f4xx_hal_dcmi.c ****       (+) __HAL_DCMI_GET_IT_SOURCE: Check whether the specified DCMI interrupt has occurred or not.
  56:Libraries/STM32F4xx_HAL_Driver/Src/stm32f4xx_hal_dcmi.c **** 
  57:Libraries/STM32F4xx_HAL_Driver/Src/stm32f4xx_hal_dcmi.c ****      [..]
  58:Libraries/STM32F4xx_HAL_Driver/Src/stm32f4xx_hal_dcmi.c ****        (@) You can refer to the DCMI HAL driver header file for more useful macros
  59:Libraries/STM32F4xx_HAL_Driver/Src/stm32f4xx_hal_dcmi.c ****       
  60:Libraries/STM32F4xx_HAL_Driver/Src/stm32f4xx_hal_dcmi.c ****     *** Callback registration ***
  61:Libraries/STM32F4xx_HAL_Driver/Src/stm32f4xx_hal_dcmi.c ****     =============================
  62:Libraries/STM32F4xx_HAL_Driver/Src/stm32f4xx_hal_dcmi.c **** 
  63:Libraries/STM32F4xx_HAL_Driver/Src/stm32f4xx_hal_dcmi.c ****     The compilation define USE_HAL_DCMI_REGISTER_CALLBACKS when set to 1
  64:Libraries/STM32F4xx_HAL_Driver/Src/stm32f4xx_hal_dcmi.c ****     allows the user to configure dynamically the driver callbacks.
  65:Libraries/STM32F4xx_HAL_Driver/Src/stm32f4xx_hal_dcmi.c ****     Use functions @ref HAL_DCMI_RegisterCallback() to register a user callback.
  66:Libraries/STM32F4xx_HAL_Driver/Src/stm32f4xx_hal_dcmi.c **** 
  67:Libraries/STM32F4xx_HAL_Driver/Src/stm32f4xx_hal_dcmi.c ****     Function @ref HAL_DCMI_RegisterCallback() allows to register following callbacks:
  68:Libraries/STM32F4xx_HAL_Driver/Src/stm32f4xx_hal_dcmi.c ****       (+) FrameEventCallback : DCMI Frame Event.
  69:Libraries/STM32F4xx_HAL_Driver/Src/stm32f4xx_hal_dcmi.c ****       (+) VsyncEventCallback : DCMI Vsync Event.
  70:Libraries/STM32F4xx_HAL_Driver/Src/stm32f4xx_hal_dcmi.c ****       (+) LineEventCallback  : DCMI Line Event.
  71:Libraries/STM32F4xx_HAL_Driver/Src/stm32f4xx_hal_dcmi.c ****       (+) ErrorCallback      : DCMI error.
  72:Libraries/STM32F4xx_HAL_Driver/Src/stm32f4xx_hal_dcmi.c ****       (+) MspInitCallback    : DCMI MspInit.
  73:Libraries/STM32F4xx_HAL_Driver/Src/stm32f4xx_hal_dcmi.c ****       (+) MspDeInitCallback  : DCMI MspDeInit.
  74:Libraries/STM32F4xx_HAL_Driver/Src/stm32f4xx_hal_dcmi.c ****     This function takes as parameters the HAL peripheral handle, the callback ID
  75:Libraries/STM32F4xx_HAL_Driver/Src/stm32f4xx_hal_dcmi.c ****     and a pointer to the user callback function.
  76:Libraries/STM32F4xx_HAL_Driver/Src/stm32f4xx_hal_dcmi.c **** 
  77:Libraries/STM32F4xx_HAL_Driver/Src/stm32f4xx_hal_dcmi.c ****     Use function @ref HAL_DCMI_UnRegisterCallback() to reset a callback to the default
  78:Libraries/STM32F4xx_HAL_Driver/Src/stm32f4xx_hal_dcmi.c ****     weak (surcharged) function.
  79:Libraries/STM32F4xx_HAL_Driver/Src/stm32f4xx_hal_dcmi.c ****     @ref HAL_DCMI_UnRegisterCallback() takes as parameters the HAL peripheral handle,
  80:Libraries/STM32F4xx_HAL_Driver/Src/stm32f4xx_hal_dcmi.c ****     and the callback ID.
  81:Libraries/STM32F4xx_HAL_Driver/Src/stm32f4xx_hal_dcmi.c ****     This function allows to reset following callbacks:
  82:Libraries/STM32F4xx_HAL_Driver/Src/stm32f4xx_hal_dcmi.c ****       (+) FrameEventCallback : DCMI Frame Event.
  83:Libraries/STM32F4xx_HAL_Driver/Src/stm32f4xx_hal_dcmi.c ****       (+) VsyncEventCallback : DCMI Vsync Event.
  84:Libraries/STM32F4xx_HAL_Driver/Src/stm32f4xx_hal_dcmi.c ****       (+) LineEventCallback  : DCMI Line Event.
  85:Libraries/STM32F4xx_HAL_Driver/Src/stm32f4xx_hal_dcmi.c ****       (+) ErrorCallback      : DCMI error.
  86:Libraries/STM32F4xx_HAL_Driver/Src/stm32f4xx_hal_dcmi.c ****       (+) MspInitCallback    : DCMI MspInit.
  87:Libraries/STM32F4xx_HAL_Driver/Src/stm32f4xx_hal_dcmi.c ****       (+) MspDeInitCallback  : DCMI MspDeInit.
  88:Libraries/STM32F4xx_HAL_Driver/Src/stm32f4xx_hal_dcmi.c **** 
  89:Libraries/STM32F4xx_HAL_Driver/Src/stm32f4xx_hal_dcmi.c ****     By default, after the @ref HAL_DCMI_Init and if the state is HAL_DCMI_STATE_RESET
ARM GAS  C:\Users\yzy\AppData\Local\Temp\ccovssh5.s 			page 3


  90:Libraries/STM32F4xx_HAL_Driver/Src/stm32f4xx_hal_dcmi.c ****     all callbacks are reset to the corresponding legacy weak (surcharged) functions:
  91:Libraries/STM32F4xx_HAL_Driver/Src/stm32f4xx_hal_dcmi.c ****     examples @ref FrameEventCallback(), @ref HAL_DCMI_ErrorCallback().
  92:Libraries/STM32F4xx_HAL_Driver/Src/stm32f4xx_hal_dcmi.c ****     Exception done for MspInit and MspDeInit callbacks that are respectively
  93:Libraries/STM32F4xx_HAL_Driver/Src/stm32f4xx_hal_dcmi.c ****     reset to the legacy weak (surcharged) functions in the @ref HAL_DCMI_Init
  94:Libraries/STM32F4xx_HAL_Driver/Src/stm32f4xx_hal_dcmi.c ****     and @ref  HAL_DCMI_DeInit only when these callbacks are null (not registered beforehand).
  95:Libraries/STM32F4xx_HAL_Driver/Src/stm32f4xx_hal_dcmi.c ****     If not, MspInit or MspDeInit are not null, the @ref HAL_DCMI_Init and @ref HAL_DCMI_DeInit
  96:Libraries/STM32F4xx_HAL_Driver/Src/stm32f4xx_hal_dcmi.c ****     keep and use the user MspInit/MspDeInit callbacks (registered beforehand).
  97:Libraries/STM32F4xx_HAL_Driver/Src/stm32f4xx_hal_dcmi.c **** 
  98:Libraries/STM32F4xx_HAL_Driver/Src/stm32f4xx_hal_dcmi.c ****     Callbacks can be registered/unregistered in READY state only.
  99:Libraries/STM32F4xx_HAL_Driver/Src/stm32f4xx_hal_dcmi.c ****     Exception done for MspInit/MspDeInit callbacks that can be registered/unregistered
 100:Libraries/STM32F4xx_HAL_Driver/Src/stm32f4xx_hal_dcmi.c ****     in READY or RESET state, thus registered (user) MspInit/DeInit callbacks can be used
 101:Libraries/STM32F4xx_HAL_Driver/Src/stm32f4xx_hal_dcmi.c ****     during the Init/DeInit.
 102:Libraries/STM32F4xx_HAL_Driver/Src/stm32f4xx_hal_dcmi.c ****     In that case first register the MspInit/MspDeInit user callbacks
 103:Libraries/STM32F4xx_HAL_Driver/Src/stm32f4xx_hal_dcmi.c ****     using @ref HAL_DCMI_RegisterCallback before calling @ref HAL_DCMI_DeInit
 104:Libraries/STM32F4xx_HAL_Driver/Src/stm32f4xx_hal_dcmi.c ****     or @ref HAL_DCMI_Init function.
 105:Libraries/STM32F4xx_HAL_Driver/Src/stm32f4xx_hal_dcmi.c **** 
 106:Libraries/STM32F4xx_HAL_Driver/Src/stm32f4xx_hal_dcmi.c ****     When the compilation define USE_HAL_DCMI_REGISTER_CALLBACKS is set to 0 or
 107:Libraries/STM32F4xx_HAL_Driver/Src/stm32f4xx_hal_dcmi.c ****     not defined, the callback registering feature is not available
 108:Libraries/STM32F4xx_HAL_Driver/Src/stm32f4xx_hal_dcmi.c ****     and weak (surcharged) callbacks are used.
 109:Libraries/STM32F4xx_HAL_Driver/Src/stm32f4xx_hal_dcmi.c **** 	
 110:Libraries/STM32F4xx_HAL_Driver/Src/stm32f4xx_hal_dcmi.c ****   @endverbatim
 111:Libraries/STM32F4xx_HAL_Driver/Src/stm32f4xx_hal_dcmi.c ****   ******************************************************************************
 112:Libraries/STM32F4xx_HAL_Driver/Src/stm32f4xx_hal_dcmi.c ****   * @attention
 113:Libraries/STM32F4xx_HAL_Driver/Src/stm32f4xx_hal_dcmi.c ****   *
 114:Libraries/STM32F4xx_HAL_Driver/Src/stm32f4xx_hal_dcmi.c ****   * <h2><center>&copy; Copyright (c) 2017 STMicroelectronics.
 115:Libraries/STM32F4xx_HAL_Driver/Src/stm32f4xx_hal_dcmi.c ****   * All rights reserved.</center></h2>
 116:Libraries/STM32F4xx_HAL_Driver/Src/stm32f4xx_hal_dcmi.c ****   *
 117:Libraries/STM32F4xx_HAL_Driver/Src/stm32f4xx_hal_dcmi.c ****   * This software component is licensed by ST under BSD 3-Clause license,
 118:Libraries/STM32F4xx_HAL_Driver/Src/stm32f4xx_hal_dcmi.c ****   * the "License"; You may not use this file except in compliance with the
 119:Libraries/STM32F4xx_HAL_Driver/Src/stm32f4xx_hal_dcmi.c ****   * License. You may obtain a copy of the License at:
 120:Libraries/STM32F4xx_HAL_Driver/Src/stm32f4xx_hal_dcmi.c ****   *                        opensource.org/licenses/BSD-3-Clause
 121:Libraries/STM32F4xx_HAL_Driver/Src/stm32f4xx_hal_dcmi.c ****   *
 122:Libraries/STM32F4xx_HAL_Driver/Src/stm32f4xx_hal_dcmi.c ****   ******************************************************************************
 123:Libraries/STM32F4xx_HAL_Driver/Src/stm32f4xx_hal_dcmi.c ****   */
 124:Libraries/STM32F4xx_HAL_Driver/Src/stm32f4xx_hal_dcmi.c **** 
 125:Libraries/STM32F4xx_HAL_Driver/Src/stm32f4xx_hal_dcmi.c **** /* Includes ------------------------------------------------------------------*/
 126:Libraries/STM32F4xx_HAL_Driver/Src/stm32f4xx_hal_dcmi.c **** #include "stm32f4xx_hal.h"
 127:Libraries/STM32F4xx_HAL_Driver/Src/stm32f4xx_hal_dcmi.c **** 
 128:Libraries/STM32F4xx_HAL_Driver/Src/stm32f4xx_hal_dcmi.c **** /** @addtogroup STM32F4xx_HAL_Driver
 129:Libraries/STM32F4xx_HAL_Driver/Src/stm32f4xx_hal_dcmi.c ****   * @{
 130:Libraries/STM32F4xx_HAL_Driver/Src/stm32f4xx_hal_dcmi.c ****   */
 131:Libraries/STM32F4xx_HAL_Driver/Src/stm32f4xx_hal_dcmi.c **** /** @defgroup DCMI DCMI
 132:Libraries/STM32F4xx_HAL_Driver/Src/stm32f4xx_hal_dcmi.c ****   * @brief DCMI HAL module driver
 133:Libraries/STM32F4xx_HAL_Driver/Src/stm32f4xx_hal_dcmi.c ****   * @{
 134:Libraries/STM32F4xx_HAL_Driver/Src/stm32f4xx_hal_dcmi.c ****   */
 135:Libraries/STM32F4xx_HAL_Driver/Src/stm32f4xx_hal_dcmi.c **** 
 136:Libraries/STM32F4xx_HAL_Driver/Src/stm32f4xx_hal_dcmi.c **** #ifdef HAL_DCMI_MODULE_ENABLED
 137:Libraries/STM32F4xx_HAL_Driver/Src/stm32f4xx_hal_dcmi.c **** 
 138:Libraries/STM32F4xx_HAL_Driver/Src/stm32f4xx_hal_dcmi.c **** #if defined(STM32F407xx) || defined(STM32F417xx) || defined(STM32F427xx) || defined(STM32F437xx) ||
 139:Libraries/STM32F4xx_HAL_Driver/Src/stm32f4xx_hal_dcmi.c ****     defined(STM32F429xx) || defined(STM32F439xx) || defined(STM32F446xx) || defined(STM32F469xx) ||
 140:Libraries/STM32F4xx_HAL_Driver/Src/stm32f4xx_hal_dcmi.c ****     defined(STM32F479xx)
 141:Libraries/STM32F4xx_HAL_Driver/Src/stm32f4xx_hal_dcmi.c **** /* Private typedef -----------------------------------------------------------*/
 142:Libraries/STM32F4xx_HAL_Driver/Src/stm32f4xx_hal_dcmi.c **** /* Private define ------------------------------------------------------------*/
 143:Libraries/STM32F4xx_HAL_Driver/Src/stm32f4xx_hal_dcmi.c **** #define HAL_TIMEOUT_DCMI_STOP    14U  /* Set timeout to 1s  */
 144:Libraries/STM32F4xx_HAL_Driver/Src/stm32f4xx_hal_dcmi.c **** /* Private macro -------------------------------------------------------------*/
 145:Libraries/STM32F4xx_HAL_Driver/Src/stm32f4xx_hal_dcmi.c **** /* Private variables ---------------------------------------------------------*/
 146:Libraries/STM32F4xx_HAL_Driver/Src/stm32f4xx_hal_dcmi.c **** /* Private function prototypes -----------------------------------------------*/
ARM GAS  C:\Users\yzy\AppData\Local\Temp\ccovssh5.s 			page 4


 147:Libraries/STM32F4xx_HAL_Driver/Src/stm32f4xx_hal_dcmi.c **** static void       DCMI_DMAXferCplt(DMA_HandleTypeDef *hdma);
 148:Libraries/STM32F4xx_HAL_Driver/Src/stm32f4xx_hal_dcmi.c **** static void       DCMI_DMAError(DMA_HandleTypeDef *hdma);
 149:Libraries/STM32F4xx_HAL_Driver/Src/stm32f4xx_hal_dcmi.c **** 
 150:Libraries/STM32F4xx_HAL_Driver/Src/stm32f4xx_hal_dcmi.c **** /* Exported functions --------------------------------------------------------*/
 151:Libraries/STM32F4xx_HAL_Driver/Src/stm32f4xx_hal_dcmi.c **** 
 152:Libraries/STM32F4xx_HAL_Driver/Src/stm32f4xx_hal_dcmi.c **** /** @defgroup DCMI_Exported_Functions DCMI Exported Functions
 153:Libraries/STM32F4xx_HAL_Driver/Src/stm32f4xx_hal_dcmi.c ****   * @{
 154:Libraries/STM32F4xx_HAL_Driver/Src/stm32f4xx_hal_dcmi.c ****   */
 155:Libraries/STM32F4xx_HAL_Driver/Src/stm32f4xx_hal_dcmi.c **** 
 156:Libraries/STM32F4xx_HAL_Driver/Src/stm32f4xx_hal_dcmi.c **** /** @defgroup DCMI_Exported_Functions_Group1 Initialization and Configuration functions
 157:Libraries/STM32F4xx_HAL_Driver/Src/stm32f4xx_hal_dcmi.c ****   *  @brief   Initialization and Configuration functions
 158:Libraries/STM32F4xx_HAL_Driver/Src/stm32f4xx_hal_dcmi.c ****   *
 159:Libraries/STM32F4xx_HAL_Driver/Src/stm32f4xx_hal_dcmi.c **** @verbatim
 160:Libraries/STM32F4xx_HAL_Driver/Src/stm32f4xx_hal_dcmi.c ****  ===============================================================================
 161:Libraries/STM32F4xx_HAL_Driver/Src/stm32f4xx_hal_dcmi.c ****                 ##### Initialization and Configuration functions #####
 162:Libraries/STM32F4xx_HAL_Driver/Src/stm32f4xx_hal_dcmi.c ****  ===============================================================================
 163:Libraries/STM32F4xx_HAL_Driver/Src/stm32f4xx_hal_dcmi.c ****     [..]  This section provides functions allowing to:
 164:Libraries/STM32F4xx_HAL_Driver/Src/stm32f4xx_hal_dcmi.c ****       (+) Initialize and configure the DCMI
 165:Libraries/STM32F4xx_HAL_Driver/Src/stm32f4xx_hal_dcmi.c ****       (+) De-initialize the DCMI 
 166:Libraries/STM32F4xx_HAL_Driver/Src/stm32f4xx_hal_dcmi.c **** 
 167:Libraries/STM32F4xx_HAL_Driver/Src/stm32f4xx_hal_dcmi.c **** @endverbatim
 168:Libraries/STM32F4xx_HAL_Driver/Src/stm32f4xx_hal_dcmi.c ****   * @{
 169:Libraries/STM32F4xx_HAL_Driver/Src/stm32f4xx_hal_dcmi.c ****   */
 170:Libraries/STM32F4xx_HAL_Driver/Src/stm32f4xx_hal_dcmi.c **** 
 171:Libraries/STM32F4xx_HAL_Driver/Src/stm32f4xx_hal_dcmi.c **** /**
 172:Libraries/STM32F4xx_HAL_Driver/Src/stm32f4xx_hal_dcmi.c ****   * @brief  Initializes the DCMI according to the specified
 173:Libraries/STM32F4xx_HAL_Driver/Src/stm32f4xx_hal_dcmi.c ****   *         parameters in the DCMI_InitTypeDef and create the associated handle.
 174:Libraries/STM32F4xx_HAL_Driver/Src/stm32f4xx_hal_dcmi.c ****   * @param  hdcmi pointer to a DCMI_HandleTypeDef structure that contains
 175:Libraries/STM32F4xx_HAL_Driver/Src/stm32f4xx_hal_dcmi.c ****   *                the configuration information for DCMI.
 176:Libraries/STM32F4xx_HAL_Driver/Src/stm32f4xx_hal_dcmi.c ****   * @retval HAL status
 177:Libraries/STM32F4xx_HAL_Driver/Src/stm32f4xx_hal_dcmi.c ****   */
 178:Libraries/STM32F4xx_HAL_Driver/Src/stm32f4xx_hal_dcmi.c **** __weak HAL_StatusTypeDef HAL_DCMI_Init(DCMI_HandleTypeDef *hdcmi)
 179:Libraries/STM32F4xx_HAL_Driver/Src/stm32f4xx_hal_dcmi.c **** {
 180:Libraries/STM32F4xx_HAL_Driver/Src/stm32f4xx_hal_dcmi.c ****   /* Check the DCMI peripheral state */
 181:Libraries/STM32F4xx_HAL_Driver/Src/stm32f4xx_hal_dcmi.c ****   if(hdcmi == NULL)
 182:Libraries/STM32F4xx_HAL_Driver/Src/stm32f4xx_hal_dcmi.c ****   {
 183:Libraries/STM32F4xx_HAL_Driver/Src/stm32f4xx_hal_dcmi.c ****      return HAL_ERROR;
 184:Libraries/STM32F4xx_HAL_Driver/Src/stm32f4xx_hal_dcmi.c ****   }
 185:Libraries/STM32F4xx_HAL_Driver/Src/stm32f4xx_hal_dcmi.c **** 
 186:Libraries/STM32F4xx_HAL_Driver/Src/stm32f4xx_hal_dcmi.c ****   /* Check function parameters */
 187:Libraries/STM32F4xx_HAL_Driver/Src/stm32f4xx_hal_dcmi.c ****   assert_param(IS_DCMI_ALL_INSTANCE(hdcmi->Instance));
 188:Libraries/STM32F4xx_HAL_Driver/Src/stm32f4xx_hal_dcmi.c ****   assert_param(IS_DCMI_PCKPOLARITY(hdcmi->Init.PCKPolarity));
 189:Libraries/STM32F4xx_HAL_Driver/Src/stm32f4xx_hal_dcmi.c ****   assert_param(IS_DCMI_VSPOLARITY(hdcmi->Init.VSPolarity));
 190:Libraries/STM32F4xx_HAL_Driver/Src/stm32f4xx_hal_dcmi.c ****   assert_param(IS_DCMI_HSPOLARITY(hdcmi->Init.HSPolarity));
 191:Libraries/STM32F4xx_HAL_Driver/Src/stm32f4xx_hal_dcmi.c ****   assert_param(IS_DCMI_SYNCHRO(hdcmi->Init.SynchroMode));
 192:Libraries/STM32F4xx_HAL_Driver/Src/stm32f4xx_hal_dcmi.c ****   assert_param(IS_DCMI_CAPTURE_RATE(hdcmi->Init.CaptureRate));
 193:Libraries/STM32F4xx_HAL_Driver/Src/stm32f4xx_hal_dcmi.c ****   assert_param(IS_DCMI_EXTENDED_DATA(hdcmi->Init.ExtendedDataMode));
 194:Libraries/STM32F4xx_HAL_Driver/Src/stm32f4xx_hal_dcmi.c ****   assert_param(IS_DCMI_MODE_JPEG(hdcmi->Init.JPEGMode));
 195:Libraries/STM32F4xx_HAL_Driver/Src/stm32f4xx_hal_dcmi.c **** 
 196:Libraries/STM32F4xx_HAL_Driver/Src/stm32f4xx_hal_dcmi.c ****   if(hdcmi->State == HAL_DCMI_STATE_RESET)
 197:Libraries/STM32F4xx_HAL_Driver/Src/stm32f4xx_hal_dcmi.c ****   {
 198:Libraries/STM32F4xx_HAL_Driver/Src/stm32f4xx_hal_dcmi.c ****     /* Allocate lock resource and initialize it */
 199:Libraries/STM32F4xx_HAL_Driver/Src/stm32f4xx_hal_dcmi.c ****     hdcmi->Lock = HAL_UNLOCKED;
 200:Libraries/STM32F4xx_HAL_Driver/Src/stm32f4xx_hal_dcmi.c ****     /* Init the low level hardware */
 201:Libraries/STM32F4xx_HAL_Driver/Src/stm32f4xx_hal_dcmi.c ****   /* Init the DCMI Callback settings */
 202:Libraries/STM32F4xx_HAL_Driver/Src/stm32f4xx_hal_dcmi.c **** #if (USE_HAL_DCMI_REGISTER_CALLBACKS == 1)
 203:Libraries/STM32F4xx_HAL_Driver/Src/stm32f4xx_hal_dcmi.c ****     hdcmi->FrameEventCallback = HAL_DCMI_FrameEventCallback; /* Legacy weak FrameEventCallback  */ 
ARM GAS  C:\Users\yzy\AppData\Local\Temp\ccovssh5.s 			page 5


 204:Libraries/STM32F4xx_HAL_Driver/Src/stm32f4xx_hal_dcmi.c ****     hdcmi->VsyncEventCallback = HAL_DCMI_VsyncEventCallback; /* Legacy weak VsyncEventCallback  */ 
 205:Libraries/STM32F4xx_HAL_Driver/Src/stm32f4xx_hal_dcmi.c ****     hdcmi->LineEventCallback  = HAL_DCMI_LineEventCallback;  /* Legacy weak LineEventCallback   */ 
 206:Libraries/STM32F4xx_HAL_Driver/Src/stm32f4xx_hal_dcmi.c ****     hdcmi->ErrorCallback      = HAL_DCMI_ErrorCallback;      /* Legacy weak ErrorCallback       */ 
 207:Libraries/STM32F4xx_HAL_Driver/Src/stm32f4xx_hal_dcmi.c ****     
 208:Libraries/STM32F4xx_HAL_Driver/Src/stm32f4xx_hal_dcmi.c ****     if(hdcmi->MspInitCallback == NULL)  
 209:Libraries/STM32F4xx_HAL_Driver/Src/stm32f4xx_hal_dcmi.c ****     {
 210:Libraries/STM32F4xx_HAL_Driver/Src/stm32f4xx_hal_dcmi.c ****       /* Legacy weak MspInit Callback        */
 211:Libraries/STM32F4xx_HAL_Driver/Src/stm32f4xx_hal_dcmi.c ****       hdcmi->MspInitCallback = HAL_DCMI_MspInit;
 212:Libraries/STM32F4xx_HAL_Driver/Src/stm32f4xx_hal_dcmi.c ****     }
 213:Libraries/STM32F4xx_HAL_Driver/Src/stm32f4xx_hal_dcmi.c ****     /* Initialize the low level hardware (MSP) */
 214:Libraries/STM32F4xx_HAL_Driver/Src/stm32f4xx_hal_dcmi.c ****     hdcmi->MspInitCallback(hdcmi);
 215:Libraries/STM32F4xx_HAL_Driver/Src/stm32f4xx_hal_dcmi.c **** #else  
 216:Libraries/STM32F4xx_HAL_Driver/Src/stm32f4xx_hal_dcmi.c ****     /* Init the low level hardware : GPIO, CLOCK, NVIC and DMA */
 217:Libraries/STM32F4xx_HAL_Driver/Src/stm32f4xx_hal_dcmi.c ****     HAL_DCMI_MspInit(hdcmi);
 218:Libraries/STM32F4xx_HAL_Driver/Src/stm32f4xx_hal_dcmi.c **** #endif /* (USE_HAL_DCMI_REGISTER_CALLBACKS) */
 219:Libraries/STM32F4xx_HAL_Driver/Src/stm32f4xx_hal_dcmi.c ****     HAL_DCMI_MspInit(hdcmi);
 220:Libraries/STM32F4xx_HAL_Driver/Src/stm32f4xx_hal_dcmi.c ****   }
 221:Libraries/STM32F4xx_HAL_Driver/Src/stm32f4xx_hal_dcmi.c **** 
 222:Libraries/STM32F4xx_HAL_Driver/Src/stm32f4xx_hal_dcmi.c ****   /* Change the DCMI state */
 223:Libraries/STM32F4xx_HAL_Driver/Src/stm32f4xx_hal_dcmi.c ****   hdcmi->State = HAL_DCMI_STATE_BUSY;
 224:Libraries/STM32F4xx_HAL_Driver/Src/stm32f4xx_hal_dcmi.c **** 
 225:Libraries/STM32F4xx_HAL_Driver/Src/stm32f4xx_hal_dcmi.c ****   /* Set DCMI parameters */
 226:Libraries/STM32F4xx_HAL_Driver/Src/stm32f4xx_hal_dcmi.c ****   /* Configures the HS, VS, DE and PC polarity */
 227:Libraries/STM32F4xx_HAL_Driver/Src/stm32f4xx_hal_dcmi.c ****   hdcmi->Instance->CR &= ~(DCMI_CR_PCKPOL | DCMI_CR_HSPOL  | DCMI_CR_VSPOL  | DCMI_CR_EDM_0 |
 228:Libraries/STM32F4xx_HAL_Driver/Src/stm32f4xx_hal_dcmi.c ****                            DCMI_CR_EDM_1  | DCMI_CR_FCRC_0 | DCMI_CR_FCRC_1 | DCMI_CR_JPEG  |
 229:Libraries/STM32F4xx_HAL_Driver/Src/stm32f4xx_hal_dcmi.c ****                            DCMI_CR_ESS);
 230:Libraries/STM32F4xx_HAL_Driver/Src/stm32f4xx_hal_dcmi.c ****   hdcmi->Instance->CR |=  (uint32_t)(hdcmi->Init.SynchroMode | hdcmi->Init.CaptureRate | \
 231:Libraries/STM32F4xx_HAL_Driver/Src/stm32f4xx_hal_dcmi.c ****                                      hdcmi->Init.VSPolarity  | hdcmi->Init.HSPolarity  | \
 232:Libraries/STM32F4xx_HAL_Driver/Src/stm32f4xx_hal_dcmi.c ****                                      hdcmi->Init.PCKPolarity | hdcmi->Init.ExtendedDataMode | \
 233:Libraries/STM32F4xx_HAL_Driver/Src/stm32f4xx_hal_dcmi.c ****                                      hdcmi->Init.JPEGMode);
 234:Libraries/STM32F4xx_HAL_Driver/Src/stm32f4xx_hal_dcmi.c **** 
 235:Libraries/STM32F4xx_HAL_Driver/Src/stm32f4xx_hal_dcmi.c ****   if(hdcmi->Init.SynchroMode == DCMI_SYNCHRO_EMBEDDED)
 236:Libraries/STM32F4xx_HAL_Driver/Src/stm32f4xx_hal_dcmi.c ****   {
 237:Libraries/STM32F4xx_HAL_Driver/Src/stm32f4xx_hal_dcmi.c ****     hdcmi->Instance->ESCR = (((uint32_t)hdcmi->Init.SyncroCode.FrameStartCode)    |
 238:Libraries/STM32F4xx_HAL_Driver/Src/stm32f4xx_hal_dcmi.c ****                              ((uint32_t)hdcmi->Init.SyncroCode.LineStartCode << DCMI_POSITION_ESCR_
 239:Libraries/STM32F4xx_HAL_Driver/Src/stm32f4xx_hal_dcmi.c ****                              ((uint32_t)hdcmi->Init.SyncroCode.LineEndCode << DCMI_POSITION_ESCR_LE
 240:Libraries/STM32F4xx_HAL_Driver/Src/stm32f4xx_hal_dcmi.c ****                              ((uint32_t)hdcmi->Init.SyncroCode.FrameEndCode << DCMI_POSITION_ESCR_F
 241:Libraries/STM32F4xx_HAL_Driver/Src/stm32f4xx_hal_dcmi.c ****   }
 242:Libraries/STM32F4xx_HAL_Driver/Src/stm32f4xx_hal_dcmi.c **** 
 243:Libraries/STM32F4xx_HAL_Driver/Src/stm32f4xx_hal_dcmi.c ****   /* Enable the Line, Vsync, Error and Overrun interrupts */
 244:Libraries/STM32F4xx_HAL_Driver/Src/stm32f4xx_hal_dcmi.c ****   __HAL_DCMI_ENABLE_IT(hdcmi, DCMI_IT_LINE | DCMI_IT_VSYNC | DCMI_IT_ERR | DCMI_IT_OVR);
 245:Libraries/STM32F4xx_HAL_Driver/Src/stm32f4xx_hal_dcmi.c **** 
 246:Libraries/STM32F4xx_HAL_Driver/Src/stm32f4xx_hal_dcmi.c ****   /* Update error code */
 247:Libraries/STM32F4xx_HAL_Driver/Src/stm32f4xx_hal_dcmi.c ****   hdcmi->ErrorCode = HAL_DCMI_ERROR_NONE;
 248:Libraries/STM32F4xx_HAL_Driver/Src/stm32f4xx_hal_dcmi.c **** 
 249:Libraries/STM32F4xx_HAL_Driver/Src/stm32f4xx_hal_dcmi.c ****   /* Initialize the DCMI state*/
 250:Libraries/STM32F4xx_HAL_Driver/Src/stm32f4xx_hal_dcmi.c ****   hdcmi->State  = HAL_DCMI_STATE_READY;
 251:Libraries/STM32F4xx_HAL_Driver/Src/stm32f4xx_hal_dcmi.c **** 
 252:Libraries/STM32F4xx_HAL_Driver/Src/stm32f4xx_hal_dcmi.c ****   return HAL_OK;
 253:Libraries/STM32F4xx_HAL_Driver/Src/stm32f4xx_hal_dcmi.c **** }
 254:Libraries/STM32F4xx_HAL_Driver/Src/stm32f4xx_hal_dcmi.c **** 
 255:Libraries/STM32F4xx_HAL_Driver/Src/stm32f4xx_hal_dcmi.c **** /**
 256:Libraries/STM32F4xx_HAL_Driver/Src/stm32f4xx_hal_dcmi.c ****   * @brief  Deinitializes the DCMI peripheral registers to their default reset
 257:Libraries/STM32F4xx_HAL_Driver/Src/stm32f4xx_hal_dcmi.c ****   *         values.
 258:Libraries/STM32F4xx_HAL_Driver/Src/stm32f4xx_hal_dcmi.c ****   * @param  hdcmi pointer to a DCMI_HandleTypeDef structure that contains
 259:Libraries/STM32F4xx_HAL_Driver/Src/stm32f4xx_hal_dcmi.c ****   *                the configuration information for DCMI.
 260:Libraries/STM32F4xx_HAL_Driver/Src/stm32f4xx_hal_dcmi.c ****   * @retval HAL status
ARM GAS  C:\Users\yzy\AppData\Local\Temp\ccovssh5.s 			page 6


 261:Libraries/STM32F4xx_HAL_Driver/Src/stm32f4xx_hal_dcmi.c ****   */
 262:Libraries/STM32F4xx_HAL_Driver/Src/stm32f4xx_hal_dcmi.c **** 
 263:Libraries/STM32F4xx_HAL_Driver/Src/stm32f4xx_hal_dcmi.c **** HAL_StatusTypeDef HAL_DCMI_DeInit(DCMI_HandleTypeDef *hdcmi)
 264:Libraries/STM32F4xx_HAL_Driver/Src/stm32f4xx_hal_dcmi.c **** {
 265:Libraries/STM32F4xx_HAL_Driver/Src/stm32f4xx_hal_dcmi.c **** #if (USE_HAL_DCMI_REGISTER_CALLBACKS == 1)  
 266:Libraries/STM32F4xx_HAL_Driver/Src/stm32f4xx_hal_dcmi.c ****   if(hdcmi->MspDeInitCallback == NULL)  
 267:Libraries/STM32F4xx_HAL_Driver/Src/stm32f4xx_hal_dcmi.c ****   {
 268:Libraries/STM32F4xx_HAL_Driver/Src/stm32f4xx_hal_dcmi.c ****     hdcmi->MspDeInitCallback = HAL_DCMI_MspDeInit;
 269:Libraries/STM32F4xx_HAL_Driver/Src/stm32f4xx_hal_dcmi.c ****   }
 270:Libraries/STM32F4xx_HAL_Driver/Src/stm32f4xx_hal_dcmi.c ****   /* De-Initialize the low level hardware (MSP) */
 271:Libraries/STM32F4xx_HAL_Driver/Src/stm32f4xx_hal_dcmi.c ****   hdcmi->MspDeInitCallback(hdcmi);
 272:Libraries/STM32F4xx_HAL_Driver/Src/stm32f4xx_hal_dcmi.c **** #else
 273:Libraries/STM32F4xx_HAL_Driver/Src/stm32f4xx_hal_dcmi.c ****   /* DeInit the low level hardware: GPIO, CLOCK, NVIC and DMA */
 274:Libraries/STM32F4xx_HAL_Driver/Src/stm32f4xx_hal_dcmi.c ****   HAL_DCMI_MspDeInit(hdcmi);
 275:Libraries/STM32F4xx_HAL_Driver/Src/stm32f4xx_hal_dcmi.c **** #endif /* (USE_HAL_DCMI_REGISTER_CALLBACKS) */
 276:Libraries/STM32F4xx_HAL_Driver/Src/stm32f4xx_hal_dcmi.c **** 
 277:Libraries/STM32F4xx_HAL_Driver/Src/stm32f4xx_hal_dcmi.c ****   /* Update error code */
 278:Libraries/STM32F4xx_HAL_Driver/Src/stm32f4xx_hal_dcmi.c ****   hdcmi->ErrorCode = HAL_DCMI_ERROR_NONE;
 279:Libraries/STM32F4xx_HAL_Driver/Src/stm32f4xx_hal_dcmi.c **** 
 280:Libraries/STM32F4xx_HAL_Driver/Src/stm32f4xx_hal_dcmi.c ****   /* Initialize the DCMI state*/
 281:Libraries/STM32F4xx_HAL_Driver/Src/stm32f4xx_hal_dcmi.c ****   hdcmi->State = HAL_DCMI_STATE_RESET;
 282:Libraries/STM32F4xx_HAL_Driver/Src/stm32f4xx_hal_dcmi.c **** 
 283:Libraries/STM32F4xx_HAL_Driver/Src/stm32f4xx_hal_dcmi.c ****   /* Release Lock */
 284:Libraries/STM32F4xx_HAL_Driver/Src/stm32f4xx_hal_dcmi.c ****   __HAL_UNLOCK(hdcmi);
 285:Libraries/STM32F4xx_HAL_Driver/Src/stm32f4xx_hal_dcmi.c **** 
 286:Libraries/STM32F4xx_HAL_Driver/Src/stm32f4xx_hal_dcmi.c ****   return HAL_OK;
 287:Libraries/STM32F4xx_HAL_Driver/Src/stm32f4xx_hal_dcmi.c **** }
 288:Libraries/STM32F4xx_HAL_Driver/Src/stm32f4xx_hal_dcmi.c **** 
 289:Libraries/STM32F4xx_HAL_Driver/Src/stm32f4xx_hal_dcmi.c **** /**
 290:Libraries/STM32F4xx_HAL_Driver/Src/stm32f4xx_hal_dcmi.c ****   * @brief  Initializes the DCMI MSP.
 291:Libraries/STM32F4xx_HAL_Driver/Src/stm32f4xx_hal_dcmi.c ****   * @param  hdcmi pointer to a DCMI_HandleTypeDef structure that contains
 292:Libraries/STM32F4xx_HAL_Driver/Src/stm32f4xx_hal_dcmi.c ****   *                the configuration information for DCMI.
 293:Libraries/STM32F4xx_HAL_Driver/Src/stm32f4xx_hal_dcmi.c ****   * @retval None
 294:Libraries/STM32F4xx_HAL_Driver/Src/stm32f4xx_hal_dcmi.c ****   */
 295:Libraries/STM32F4xx_HAL_Driver/Src/stm32f4xx_hal_dcmi.c **** __weak void HAL_DCMI_MspInit(DCMI_HandleTypeDef* hdcmi)
 296:Libraries/STM32F4xx_HAL_Driver/Src/stm32f4xx_hal_dcmi.c **** {
 297:Libraries/STM32F4xx_HAL_Driver/Src/stm32f4xx_hal_dcmi.c ****   /* Prevent unused argument(s) compilation warning */
 298:Libraries/STM32F4xx_HAL_Driver/Src/stm32f4xx_hal_dcmi.c ****   UNUSED(hdcmi);
 299:Libraries/STM32F4xx_HAL_Driver/Src/stm32f4xx_hal_dcmi.c ****   /* NOTE : This function Should not be modified, when the callback is needed,
 300:Libraries/STM32F4xx_HAL_Driver/Src/stm32f4xx_hal_dcmi.c ****             the HAL_DCMI_MspInit could be implemented in the user file
 301:Libraries/STM32F4xx_HAL_Driver/Src/stm32f4xx_hal_dcmi.c ****    */ 
 302:Libraries/STM32F4xx_HAL_Driver/Src/stm32f4xx_hal_dcmi.c **** }
 303:Libraries/STM32F4xx_HAL_Driver/Src/stm32f4xx_hal_dcmi.c **** 
 304:Libraries/STM32F4xx_HAL_Driver/Src/stm32f4xx_hal_dcmi.c **** /**
 305:Libraries/STM32F4xx_HAL_Driver/Src/stm32f4xx_hal_dcmi.c ****   * @brief  DeInitializes the DCMI MSP.
 306:Libraries/STM32F4xx_HAL_Driver/Src/stm32f4xx_hal_dcmi.c ****   * @param  hdcmi pointer to a DCMI_HandleTypeDef structure that contains
 307:Libraries/STM32F4xx_HAL_Driver/Src/stm32f4xx_hal_dcmi.c ****   *                the configuration information for DCMI.
 308:Libraries/STM32F4xx_HAL_Driver/Src/stm32f4xx_hal_dcmi.c ****   * @retval None
 309:Libraries/STM32F4xx_HAL_Driver/Src/stm32f4xx_hal_dcmi.c ****   */
 310:Libraries/STM32F4xx_HAL_Driver/Src/stm32f4xx_hal_dcmi.c **** __weak void HAL_DCMI_MspDeInit(DCMI_HandleTypeDef* hdcmi)
 311:Libraries/STM32F4xx_HAL_Driver/Src/stm32f4xx_hal_dcmi.c **** {
 312:Libraries/STM32F4xx_HAL_Driver/Src/stm32f4xx_hal_dcmi.c ****   /* Prevent unused argument(s) compilation warning */
 313:Libraries/STM32F4xx_HAL_Driver/Src/stm32f4xx_hal_dcmi.c ****   UNUSED(hdcmi);
 314:Libraries/STM32F4xx_HAL_Driver/Src/stm32f4xx_hal_dcmi.c ****   /* NOTE : This function Should not be modified, when the callback is needed,
 315:Libraries/STM32F4xx_HAL_Driver/Src/stm32f4xx_hal_dcmi.c ****             the HAL_DCMI_MspDeInit could be implemented in the user file
 316:Libraries/STM32F4xx_HAL_Driver/Src/stm32f4xx_hal_dcmi.c ****    */
 317:Libraries/STM32F4xx_HAL_Driver/Src/stm32f4xx_hal_dcmi.c **** }
ARM GAS  C:\Users\yzy\AppData\Local\Temp\ccovssh5.s 			page 7


 318:Libraries/STM32F4xx_HAL_Driver/Src/stm32f4xx_hal_dcmi.c **** 
 319:Libraries/STM32F4xx_HAL_Driver/Src/stm32f4xx_hal_dcmi.c **** /**
 320:Libraries/STM32F4xx_HAL_Driver/Src/stm32f4xx_hal_dcmi.c ****   * @}
 321:Libraries/STM32F4xx_HAL_Driver/Src/stm32f4xx_hal_dcmi.c ****   */
 322:Libraries/STM32F4xx_HAL_Driver/Src/stm32f4xx_hal_dcmi.c **** /** @defgroup DCMI_Exported_Functions_Group2 IO operation functions
 323:Libraries/STM32F4xx_HAL_Driver/Src/stm32f4xx_hal_dcmi.c ****   *  @brief   IO operation functions
 324:Libraries/STM32F4xx_HAL_Driver/Src/stm32f4xx_hal_dcmi.c ****   *
 325:Libraries/STM32F4xx_HAL_Driver/Src/stm32f4xx_hal_dcmi.c **** @verbatim
 326:Libraries/STM32F4xx_HAL_Driver/Src/stm32f4xx_hal_dcmi.c ****  ===============================================================================
 327:Libraries/STM32F4xx_HAL_Driver/Src/stm32f4xx_hal_dcmi.c ****                       #####  IO operation functions  #####
 328:Libraries/STM32F4xx_HAL_Driver/Src/stm32f4xx_hal_dcmi.c ****  ===============================================================================
 329:Libraries/STM32F4xx_HAL_Driver/Src/stm32f4xx_hal_dcmi.c ****     [..]  This section provides functions allowing to:
 330:Libraries/STM32F4xx_HAL_Driver/Src/stm32f4xx_hal_dcmi.c ****       (+) Configure destination address and data length and
 331:Libraries/STM32F4xx_HAL_Driver/Src/stm32f4xx_hal_dcmi.c ****           Enables DCMI DMA request and enables DCMI capture
 332:Libraries/STM32F4xx_HAL_Driver/Src/stm32f4xx_hal_dcmi.c ****       (+) Stop the DCMI capture.
 333:Libraries/STM32F4xx_HAL_Driver/Src/stm32f4xx_hal_dcmi.c ****       (+) Handles DCMI interrupt request.
 334:Libraries/STM32F4xx_HAL_Driver/Src/stm32f4xx_hal_dcmi.c **** 
 335:Libraries/STM32F4xx_HAL_Driver/Src/stm32f4xx_hal_dcmi.c **** @endverbatim
 336:Libraries/STM32F4xx_HAL_Driver/Src/stm32f4xx_hal_dcmi.c ****   * @{
 337:Libraries/STM32F4xx_HAL_Driver/Src/stm32f4xx_hal_dcmi.c ****   */
 338:Libraries/STM32F4xx_HAL_Driver/Src/stm32f4xx_hal_dcmi.c **** 
 339:Libraries/STM32F4xx_HAL_Driver/Src/stm32f4xx_hal_dcmi.c **** /**
 340:Libraries/STM32F4xx_HAL_Driver/Src/stm32f4xx_hal_dcmi.c ****   * @brief  Enables DCMI DMA request and enables DCMI capture
 341:Libraries/STM32F4xx_HAL_Driver/Src/stm32f4xx_hal_dcmi.c ****   * @param  hdcmi     pointer to a DCMI_HandleTypeDef structure that contains
 342:Libraries/STM32F4xx_HAL_Driver/Src/stm32f4xx_hal_dcmi.c ****   *                    the configuration information for DCMI.
 343:Libraries/STM32F4xx_HAL_Driver/Src/stm32f4xx_hal_dcmi.c ****   * @param  DCMI_Mode DCMI capture mode snapshot or continuous grab.
 344:Libraries/STM32F4xx_HAL_Driver/Src/stm32f4xx_hal_dcmi.c ****   * @param  pData     The destination memory Buffer address (LCD Frame buffer).
 345:Libraries/STM32F4xx_HAL_Driver/Src/stm32f4xx_hal_dcmi.c ****   * @param  Length    The length of capture to be transferred.
 346:Libraries/STM32F4xx_HAL_Driver/Src/stm32f4xx_hal_dcmi.c ****   * @retval HAL status
 347:Libraries/STM32F4xx_HAL_Driver/Src/stm32f4xx_hal_dcmi.c ****   */
 348:Libraries/STM32F4xx_HAL_Driver/Src/stm32f4xx_hal_dcmi.c **** HAL_StatusTypeDef HAL_DCMI_Start_DMA(DCMI_HandleTypeDef* hdcmi, uint32_t DCMI_Mode, uint32_t pData,
 349:Libraries/STM32F4xx_HAL_Driver/Src/stm32f4xx_hal_dcmi.c **** {
 350:Libraries/STM32F4xx_HAL_Driver/Src/stm32f4xx_hal_dcmi.c ****   /* Initialize the second memory address */
 351:Libraries/STM32F4xx_HAL_Driver/Src/stm32f4xx_hal_dcmi.c ****   uint32_t SecondMemAddress = 0U;
 352:Libraries/STM32F4xx_HAL_Driver/Src/stm32f4xx_hal_dcmi.c **** 
 353:Libraries/STM32F4xx_HAL_Driver/Src/stm32f4xx_hal_dcmi.c ****   /* Check function parameters */
 354:Libraries/STM32F4xx_HAL_Driver/Src/stm32f4xx_hal_dcmi.c ****   assert_param(IS_DCMI_CAPTURE_MODE(DCMI_Mode));
 355:Libraries/STM32F4xx_HAL_Driver/Src/stm32f4xx_hal_dcmi.c **** 
 356:Libraries/STM32F4xx_HAL_Driver/Src/stm32f4xx_hal_dcmi.c ****   /* Process Locked */
 357:Libraries/STM32F4xx_HAL_Driver/Src/stm32f4xx_hal_dcmi.c ****   __HAL_LOCK(hdcmi);
 358:Libraries/STM32F4xx_HAL_Driver/Src/stm32f4xx_hal_dcmi.c **** 
 359:Libraries/STM32F4xx_HAL_Driver/Src/stm32f4xx_hal_dcmi.c ****   /* Lock the DCMI peripheral state */
 360:Libraries/STM32F4xx_HAL_Driver/Src/stm32f4xx_hal_dcmi.c ****   hdcmi->State = HAL_DCMI_STATE_BUSY;
 361:Libraries/STM32F4xx_HAL_Driver/Src/stm32f4xx_hal_dcmi.c ****   
 362:Libraries/STM32F4xx_HAL_Driver/Src/stm32f4xx_hal_dcmi.c ****   /* Enable DCMI by setting DCMIEN bit */
 363:Libraries/STM32F4xx_HAL_Driver/Src/stm32f4xx_hal_dcmi.c ****   __HAL_DCMI_ENABLE(hdcmi);
 364:Libraries/STM32F4xx_HAL_Driver/Src/stm32f4xx_hal_dcmi.c **** 
 365:Libraries/STM32F4xx_HAL_Driver/Src/stm32f4xx_hal_dcmi.c ****   /* Configure the DCMI Mode */
 366:Libraries/STM32F4xx_HAL_Driver/Src/stm32f4xx_hal_dcmi.c ****   hdcmi->Instance->CR &= ~(DCMI_CR_CM);
 367:Libraries/STM32F4xx_HAL_Driver/Src/stm32f4xx_hal_dcmi.c ****   hdcmi->Instance->CR |=  (uint32_t)(DCMI_Mode);
 368:Libraries/STM32F4xx_HAL_Driver/Src/stm32f4xx_hal_dcmi.c **** 
 369:Libraries/STM32F4xx_HAL_Driver/Src/stm32f4xx_hal_dcmi.c ****   /* Set the DMA memory0 conversion complete callback */
 370:Libraries/STM32F4xx_HAL_Driver/Src/stm32f4xx_hal_dcmi.c ****   hdcmi->DMA_Handle->XferCpltCallback = DCMI_DMAXferCplt;
 371:Libraries/STM32F4xx_HAL_Driver/Src/stm32f4xx_hal_dcmi.c **** 
 372:Libraries/STM32F4xx_HAL_Driver/Src/stm32f4xx_hal_dcmi.c ****   /* Set the DMA error callback */
 373:Libraries/STM32F4xx_HAL_Driver/Src/stm32f4xx_hal_dcmi.c ****   hdcmi->DMA_Handle->XferErrorCallback = DCMI_DMAError;
 374:Libraries/STM32F4xx_HAL_Driver/Src/stm32f4xx_hal_dcmi.c **** 
ARM GAS  C:\Users\yzy\AppData\Local\Temp\ccovssh5.s 			page 8


 375:Libraries/STM32F4xx_HAL_Driver/Src/stm32f4xx_hal_dcmi.c ****   /* Set the dma abort callback */
 376:Libraries/STM32F4xx_HAL_Driver/Src/stm32f4xx_hal_dcmi.c ****   hdcmi->DMA_Handle->XferAbortCallback = NULL;
 377:Libraries/STM32F4xx_HAL_Driver/Src/stm32f4xx_hal_dcmi.c ****   
 378:Libraries/STM32F4xx_HAL_Driver/Src/stm32f4xx_hal_dcmi.c ****   /* Reset transfer counters value */ 
 379:Libraries/STM32F4xx_HAL_Driver/Src/stm32f4xx_hal_dcmi.c ****   hdcmi->XferCount = 0U;
 380:Libraries/STM32F4xx_HAL_Driver/Src/stm32f4xx_hal_dcmi.c ****   hdcmi->XferTransferNumber = 0U;
 381:Libraries/STM32F4xx_HAL_Driver/Src/stm32f4xx_hal_dcmi.c **** 
 382:Libraries/STM32F4xx_HAL_Driver/Src/stm32f4xx_hal_dcmi.c ****   if(Length <= 0xFFFFU)
 383:Libraries/STM32F4xx_HAL_Driver/Src/stm32f4xx_hal_dcmi.c ****   {
 384:Libraries/STM32F4xx_HAL_Driver/Src/stm32f4xx_hal_dcmi.c ****     /* Enable the DMA Stream */
 385:Libraries/STM32F4xx_HAL_Driver/Src/stm32f4xx_hal_dcmi.c ****     HAL_DMA_Start_IT(hdcmi->DMA_Handle, (uint32_t)&hdcmi->Instance->DR, (uint32_t)pData, Length);
 386:Libraries/STM32F4xx_HAL_Driver/Src/stm32f4xx_hal_dcmi.c ****   }
 387:Libraries/STM32F4xx_HAL_Driver/Src/stm32f4xx_hal_dcmi.c ****   else /* DCMI_DOUBLE_BUFFER Mode */
 388:Libraries/STM32F4xx_HAL_Driver/Src/stm32f4xx_hal_dcmi.c ****   {
 389:Libraries/STM32F4xx_HAL_Driver/Src/stm32f4xx_hal_dcmi.c ****     /* Set the DMA memory1 conversion complete callback */
 390:Libraries/STM32F4xx_HAL_Driver/Src/stm32f4xx_hal_dcmi.c ****     hdcmi->DMA_Handle->XferM1CpltCallback = DCMI_DMAXferCplt;
 391:Libraries/STM32F4xx_HAL_Driver/Src/stm32f4xx_hal_dcmi.c **** 
 392:Libraries/STM32F4xx_HAL_Driver/Src/stm32f4xx_hal_dcmi.c ****     /* Initialize transfer parameters */
 393:Libraries/STM32F4xx_HAL_Driver/Src/stm32f4xx_hal_dcmi.c ****     hdcmi->XferCount = 1U;
 394:Libraries/STM32F4xx_HAL_Driver/Src/stm32f4xx_hal_dcmi.c ****     hdcmi->XferSize = Length;
 395:Libraries/STM32F4xx_HAL_Driver/Src/stm32f4xx_hal_dcmi.c ****     hdcmi->pBuffPtr = pData;
 396:Libraries/STM32F4xx_HAL_Driver/Src/stm32f4xx_hal_dcmi.c **** 
 397:Libraries/STM32F4xx_HAL_Driver/Src/stm32f4xx_hal_dcmi.c ****     /* Get the number of buffer */
 398:Libraries/STM32F4xx_HAL_Driver/Src/stm32f4xx_hal_dcmi.c ****     while(hdcmi->XferSize > 0xFFFFU)
 399:Libraries/STM32F4xx_HAL_Driver/Src/stm32f4xx_hal_dcmi.c ****     {
 400:Libraries/STM32F4xx_HAL_Driver/Src/stm32f4xx_hal_dcmi.c ****       hdcmi->XferSize = (hdcmi->XferSize/2U);
 401:Libraries/STM32F4xx_HAL_Driver/Src/stm32f4xx_hal_dcmi.c ****       hdcmi->XferCount = hdcmi->XferCount*2U;
 402:Libraries/STM32F4xx_HAL_Driver/Src/stm32f4xx_hal_dcmi.c ****     }
 403:Libraries/STM32F4xx_HAL_Driver/Src/stm32f4xx_hal_dcmi.c **** 
 404:Libraries/STM32F4xx_HAL_Driver/Src/stm32f4xx_hal_dcmi.c ****     /* Update DCMI counter  and transfer number*/
 405:Libraries/STM32F4xx_HAL_Driver/Src/stm32f4xx_hal_dcmi.c ****     hdcmi->XferCount = (hdcmi->XferCount - 2U);
 406:Libraries/STM32F4xx_HAL_Driver/Src/stm32f4xx_hal_dcmi.c ****     hdcmi->XferTransferNumber = hdcmi->XferCount;
 407:Libraries/STM32F4xx_HAL_Driver/Src/stm32f4xx_hal_dcmi.c **** 
 408:Libraries/STM32F4xx_HAL_Driver/Src/stm32f4xx_hal_dcmi.c ****     /* Update second memory address */
 409:Libraries/STM32F4xx_HAL_Driver/Src/stm32f4xx_hal_dcmi.c ****     SecondMemAddress = (uint32_t)(pData + (4U*hdcmi->XferSize));
 410:Libraries/STM32F4xx_HAL_Driver/Src/stm32f4xx_hal_dcmi.c **** 
 411:Libraries/STM32F4xx_HAL_Driver/Src/stm32f4xx_hal_dcmi.c ****     /* Start DMA multi buffer transfer */
 412:Libraries/STM32F4xx_HAL_Driver/Src/stm32f4xx_hal_dcmi.c ****     HAL_DMAEx_MultiBufferStart_IT(hdcmi->DMA_Handle, (uint32_t)&hdcmi->Instance->DR, (uint32_t)pDat
 413:Libraries/STM32F4xx_HAL_Driver/Src/stm32f4xx_hal_dcmi.c ****   }
 414:Libraries/STM32F4xx_HAL_Driver/Src/stm32f4xx_hal_dcmi.c **** 
 415:Libraries/STM32F4xx_HAL_Driver/Src/stm32f4xx_hal_dcmi.c ****   /* Enable Capture */
 416:Libraries/STM32F4xx_HAL_Driver/Src/stm32f4xx_hal_dcmi.c ****   hdcmi->Instance->CR |= DCMI_CR_CAPTURE;
 417:Libraries/STM32F4xx_HAL_Driver/Src/stm32f4xx_hal_dcmi.c **** 
 418:Libraries/STM32F4xx_HAL_Driver/Src/stm32f4xx_hal_dcmi.c ****   /* Release Lock */
 419:Libraries/STM32F4xx_HAL_Driver/Src/stm32f4xx_hal_dcmi.c ****   __HAL_UNLOCK(hdcmi);
 420:Libraries/STM32F4xx_HAL_Driver/Src/stm32f4xx_hal_dcmi.c **** 
 421:Libraries/STM32F4xx_HAL_Driver/Src/stm32f4xx_hal_dcmi.c ****   /* Return function status */
 422:Libraries/STM32F4xx_HAL_Driver/Src/stm32f4xx_hal_dcmi.c ****   return HAL_OK;
 423:Libraries/STM32F4xx_HAL_Driver/Src/stm32f4xx_hal_dcmi.c **** }
 424:Libraries/STM32F4xx_HAL_Driver/Src/stm32f4xx_hal_dcmi.c **** 
 425:Libraries/STM32F4xx_HAL_Driver/Src/stm32f4xx_hal_dcmi.c **** /**
 426:Libraries/STM32F4xx_HAL_Driver/Src/stm32f4xx_hal_dcmi.c ****   * @brief  Disable DCMI DMA request and Disable DCMI capture
 427:Libraries/STM32F4xx_HAL_Driver/Src/stm32f4xx_hal_dcmi.c ****   * @param  hdcmi pointer to a DCMI_HandleTypeDef structure that contains
 428:Libraries/STM32F4xx_HAL_Driver/Src/stm32f4xx_hal_dcmi.c ****   *                the configuration information for DCMI.
 429:Libraries/STM32F4xx_HAL_Driver/Src/stm32f4xx_hal_dcmi.c ****   * @retval HAL status
 430:Libraries/STM32F4xx_HAL_Driver/Src/stm32f4xx_hal_dcmi.c ****   */
 431:Libraries/STM32F4xx_HAL_Driver/Src/stm32f4xx_hal_dcmi.c **** HAL_StatusTypeDef HAL_DCMI_Stop(DCMI_HandleTypeDef* hdcmi)
ARM GAS  C:\Users\yzy\AppData\Local\Temp\ccovssh5.s 			page 9


 432:Libraries/STM32F4xx_HAL_Driver/Src/stm32f4xx_hal_dcmi.c **** {
 433:Libraries/STM32F4xx_HAL_Driver/Src/stm32f4xx_hal_dcmi.c ****   __IO uint32_t count = SystemCoreClock / HAL_TIMEOUT_DCMI_STOP;
 434:Libraries/STM32F4xx_HAL_Driver/Src/stm32f4xx_hal_dcmi.c ****   HAL_StatusTypeDef status = HAL_OK;
 435:Libraries/STM32F4xx_HAL_Driver/Src/stm32f4xx_hal_dcmi.c **** 
 436:Libraries/STM32F4xx_HAL_Driver/Src/stm32f4xx_hal_dcmi.c ****   /* Process locked */
 437:Libraries/STM32F4xx_HAL_Driver/Src/stm32f4xx_hal_dcmi.c ****   __HAL_LOCK(hdcmi);
 438:Libraries/STM32F4xx_HAL_Driver/Src/stm32f4xx_hal_dcmi.c ****   
 439:Libraries/STM32F4xx_HAL_Driver/Src/stm32f4xx_hal_dcmi.c ****   /* Lock the DCMI peripheral state */
 440:Libraries/STM32F4xx_HAL_Driver/Src/stm32f4xx_hal_dcmi.c ****   hdcmi->State = HAL_DCMI_STATE_BUSY;
 441:Libraries/STM32F4xx_HAL_Driver/Src/stm32f4xx_hal_dcmi.c **** 
 442:Libraries/STM32F4xx_HAL_Driver/Src/stm32f4xx_hal_dcmi.c ****   /* Disable Capture */
 443:Libraries/STM32F4xx_HAL_Driver/Src/stm32f4xx_hal_dcmi.c ****   hdcmi->Instance->CR &= ~(DCMI_CR_CAPTURE);
 444:Libraries/STM32F4xx_HAL_Driver/Src/stm32f4xx_hal_dcmi.c **** 
 445:Libraries/STM32F4xx_HAL_Driver/Src/stm32f4xx_hal_dcmi.c ****   /* Check if the DCMI capture effectively disabled */
 446:Libraries/STM32F4xx_HAL_Driver/Src/stm32f4xx_hal_dcmi.c ****   do
 447:Libraries/STM32F4xx_HAL_Driver/Src/stm32f4xx_hal_dcmi.c ****   {
 448:Libraries/STM32F4xx_HAL_Driver/Src/stm32f4xx_hal_dcmi.c ****     if (count-- == 0U)
 449:Libraries/STM32F4xx_HAL_Driver/Src/stm32f4xx_hal_dcmi.c ****     {
 450:Libraries/STM32F4xx_HAL_Driver/Src/stm32f4xx_hal_dcmi.c ****       /* Update error code */
 451:Libraries/STM32F4xx_HAL_Driver/Src/stm32f4xx_hal_dcmi.c ****       hdcmi->ErrorCode |= HAL_DCMI_ERROR_TIMEOUT;
 452:Libraries/STM32F4xx_HAL_Driver/Src/stm32f4xx_hal_dcmi.c **** 
 453:Libraries/STM32F4xx_HAL_Driver/Src/stm32f4xx_hal_dcmi.c ****       status = HAL_TIMEOUT;
 454:Libraries/STM32F4xx_HAL_Driver/Src/stm32f4xx_hal_dcmi.c ****       break;
 455:Libraries/STM32F4xx_HAL_Driver/Src/stm32f4xx_hal_dcmi.c ****     }
 456:Libraries/STM32F4xx_HAL_Driver/Src/stm32f4xx_hal_dcmi.c ****   }
 457:Libraries/STM32F4xx_HAL_Driver/Src/stm32f4xx_hal_dcmi.c ****   while((hdcmi->Instance->CR & DCMI_CR_CAPTURE) != 0U);
 458:Libraries/STM32F4xx_HAL_Driver/Src/stm32f4xx_hal_dcmi.c **** 
 459:Libraries/STM32F4xx_HAL_Driver/Src/stm32f4xx_hal_dcmi.c ****   /* Disable the DCMI */
 460:Libraries/STM32F4xx_HAL_Driver/Src/stm32f4xx_hal_dcmi.c ****   __HAL_DCMI_DISABLE(hdcmi);
 461:Libraries/STM32F4xx_HAL_Driver/Src/stm32f4xx_hal_dcmi.c **** 
 462:Libraries/STM32F4xx_HAL_Driver/Src/stm32f4xx_hal_dcmi.c ****   /* Disable the DMA */
 463:Libraries/STM32F4xx_HAL_Driver/Src/stm32f4xx_hal_dcmi.c ****   HAL_DMA_Abort(hdcmi->DMA_Handle);
 464:Libraries/STM32F4xx_HAL_Driver/Src/stm32f4xx_hal_dcmi.c **** 
 465:Libraries/STM32F4xx_HAL_Driver/Src/stm32f4xx_hal_dcmi.c ****   /* Update error code */
 466:Libraries/STM32F4xx_HAL_Driver/Src/stm32f4xx_hal_dcmi.c ****   hdcmi->ErrorCode |= HAL_DCMI_ERROR_NONE;
 467:Libraries/STM32F4xx_HAL_Driver/Src/stm32f4xx_hal_dcmi.c **** 
 468:Libraries/STM32F4xx_HAL_Driver/Src/stm32f4xx_hal_dcmi.c ****   /* Change DCMI state */
 469:Libraries/STM32F4xx_HAL_Driver/Src/stm32f4xx_hal_dcmi.c ****   hdcmi->State = HAL_DCMI_STATE_READY;
 470:Libraries/STM32F4xx_HAL_Driver/Src/stm32f4xx_hal_dcmi.c **** 
 471:Libraries/STM32F4xx_HAL_Driver/Src/stm32f4xx_hal_dcmi.c ****   /* Process Unlocked */
 472:Libraries/STM32F4xx_HAL_Driver/Src/stm32f4xx_hal_dcmi.c ****   __HAL_UNLOCK(hdcmi);
 473:Libraries/STM32F4xx_HAL_Driver/Src/stm32f4xx_hal_dcmi.c **** 
 474:Libraries/STM32F4xx_HAL_Driver/Src/stm32f4xx_hal_dcmi.c ****   /* Return function status */
 475:Libraries/STM32F4xx_HAL_Driver/Src/stm32f4xx_hal_dcmi.c ****   return status;
 476:Libraries/STM32F4xx_HAL_Driver/Src/stm32f4xx_hal_dcmi.c **** }
 477:Libraries/STM32F4xx_HAL_Driver/Src/stm32f4xx_hal_dcmi.c **** 
 478:Libraries/STM32F4xx_HAL_Driver/Src/stm32f4xx_hal_dcmi.c **** /**
 479:Libraries/STM32F4xx_HAL_Driver/Src/stm32f4xx_hal_dcmi.c ****   * @brief  Suspend DCMI capture  
 480:Libraries/STM32F4xx_HAL_Driver/Src/stm32f4xx_hal_dcmi.c ****   * @param  hdcmi pointer to a DCMI_HandleTypeDef structure that contains
 481:Libraries/STM32F4xx_HAL_Driver/Src/stm32f4xx_hal_dcmi.c ****   *                the configuration information for DCMI. 
 482:Libraries/STM32F4xx_HAL_Driver/Src/stm32f4xx_hal_dcmi.c ****   * @retval HAL status     
 483:Libraries/STM32F4xx_HAL_Driver/Src/stm32f4xx_hal_dcmi.c ****   */
 484:Libraries/STM32F4xx_HAL_Driver/Src/stm32f4xx_hal_dcmi.c **** HAL_StatusTypeDef HAL_DCMI_Suspend(DCMI_HandleTypeDef* hdcmi)
 485:Libraries/STM32F4xx_HAL_Driver/Src/stm32f4xx_hal_dcmi.c **** {
 486:Libraries/STM32F4xx_HAL_Driver/Src/stm32f4xx_hal_dcmi.c ****   __IO uint32_t count = SystemCoreClock / HAL_TIMEOUT_DCMI_STOP;
 487:Libraries/STM32F4xx_HAL_Driver/Src/stm32f4xx_hal_dcmi.c ****   HAL_StatusTypeDef status = HAL_OK;
 488:Libraries/STM32F4xx_HAL_Driver/Src/stm32f4xx_hal_dcmi.c **** 
ARM GAS  C:\Users\yzy\AppData\Local\Temp\ccovssh5.s 			page 10


 489:Libraries/STM32F4xx_HAL_Driver/Src/stm32f4xx_hal_dcmi.c ****   /* Process locked */
 490:Libraries/STM32F4xx_HAL_Driver/Src/stm32f4xx_hal_dcmi.c ****   __HAL_LOCK(hdcmi);
 491:Libraries/STM32F4xx_HAL_Driver/Src/stm32f4xx_hal_dcmi.c **** 
 492:Libraries/STM32F4xx_HAL_Driver/Src/stm32f4xx_hal_dcmi.c ****   if(hdcmi->State == HAL_DCMI_STATE_BUSY)
 493:Libraries/STM32F4xx_HAL_Driver/Src/stm32f4xx_hal_dcmi.c ****   {
 494:Libraries/STM32F4xx_HAL_Driver/Src/stm32f4xx_hal_dcmi.c ****     /* Change DCMI state */
 495:Libraries/STM32F4xx_HAL_Driver/Src/stm32f4xx_hal_dcmi.c ****     hdcmi->State = HAL_DCMI_STATE_SUSPENDED;
 496:Libraries/STM32F4xx_HAL_Driver/Src/stm32f4xx_hal_dcmi.c **** 
 497:Libraries/STM32F4xx_HAL_Driver/Src/stm32f4xx_hal_dcmi.c ****     /* Disable Capture */
 498:Libraries/STM32F4xx_HAL_Driver/Src/stm32f4xx_hal_dcmi.c ****     hdcmi->Instance->CR &= ~(DCMI_CR_CAPTURE);
 499:Libraries/STM32F4xx_HAL_Driver/Src/stm32f4xx_hal_dcmi.c **** 
 500:Libraries/STM32F4xx_HAL_Driver/Src/stm32f4xx_hal_dcmi.c ****     /* Check if the DCMI capture effectively disabled */
 501:Libraries/STM32F4xx_HAL_Driver/Src/stm32f4xx_hal_dcmi.c ****     do
 502:Libraries/STM32F4xx_HAL_Driver/Src/stm32f4xx_hal_dcmi.c ****     {
 503:Libraries/STM32F4xx_HAL_Driver/Src/stm32f4xx_hal_dcmi.c ****       if (count-- == 0U)
 504:Libraries/STM32F4xx_HAL_Driver/Src/stm32f4xx_hal_dcmi.c ****       {        
 505:Libraries/STM32F4xx_HAL_Driver/Src/stm32f4xx_hal_dcmi.c ****         /* Update error code */
 506:Libraries/STM32F4xx_HAL_Driver/Src/stm32f4xx_hal_dcmi.c ****         hdcmi->ErrorCode |= HAL_DCMI_ERROR_TIMEOUT;
 507:Libraries/STM32F4xx_HAL_Driver/Src/stm32f4xx_hal_dcmi.c ****         
 508:Libraries/STM32F4xx_HAL_Driver/Src/stm32f4xx_hal_dcmi.c ****         /* Change DCMI state */
 509:Libraries/STM32F4xx_HAL_Driver/Src/stm32f4xx_hal_dcmi.c ****         hdcmi->State = HAL_DCMI_STATE_READY;
 510:Libraries/STM32F4xx_HAL_Driver/Src/stm32f4xx_hal_dcmi.c ****         
 511:Libraries/STM32F4xx_HAL_Driver/Src/stm32f4xx_hal_dcmi.c ****         status = HAL_TIMEOUT;
 512:Libraries/STM32F4xx_HAL_Driver/Src/stm32f4xx_hal_dcmi.c ****         break;
 513:Libraries/STM32F4xx_HAL_Driver/Src/stm32f4xx_hal_dcmi.c ****       }
 514:Libraries/STM32F4xx_HAL_Driver/Src/stm32f4xx_hal_dcmi.c ****     }
 515:Libraries/STM32F4xx_HAL_Driver/Src/stm32f4xx_hal_dcmi.c ****     while((hdcmi->Instance->CR & DCMI_CR_CAPTURE) != 0);
 516:Libraries/STM32F4xx_HAL_Driver/Src/stm32f4xx_hal_dcmi.c ****   }    
 517:Libraries/STM32F4xx_HAL_Driver/Src/stm32f4xx_hal_dcmi.c ****   /* Process Unlocked */
 518:Libraries/STM32F4xx_HAL_Driver/Src/stm32f4xx_hal_dcmi.c ****   __HAL_UNLOCK(hdcmi);
 519:Libraries/STM32F4xx_HAL_Driver/Src/stm32f4xx_hal_dcmi.c ****   
 520:Libraries/STM32F4xx_HAL_Driver/Src/stm32f4xx_hal_dcmi.c ****   /* Return function status */
 521:Libraries/STM32F4xx_HAL_Driver/Src/stm32f4xx_hal_dcmi.c ****   return status;
 522:Libraries/STM32F4xx_HAL_Driver/Src/stm32f4xx_hal_dcmi.c **** }
 523:Libraries/STM32F4xx_HAL_Driver/Src/stm32f4xx_hal_dcmi.c **** 
 524:Libraries/STM32F4xx_HAL_Driver/Src/stm32f4xx_hal_dcmi.c **** /**
 525:Libraries/STM32F4xx_HAL_Driver/Src/stm32f4xx_hal_dcmi.c ****   * @brief  Resume DCMI capture  
 526:Libraries/STM32F4xx_HAL_Driver/Src/stm32f4xx_hal_dcmi.c ****   * @param  hdcmi pointer to a DCMI_HandleTypeDef structure that contains
 527:Libraries/STM32F4xx_HAL_Driver/Src/stm32f4xx_hal_dcmi.c ****   *                the configuration information for DCMI. 
 528:Libraries/STM32F4xx_HAL_Driver/Src/stm32f4xx_hal_dcmi.c ****   * @retval HAL status     
 529:Libraries/STM32F4xx_HAL_Driver/Src/stm32f4xx_hal_dcmi.c ****   */
 530:Libraries/STM32F4xx_HAL_Driver/Src/stm32f4xx_hal_dcmi.c **** HAL_StatusTypeDef HAL_DCMI_Resume(DCMI_HandleTypeDef* hdcmi)
 531:Libraries/STM32F4xx_HAL_Driver/Src/stm32f4xx_hal_dcmi.c **** {
 532:Libraries/STM32F4xx_HAL_Driver/Src/stm32f4xx_hal_dcmi.c ****   /* Process locked */
 533:Libraries/STM32F4xx_HAL_Driver/Src/stm32f4xx_hal_dcmi.c ****   __HAL_LOCK(hdcmi);
 534:Libraries/STM32F4xx_HAL_Driver/Src/stm32f4xx_hal_dcmi.c ****   
 535:Libraries/STM32F4xx_HAL_Driver/Src/stm32f4xx_hal_dcmi.c ****   if(hdcmi->State == HAL_DCMI_STATE_SUSPENDED)
 536:Libraries/STM32F4xx_HAL_Driver/Src/stm32f4xx_hal_dcmi.c ****   {
 537:Libraries/STM32F4xx_HAL_Driver/Src/stm32f4xx_hal_dcmi.c ****     /* Change DCMI state */
 538:Libraries/STM32F4xx_HAL_Driver/Src/stm32f4xx_hal_dcmi.c ****     hdcmi->State = HAL_DCMI_STATE_BUSY;
 539:Libraries/STM32F4xx_HAL_Driver/Src/stm32f4xx_hal_dcmi.c ****     
 540:Libraries/STM32F4xx_HAL_Driver/Src/stm32f4xx_hal_dcmi.c ****     /* Disable Capture */
 541:Libraries/STM32F4xx_HAL_Driver/Src/stm32f4xx_hal_dcmi.c ****     hdcmi->Instance->CR |= DCMI_CR_CAPTURE;
 542:Libraries/STM32F4xx_HAL_Driver/Src/stm32f4xx_hal_dcmi.c ****   } 
 543:Libraries/STM32F4xx_HAL_Driver/Src/stm32f4xx_hal_dcmi.c ****   /* Process Unlocked */
 544:Libraries/STM32F4xx_HAL_Driver/Src/stm32f4xx_hal_dcmi.c ****   __HAL_UNLOCK(hdcmi);
 545:Libraries/STM32F4xx_HAL_Driver/Src/stm32f4xx_hal_dcmi.c ****   
ARM GAS  C:\Users\yzy\AppData\Local\Temp\ccovssh5.s 			page 11


 546:Libraries/STM32F4xx_HAL_Driver/Src/stm32f4xx_hal_dcmi.c ****   /* Return function status */
 547:Libraries/STM32F4xx_HAL_Driver/Src/stm32f4xx_hal_dcmi.c ****   return HAL_OK;
 548:Libraries/STM32F4xx_HAL_Driver/Src/stm32f4xx_hal_dcmi.c **** }
 549:Libraries/STM32F4xx_HAL_Driver/Src/stm32f4xx_hal_dcmi.c **** 
 550:Libraries/STM32F4xx_HAL_Driver/Src/stm32f4xx_hal_dcmi.c **** /**
 551:Libraries/STM32F4xx_HAL_Driver/Src/stm32f4xx_hal_dcmi.c ****   * @brief  Handles DCMI interrupt request.
 552:Libraries/STM32F4xx_HAL_Driver/Src/stm32f4xx_hal_dcmi.c ****   * @param  hdcmi pointer to a DCMI_HandleTypeDef structure that contains
 553:Libraries/STM32F4xx_HAL_Driver/Src/stm32f4xx_hal_dcmi.c ****   *                the configuration information for the DCMI.
 554:Libraries/STM32F4xx_HAL_Driver/Src/stm32f4xx_hal_dcmi.c ****   * @retval None
 555:Libraries/STM32F4xx_HAL_Driver/Src/stm32f4xx_hal_dcmi.c ****   */
 556:Libraries/STM32F4xx_HAL_Driver/Src/stm32f4xx_hal_dcmi.c **** void HAL_DCMI_IRQHandler(DCMI_HandleTypeDef *hdcmi)
 557:Libraries/STM32F4xx_HAL_Driver/Src/stm32f4xx_hal_dcmi.c **** {
 558:Libraries/STM32F4xx_HAL_Driver/Src/stm32f4xx_hal_dcmi.c ****   uint32_t isr_value = READ_REG(hdcmi->Instance->MISR);
 559:Libraries/STM32F4xx_HAL_Driver/Src/stm32f4xx_hal_dcmi.c **** 
 560:Libraries/STM32F4xx_HAL_Driver/Src/stm32f4xx_hal_dcmi.c ****   /* Synchronization error interrupt management *******************************/
 561:Libraries/STM32F4xx_HAL_Driver/Src/stm32f4xx_hal_dcmi.c ****   if((isr_value & DCMI_FLAG_ERRRI) == DCMI_FLAG_ERRRI)
 562:Libraries/STM32F4xx_HAL_Driver/Src/stm32f4xx_hal_dcmi.c ****   {
 563:Libraries/STM32F4xx_HAL_Driver/Src/stm32f4xx_hal_dcmi.c ****     /* Clear the Synchronization error flag */
 564:Libraries/STM32F4xx_HAL_Driver/Src/stm32f4xx_hal_dcmi.c ****     __HAL_DCMI_CLEAR_FLAG(hdcmi, DCMI_FLAG_ERRRI);
 565:Libraries/STM32F4xx_HAL_Driver/Src/stm32f4xx_hal_dcmi.c **** 
 566:Libraries/STM32F4xx_HAL_Driver/Src/stm32f4xx_hal_dcmi.c ****     /* Update error code */
 567:Libraries/STM32F4xx_HAL_Driver/Src/stm32f4xx_hal_dcmi.c ****     hdcmi->ErrorCode |= HAL_DCMI_ERROR_SYNC;
 568:Libraries/STM32F4xx_HAL_Driver/Src/stm32f4xx_hal_dcmi.c **** 
 569:Libraries/STM32F4xx_HAL_Driver/Src/stm32f4xx_hal_dcmi.c ****     /* Change DCMI state */
 570:Libraries/STM32F4xx_HAL_Driver/Src/stm32f4xx_hal_dcmi.c ****     hdcmi->State = HAL_DCMI_STATE_ERROR;
 571:Libraries/STM32F4xx_HAL_Driver/Src/stm32f4xx_hal_dcmi.c ****     
 572:Libraries/STM32F4xx_HAL_Driver/Src/stm32f4xx_hal_dcmi.c ****     /* Set the synchronization error callback */
 573:Libraries/STM32F4xx_HAL_Driver/Src/stm32f4xx_hal_dcmi.c ****     hdcmi->DMA_Handle->XferAbortCallback = DCMI_DMAError;
 574:Libraries/STM32F4xx_HAL_Driver/Src/stm32f4xx_hal_dcmi.c **** 
 575:Libraries/STM32F4xx_HAL_Driver/Src/stm32f4xx_hal_dcmi.c ****     /* Abort the DMA Transfer */
 576:Libraries/STM32F4xx_HAL_Driver/Src/stm32f4xx_hal_dcmi.c ****     HAL_DMA_Abort_IT(hdcmi->DMA_Handle);
 577:Libraries/STM32F4xx_HAL_Driver/Src/stm32f4xx_hal_dcmi.c ****   }
 578:Libraries/STM32F4xx_HAL_Driver/Src/stm32f4xx_hal_dcmi.c ****   /* Overflow interrupt management ********************************************/
 579:Libraries/STM32F4xx_HAL_Driver/Src/stm32f4xx_hal_dcmi.c ****   if((isr_value & DCMI_FLAG_OVRRI) == DCMI_FLAG_OVRRI)
 580:Libraries/STM32F4xx_HAL_Driver/Src/stm32f4xx_hal_dcmi.c ****   {
 581:Libraries/STM32F4xx_HAL_Driver/Src/stm32f4xx_hal_dcmi.c ****     /* Clear the Overflow flag */
 582:Libraries/STM32F4xx_HAL_Driver/Src/stm32f4xx_hal_dcmi.c ****     __HAL_DCMI_CLEAR_FLAG(hdcmi, DCMI_FLAG_OVRRI);
 583:Libraries/STM32F4xx_HAL_Driver/Src/stm32f4xx_hal_dcmi.c **** 
 584:Libraries/STM32F4xx_HAL_Driver/Src/stm32f4xx_hal_dcmi.c ****     /* Update error code */
 585:Libraries/STM32F4xx_HAL_Driver/Src/stm32f4xx_hal_dcmi.c ****     hdcmi->ErrorCode |= HAL_DCMI_ERROR_OVR;
 586:Libraries/STM32F4xx_HAL_Driver/Src/stm32f4xx_hal_dcmi.c **** 
 587:Libraries/STM32F4xx_HAL_Driver/Src/stm32f4xx_hal_dcmi.c ****     /* Change DCMI state */
 588:Libraries/STM32F4xx_HAL_Driver/Src/stm32f4xx_hal_dcmi.c ****     hdcmi->State = HAL_DCMI_STATE_ERROR;
 589:Libraries/STM32F4xx_HAL_Driver/Src/stm32f4xx_hal_dcmi.c ****     
 590:Libraries/STM32F4xx_HAL_Driver/Src/stm32f4xx_hal_dcmi.c ****     /* Set the overflow callback */
 591:Libraries/STM32F4xx_HAL_Driver/Src/stm32f4xx_hal_dcmi.c ****     hdcmi->DMA_Handle->XferAbortCallback = DCMI_DMAError;
 592:Libraries/STM32F4xx_HAL_Driver/Src/stm32f4xx_hal_dcmi.c **** 
 593:Libraries/STM32F4xx_HAL_Driver/Src/stm32f4xx_hal_dcmi.c ****     /* Abort the DMA Transfer */
 594:Libraries/STM32F4xx_HAL_Driver/Src/stm32f4xx_hal_dcmi.c ****     HAL_DMA_Abort_IT(hdcmi->DMA_Handle);
 595:Libraries/STM32F4xx_HAL_Driver/Src/stm32f4xx_hal_dcmi.c ****   }
 596:Libraries/STM32F4xx_HAL_Driver/Src/stm32f4xx_hal_dcmi.c ****   /* Line Interrupt management ************************************************/
 597:Libraries/STM32F4xx_HAL_Driver/Src/stm32f4xx_hal_dcmi.c ****   if((isr_value & DCMI_FLAG_LINERI) == DCMI_FLAG_LINERI)
 598:Libraries/STM32F4xx_HAL_Driver/Src/stm32f4xx_hal_dcmi.c ****   {
 599:Libraries/STM32F4xx_HAL_Driver/Src/stm32f4xx_hal_dcmi.c ****     /* Clear the Line interrupt flag */
 600:Libraries/STM32F4xx_HAL_Driver/Src/stm32f4xx_hal_dcmi.c ****     __HAL_DCMI_CLEAR_FLAG(hdcmi, DCMI_FLAG_LINERI);
 601:Libraries/STM32F4xx_HAL_Driver/Src/stm32f4xx_hal_dcmi.c ****     
 602:Libraries/STM32F4xx_HAL_Driver/Src/stm32f4xx_hal_dcmi.c ****     /* Line interrupt Callback */
ARM GAS  C:\Users\yzy\AppData\Local\Temp\ccovssh5.s 			page 12


 603:Libraries/STM32F4xx_HAL_Driver/Src/stm32f4xx_hal_dcmi.c **** #if (USE_HAL_DCMI_REGISTER_CALLBACKS == 1)
 604:Libraries/STM32F4xx_HAL_Driver/Src/stm32f4xx_hal_dcmi.c ****     /*Call registered DCMI line event callback*/
 605:Libraries/STM32F4xx_HAL_Driver/Src/stm32f4xx_hal_dcmi.c ****     hdcmi->LineEventCallback(hdcmi);
 606:Libraries/STM32F4xx_HAL_Driver/Src/stm32f4xx_hal_dcmi.c **** #else  
 607:Libraries/STM32F4xx_HAL_Driver/Src/stm32f4xx_hal_dcmi.c ****     HAL_DCMI_LineEventCallback(hdcmi);
 608:Libraries/STM32F4xx_HAL_Driver/Src/stm32f4xx_hal_dcmi.c **** #endif /* USE_HAL_DCMI_REGISTER_CALLBACKS */     
 609:Libraries/STM32F4xx_HAL_Driver/Src/stm32f4xx_hal_dcmi.c ****   }
 610:Libraries/STM32F4xx_HAL_Driver/Src/stm32f4xx_hal_dcmi.c ****   /* VSYNC interrupt management ***********************************************/
 611:Libraries/STM32F4xx_HAL_Driver/Src/stm32f4xx_hal_dcmi.c ****   if((isr_value & DCMI_FLAG_VSYNCRI) == DCMI_FLAG_VSYNCRI)
 612:Libraries/STM32F4xx_HAL_Driver/Src/stm32f4xx_hal_dcmi.c ****   {
 613:Libraries/STM32F4xx_HAL_Driver/Src/stm32f4xx_hal_dcmi.c ****     /* Clear the VSYNC flag */
 614:Libraries/STM32F4xx_HAL_Driver/Src/stm32f4xx_hal_dcmi.c ****     __HAL_DCMI_CLEAR_FLAG(hdcmi, DCMI_FLAG_VSYNCRI);
 615:Libraries/STM32F4xx_HAL_Driver/Src/stm32f4xx_hal_dcmi.c ****     
 616:Libraries/STM32F4xx_HAL_Driver/Src/stm32f4xx_hal_dcmi.c ****     /* VSYNC Callback */
 617:Libraries/STM32F4xx_HAL_Driver/Src/stm32f4xx_hal_dcmi.c **** #if (USE_HAL_DCMI_REGISTER_CALLBACKS == 1)
 618:Libraries/STM32F4xx_HAL_Driver/Src/stm32f4xx_hal_dcmi.c ****     /*Call registered DCMI vsync event callback*/
 619:Libraries/STM32F4xx_HAL_Driver/Src/stm32f4xx_hal_dcmi.c ****     hdcmi->VsyncEventCallback(hdcmi);
 620:Libraries/STM32F4xx_HAL_Driver/Src/stm32f4xx_hal_dcmi.c **** #else  
 621:Libraries/STM32F4xx_HAL_Driver/Src/stm32f4xx_hal_dcmi.c ****     HAL_DCMI_VsyncEventCallback(hdcmi);
 622:Libraries/STM32F4xx_HAL_Driver/Src/stm32f4xx_hal_dcmi.c **** #endif /* USE_HAL_DCMI_REGISTER_CALLBACKS */ 
 623:Libraries/STM32F4xx_HAL_Driver/Src/stm32f4xx_hal_dcmi.c ****   }
 624:Libraries/STM32F4xx_HAL_Driver/Src/stm32f4xx_hal_dcmi.c ****   /* FRAME interrupt management ***********************************************/
 625:Libraries/STM32F4xx_HAL_Driver/Src/stm32f4xx_hal_dcmi.c ****   if((isr_value & DCMI_FLAG_FRAMERI) == DCMI_FLAG_FRAMERI)
 626:Libraries/STM32F4xx_HAL_Driver/Src/stm32f4xx_hal_dcmi.c ****   {
 627:Libraries/STM32F4xx_HAL_Driver/Src/stm32f4xx_hal_dcmi.c ****     /* When snapshot mode, disable Vsync, Error and Overrun interrupts */
 628:Libraries/STM32F4xx_HAL_Driver/Src/stm32f4xx_hal_dcmi.c ****     if((hdcmi->Instance->CR & DCMI_CR_CM) == DCMI_MODE_SNAPSHOT)
 629:Libraries/STM32F4xx_HAL_Driver/Src/stm32f4xx_hal_dcmi.c ****     { 
 630:Libraries/STM32F4xx_HAL_Driver/Src/stm32f4xx_hal_dcmi.c ****       /* Disable the Line, Vsync, Error and Overrun interrupts */
 631:Libraries/STM32F4xx_HAL_Driver/Src/stm32f4xx_hal_dcmi.c ****       __HAL_DCMI_DISABLE_IT(hdcmi, DCMI_IT_LINE | DCMI_IT_VSYNC | DCMI_IT_ERR | DCMI_IT_OVR);
 632:Libraries/STM32F4xx_HAL_Driver/Src/stm32f4xx_hal_dcmi.c ****     }
 633:Libraries/STM32F4xx_HAL_Driver/Src/stm32f4xx_hal_dcmi.c **** 
 634:Libraries/STM32F4xx_HAL_Driver/Src/stm32f4xx_hal_dcmi.c ****     /* Disable the Frame interrupt */
 635:Libraries/STM32F4xx_HAL_Driver/Src/stm32f4xx_hal_dcmi.c ****     __HAL_DCMI_DISABLE_IT(hdcmi, DCMI_IT_FRAME);
 636:Libraries/STM32F4xx_HAL_Driver/Src/stm32f4xx_hal_dcmi.c **** 
 637:Libraries/STM32F4xx_HAL_Driver/Src/stm32f4xx_hal_dcmi.c ****     /* Frame Callback */
 638:Libraries/STM32F4xx_HAL_Driver/Src/stm32f4xx_hal_dcmi.c **** #if (USE_HAL_DCMI_REGISTER_CALLBACKS == 1)
 639:Libraries/STM32F4xx_HAL_Driver/Src/stm32f4xx_hal_dcmi.c ****     /*Call registered DCMI frame event callback*/
 640:Libraries/STM32F4xx_HAL_Driver/Src/stm32f4xx_hal_dcmi.c ****     hdcmi->FrameEventCallback(hdcmi);
 641:Libraries/STM32F4xx_HAL_Driver/Src/stm32f4xx_hal_dcmi.c **** #else  
 642:Libraries/STM32F4xx_HAL_Driver/Src/stm32f4xx_hal_dcmi.c ****     HAL_DCMI_FrameEventCallback(hdcmi);
 643:Libraries/STM32F4xx_HAL_Driver/Src/stm32f4xx_hal_dcmi.c **** #endif /* USE_HAL_DCMI_REGISTER_CALLBACKS */      
 644:Libraries/STM32F4xx_HAL_Driver/Src/stm32f4xx_hal_dcmi.c ****   }
 645:Libraries/STM32F4xx_HAL_Driver/Src/stm32f4xx_hal_dcmi.c **** }
 646:Libraries/STM32F4xx_HAL_Driver/Src/stm32f4xx_hal_dcmi.c **** 
 647:Libraries/STM32F4xx_HAL_Driver/Src/stm32f4xx_hal_dcmi.c **** /**
 648:Libraries/STM32F4xx_HAL_Driver/Src/stm32f4xx_hal_dcmi.c ****   * @brief  Error DCMI callback.
 649:Libraries/STM32F4xx_HAL_Driver/Src/stm32f4xx_hal_dcmi.c ****   * @param  hdcmi pointer to a DCMI_HandleTypeDef structure that contains
 650:Libraries/STM32F4xx_HAL_Driver/Src/stm32f4xx_hal_dcmi.c ****   *                the configuration information for DCMI.
 651:Libraries/STM32F4xx_HAL_Driver/Src/stm32f4xx_hal_dcmi.c ****   * @retval None
 652:Libraries/STM32F4xx_HAL_Driver/Src/stm32f4xx_hal_dcmi.c ****   */
 653:Libraries/STM32F4xx_HAL_Driver/Src/stm32f4xx_hal_dcmi.c **** __weak void HAL_DCMI_ErrorCallback(DCMI_HandleTypeDef *hdcmi)
 654:Libraries/STM32F4xx_HAL_Driver/Src/stm32f4xx_hal_dcmi.c **** {
 655:Libraries/STM32F4xx_HAL_Driver/Src/stm32f4xx_hal_dcmi.c ****   /* Prevent unused argument(s) compilation warning */
 656:Libraries/STM32F4xx_HAL_Driver/Src/stm32f4xx_hal_dcmi.c ****   UNUSED(hdcmi);
 657:Libraries/STM32F4xx_HAL_Driver/Src/stm32f4xx_hal_dcmi.c ****   /* NOTE : This function Should not be modified, when the callback is needed,
 658:Libraries/STM32F4xx_HAL_Driver/Src/stm32f4xx_hal_dcmi.c ****             the HAL_DCMI_ErrorCallback could be implemented in the user file
 659:Libraries/STM32F4xx_HAL_Driver/Src/stm32f4xx_hal_dcmi.c ****    */
ARM GAS  C:\Users\yzy\AppData\Local\Temp\ccovssh5.s 			page 13


 660:Libraries/STM32F4xx_HAL_Driver/Src/stm32f4xx_hal_dcmi.c **** }
 661:Libraries/STM32F4xx_HAL_Driver/Src/stm32f4xx_hal_dcmi.c **** 
 662:Libraries/STM32F4xx_HAL_Driver/Src/stm32f4xx_hal_dcmi.c **** /**
 663:Libraries/STM32F4xx_HAL_Driver/Src/stm32f4xx_hal_dcmi.c ****   * @brief  Line Event callback.
 664:Libraries/STM32F4xx_HAL_Driver/Src/stm32f4xx_hal_dcmi.c ****   * @param  hdcmi pointer to a DCMI_HandleTypeDef structure that contains
 665:Libraries/STM32F4xx_HAL_Driver/Src/stm32f4xx_hal_dcmi.c ****   *                the configuration information for DCMI.
 666:Libraries/STM32F4xx_HAL_Driver/Src/stm32f4xx_hal_dcmi.c ****   * @retval None
 667:Libraries/STM32F4xx_HAL_Driver/Src/stm32f4xx_hal_dcmi.c ****   */
 668:Libraries/STM32F4xx_HAL_Driver/Src/stm32f4xx_hal_dcmi.c **** __weak void HAL_DCMI_LineEventCallback(DCMI_HandleTypeDef *hdcmi)
 669:Libraries/STM32F4xx_HAL_Driver/Src/stm32f4xx_hal_dcmi.c **** {
 670:Libraries/STM32F4xx_HAL_Driver/Src/stm32f4xx_hal_dcmi.c ****   /* Prevent unused argument(s) compilation warning */
 671:Libraries/STM32F4xx_HAL_Driver/Src/stm32f4xx_hal_dcmi.c ****   UNUSED(hdcmi);
 672:Libraries/STM32F4xx_HAL_Driver/Src/stm32f4xx_hal_dcmi.c ****   /* NOTE : This function Should not be modified, when the callback is needed,
 673:Libraries/STM32F4xx_HAL_Driver/Src/stm32f4xx_hal_dcmi.c ****             the HAL_DCMI_LineEventCallback could be implemented in the user file
 674:Libraries/STM32F4xx_HAL_Driver/Src/stm32f4xx_hal_dcmi.c ****    */
 675:Libraries/STM32F4xx_HAL_Driver/Src/stm32f4xx_hal_dcmi.c **** }
 676:Libraries/STM32F4xx_HAL_Driver/Src/stm32f4xx_hal_dcmi.c **** 
 677:Libraries/STM32F4xx_HAL_Driver/Src/stm32f4xx_hal_dcmi.c **** /**
 678:Libraries/STM32F4xx_HAL_Driver/Src/stm32f4xx_hal_dcmi.c ****   * @brief  VSYNC Event callback.
 679:Libraries/STM32F4xx_HAL_Driver/Src/stm32f4xx_hal_dcmi.c ****   * @param  hdcmi pointer to a DCMI_HandleTypeDef structure that contains
 680:Libraries/STM32F4xx_HAL_Driver/Src/stm32f4xx_hal_dcmi.c ****   *                the configuration information for DCMI.
 681:Libraries/STM32F4xx_HAL_Driver/Src/stm32f4xx_hal_dcmi.c ****   * @retval None
 682:Libraries/STM32F4xx_HAL_Driver/Src/stm32f4xx_hal_dcmi.c ****   */
 683:Libraries/STM32F4xx_HAL_Driver/Src/stm32f4xx_hal_dcmi.c **** __weak void HAL_DCMI_VsyncEventCallback(DCMI_HandleTypeDef *hdcmi)
 684:Libraries/STM32F4xx_HAL_Driver/Src/stm32f4xx_hal_dcmi.c **** {
 685:Libraries/STM32F4xx_HAL_Driver/Src/stm32f4xx_hal_dcmi.c ****   /* Prevent unused argument(s) compilation warning */
 686:Libraries/STM32F4xx_HAL_Driver/Src/stm32f4xx_hal_dcmi.c ****   UNUSED(hdcmi);
 687:Libraries/STM32F4xx_HAL_Driver/Src/stm32f4xx_hal_dcmi.c ****   /* NOTE : This function Should not be modified, when the callback is needed,
 688:Libraries/STM32F4xx_HAL_Driver/Src/stm32f4xx_hal_dcmi.c ****             the HAL_DCMI_VsyncEventCallback could be implemented in the user file
 689:Libraries/STM32F4xx_HAL_Driver/Src/stm32f4xx_hal_dcmi.c ****    */
 690:Libraries/STM32F4xx_HAL_Driver/Src/stm32f4xx_hal_dcmi.c **** }
 691:Libraries/STM32F4xx_HAL_Driver/Src/stm32f4xx_hal_dcmi.c **** 
 692:Libraries/STM32F4xx_HAL_Driver/Src/stm32f4xx_hal_dcmi.c **** /**
 693:Libraries/STM32F4xx_HAL_Driver/Src/stm32f4xx_hal_dcmi.c ****   * @brief  Frame Event callback.
 694:Libraries/STM32F4xx_HAL_Driver/Src/stm32f4xx_hal_dcmi.c ****   * @param  hdcmi pointer to a DCMI_HandleTypeDef structure that contains
 695:Libraries/STM32F4xx_HAL_Driver/Src/stm32f4xx_hal_dcmi.c ****   *                the configuration information for DCMI.
 696:Libraries/STM32F4xx_HAL_Driver/Src/stm32f4xx_hal_dcmi.c ****   * @retval None
 697:Libraries/STM32F4xx_HAL_Driver/Src/stm32f4xx_hal_dcmi.c ****   */
 698:Libraries/STM32F4xx_HAL_Driver/Src/stm32f4xx_hal_dcmi.c **** __weak void HAL_DCMI_FrameEventCallback(DCMI_HandleTypeDef *hdcmi)
 699:Libraries/STM32F4xx_HAL_Driver/Src/stm32f4xx_hal_dcmi.c **** {
 700:Libraries/STM32F4xx_HAL_Driver/Src/stm32f4xx_hal_dcmi.c ****   /* Prevent unused argument(s) compilation warning */
 701:Libraries/STM32F4xx_HAL_Driver/Src/stm32f4xx_hal_dcmi.c ****   UNUSED(hdcmi);
 702:Libraries/STM32F4xx_HAL_Driver/Src/stm32f4xx_hal_dcmi.c ****   /* NOTE : This function Should not be modified, when the callback is needed,
 703:Libraries/STM32F4xx_HAL_Driver/Src/stm32f4xx_hal_dcmi.c ****             the HAL_DCMI_FrameEventCallback could be implemented in the user file
 704:Libraries/STM32F4xx_HAL_Driver/Src/stm32f4xx_hal_dcmi.c ****    */
 705:Libraries/STM32F4xx_HAL_Driver/Src/stm32f4xx_hal_dcmi.c **** }
 706:Libraries/STM32F4xx_HAL_Driver/Src/stm32f4xx_hal_dcmi.c **** 
 707:Libraries/STM32F4xx_HAL_Driver/Src/stm32f4xx_hal_dcmi.c **** /**
 708:Libraries/STM32F4xx_HAL_Driver/Src/stm32f4xx_hal_dcmi.c ****   * @}
 709:Libraries/STM32F4xx_HAL_Driver/Src/stm32f4xx_hal_dcmi.c ****   */
 710:Libraries/STM32F4xx_HAL_Driver/Src/stm32f4xx_hal_dcmi.c **** 
 711:Libraries/STM32F4xx_HAL_Driver/Src/stm32f4xx_hal_dcmi.c **** /** @defgroup DCMI_Exported_Functions_Group3 Peripheral Control functions
 712:Libraries/STM32F4xx_HAL_Driver/Src/stm32f4xx_hal_dcmi.c ****   *  @brief    Peripheral Control functions
 713:Libraries/STM32F4xx_HAL_Driver/Src/stm32f4xx_hal_dcmi.c ****   *
 714:Libraries/STM32F4xx_HAL_Driver/Src/stm32f4xx_hal_dcmi.c **** @verbatim
 715:Libraries/STM32F4xx_HAL_Driver/Src/stm32f4xx_hal_dcmi.c ****  ===============================================================================
 716:Libraries/STM32F4xx_HAL_Driver/Src/stm32f4xx_hal_dcmi.c ****                     ##### Peripheral Control functions #####
ARM GAS  C:\Users\yzy\AppData\Local\Temp\ccovssh5.s 			page 14


 717:Libraries/STM32F4xx_HAL_Driver/Src/stm32f4xx_hal_dcmi.c ****  ===============================================================================
 718:Libraries/STM32F4xx_HAL_Driver/Src/stm32f4xx_hal_dcmi.c **** [..]  This section provides functions allowing to:
 719:Libraries/STM32F4xx_HAL_Driver/Src/stm32f4xx_hal_dcmi.c ****       (+) Configure the CROP feature.
 720:Libraries/STM32F4xx_HAL_Driver/Src/stm32f4xx_hal_dcmi.c ****       (+) Enable/Disable the CROP feature.
 721:Libraries/STM32F4xx_HAL_Driver/Src/stm32f4xx_hal_dcmi.c **** 
 722:Libraries/STM32F4xx_HAL_Driver/Src/stm32f4xx_hal_dcmi.c **** @endverbatim
 723:Libraries/STM32F4xx_HAL_Driver/Src/stm32f4xx_hal_dcmi.c ****   * @{
 724:Libraries/STM32F4xx_HAL_Driver/Src/stm32f4xx_hal_dcmi.c ****   */
 725:Libraries/STM32F4xx_HAL_Driver/Src/stm32f4xx_hal_dcmi.c **** 
 726:Libraries/STM32F4xx_HAL_Driver/Src/stm32f4xx_hal_dcmi.c **** /**
 727:Libraries/STM32F4xx_HAL_Driver/Src/stm32f4xx_hal_dcmi.c ****   * @brief  Configure the DCMI CROP coordinate.
 728:Libraries/STM32F4xx_HAL_Driver/Src/stm32f4xx_hal_dcmi.c ****   * @param  hdcmi pointer to a DCMI_HandleTypeDef structure that contains
 729:Libraries/STM32F4xx_HAL_Driver/Src/stm32f4xx_hal_dcmi.c ****   *                the configuration information for DCMI.
 730:Libraries/STM32F4xx_HAL_Driver/Src/stm32f4xx_hal_dcmi.c ****   * @param  X0    DCMI window X offset
 731:Libraries/STM32F4xx_HAL_Driver/Src/stm32f4xx_hal_dcmi.c ****   * @param  Y0    DCMI window Y offset
 732:Libraries/STM32F4xx_HAL_Driver/Src/stm32f4xx_hal_dcmi.c ****   * @param  XSize DCMI Pixel per line
 733:Libraries/STM32F4xx_HAL_Driver/Src/stm32f4xx_hal_dcmi.c ****   * @param  YSize DCMI Line number
 734:Libraries/STM32F4xx_HAL_Driver/Src/stm32f4xx_hal_dcmi.c ****   * @retval HAL status
 735:Libraries/STM32F4xx_HAL_Driver/Src/stm32f4xx_hal_dcmi.c ****   */
 736:Libraries/STM32F4xx_HAL_Driver/Src/stm32f4xx_hal_dcmi.c **** HAL_StatusTypeDef HAL_DCMI_ConfigCrop(DCMI_HandleTypeDef *hdcmi, uint32_t X0, uint32_t Y0, uint32_t
 737:Libraries/STM32F4xx_HAL_Driver/Src/stm32f4xx_hal_dcmi.c **** {
 738:Libraries/STM32F4xx_HAL_Driver/Src/stm32f4xx_hal_dcmi.c ****   /* Process Locked */
 739:Libraries/STM32F4xx_HAL_Driver/Src/stm32f4xx_hal_dcmi.c ****   __HAL_LOCK(hdcmi);
 740:Libraries/STM32F4xx_HAL_Driver/Src/stm32f4xx_hal_dcmi.c **** 
 741:Libraries/STM32F4xx_HAL_Driver/Src/stm32f4xx_hal_dcmi.c ****   /* Lock the DCMI peripheral state */
 742:Libraries/STM32F4xx_HAL_Driver/Src/stm32f4xx_hal_dcmi.c ****   hdcmi->State = HAL_DCMI_STATE_BUSY;
 743:Libraries/STM32F4xx_HAL_Driver/Src/stm32f4xx_hal_dcmi.c **** 
 744:Libraries/STM32F4xx_HAL_Driver/Src/stm32f4xx_hal_dcmi.c ****   /* Check the parameters */
 745:Libraries/STM32F4xx_HAL_Driver/Src/stm32f4xx_hal_dcmi.c ****   assert_param(IS_DCMI_WINDOW_COORDINATE(X0));
 746:Libraries/STM32F4xx_HAL_Driver/Src/stm32f4xx_hal_dcmi.c ****   assert_param(IS_DCMI_WINDOW_COORDINATE(YSize));
 747:Libraries/STM32F4xx_HAL_Driver/Src/stm32f4xx_hal_dcmi.c ****   assert_param(IS_DCMI_WINDOW_COORDINATE(XSize));
 748:Libraries/STM32F4xx_HAL_Driver/Src/stm32f4xx_hal_dcmi.c ****   assert_param(IS_DCMI_WINDOW_HEIGHT(Y0));
 749:Libraries/STM32F4xx_HAL_Driver/Src/stm32f4xx_hal_dcmi.c **** 
 750:Libraries/STM32F4xx_HAL_Driver/Src/stm32f4xx_hal_dcmi.c ****   /* Configure CROP */
 751:Libraries/STM32F4xx_HAL_Driver/Src/stm32f4xx_hal_dcmi.c ****   hdcmi->Instance->CWSIZER = (XSize | (YSize << DCMI_POSITION_CWSIZE_VLINE));
 752:Libraries/STM32F4xx_HAL_Driver/Src/stm32f4xx_hal_dcmi.c ****   hdcmi->Instance->CWSTRTR = (X0 | (Y0 << DCMI_POSITION_CWSTRT_VST));
 753:Libraries/STM32F4xx_HAL_Driver/Src/stm32f4xx_hal_dcmi.c **** 
 754:Libraries/STM32F4xx_HAL_Driver/Src/stm32f4xx_hal_dcmi.c ****   /* Initialize the DCMI state*/
 755:Libraries/STM32F4xx_HAL_Driver/Src/stm32f4xx_hal_dcmi.c ****   hdcmi->State  = HAL_DCMI_STATE_READY;
 756:Libraries/STM32F4xx_HAL_Driver/Src/stm32f4xx_hal_dcmi.c **** 
 757:Libraries/STM32F4xx_HAL_Driver/Src/stm32f4xx_hal_dcmi.c ****   /* Process Unlocked */
 758:Libraries/STM32F4xx_HAL_Driver/Src/stm32f4xx_hal_dcmi.c ****   __HAL_UNLOCK(hdcmi);
 759:Libraries/STM32F4xx_HAL_Driver/Src/stm32f4xx_hal_dcmi.c **** 
 760:Libraries/STM32F4xx_HAL_Driver/Src/stm32f4xx_hal_dcmi.c ****   return HAL_OK;
 761:Libraries/STM32F4xx_HAL_Driver/Src/stm32f4xx_hal_dcmi.c **** }
 762:Libraries/STM32F4xx_HAL_Driver/Src/stm32f4xx_hal_dcmi.c **** 
 763:Libraries/STM32F4xx_HAL_Driver/Src/stm32f4xx_hal_dcmi.c **** /**
 764:Libraries/STM32F4xx_HAL_Driver/Src/stm32f4xx_hal_dcmi.c ****   * @brief  Disable the Crop feature.
 765:Libraries/STM32F4xx_HAL_Driver/Src/stm32f4xx_hal_dcmi.c ****   * @param  hdcmi pointer to a DCMI_HandleTypeDef structure that contains
 766:Libraries/STM32F4xx_HAL_Driver/Src/stm32f4xx_hal_dcmi.c ****   *                the configuration information for DCMI.
 767:Libraries/STM32F4xx_HAL_Driver/Src/stm32f4xx_hal_dcmi.c ****   * @retval HAL status
 768:Libraries/STM32F4xx_HAL_Driver/Src/stm32f4xx_hal_dcmi.c ****   */
 769:Libraries/STM32F4xx_HAL_Driver/Src/stm32f4xx_hal_dcmi.c **** HAL_StatusTypeDef HAL_DCMI_DisableCrop(DCMI_HandleTypeDef *hdcmi)
 770:Libraries/STM32F4xx_HAL_Driver/Src/stm32f4xx_hal_dcmi.c **** {
 771:Libraries/STM32F4xx_HAL_Driver/Src/stm32f4xx_hal_dcmi.c ****   /* Process Locked */
 772:Libraries/STM32F4xx_HAL_Driver/Src/stm32f4xx_hal_dcmi.c ****   __HAL_LOCK(hdcmi);
 773:Libraries/STM32F4xx_HAL_Driver/Src/stm32f4xx_hal_dcmi.c **** 
ARM GAS  C:\Users\yzy\AppData\Local\Temp\ccovssh5.s 			page 15


 774:Libraries/STM32F4xx_HAL_Driver/Src/stm32f4xx_hal_dcmi.c ****   /* Lock the DCMI peripheral state */
 775:Libraries/STM32F4xx_HAL_Driver/Src/stm32f4xx_hal_dcmi.c ****   hdcmi->State = HAL_DCMI_STATE_BUSY;
 776:Libraries/STM32F4xx_HAL_Driver/Src/stm32f4xx_hal_dcmi.c **** 
 777:Libraries/STM32F4xx_HAL_Driver/Src/stm32f4xx_hal_dcmi.c ****   /* Disable DCMI Crop feature */
 778:Libraries/STM32F4xx_HAL_Driver/Src/stm32f4xx_hal_dcmi.c ****   hdcmi->Instance->CR &= ~(uint32_t)DCMI_CR_CROP;
 779:Libraries/STM32F4xx_HAL_Driver/Src/stm32f4xx_hal_dcmi.c **** 
 780:Libraries/STM32F4xx_HAL_Driver/Src/stm32f4xx_hal_dcmi.c ****   /* Change the DCMI state*/
 781:Libraries/STM32F4xx_HAL_Driver/Src/stm32f4xx_hal_dcmi.c ****   hdcmi->State = HAL_DCMI_STATE_READY;
 782:Libraries/STM32F4xx_HAL_Driver/Src/stm32f4xx_hal_dcmi.c **** 
 783:Libraries/STM32F4xx_HAL_Driver/Src/stm32f4xx_hal_dcmi.c ****   /* Process Unlocked */
 784:Libraries/STM32F4xx_HAL_Driver/Src/stm32f4xx_hal_dcmi.c ****   __HAL_UNLOCK(hdcmi);
 785:Libraries/STM32F4xx_HAL_Driver/Src/stm32f4xx_hal_dcmi.c **** 
 786:Libraries/STM32F4xx_HAL_Driver/Src/stm32f4xx_hal_dcmi.c ****   return HAL_OK;
 787:Libraries/STM32F4xx_HAL_Driver/Src/stm32f4xx_hal_dcmi.c **** }
 788:Libraries/STM32F4xx_HAL_Driver/Src/stm32f4xx_hal_dcmi.c **** 
 789:Libraries/STM32F4xx_HAL_Driver/Src/stm32f4xx_hal_dcmi.c **** /**
 790:Libraries/STM32F4xx_HAL_Driver/Src/stm32f4xx_hal_dcmi.c ****   * @brief  Enable the Crop feature.
 791:Libraries/STM32F4xx_HAL_Driver/Src/stm32f4xx_hal_dcmi.c ****   * @param  hdcmi pointer to a DCMI_HandleTypeDef structure that contains
 792:Libraries/STM32F4xx_HAL_Driver/Src/stm32f4xx_hal_dcmi.c ****   *                the configuration information for DCMI.
 793:Libraries/STM32F4xx_HAL_Driver/Src/stm32f4xx_hal_dcmi.c ****   * @retval HAL status
 794:Libraries/STM32F4xx_HAL_Driver/Src/stm32f4xx_hal_dcmi.c ****   */
 795:Libraries/STM32F4xx_HAL_Driver/Src/stm32f4xx_hal_dcmi.c **** HAL_StatusTypeDef HAL_DCMI_EnableCrop(DCMI_HandleTypeDef *hdcmi)
 796:Libraries/STM32F4xx_HAL_Driver/Src/stm32f4xx_hal_dcmi.c **** {
 797:Libraries/STM32F4xx_HAL_Driver/Src/stm32f4xx_hal_dcmi.c ****   /* Process Locked */
 798:Libraries/STM32F4xx_HAL_Driver/Src/stm32f4xx_hal_dcmi.c ****   __HAL_LOCK(hdcmi);
 799:Libraries/STM32F4xx_HAL_Driver/Src/stm32f4xx_hal_dcmi.c **** 
 800:Libraries/STM32F4xx_HAL_Driver/Src/stm32f4xx_hal_dcmi.c ****   /* Lock the DCMI peripheral state */
 801:Libraries/STM32F4xx_HAL_Driver/Src/stm32f4xx_hal_dcmi.c ****   hdcmi->State = HAL_DCMI_STATE_BUSY;
 802:Libraries/STM32F4xx_HAL_Driver/Src/stm32f4xx_hal_dcmi.c **** 
 803:Libraries/STM32F4xx_HAL_Driver/Src/stm32f4xx_hal_dcmi.c ****   /* Enable DCMI Crop feature */
 804:Libraries/STM32F4xx_HAL_Driver/Src/stm32f4xx_hal_dcmi.c ****   hdcmi->Instance->CR |= (uint32_t)DCMI_CR_CROP;
 805:Libraries/STM32F4xx_HAL_Driver/Src/stm32f4xx_hal_dcmi.c **** 
 806:Libraries/STM32F4xx_HAL_Driver/Src/stm32f4xx_hal_dcmi.c ****   /* Change the DCMI state*/
 807:Libraries/STM32F4xx_HAL_Driver/Src/stm32f4xx_hal_dcmi.c ****   hdcmi->State = HAL_DCMI_STATE_READY;
 808:Libraries/STM32F4xx_HAL_Driver/Src/stm32f4xx_hal_dcmi.c **** 
 809:Libraries/STM32F4xx_HAL_Driver/Src/stm32f4xx_hal_dcmi.c ****   /* Process Unlocked */
 810:Libraries/STM32F4xx_HAL_Driver/Src/stm32f4xx_hal_dcmi.c ****   __HAL_UNLOCK(hdcmi);
 811:Libraries/STM32F4xx_HAL_Driver/Src/stm32f4xx_hal_dcmi.c **** 
 812:Libraries/STM32F4xx_HAL_Driver/Src/stm32f4xx_hal_dcmi.c ****   return HAL_OK;
 813:Libraries/STM32F4xx_HAL_Driver/Src/stm32f4xx_hal_dcmi.c **** }
 814:Libraries/STM32F4xx_HAL_Driver/Src/stm32f4xx_hal_dcmi.c **** 
 815:Libraries/STM32F4xx_HAL_Driver/Src/stm32f4xx_hal_dcmi.c **** /**
 816:Libraries/STM32F4xx_HAL_Driver/Src/stm32f4xx_hal_dcmi.c ****   * @brief  Set embedded synchronization delimiters unmasks.
 817:Libraries/STM32F4xx_HAL_Driver/Src/stm32f4xx_hal_dcmi.c ****   * @param  hdcmi pointer to a DCMI_HandleTypeDef structure that contains
 818:Libraries/STM32F4xx_HAL_Driver/Src/stm32f4xx_hal_dcmi.c ****   *               the configuration information for DCMI.
 819:Libraries/STM32F4xx_HAL_Driver/Src/stm32f4xx_hal_dcmi.c ****   * @param  SyncUnmask pointer to a DCMI_SyncUnmaskTypeDef structure that contains
 820:Libraries/STM32F4xx_HAL_Driver/Src/stm32f4xx_hal_dcmi.c ****   *                    the embedded synchronization delimiters unmasks.
 821:Libraries/STM32F4xx_HAL_Driver/Src/stm32f4xx_hal_dcmi.c ****   * @retval HAL status
 822:Libraries/STM32F4xx_HAL_Driver/Src/stm32f4xx_hal_dcmi.c ****   */
 823:Libraries/STM32F4xx_HAL_Driver/Src/stm32f4xx_hal_dcmi.c **** HAL_StatusTypeDef  HAL_DCMI_ConfigSyncUnmask(DCMI_HandleTypeDef *hdcmi, DCMI_SyncUnmaskTypeDef *Syn
 824:Libraries/STM32F4xx_HAL_Driver/Src/stm32f4xx_hal_dcmi.c **** {
 825:Libraries/STM32F4xx_HAL_Driver/Src/stm32f4xx_hal_dcmi.c ****   /* Process Locked */
 826:Libraries/STM32F4xx_HAL_Driver/Src/stm32f4xx_hal_dcmi.c ****   __HAL_LOCK(hdcmi);
 827:Libraries/STM32F4xx_HAL_Driver/Src/stm32f4xx_hal_dcmi.c **** 
 828:Libraries/STM32F4xx_HAL_Driver/Src/stm32f4xx_hal_dcmi.c ****   /* Lock the DCMI peripheral state */
 829:Libraries/STM32F4xx_HAL_Driver/Src/stm32f4xx_hal_dcmi.c ****   hdcmi->State = HAL_DCMI_STATE_BUSY;
 830:Libraries/STM32F4xx_HAL_Driver/Src/stm32f4xx_hal_dcmi.c **** 
ARM GAS  C:\Users\yzy\AppData\Local\Temp\ccovssh5.s 			page 16


 831:Libraries/STM32F4xx_HAL_Driver/Src/stm32f4xx_hal_dcmi.c ****   /* Write DCMI embedded synchronization unmask register */
 832:Libraries/STM32F4xx_HAL_Driver/Src/stm32f4xx_hal_dcmi.c ****   hdcmi->Instance->ESUR = (((uint32_t)SyncUnmask->FrameStartUnmask) |\
 833:Libraries/STM32F4xx_HAL_Driver/Src/stm32f4xx_hal_dcmi.c ****                            ((uint32_t)SyncUnmask->LineStartUnmask << DCMI_ESUR_LSU_Pos)|\
 834:Libraries/STM32F4xx_HAL_Driver/Src/stm32f4xx_hal_dcmi.c ****                            ((uint32_t)SyncUnmask->LineEndUnmask << DCMI_ESUR_LEU_Pos)|\
 835:Libraries/STM32F4xx_HAL_Driver/Src/stm32f4xx_hal_dcmi.c ****                            ((uint32_t)SyncUnmask->FrameEndUnmask << DCMI_ESUR_FEU_Pos));
 836:Libraries/STM32F4xx_HAL_Driver/Src/stm32f4xx_hal_dcmi.c **** 
 837:Libraries/STM32F4xx_HAL_Driver/Src/stm32f4xx_hal_dcmi.c ****   /* Change the DCMI state*/
 838:Libraries/STM32F4xx_HAL_Driver/Src/stm32f4xx_hal_dcmi.c ****   hdcmi->State = HAL_DCMI_STATE_READY;
 839:Libraries/STM32F4xx_HAL_Driver/Src/stm32f4xx_hal_dcmi.c **** 
 840:Libraries/STM32F4xx_HAL_Driver/Src/stm32f4xx_hal_dcmi.c ****   /* Process Unlocked */
 841:Libraries/STM32F4xx_HAL_Driver/Src/stm32f4xx_hal_dcmi.c ****   __HAL_UNLOCK(hdcmi);
 842:Libraries/STM32F4xx_HAL_Driver/Src/stm32f4xx_hal_dcmi.c **** 
 843:Libraries/STM32F4xx_HAL_Driver/Src/stm32f4xx_hal_dcmi.c ****   return HAL_OK;
 844:Libraries/STM32F4xx_HAL_Driver/Src/stm32f4xx_hal_dcmi.c **** }
 845:Libraries/STM32F4xx_HAL_Driver/Src/stm32f4xx_hal_dcmi.c **** 
 846:Libraries/STM32F4xx_HAL_Driver/Src/stm32f4xx_hal_dcmi.c **** /**
 847:Libraries/STM32F4xx_HAL_Driver/Src/stm32f4xx_hal_dcmi.c ****   * @}
 848:Libraries/STM32F4xx_HAL_Driver/Src/stm32f4xx_hal_dcmi.c ****   */
 849:Libraries/STM32F4xx_HAL_Driver/Src/stm32f4xx_hal_dcmi.c **** 
 850:Libraries/STM32F4xx_HAL_Driver/Src/stm32f4xx_hal_dcmi.c **** /** @defgroup DCMI_Exported_Functions_Group4 Peripheral State functions
 851:Libraries/STM32F4xx_HAL_Driver/Src/stm32f4xx_hal_dcmi.c ****   *  @brief    Peripheral State functions
 852:Libraries/STM32F4xx_HAL_Driver/Src/stm32f4xx_hal_dcmi.c ****   *
 853:Libraries/STM32F4xx_HAL_Driver/Src/stm32f4xx_hal_dcmi.c **** @verbatim
 854:Libraries/STM32F4xx_HAL_Driver/Src/stm32f4xx_hal_dcmi.c ****  ===============================================================================
 855:Libraries/STM32F4xx_HAL_Driver/Src/stm32f4xx_hal_dcmi.c ****                ##### Peripheral State and Errors functions #####
 856:Libraries/STM32F4xx_HAL_Driver/Src/stm32f4xx_hal_dcmi.c ****  ===============================================================================
 857:Libraries/STM32F4xx_HAL_Driver/Src/stm32f4xx_hal_dcmi.c ****     [..]
 858:Libraries/STM32F4xx_HAL_Driver/Src/stm32f4xx_hal_dcmi.c ****     This subsection provides functions allowing to
 859:Libraries/STM32F4xx_HAL_Driver/Src/stm32f4xx_hal_dcmi.c ****       (+) Check the DCMI state.
 860:Libraries/STM32F4xx_HAL_Driver/Src/stm32f4xx_hal_dcmi.c ****       (+) Get the specific DCMI error flag.
 861:Libraries/STM32F4xx_HAL_Driver/Src/stm32f4xx_hal_dcmi.c **** 
 862:Libraries/STM32F4xx_HAL_Driver/Src/stm32f4xx_hal_dcmi.c **** @endverbatim
 863:Libraries/STM32F4xx_HAL_Driver/Src/stm32f4xx_hal_dcmi.c ****   * @{
 864:Libraries/STM32F4xx_HAL_Driver/Src/stm32f4xx_hal_dcmi.c ****   */ 
 865:Libraries/STM32F4xx_HAL_Driver/Src/stm32f4xx_hal_dcmi.c **** 
 866:Libraries/STM32F4xx_HAL_Driver/Src/stm32f4xx_hal_dcmi.c **** /**
 867:Libraries/STM32F4xx_HAL_Driver/Src/stm32f4xx_hal_dcmi.c ****   * @brief  Return the DCMI state
 868:Libraries/STM32F4xx_HAL_Driver/Src/stm32f4xx_hal_dcmi.c ****   * @param  hdcmi pointer to a DCMI_HandleTypeDef structure that contains
 869:Libraries/STM32F4xx_HAL_Driver/Src/stm32f4xx_hal_dcmi.c ****   *                the configuration information for DCMI.
 870:Libraries/STM32F4xx_HAL_Driver/Src/stm32f4xx_hal_dcmi.c ****   * @retval HAL state
 871:Libraries/STM32F4xx_HAL_Driver/Src/stm32f4xx_hal_dcmi.c ****   */
 872:Libraries/STM32F4xx_HAL_Driver/Src/stm32f4xx_hal_dcmi.c **** HAL_DCMI_StateTypeDef HAL_DCMI_GetState(DCMI_HandleTypeDef *hdcmi)
 873:Libraries/STM32F4xx_HAL_Driver/Src/stm32f4xx_hal_dcmi.c **** {
 874:Libraries/STM32F4xx_HAL_Driver/Src/stm32f4xx_hal_dcmi.c ****   return hdcmi->State;
 875:Libraries/STM32F4xx_HAL_Driver/Src/stm32f4xx_hal_dcmi.c **** }
 876:Libraries/STM32F4xx_HAL_Driver/Src/stm32f4xx_hal_dcmi.c **** 
 877:Libraries/STM32F4xx_HAL_Driver/Src/stm32f4xx_hal_dcmi.c **** /**
 878:Libraries/STM32F4xx_HAL_Driver/Src/stm32f4xx_hal_dcmi.c ****   * @brief  Return the DCMI error code
 879:Libraries/STM32F4xx_HAL_Driver/Src/stm32f4xx_hal_dcmi.c ****   * @param  hdcmi  pointer to a DCMI_HandleTypeDef structure that contains
 880:Libraries/STM32F4xx_HAL_Driver/Src/stm32f4xx_hal_dcmi.c ****   *               the configuration information for DCMI.
 881:Libraries/STM32F4xx_HAL_Driver/Src/stm32f4xx_hal_dcmi.c ****   * @retval DCMI Error Code
 882:Libraries/STM32F4xx_HAL_Driver/Src/stm32f4xx_hal_dcmi.c ****   */
 883:Libraries/STM32F4xx_HAL_Driver/Src/stm32f4xx_hal_dcmi.c **** uint32_t HAL_DCMI_GetError(DCMI_HandleTypeDef *hdcmi)
 884:Libraries/STM32F4xx_HAL_Driver/Src/stm32f4xx_hal_dcmi.c **** {
 885:Libraries/STM32F4xx_HAL_Driver/Src/stm32f4xx_hal_dcmi.c ****   return hdcmi->ErrorCode;
 886:Libraries/STM32F4xx_HAL_Driver/Src/stm32f4xx_hal_dcmi.c **** }
 887:Libraries/STM32F4xx_HAL_Driver/Src/stm32f4xx_hal_dcmi.c **** 
ARM GAS  C:\Users\yzy\AppData\Local\Temp\ccovssh5.s 			page 17


 888:Libraries/STM32F4xx_HAL_Driver/Src/stm32f4xx_hal_dcmi.c **** #if (USE_HAL_DCMI_REGISTER_CALLBACKS == 1)
 889:Libraries/STM32F4xx_HAL_Driver/Src/stm32f4xx_hal_dcmi.c **** /**
 890:Libraries/STM32F4xx_HAL_Driver/Src/stm32f4xx_hal_dcmi.c ****   * @brief DCMI Callback registering
 891:Libraries/STM32F4xx_HAL_Driver/Src/stm32f4xx_hal_dcmi.c ****   * @param hdcmi        pointer to a DCMI_HandleTypeDef structure that contains
 892:Libraries/STM32F4xx_HAL_Driver/Src/stm32f4xx_hal_dcmi.c ****   *                     the configuration information for DCMI.
 893:Libraries/STM32F4xx_HAL_Driver/Src/stm32f4xx_hal_dcmi.c ****   * @param CallbackID   dcmi Callback ID
 894:Libraries/STM32F4xx_HAL_Driver/Src/stm32f4xx_hal_dcmi.c ****   * @param pCallback    pointer to DCMI_CallbackTypeDef structure
 895:Libraries/STM32F4xx_HAL_Driver/Src/stm32f4xx_hal_dcmi.c ****   * @retval status
 896:Libraries/STM32F4xx_HAL_Driver/Src/stm32f4xx_hal_dcmi.c ****   */
 897:Libraries/STM32F4xx_HAL_Driver/Src/stm32f4xx_hal_dcmi.c **** HAL_StatusTypeDef HAL_DCMI_RegisterCallback(DCMI_HandleTypeDef *hdcmi, HAL_DCMI_CallbackIDTypeDef C
 898:Libraries/STM32F4xx_HAL_Driver/Src/stm32f4xx_hal_dcmi.c **** {
 899:Libraries/STM32F4xx_HAL_Driver/Src/stm32f4xx_hal_dcmi.c ****   HAL_StatusTypeDef status = HAL_OK;
 900:Libraries/STM32F4xx_HAL_Driver/Src/stm32f4xx_hal_dcmi.c ****   
 901:Libraries/STM32F4xx_HAL_Driver/Src/stm32f4xx_hal_dcmi.c ****   if(pCallback == NULL)
 902:Libraries/STM32F4xx_HAL_Driver/Src/stm32f4xx_hal_dcmi.c ****   {
 903:Libraries/STM32F4xx_HAL_Driver/Src/stm32f4xx_hal_dcmi.c ****     /* update the error code */
 904:Libraries/STM32F4xx_HAL_Driver/Src/stm32f4xx_hal_dcmi.c ****     hdcmi->ErrorCode |= HAL_DCMI_ERROR_INVALID_CALLBACK;  
 905:Libraries/STM32F4xx_HAL_Driver/Src/stm32f4xx_hal_dcmi.c ****     /* update return status */
 906:Libraries/STM32F4xx_HAL_Driver/Src/stm32f4xx_hal_dcmi.c ****     status = HAL_ERROR;
 907:Libraries/STM32F4xx_HAL_Driver/Src/stm32f4xx_hal_dcmi.c ****   }
 908:Libraries/STM32F4xx_HAL_Driver/Src/stm32f4xx_hal_dcmi.c ****   else
 909:Libraries/STM32F4xx_HAL_Driver/Src/stm32f4xx_hal_dcmi.c ****   {
 910:Libraries/STM32F4xx_HAL_Driver/Src/stm32f4xx_hal_dcmi.c ****     if(hdcmi->State == HAL_DCMI_STATE_READY)
 911:Libraries/STM32F4xx_HAL_Driver/Src/stm32f4xx_hal_dcmi.c ****     {
 912:Libraries/STM32F4xx_HAL_Driver/Src/stm32f4xx_hal_dcmi.c ****       switch (CallbackID)
 913:Libraries/STM32F4xx_HAL_Driver/Src/stm32f4xx_hal_dcmi.c ****       {
 914:Libraries/STM32F4xx_HAL_Driver/Src/stm32f4xx_hal_dcmi.c ****       case HAL_DCMI_FRAME_EVENT_CB_ID :
 915:Libraries/STM32F4xx_HAL_Driver/Src/stm32f4xx_hal_dcmi.c ****         hdcmi->FrameEventCallback = pCallback;
 916:Libraries/STM32F4xx_HAL_Driver/Src/stm32f4xx_hal_dcmi.c ****         break;
 917:Libraries/STM32F4xx_HAL_Driver/Src/stm32f4xx_hal_dcmi.c ****         
 918:Libraries/STM32F4xx_HAL_Driver/Src/stm32f4xx_hal_dcmi.c ****       case HAL_DCMI_VSYNC_EVENT_CB_ID :
 919:Libraries/STM32F4xx_HAL_Driver/Src/stm32f4xx_hal_dcmi.c ****         hdcmi->VsyncEventCallback = pCallback;
 920:Libraries/STM32F4xx_HAL_Driver/Src/stm32f4xx_hal_dcmi.c ****         break; 
 921:Libraries/STM32F4xx_HAL_Driver/Src/stm32f4xx_hal_dcmi.c ****         
 922:Libraries/STM32F4xx_HAL_Driver/Src/stm32f4xx_hal_dcmi.c ****       case HAL_DCMI_LINE_EVENT_CB_ID :
 923:Libraries/STM32F4xx_HAL_Driver/Src/stm32f4xx_hal_dcmi.c ****         hdcmi->LineEventCallback = pCallback;
 924:Libraries/STM32F4xx_HAL_Driver/Src/stm32f4xx_hal_dcmi.c ****         break;
 925:Libraries/STM32F4xx_HAL_Driver/Src/stm32f4xx_hal_dcmi.c ****         
 926:Libraries/STM32F4xx_HAL_Driver/Src/stm32f4xx_hal_dcmi.c ****       case HAL_DCMI_ERROR_CB_ID :
 927:Libraries/STM32F4xx_HAL_Driver/Src/stm32f4xx_hal_dcmi.c ****         hdcmi->ErrorCallback = pCallback;
 928:Libraries/STM32F4xx_HAL_Driver/Src/stm32f4xx_hal_dcmi.c ****         break;
 929:Libraries/STM32F4xx_HAL_Driver/Src/stm32f4xx_hal_dcmi.c ****         
 930:Libraries/STM32F4xx_HAL_Driver/Src/stm32f4xx_hal_dcmi.c ****       case HAL_DCMI_MSPINIT_CB_ID :
 931:Libraries/STM32F4xx_HAL_Driver/Src/stm32f4xx_hal_dcmi.c ****         hdcmi->MspInitCallback = pCallback;
 932:Libraries/STM32F4xx_HAL_Driver/Src/stm32f4xx_hal_dcmi.c ****         break;
 933:Libraries/STM32F4xx_HAL_Driver/Src/stm32f4xx_hal_dcmi.c ****         
 934:Libraries/STM32F4xx_HAL_Driver/Src/stm32f4xx_hal_dcmi.c ****       case HAL_DCMI_MSPDEINIT_CB_ID :
 935:Libraries/STM32F4xx_HAL_Driver/Src/stm32f4xx_hal_dcmi.c ****         hdcmi->MspDeInitCallback = pCallback;
 936:Libraries/STM32F4xx_HAL_Driver/Src/stm32f4xx_hal_dcmi.c ****         break;	  
 937:Libraries/STM32F4xx_HAL_Driver/Src/stm32f4xx_hal_dcmi.c ****         
 938:Libraries/STM32F4xx_HAL_Driver/Src/stm32f4xx_hal_dcmi.c ****       default : 
 939:Libraries/STM32F4xx_HAL_Driver/Src/stm32f4xx_hal_dcmi.c ****         /* Return error status */
 940:Libraries/STM32F4xx_HAL_Driver/Src/stm32f4xx_hal_dcmi.c ****         status =  HAL_ERROR;
 941:Libraries/STM32F4xx_HAL_Driver/Src/stm32f4xx_hal_dcmi.c ****         break;
 942:Libraries/STM32F4xx_HAL_Driver/Src/stm32f4xx_hal_dcmi.c ****       }
 943:Libraries/STM32F4xx_HAL_Driver/Src/stm32f4xx_hal_dcmi.c ****     }
 944:Libraries/STM32F4xx_HAL_Driver/Src/stm32f4xx_hal_dcmi.c ****     else if(hdcmi->State == HAL_DCMI_STATE_RESET)
ARM GAS  C:\Users\yzy\AppData\Local\Temp\ccovssh5.s 			page 18


 945:Libraries/STM32F4xx_HAL_Driver/Src/stm32f4xx_hal_dcmi.c ****     {
 946:Libraries/STM32F4xx_HAL_Driver/Src/stm32f4xx_hal_dcmi.c ****       switch (CallbackID)
 947:Libraries/STM32F4xx_HAL_Driver/Src/stm32f4xx_hal_dcmi.c ****       {
 948:Libraries/STM32F4xx_HAL_Driver/Src/stm32f4xx_hal_dcmi.c ****       case HAL_DCMI_MSPINIT_CB_ID :
 949:Libraries/STM32F4xx_HAL_Driver/Src/stm32f4xx_hal_dcmi.c ****         hdcmi->MspInitCallback = pCallback;
 950:Libraries/STM32F4xx_HAL_Driver/Src/stm32f4xx_hal_dcmi.c ****         break;
 951:Libraries/STM32F4xx_HAL_Driver/Src/stm32f4xx_hal_dcmi.c **** 
 952:Libraries/STM32F4xx_HAL_Driver/Src/stm32f4xx_hal_dcmi.c ****       case HAL_DCMI_MSPDEINIT_CB_ID :
 953:Libraries/STM32F4xx_HAL_Driver/Src/stm32f4xx_hal_dcmi.c ****         hdcmi->MspDeInitCallback = pCallback;
 954:Libraries/STM32F4xx_HAL_Driver/Src/stm32f4xx_hal_dcmi.c ****         break;	  
 955:Libraries/STM32F4xx_HAL_Driver/Src/stm32f4xx_hal_dcmi.c ****         
 956:Libraries/STM32F4xx_HAL_Driver/Src/stm32f4xx_hal_dcmi.c ****       default : 
 957:Libraries/STM32F4xx_HAL_Driver/Src/stm32f4xx_hal_dcmi.c ****         /* update the error code */
 958:Libraries/STM32F4xx_HAL_Driver/Src/stm32f4xx_hal_dcmi.c ****         hdcmi->ErrorCode |= HAL_DCMI_ERROR_INVALID_CALLBACK;
 959:Libraries/STM32F4xx_HAL_Driver/Src/stm32f4xx_hal_dcmi.c ****         /* update return status */
 960:Libraries/STM32F4xx_HAL_Driver/Src/stm32f4xx_hal_dcmi.c ****         status = HAL_ERROR;
 961:Libraries/STM32F4xx_HAL_Driver/Src/stm32f4xx_hal_dcmi.c ****         break;
 962:Libraries/STM32F4xx_HAL_Driver/Src/stm32f4xx_hal_dcmi.c ****       }		
 963:Libraries/STM32F4xx_HAL_Driver/Src/stm32f4xx_hal_dcmi.c ****     }  
 964:Libraries/STM32F4xx_HAL_Driver/Src/stm32f4xx_hal_dcmi.c ****     else
 965:Libraries/STM32F4xx_HAL_Driver/Src/stm32f4xx_hal_dcmi.c ****     {
 966:Libraries/STM32F4xx_HAL_Driver/Src/stm32f4xx_hal_dcmi.c ****       /* update the error code */
 967:Libraries/STM32F4xx_HAL_Driver/Src/stm32f4xx_hal_dcmi.c ****       hdcmi->ErrorCode |= HAL_DCMI_ERROR_INVALID_CALLBACK;
 968:Libraries/STM32F4xx_HAL_Driver/Src/stm32f4xx_hal_dcmi.c ****       /* update return status */
 969:Libraries/STM32F4xx_HAL_Driver/Src/stm32f4xx_hal_dcmi.c ****       status = HAL_ERROR;
 970:Libraries/STM32F4xx_HAL_Driver/Src/stm32f4xx_hal_dcmi.c ****     }
 971:Libraries/STM32F4xx_HAL_Driver/Src/stm32f4xx_hal_dcmi.c ****   }
 972:Libraries/STM32F4xx_HAL_Driver/Src/stm32f4xx_hal_dcmi.c ****   
 973:Libraries/STM32F4xx_HAL_Driver/Src/stm32f4xx_hal_dcmi.c ****   return status;
 974:Libraries/STM32F4xx_HAL_Driver/Src/stm32f4xx_hal_dcmi.c **** }
 975:Libraries/STM32F4xx_HAL_Driver/Src/stm32f4xx_hal_dcmi.c **** 
 976:Libraries/STM32F4xx_HAL_Driver/Src/stm32f4xx_hal_dcmi.c **** /**
 977:Libraries/STM32F4xx_HAL_Driver/Src/stm32f4xx_hal_dcmi.c ****   * @brief DCMI Callback Unregistering
 978:Libraries/STM32F4xx_HAL_Driver/Src/stm32f4xx_hal_dcmi.c ****   * @param hdcmi       dcmi handle
 979:Libraries/STM32F4xx_HAL_Driver/Src/stm32f4xx_hal_dcmi.c ****   * @param CallbackID  dcmi Callback ID
 980:Libraries/STM32F4xx_HAL_Driver/Src/stm32f4xx_hal_dcmi.c ****   * @retval status
 981:Libraries/STM32F4xx_HAL_Driver/Src/stm32f4xx_hal_dcmi.c ****   */
 982:Libraries/STM32F4xx_HAL_Driver/Src/stm32f4xx_hal_dcmi.c **** HAL_StatusTypeDef HAL_DCMI_UnRegisterCallback(DCMI_HandleTypeDef *hdcmi, HAL_DCMI_CallbackIDTypeDef
 983:Libraries/STM32F4xx_HAL_Driver/Src/stm32f4xx_hal_dcmi.c **** {
 984:Libraries/STM32F4xx_HAL_Driver/Src/stm32f4xx_hal_dcmi.c ****   HAL_StatusTypeDef status = HAL_OK;
 985:Libraries/STM32F4xx_HAL_Driver/Src/stm32f4xx_hal_dcmi.c ****   
 986:Libraries/STM32F4xx_HAL_Driver/Src/stm32f4xx_hal_dcmi.c ****   if(hdcmi->State == HAL_DCMI_STATE_READY)
 987:Libraries/STM32F4xx_HAL_Driver/Src/stm32f4xx_hal_dcmi.c ****   {
 988:Libraries/STM32F4xx_HAL_Driver/Src/stm32f4xx_hal_dcmi.c ****     switch (CallbackID)
 989:Libraries/STM32F4xx_HAL_Driver/Src/stm32f4xx_hal_dcmi.c ****     {
 990:Libraries/STM32F4xx_HAL_Driver/Src/stm32f4xx_hal_dcmi.c ****     case HAL_DCMI_FRAME_EVENT_CB_ID :
 991:Libraries/STM32F4xx_HAL_Driver/Src/stm32f4xx_hal_dcmi.c ****       hdcmi->FrameEventCallback = HAL_DCMI_FrameEventCallback;  /* Legacy weak  FrameEventCallback 
 992:Libraries/STM32F4xx_HAL_Driver/Src/stm32f4xx_hal_dcmi.c ****       break;
 993:Libraries/STM32F4xx_HAL_Driver/Src/stm32f4xx_hal_dcmi.c ****       
 994:Libraries/STM32F4xx_HAL_Driver/Src/stm32f4xx_hal_dcmi.c ****     case HAL_DCMI_VSYNC_EVENT_CB_ID :
 995:Libraries/STM32F4xx_HAL_Driver/Src/stm32f4xx_hal_dcmi.c ****       hdcmi->VsyncEventCallback = HAL_DCMI_VsyncEventCallback;  /* Legacy weak VsyncEventCallback  
 996:Libraries/STM32F4xx_HAL_Driver/Src/stm32f4xx_hal_dcmi.c ****       break;
 997:Libraries/STM32F4xx_HAL_Driver/Src/stm32f4xx_hal_dcmi.c ****       
 998:Libraries/STM32F4xx_HAL_Driver/Src/stm32f4xx_hal_dcmi.c ****     case HAL_DCMI_LINE_EVENT_CB_ID :
 999:Libraries/STM32F4xx_HAL_Driver/Src/stm32f4xx_hal_dcmi.c ****       hdcmi->LineEventCallback = HAL_DCMI_LineEventCallback;    /* Legacy weak LineEventCallback   
1000:Libraries/STM32F4xx_HAL_Driver/Src/stm32f4xx_hal_dcmi.c ****       break;
1001:Libraries/STM32F4xx_HAL_Driver/Src/stm32f4xx_hal_dcmi.c ****       
ARM GAS  C:\Users\yzy\AppData\Local\Temp\ccovssh5.s 			page 19


1002:Libraries/STM32F4xx_HAL_Driver/Src/stm32f4xx_hal_dcmi.c ****     case HAL_DCMI_ERROR_CB_ID :
1003:Libraries/STM32F4xx_HAL_Driver/Src/stm32f4xx_hal_dcmi.c ****       hdcmi->ErrorCallback = HAL_DCMI_ErrorCallback;           /* Legacy weak ErrorCallback        
1004:Libraries/STM32F4xx_HAL_Driver/Src/stm32f4xx_hal_dcmi.c ****       break;  
1005:Libraries/STM32F4xx_HAL_Driver/Src/stm32f4xx_hal_dcmi.c ****       
1006:Libraries/STM32F4xx_HAL_Driver/Src/stm32f4xx_hal_dcmi.c ****     case HAL_DCMI_MSPINIT_CB_ID :
1007:Libraries/STM32F4xx_HAL_Driver/Src/stm32f4xx_hal_dcmi.c ****       hdcmi->MspInitCallback = HAL_DCMI_MspInit;
1008:Libraries/STM32F4xx_HAL_Driver/Src/stm32f4xx_hal_dcmi.c ****       break;
1009:Libraries/STM32F4xx_HAL_Driver/Src/stm32f4xx_hal_dcmi.c ****       
1010:Libraries/STM32F4xx_HAL_Driver/Src/stm32f4xx_hal_dcmi.c ****     case HAL_DCMI_MSPDEINIT_CB_ID :
1011:Libraries/STM32F4xx_HAL_Driver/Src/stm32f4xx_hal_dcmi.c ****       hdcmi->MspDeInitCallback = HAL_DCMI_MspDeInit;
1012:Libraries/STM32F4xx_HAL_Driver/Src/stm32f4xx_hal_dcmi.c ****       break;	  
1013:Libraries/STM32F4xx_HAL_Driver/Src/stm32f4xx_hal_dcmi.c ****       
1014:Libraries/STM32F4xx_HAL_Driver/Src/stm32f4xx_hal_dcmi.c ****     default : 
1015:Libraries/STM32F4xx_HAL_Driver/Src/stm32f4xx_hal_dcmi.c ****       /* update the error code */
1016:Libraries/STM32F4xx_HAL_Driver/Src/stm32f4xx_hal_dcmi.c ****       hdcmi->ErrorCode |= HAL_DCMI_ERROR_INVALID_CALLBACK;
1017:Libraries/STM32F4xx_HAL_Driver/Src/stm32f4xx_hal_dcmi.c ****       /* update return status */
1018:Libraries/STM32F4xx_HAL_Driver/Src/stm32f4xx_hal_dcmi.c ****       status = HAL_ERROR;
1019:Libraries/STM32F4xx_HAL_Driver/Src/stm32f4xx_hal_dcmi.c ****       break;
1020:Libraries/STM32F4xx_HAL_Driver/Src/stm32f4xx_hal_dcmi.c ****     }
1021:Libraries/STM32F4xx_HAL_Driver/Src/stm32f4xx_hal_dcmi.c ****   }
1022:Libraries/STM32F4xx_HAL_Driver/Src/stm32f4xx_hal_dcmi.c ****   else if(hdcmi->State == HAL_DCMI_STATE_RESET)
1023:Libraries/STM32F4xx_HAL_Driver/Src/stm32f4xx_hal_dcmi.c ****   {
1024:Libraries/STM32F4xx_HAL_Driver/Src/stm32f4xx_hal_dcmi.c ****     switch (CallbackID)
1025:Libraries/STM32F4xx_HAL_Driver/Src/stm32f4xx_hal_dcmi.c ****     {
1026:Libraries/STM32F4xx_HAL_Driver/Src/stm32f4xx_hal_dcmi.c ****     case HAL_DCMI_MSPINIT_CB_ID :
1027:Libraries/STM32F4xx_HAL_Driver/Src/stm32f4xx_hal_dcmi.c ****       hdcmi->MspInitCallback = HAL_DCMI_MspInit;
1028:Libraries/STM32F4xx_HAL_Driver/Src/stm32f4xx_hal_dcmi.c ****       break;
1029:Libraries/STM32F4xx_HAL_Driver/Src/stm32f4xx_hal_dcmi.c ****       
1030:Libraries/STM32F4xx_HAL_Driver/Src/stm32f4xx_hal_dcmi.c ****     case HAL_DCMI_MSPDEINIT_CB_ID :
1031:Libraries/STM32F4xx_HAL_Driver/Src/stm32f4xx_hal_dcmi.c ****       hdcmi->MspDeInitCallback = HAL_DCMI_MspDeInit;
1032:Libraries/STM32F4xx_HAL_Driver/Src/stm32f4xx_hal_dcmi.c ****       break;	  
1033:Libraries/STM32F4xx_HAL_Driver/Src/stm32f4xx_hal_dcmi.c ****       
1034:Libraries/STM32F4xx_HAL_Driver/Src/stm32f4xx_hal_dcmi.c ****     default : 
1035:Libraries/STM32F4xx_HAL_Driver/Src/stm32f4xx_hal_dcmi.c ****       /* update the error code */
1036:Libraries/STM32F4xx_HAL_Driver/Src/stm32f4xx_hal_dcmi.c ****       hdcmi->ErrorCode |= HAL_DCMI_ERROR_INVALID_CALLBACK;
1037:Libraries/STM32F4xx_HAL_Driver/Src/stm32f4xx_hal_dcmi.c ****       /* update return status */
1038:Libraries/STM32F4xx_HAL_Driver/Src/stm32f4xx_hal_dcmi.c ****       status = HAL_ERROR;
1039:Libraries/STM32F4xx_HAL_Driver/Src/stm32f4xx_hal_dcmi.c ****       break;
1040:Libraries/STM32F4xx_HAL_Driver/Src/stm32f4xx_hal_dcmi.c ****     }		
1041:Libraries/STM32F4xx_HAL_Driver/Src/stm32f4xx_hal_dcmi.c ****   }   
1042:Libraries/STM32F4xx_HAL_Driver/Src/stm32f4xx_hal_dcmi.c ****   else
1043:Libraries/STM32F4xx_HAL_Driver/Src/stm32f4xx_hal_dcmi.c ****   {
1044:Libraries/STM32F4xx_HAL_Driver/Src/stm32f4xx_hal_dcmi.c ****     /* update the error code */
1045:Libraries/STM32F4xx_HAL_Driver/Src/stm32f4xx_hal_dcmi.c ****     hdcmi->ErrorCode |= HAL_DCMI_ERROR_INVALID_CALLBACK;
1046:Libraries/STM32F4xx_HAL_Driver/Src/stm32f4xx_hal_dcmi.c ****     /* update return status */
1047:Libraries/STM32F4xx_HAL_Driver/Src/stm32f4xx_hal_dcmi.c ****     status = HAL_ERROR;
1048:Libraries/STM32F4xx_HAL_Driver/Src/stm32f4xx_hal_dcmi.c ****   }
1049:Libraries/STM32F4xx_HAL_Driver/Src/stm32f4xx_hal_dcmi.c ****   
1050:Libraries/STM32F4xx_HAL_Driver/Src/stm32f4xx_hal_dcmi.c ****   return status;
1051:Libraries/STM32F4xx_HAL_Driver/Src/stm32f4xx_hal_dcmi.c **** }
1052:Libraries/STM32F4xx_HAL_Driver/Src/stm32f4xx_hal_dcmi.c **** #endif /* USE_HAL_DCMI_REGISTER_CALLBACKS */
1053:Libraries/STM32F4xx_HAL_Driver/Src/stm32f4xx_hal_dcmi.c **** 
1054:Libraries/STM32F4xx_HAL_Driver/Src/stm32f4xx_hal_dcmi.c **** /**
1055:Libraries/STM32F4xx_HAL_Driver/Src/stm32f4xx_hal_dcmi.c ****   * @}
1056:Libraries/STM32F4xx_HAL_Driver/Src/stm32f4xx_hal_dcmi.c ****   */
1057:Libraries/STM32F4xx_HAL_Driver/Src/stm32f4xx_hal_dcmi.c **** /* Private functions ---------------------------------------------------------*/
1058:Libraries/STM32F4xx_HAL_Driver/Src/stm32f4xx_hal_dcmi.c **** /** @defgroup DCMI_Private_Functions DCMI Private Functions
ARM GAS  C:\Users\yzy\AppData\Local\Temp\ccovssh5.s 			page 20


1059:Libraries/STM32F4xx_HAL_Driver/Src/stm32f4xx_hal_dcmi.c ****   * @{
1060:Libraries/STM32F4xx_HAL_Driver/Src/stm32f4xx_hal_dcmi.c ****   */
1061:Libraries/STM32F4xx_HAL_Driver/Src/stm32f4xx_hal_dcmi.c **** 
1062:Libraries/STM32F4xx_HAL_Driver/Src/stm32f4xx_hal_dcmi.c **** /**
1063:Libraries/STM32F4xx_HAL_Driver/Src/stm32f4xx_hal_dcmi.c ****   * @brief  DMA conversion complete callback.
1064:Libraries/STM32F4xx_HAL_Driver/Src/stm32f4xx_hal_dcmi.c ****   * @param  hdma pointer to a DMA_HandleTypeDef structure that contains
1065:Libraries/STM32F4xx_HAL_Driver/Src/stm32f4xx_hal_dcmi.c ****   *               the configuration information for the specified DMA module.
1066:Libraries/STM32F4xx_HAL_Driver/Src/stm32f4xx_hal_dcmi.c ****   * @retval None
1067:Libraries/STM32F4xx_HAL_Driver/Src/stm32f4xx_hal_dcmi.c ****   */
1068:Libraries/STM32F4xx_HAL_Driver/Src/stm32f4xx_hal_dcmi.c **** static void DCMI_DMAXferCplt(DMA_HandleTypeDef *hdma)
1069:Libraries/STM32F4xx_HAL_Driver/Src/stm32f4xx_hal_dcmi.c **** {
  27              		.loc 1 1069 1 view -0
  28              		.cfi_startproc
  29              		@ args = 0, pretend = 0, frame = 0
  30              		@ frame_needed = 0, uses_anonymous_args = 0
  31              		.loc 1 1069 1 is_stmt 0 view .LVU1
  32 0000 10B5     		push	{r4, lr}
  33              	.LCFI0:
  34              		.cfi_def_cfa_offset 8
  35              		.cfi_offset 4, -8
  36              		.cfi_offset 14, -4
1070:Libraries/STM32F4xx_HAL_Driver/Src/stm32f4xx_hal_dcmi.c ****   uint32_t tmp = 0U;
  37              		.loc 1 1070 3 is_stmt 1 view .LVU2
  38              	.LVL1:
1071:Libraries/STM32F4xx_HAL_Driver/Src/stm32f4xx_hal_dcmi.c ****  
1072:Libraries/STM32F4xx_HAL_Driver/Src/stm32f4xx_hal_dcmi.c ****   DCMI_HandleTypeDef* hdcmi = ( DCMI_HandleTypeDef* )((DMA_HandleTypeDef* )hdma)->Parent;
  39              		.loc 1 1072 3 view .LVU3
  40              		.loc 1 1072 23 is_stmt 0 view .LVU4
  41 0002 846B     		ldr	r4, [r0, #56]
  42              	.LVL2:
1073:Libraries/STM32F4xx_HAL_Driver/Src/stm32f4xx_hal_dcmi.c ****   
1074:Libraries/STM32F4xx_HAL_Driver/Src/stm32f4xx_hal_dcmi.c ****   if(hdcmi->XferCount != 0U)
  43              		.loc 1 1074 3 is_stmt 1 view .LVU5
  44              		.loc 1 1074 11 is_stmt 0 view .LVU6
  45 0004 A36A     		ldr	r3, [r4, #40]
  46              		.loc 1 1074 5 view .LVU7
  47 0006 43B3     		cbz	r3, .L2
1075:Libraries/STM32F4xx_HAL_Driver/Src/stm32f4xx_hal_dcmi.c ****   {
1076:Libraries/STM32F4xx_HAL_Driver/Src/stm32f4xx_hal_dcmi.c ****     /* Update memory 0 address location */
1077:Libraries/STM32F4xx_HAL_Driver/Src/stm32f4xx_hal_dcmi.c ****     tmp = ((hdcmi->DMA_Handle->Instance->CR) & DMA_SxCR_CT);
  48              		.loc 1 1077 5 is_stmt 1 view .LVU8
  49              		.loc 1 1077 18 is_stmt 0 view .LVU9
  50 0008 A06B     		ldr	r0, [r4, #56]
  51              	.LVL3:
  52              		.loc 1 1077 30 view .LVU10
  53 000a 0268     		ldr	r2, [r0]
  54              		.loc 1 1077 40 view .LVU11
  55 000c 1368     		ldr	r3, [r2]
  56              		.loc 1 1077 9 view .LVU12
  57 000e 03F40023 		and	r3, r3, #524288
  58              	.LVL4:
1078:Libraries/STM32F4xx_HAL_Driver/Src/stm32f4xx_hal_dcmi.c ****     if(((hdcmi->XferCount % 2U) == 0U) && (tmp != 0U))
  59              		.loc 1 1078 5 is_stmt 1 view .LVU13
  60              		.loc 1 1078 15 is_stmt 0 view .LVU14
  61 0012 A16A     		ldr	r1, [r4, #40]
  62              		.loc 1 1078 7 view .LVU15
  63 0014 11F0010F 		tst	r1, #1
ARM GAS  C:\Users\yzy\AppData\Local\Temp\ccovssh5.s 			page 21


  64 0018 00D1     		bne	.L3
  65              		.loc 1 1078 40 discriminator 1 view .LVU16
  66 001a 43B9     		cbnz	r3, .L8
  67              	.L3:
1079:Libraries/STM32F4xx_HAL_Driver/Src/stm32f4xx_hal_dcmi.c ****     {
1080:Libraries/STM32F4xx_HAL_Driver/Src/stm32f4xx_hal_dcmi.c ****       tmp = hdcmi->DMA_Handle->Instance->M0AR;
1081:Libraries/STM32F4xx_HAL_Driver/Src/stm32f4xx_hal_dcmi.c ****       HAL_DMAEx_ChangeMemory(hdcmi->DMA_Handle, (tmp + (8U*hdcmi->XferSize)), MEMORY0);
1082:Libraries/STM32F4xx_HAL_Driver/Src/stm32f4xx_hal_dcmi.c ****       hdcmi->XferCount--;
1083:Libraries/STM32F4xx_HAL_Driver/Src/stm32f4xx_hal_dcmi.c ****     }
1084:Libraries/STM32F4xx_HAL_Driver/Src/stm32f4xx_hal_dcmi.c ****     /* Update memory 1 address location */
1085:Libraries/STM32F4xx_HAL_Driver/Src/stm32f4xx_hal_dcmi.c ****     else if((hdcmi->DMA_Handle->Instance->CR & DMA_SxCR_CT) == 0U)
  68              		.loc 1 1085 10 is_stmt 1 view .LVU17
  69              		.loc 1 1085 41 is_stmt 0 view .LVU18
  70 001c 1368     		ldr	r3, [r2]
  71              	.LVL5:
  72              		.loc 1 1085 12 view .LVU19
  73 001e 13F4002F 		tst	r3, #524288
  74 0022 0FD0     		beq	.L9
  75              	.L4:
1086:Libraries/STM32F4xx_HAL_Driver/Src/stm32f4xx_hal_dcmi.c ****     {
1087:Libraries/STM32F4xx_HAL_Driver/Src/stm32f4xx_hal_dcmi.c ****       tmp = hdcmi->DMA_Handle->Instance->M1AR;
1088:Libraries/STM32F4xx_HAL_Driver/Src/stm32f4xx_hal_dcmi.c ****       HAL_DMAEx_ChangeMemory(hdcmi->DMA_Handle, (tmp + (8U*hdcmi->XferSize)), MEMORY1);
1089:Libraries/STM32F4xx_HAL_Driver/Src/stm32f4xx_hal_dcmi.c ****       hdcmi->XferCount--;
1090:Libraries/STM32F4xx_HAL_Driver/Src/stm32f4xx_hal_dcmi.c ****     }
1091:Libraries/STM32F4xx_HAL_Driver/Src/stm32f4xx_hal_dcmi.c ****   }
1092:Libraries/STM32F4xx_HAL_Driver/Src/stm32f4xx_hal_dcmi.c ****   /* Update memory 0 address location */
1093:Libraries/STM32F4xx_HAL_Driver/Src/stm32f4xx_hal_dcmi.c ****   else if((hdcmi->DMA_Handle->Instance->CR & DMA_SxCR_CT) != 0U)
1094:Libraries/STM32F4xx_HAL_Driver/Src/stm32f4xx_hal_dcmi.c ****   {
1095:Libraries/STM32F4xx_HAL_Driver/Src/stm32f4xx_hal_dcmi.c ****     hdcmi->DMA_Handle->Instance->M0AR = hdcmi->pBuffPtr;
1096:Libraries/STM32F4xx_HAL_Driver/Src/stm32f4xx_hal_dcmi.c ****   }
1097:Libraries/STM32F4xx_HAL_Driver/Src/stm32f4xx_hal_dcmi.c ****   /* Update memory 1 address location */
1098:Libraries/STM32F4xx_HAL_Driver/Src/stm32f4xx_hal_dcmi.c ****   else if((hdcmi->DMA_Handle->Instance->CR & DMA_SxCR_CT) == 0U)
1099:Libraries/STM32F4xx_HAL_Driver/Src/stm32f4xx_hal_dcmi.c ****   {
1100:Libraries/STM32F4xx_HAL_Driver/Src/stm32f4xx_hal_dcmi.c ****     tmp = hdcmi->pBuffPtr;
1101:Libraries/STM32F4xx_HAL_Driver/Src/stm32f4xx_hal_dcmi.c ****     hdcmi->DMA_Handle->Instance->M1AR = (tmp + (4U*hdcmi->XferSize));
1102:Libraries/STM32F4xx_HAL_Driver/Src/stm32f4xx_hal_dcmi.c ****     hdcmi->XferCount = hdcmi->XferTransferNumber;
1103:Libraries/STM32F4xx_HAL_Driver/Src/stm32f4xx_hal_dcmi.c ****   }
1104:Libraries/STM32F4xx_HAL_Driver/Src/stm32f4xx_hal_dcmi.c ****   
1105:Libraries/STM32F4xx_HAL_Driver/Src/stm32f4xx_hal_dcmi.c ****   /* Check if the frame is transferred */
1106:Libraries/STM32F4xx_HAL_Driver/Src/stm32f4xx_hal_dcmi.c ****   if(hdcmi->XferCount == hdcmi->XferTransferNumber)
  76              		.loc 1 1106 3 is_stmt 1 view .LVU20
  77              		.loc 1 1106 11 is_stmt 0 view .LVU21
  78 0024 A26A     		ldr	r2, [r4, #40]
  79              		.loc 1 1106 31 view .LVU22
  80 0026 236B     		ldr	r3, [r4, #48]
  81              		.loc 1 1106 5 view .LVU23
  82 0028 9A42     		cmp	r2, r3
  83 002a 2BD0     		beq	.L10
  84              	.L1:
1107:Libraries/STM32F4xx_HAL_Driver/Src/stm32f4xx_hal_dcmi.c ****   {
1108:Libraries/STM32F4xx_HAL_Driver/Src/stm32f4xx_hal_dcmi.c ****     /* Enable the Frame interrupt */
1109:Libraries/STM32F4xx_HAL_Driver/Src/stm32f4xx_hal_dcmi.c ****     __HAL_DCMI_ENABLE_IT(hdcmi, DCMI_IT_FRAME);
1110:Libraries/STM32F4xx_HAL_Driver/Src/stm32f4xx_hal_dcmi.c ****     
1111:Libraries/STM32F4xx_HAL_Driver/Src/stm32f4xx_hal_dcmi.c ****     /* When snapshot mode, set dcmi state to ready */
1112:Libraries/STM32F4xx_HAL_Driver/Src/stm32f4xx_hal_dcmi.c ****     if((hdcmi->Instance->CR & DCMI_CR_CM) == DCMI_MODE_SNAPSHOT)
1113:Libraries/STM32F4xx_HAL_Driver/Src/stm32f4xx_hal_dcmi.c ****     {  
1114:Libraries/STM32F4xx_HAL_Driver/Src/stm32f4xx_hal_dcmi.c ****       hdcmi->State= HAL_DCMI_STATE_READY;
ARM GAS  C:\Users\yzy\AppData\Local\Temp\ccovssh5.s 			page 22


1115:Libraries/STM32F4xx_HAL_Driver/Src/stm32f4xx_hal_dcmi.c ****     }
1116:Libraries/STM32F4xx_HAL_Driver/Src/stm32f4xx_hal_dcmi.c ****   }
1117:Libraries/STM32F4xx_HAL_Driver/Src/stm32f4xx_hal_dcmi.c **** }
  85              		.loc 1 1117 1 view .LVU24
  86 002c 10BD     		pop	{r4, pc}
  87              	.LVL6:
  88              	.L8:
1080:Libraries/STM32F4xx_HAL_Driver/Src/stm32f4xx_hal_dcmi.c ****       HAL_DMAEx_ChangeMemory(hdcmi->DMA_Handle, (tmp + (8U*hdcmi->XferSize)), MEMORY0);
  89              		.loc 1 1080 7 is_stmt 1 view .LVU25
1080:Libraries/STM32F4xx_HAL_Driver/Src/stm32f4xx_hal_dcmi.c ****       HAL_DMAEx_ChangeMemory(hdcmi->DMA_Handle, (tmp + (8U*hdcmi->XferSize)), MEMORY0);
  90              		.loc 1 1080 11 is_stmt 0 view .LVU26
  91 002e D368     		ldr	r3, [r2, #12]
  92              	.LVL7:
1081:Libraries/STM32F4xx_HAL_Driver/Src/stm32f4xx_hal_dcmi.c ****       hdcmi->XferCount--;
  93              		.loc 1 1081 7 is_stmt 1 view .LVU27
1081:Libraries/STM32F4xx_HAL_Driver/Src/stm32f4xx_hal_dcmi.c ****       hdcmi->XferCount--;
  94              		.loc 1 1081 65 is_stmt 0 view .LVU28
  95 0030 E16A     		ldr	r1, [r4, #44]
1081:Libraries/STM32F4xx_HAL_Driver/Src/stm32f4xx_hal_dcmi.c ****       hdcmi->XferCount--;
  96              		.loc 1 1081 7 view .LVU29
  97 0032 0022     		movs	r2, #0
  98 0034 03EBC101 		add	r1, r3, r1, lsl #3
  99 0038 FFF7FEFF 		bl	HAL_DMAEx_ChangeMemory
 100              	.LVL8:
1082:Libraries/STM32F4xx_HAL_Driver/Src/stm32f4xx_hal_dcmi.c ****     }
 101              		.loc 1 1082 7 is_stmt 1 view .LVU30
1082:Libraries/STM32F4xx_HAL_Driver/Src/stm32f4xx_hal_dcmi.c ****     }
 102              		.loc 1 1082 12 is_stmt 0 view .LVU31
 103 003c A36A     		ldr	r3, [r4, #40]
1082:Libraries/STM32F4xx_HAL_Driver/Src/stm32f4xx_hal_dcmi.c ****     }
 104              		.loc 1 1082 23 view .LVU32
 105 003e 013B     		subs	r3, r3, #1
 106 0040 A362     		str	r3, [r4, #40]
 107 0042 EFE7     		b	.L4
 108              	.L9:
1087:Libraries/STM32F4xx_HAL_Driver/Src/stm32f4xx_hal_dcmi.c ****       HAL_DMAEx_ChangeMemory(hdcmi->DMA_Handle, (tmp + (8U*hdcmi->XferSize)), MEMORY1);
 109              		.loc 1 1087 7 is_stmt 1 view .LVU33
1087:Libraries/STM32F4xx_HAL_Driver/Src/stm32f4xx_hal_dcmi.c ****       HAL_DMAEx_ChangeMemory(hdcmi->DMA_Handle, (tmp + (8U*hdcmi->XferSize)), MEMORY1);
 110              		.loc 1 1087 11 is_stmt 0 view .LVU34
 111 0044 1369     		ldr	r3, [r2, #16]
 112              	.LVL9:
1088:Libraries/STM32F4xx_HAL_Driver/Src/stm32f4xx_hal_dcmi.c ****       hdcmi->XferCount--;
 113              		.loc 1 1088 7 is_stmt 1 view .LVU35
1088:Libraries/STM32F4xx_HAL_Driver/Src/stm32f4xx_hal_dcmi.c ****       hdcmi->XferCount--;
 114              		.loc 1 1088 65 is_stmt 0 view .LVU36
 115 0046 E16A     		ldr	r1, [r4, #44]
1088:Libraries/STM32F4xx_HAL_Driver/Src/stm32f4xx_hal_dcmi.c ****       hdcmi->XferCount--;
 116              		.loc 1 1088 7 view .LVU37
 117 0048 0122     		movs	r2, #1
 118 004a 03EBC101 		add	r1, r3, r1, lsl #3
 119 004e FFF7FEFF 		bl	HAL_DMAEx_ChangeMemory
 120              	.LVL10:
1089:Libraries/STM32F4xx_HAL_Driver/Src/stm32f4xx_hal_dcmi.c ****     }
 121              		.loc 1 1089 7 is_stmt 1 view .LVU38
1089:Libraries/STM32F4xx_HAL_Driver/Src/stm32f4xx_hal_dcmi.c ****     }
 122              		.loc 1 1089 12 is_stmt 0 view .LVU39
 123 0052 A36A     		ldr	r3, [r4, #40]
ARM GAS  C:\Users\yzy\AppData\Local\Temp\ccovssh5.s 			page 23


1089:Libraries/STM32F4xx_HAL_Driver/Src/stm32f4xx_hal_dcmi.c ****     }
 124              		.loc 1 1089 23 view .LVU40
 125 0054 013B     		subs	r3, r3, #1
 126 0056 A362     		str	r3, [r4, #40]
 127 0058 E4E7     		b	.L4
 128              	.LVL11:
 129              	.L2:
1093:Libraries/STM32F4xx_HAL_Driver/Src/stm32f4xx_hal_dcmi.c ****   {
 130              		.loc 1 1093 8 is_stmt 1 view .LVU41
1093:Libraries/STM32F4xx_HAL_Driver/Src/stm32f4xx_hal_dcmi.c ****   {
 131              		.loc 1 1093 17 is_stmt 0 view .LVU42
 132 005a A36B     		ldr	r3, [r4, #56]
1093:Libraries/STM32F4xx_HAL_Driver/Src/stm32f4xx_hal_dcmi.c ****   {
 133              		.loc 1 1093 29 view .LVU43
 134 005c 1B68     		ldr	r3, [r3]
1093:Libraries/STM32F4xx_HAL_Driver/Src/stm32f4xx_hal_dcmi.c ****   {
 135              		.loc 1 1093 39 view .LVU44
 136 005e 1A68     		ldr	r2, [r3]
1093:Libraries/STM32F4xx_HAL_Driver/Src/stm32f4xx_hal_dcmi.c ****   {
 137              		.loc 1 1093 10 view .LVU45
 138 0060 12F4002F 		tst	r2, #524288
 139 0064 02D0     		beq	.L5
1095:Libraries/STM32F4xx_HAL_Driver/Src/stm32f4xx_hal_dcmi.c ****   }
 140              		.loc 1 1095 5 is_stmt 1 view .LVU46
1095:Libraries/STM32F4xx_HAL_Driver/Src/stm32f4xx_hal_dcmi.c ****   }
 141              		.loc 1 1095 46 is_stmt 0 view .LVU47
 142 0066 626B     		ldr	r2, [r4, #52]
1095:Libraries/STM32F4xx_HAL_Driver/Src/stm32f4xx_hal_dcmi.c ****   }
 143              		.loc 1 1095 39 view .LVU48
 144 0068 DA60     		str	r2, [r3, #12]
 145 006a DBE7     		b	.L4
 146              	.L5:
1098:Libraries/STM32F4xx_HAL_Driver/Src/stm32f4xx_hal_dcmi.c ****   {
 147              		.loc 1 1098 8 is_stmt 1 view .LVU49
1098:Libraries/STM32F4xx_HAL_Driver/Src/stm32f4xx_hal_dcmi.c ****   {
 148              		.loc 1 1098 39 is_stmt 0 view .LVU50
 149 006c 1A68     		ldr	r2, [r3]
1098:Libraries/STM32F4xx_HAL_Driver/Src/stm32f4xx_hal_dcmi.c ****   {
 150              		.loc 1 1098 10 view .LVU51
 151 006e 12F4002F 		tst	r2, #524288
 152 0072 D7D1     		bne	.L4
1100:Libraries/STM32F4xx_HAL_Driver/Src/stm32f4xx_hal_dcmi.c ****     hdcmi->DMA_Handle->Instance->M1AR = (tmp + (4U*hdcmi->XferSize));
 153              		.loc 1 1100 5 is_stmt 1 view .LVU52
1100:Libraries/STM32F4xx_HAL_Driver/Src/stm32f4xx_hal_dcmi.c ****     hdcmi->DMA_Handle->Instance->M1AR = (tmp + (4U*hdcmi->XferSize));
 154              		.loc 1 1100 9 is_stmt 0 view .LVU53
 155 0074 626B     		ldr	r2, [r4, #52]
 156              	.LVL12:
1101:Libraries/STM32F4xx_HAL_Driver/Src/stm32f4xx_hal_dcmi.c ****     hdcmi->XferCount = hdcmi->XferTransferNumber;
 157              		.loc 1 1101 5 is_stmt 1 view .LVU54
1101:Libraries/STM32F4xx_HAL_Driver/Src/stm32f4xx_hal_dcmi.c ****     hdcmi->XferCount = hdcmi->XferTransferNumber;
 158              		.loc 1 1101 57 is_stmt 0 view .LVU55
 159 0076 E16A     		ldr	r1, [r4, #44]
1101:Libraries/STM32F4xx_HAL_Driver/Src/stm32f4xx_hal_dcmi.c ****     hdcmi->XferCount = hdcmi->XferTransferNumber;
 160              		.loc 1 1101 46 view .LVU56
 161 0078 02EB8102 		add	r2, r2, r1, lsl #2
 162              	.LVL13:
1101:Libraries/STM32F4xx_HAL_Driver/Src/stm32f4xx_hal_dcmi.c ****     hdcmi->XferCount = hdcmi->XferTransferNumber;
ARM GAS  C:\Users\yzy\AppData\Local\Temp\ccovssh5.s 			page 24


 163              		.loc 1 1101 39 view .LVU57
 164 007c 1A61     		str	r2, [r3, #16]
 165              	.LVL14:
1102:Libraries/STM32F4xx_HAL_Driver/Src/stm32f4xx_hal_dcmi.c ****   }
 166              		.loc 1 1102 5 is_stmt 1 view .LVU58
1102:Libraries/STM32F4xx_HAL_Driver/Src/stm32f4xx_hal_dcmi.c ****   }
 167              		.loc 1 1102 29 is_stmt 0 view .LVU59
 168 007e 236B     		ldr	r3, [r4, #48]
1102:Libraries/STM32F4xx_HAL_Driver/Src/stm32f4xx_hal_dcmi.c ****   }
 169              		.loc 1 1102 22 view .LVU60
 170 0080 A362     		str	r3, [r4, #40]
 171 0082 CFE7     		b	.L4
 172              	.LVL15:
 173              	.L10:
1109:Libraries/STM32F4xx_HAL_Driver/Src/stm32f4xx_hal_dcmi.c ****     
 174              		.loc 1 1109 5 is_stmt 1 view .LVU61
 175 0084 2268     		ldr	r2, [r4]
 176 0086 D368     		ldr	r3, [r2, #12]
 177 0088 43F00103 		orr	r3, r3, #1
 178 008c D360     		str	r3, [r2, #12]
1112:Libraries/STM32F4xx_HAL_Driver/Src/stm32f4xx_hal_dcmi.c ****     {  
 179              		.loc 1 1112 5 view .LVU62
1112:Libraries/STM32F4xx_HAL_Driver/Src/stm32f4xx_hal_dcmi.c ****     {  
 180              		.loc 1 1112 14 is_stmt 0 view .LVU63
 181 008e 2368     		ldr	r3, [r4]
1112:Libraries/STM32F4xx_HAL_Driver/Src/stm32f4xx_hal_dcmi.c ****     {  
 182              		.loc 1 1112 24 view .LVU64
 183 0090 1B68     		ldr	r3, [r3]
1112:Libraries/STM32F4xx_HAL_Driver/Src/stm32f4xx_hal_dcmi.c ****     {  
 184              		.loc 1 1112 7 view .LVU65
 185 0092 13F0020F 		tst	r3, #2
 186 0096 C9D0     		beq	.L1
1114:Libraries/STM32F4xx_HAL_Driver/Src/stm32f4xx_hal_dcmi.c ****     }
 187              		.loc 1 1114 7 is_stmt 1 view .LVU66
1114:Libraries/STM32F4xx_HAL_Driver/Src/stm32f4xx_hal_dcmi.c ****     }
 188              		.loc 1 1114 19 is_stmt 0 view .LVU67
 189 0098 0123     		movs	r3, #1
 190 009a 84F82530 		strb	r3, [r4, #37]
 191              		.loc 1 1117 1 view .LVU68
 192 009e C5E7     		b	.L1
 193              		.cfi_endproc
 194              	.LFE149:
 196              		.section	.text.HAL_DCMI_MspInit,"ax",%progbits
 197              		.align	1
 198              		.weak	HAL_DCMI_MspInit
 199              		.syntax unified
 200              		.thumb
 201              		.thumb_func
 202              		.fpu softvfp
 204              	HAL_DCMI_MspInit:
 205              	.LVL16:
 206              	.LFB132:
 296:Libraries/STM32F4xx_HAL_Driver/Src/stm32f4xx_hal_dcmi.c ****   /* Prevent unused argument(s) compilation warning */
 207              		.loc 1 296 1 is_stmt 1 view -0
 208              		.cfi_startproc
 209              		@ args = 0, pretend = 0, frame = 0
 210              		@ frame_needed = 0, uses_anonymous_args = 0
ARM GAS  C:\Users\yzy\AppData\Local\Temp\ccovssh5.s 			page 25


 211              		@ link register save eliminated.
 298:Libraries/STM32F4xx_HAL_Driver/Src/stm32f4xx_hal_dcmi.c ****   /* NOTE : This function Should not be modified, when the callback is needed,
 212              		.loc 1 298 3 view .LVU70
 302:Libraries/STM32F4xx_HAL_Driver/Src/stm32f4xx_hal_dcmi.c **** 
 213              		.loc 1 302 1 is_stmt 0 view .LVU71
 214 0000 7047     		bx	lr
 215              		.cfi_endproc
 216              	.LFE132:
 218              		.section	.text.HAL_DCMI_Init,"ax",%progbits
 219              		.align	1
 220              		.weak	HAL_DCMI_Init
 221              		.syntax unified
 222              		.thumb
 223              		.thumb_func
 224              		.fpu softvfp
 226              	HAL_DCMI_Init:
 227              	.LVL17:
 228              	.LFB130:
 179:Libraries/STM32F4xx_HAL_Driver/Src/stm32f4xx_hal_dcmi.c ****   /* Check the DCMI peripheral state */
 229              		.loc 1 179 1 is_stmt 1 view -0
 230              		.cfi_startproc
 231              		@ args = 0, pretend = 0, frame = 0
 232              		@ frame_needed = 0, uses_anonymous_args = 0
 181:Libraries/STM32F4xx_HAL_Driver/Src/stm32f4xx_hal_dcmi.c ****   {
 233              		.loc 1 181 3 view .LVU73
 181:Libraries/STM32F4xx_HAL_Driver/Src/stm32f4xx_hal_dcmi.c ****   {
 234              		.loc 1 181 5 is_stmt 0 view .LVU74
 235 0000 0028     		cmp	r0, #0
 236 0002 42D0     		beq	.L16
 179:Libraries/STM32F4xx_HAL_Driver/Src/stm32f4xx_hal_dcmi.c ****   /* Check the DCMI peripheral state */
 237              		.loc 1 179 1 view .LVU75
 238 0004 10B5     		push	{r4, lr}
 239              	.LCFI1:
 240              		.cfi_def_cfa_offset 8
 241              		.cfi_offset 4, -8
 242              		.cfi_offset 14, -4
 243 0006 0446     		mov	r4, r0
 187:Libraries/STM32F4xx_HAL_Driver/Src/stm32f4xx_hal_dcmi.c ****   assert_param(IS_DCMI_PCKPOLARITY(hdcmi->Init.PCKPolarity));
 244              		.loc 1 187 3 is_stmt 1 view .LVU76
 188:Libraries/STM32F4xx_HAL_Driver/Src/stm32f4xx_hal_dcmi.c ****   assert_param(IS_DCMI_VSPOLARITY(hdcmi->Init.VSPolarity));
 245              		.loc 1 188 3 view .LVU77
 189:Libraries/STM32F4xx_HAL_Driver/Src/stm32f4xx_hal_dcmi.c ****   assert_param(IS_DCMI_HSPOLARITY(hdcmi->Init.HSPolarity));
 246              		.loc 1 189 3 view .LVU78
 190:Libraries/STM32F4xx_HAL_Driver/Src/stm32f4xx_hal_dcmi.c ****   assert_param(IS_DCMI_SYNCHRO(hdcmi->Init.SynchroMode));
 247              		.loc 1 190 3 view .LVU79
 191:Libraries/STM32F4xx_HAL_Driver/Src/stm32f4xx_hal_dcmi.c ****   assert_param(IS_DCMI_CAPTURE_RATE(hdcmi->Init.CaptureRate));
 248              		.loc 1 191 3 view .LVU80
 192:Libraries/STM32F4xx_HAL_Driver/Src/stm32f4xx_hal_dcmi.c ****   assert_param(IS_DCMI_EXTENDED_DATA(hdcmi->Init.ExtendedDataMode));
 249              		.loc 1 192 3 view .LVU81
 193:Libraries/STM32F4xx_HAL_Driver/Src/stm32f4xx_hal_dcmi.c ****   assert_param(IS_DCMI_MODE_JPEG(hdcmi->Init.JPEGMode));
 250              		.loc 1 193 3 view .LVU82
 194:Libraries/STM32F4xx_HAL_Driver/Src/stm32f4xx_hal_dcmi.c **** 
 251              		.loc 1 194 3 view .LVU83
 196:Libraries/STM32F4xx_HAL_Driver/Src/stm32f4xx_hal_dcmi.c ****   {
 252              		.loc 1 196 3 view .LVU84
 196:Libraries/STM32F4xx_HAL_Driver/Src/stm32f4xx_hal_dcmi.c ****   {
 253              		.loc 1 196 11 is_stmt 0 view .LVU85
ARM GAS  C:\Users\yzy\AppData\Local\Temp\ccovssh5.s 			page 26


 254 0008 90F82530 		ldrb	r3, [r0, #37]	@ zero_extendqisi2
 196:Libraries/STM32F4xx_HAL_Driver/Src/stm32f4xx_hal_dcmi.c ****   {
 255              		.loc 1 196 5 view .LVU86
 256 000c 43B3     		cbz	r3, .L21
 257              	.LVL18:
 258              	.L14:
 223:Libraries/STM32F4xx_HAL_Driver/Src/stm32f4xx_hal_dcmi.c **** 
 259              		.loc 1 223 3 is_stmt 1 view .LVU87
 223:Libraries/STM32F4xx_HAL_Driver/Src/stm32f4xx_hal_dcmi.c **** 
 260              		.loc 1 223 16 is_stmt 0 view .LVU88
 261 000e 0223     		movs	r3, #2
 262 0010 84F82530 		strb	r3, [r4, #37]
 227:Libraries/STM32F4xx_HAL_Driver/Src/stm32f4xx_hal_dcmi.c ****                            DCMI_CR_EDM_1  | DCMI_CR_FCRC_0 | DCMI_CR_FCRC_1 | DCMI_CR_JPEG  |
 263              		.loc 1 227 3 is_stmt 1 view .LVU89
 227:Libraries/STM32F4xx_HAL_Driver/Src/stm32f4xx_hal_dcmi.c ****                            DCMI_CR_EDM_1  | DCMI_CR_FCRC_0 | DCMI_CR_FCRC_1 | DCMI_CR_JPEG  |
 264              		.loc 1 227 8 is_stmt 0 view .LVU90
 265 0014 2268     		ldr	r2, [r4]
 227:Libraries/STM32F4xx_HAL_Driver/Src/stm32f4xx_hal_dcmi.c ****                            DCMI_CR_EDM_1  | DCMI_CR_FCRC_0 | DCMI_CR_FCRC_1 | DCMI_CR_JPEG  |
 266              		.loc 1 227 23 view .LVU91
 267 0016 1368     		ldr	r3, [r2]
 268 0018 23F47F63 		bic	r3, r3, #4080
 269 001c 23F00803 		bic	r3, r3, #8
 270 0020 1360     		str	r3, [r2]
 230:Libraries/STM32F4xx_HAL_Driver/Src/stm32f4xx_hal_dcmi.c ****                                      hdcmi->Init.VSPolarity  | hdcmi->Init.HSPolarity  | \
 271              		.loc 1 230 3 is_stmt 1 view .LVU92
 230:Libraries/STM32F4xx_HAL_Driver/Src/stm32f4xx_hal_dcmi.c ****                                      hdcmi->Init.VSPolarity  | hdcmi->Init.HSPolarity  | \
 272              		.loc 1 230 8 is_stmt 0 view .LVU93
 273 0022 2168     		ldr	r1, [r4]
 230:Libraries/STM32F4xx_HAL_Driver/Src/stm32f4xx_hal_dcmi.c ****                                      hdcmi->Init.VSPolarity  | hdcmi->Init.HSPolarity  | \
 274              		.loc 1 230 23 view .LVU94
 275 0024 0A68     		ldr	r2, [r1]
 230:Libraries/STM32F4xx_HAL_Driver/Src/stm32f4xx_hal_dcmi.c ****                                      hdcmi->Init.VSPolarity  | hdcmi->Init.HSPolarity  | \
 276              		.loc 1 230 49 view .LVU95
 277 0026 6368     		ldr	r3, [r4, #4]
 230:Libraries/STM32F4xx_HAL_Driver/Src/stm32f4xx_hal_dcmi.c ****                                      hdcmi->Init.VSPolarity  | hdcmi->Init.HSPolarity  | \
 278              		.loc 1 230 75 view .LVU96
 279 0028 6069     		ldr	r0, [r4, #20]
 230:Libraries/STM32F4xx_HAL_Driver/Src/stm32f4xx_hal_dcmi.c ****                                      hdcmi->Init.VSPolarity  | hdcmi->Init.HSPolarity  | \
 280              		.loc 1 230 62 view .LVU97
 281 002a 0343     		orrs	r3, r3, r0
 231:Libraries/STM32F4xx_HAL_Driver/Src/stm32f4xx_hal_dcmi.c ****                                      hdcmi->Init.PCKPolarity | hdcmi->Init.ExtendedDataMode | \
 282              		.loc 1 231 49 view .LVU98
 283 002c E068     		ldr	r0, [r4, #12]
 230:Libraries/STM32F4xx_HAL_Driver/Src/stm32f4xx_hal_dcmi.c ****                                      hdcmi->Init.VSPolarity  | hdcmi->Init.HSPolarity  | \
 284              		.loc 1 230 88 view .LVU99
 285 002e 0343     		orrs	r3, r3, r0
 231:Libraries/STM32F4xx_HAL_Driver/Src/stm32f4xx_hal_dcmi.c ****                                      hdcmi->Init.PCKPolarity | hdcmi->Init.ExtendedDataMode | \
 286              		.loc 1 231 75 view .LVU100
 287 0030 2069     		ldr	r0, [r4, #16]
 231:Libraries/STM32F4xx_HAL_Driver/Src/stm32f4xx_hal_dcmi.c ****                                      hdcmi->Init.PCKPolarity | hdcmi->Init.ExtendedDataMode | \
 288              		.loc 1 231 62 view .LVU101
 289 0032 0343     		orrs	r3, r3, r0
 232:Libraries/STM32F4xx_HAL_Driver/Src/stm32f4xx_hal_dcmi.c ****                                      hdcmi->Init.JPEGMode);
 290              		.loc 1 232 49 view .LVU102
 291 0034 A068     		ldr	r0, [r4, #8]
 231:Libraries/STM32F4xx_HAL_Driver/Src/stm32f4xx_hal_dcmi.c ****                                      hdcmi->Init.PCKPolarity | hdcmi->Init.ExtendedDataMode | \
 292              		.loc 1 231 88 view .LVU103
ARM GAS  C:\Users\yzy\AppData\Local\Temp\ccovssh5.s 			page 27


 293 0036 0343     		orrs	r3, r3, r0
 232:Libraries/STM32F4xx_HAL_Driver/Src/stm32f4xx_hal_dcmi.c ****                                      hdcmi->Init.JPEGMode);
 294              		.loc 1 232 75 view .LVU104
 295 0038 A069     		ldr	r0, [r4, #24]
 232:Libraries/STM32F4xx_HAL_Driver/Src/stm32f4xx_hal_dcmi.c ****                                      hdcmi->Init.JPEGMode);
 296              		.loc 1 232 62 view .LVU105
 297 003a 0343     		orrs	r3, r3, r0
 233:Libraries/STM32F4xx_HAL_Driver/Src/stm32f4xx_hal_dcmi.c **** 
 298              		.loc 1 233 49 view .LVU106
 299 003c 206A     		ldr	r0, [r4, #32]
 232:Libraries/STM32F4xx_HAL_Driver/Src/stm32f4xx_hal_dcmi.c ****                                      hdcmi->Init.JPEGMode);
 300              		.loc 1 232 93 view .LVU107
 301 003e 0343     		orrs	r3, r3, r0
 230:Libraries/STM32F4xx_HAL_Driver/Src/stm32f4xx_hal_dcmi.c ****                                      hdcmi->Init.VSPolarity  | hdcmi->Init.HSPolarity  | \
 302              		.loc 1 230 23 view .LVU108
 303 0040 1343     		orrs	r3, r3, r2
 304 0042 0B60     		str	r3, [r1]
 235:Libraries/STM32F4xx_HAL_Driver/Src/stm32f4xx_hal_dcmi.c ****   {
 305              		.loc 1 235 3 is_stmt 1 view .LVU109
 235:Libraries/STM32F4xx_HAL_Driver/Src/stm32f4xx_hal_dcmi.c ****   {
 306              		.loc 1 235 17 is_stmt 0 view .LVU110
 307 0044 6368     		ldr	r3, [r4, #4]
 235:Libraries/STM32F4xx_HAL_Driver/Src/stm32f4xx_hal_dcmi.c ****   {
 308              		.loc 1 235 5 view .LVU111
 309 0046 102B     		cmp	r3, #16
 310 0048 12D0     		beq	.L22
 311              	.L15:
 244:Libraries/STM32F4xx_HAL_Driver/Src/stm32f4xx_hal_dcmi.c **** 
 312              		.loc 1 244 3 is_stmt 1 view .LVU112
 313 004a 2268     		ldr	r2, [r4]
 314 004c D368     		ldr	r3, [r2, #12]
 315 004e 43F01E03 		orr	r3, r3, #30
 316 0052 D360     		str	r3, [r2, #12]
 247:Libraries/STM32F4xx_HAL_Driver/Src/stm32f4xx_hal_dcmi.c **** 
 317              		.loc 1 247 3 view .LVU113
 247:Libraries/STM32F4xx_HAL_Driver/Src/stm32f4xx_hal_dcmi.c **** 
 318              		.loc 1 247 20 is_stmt 0 view .LVU114
 319 0054 0020     		movs	r0, #0
 320 0056 E063     		str	r0, [r4, #60]
 250:Libraries/STM32F4xx_HAL_Driver/Src/stm32f4xx_hal_dcmi.c **** 
 321              		.loc 1 250 3 is_stmt 1 view .LVU115
 250:Libraries/STM32F4xx_HAL_Driver/Src/stm32f4xx_hal_dcmi.c **** 
 322              		.loc 1 250 17 is_stmt 0 view .LVU116
 323 0058 0123     		movs	r3, #1
 324 005a 84F82530 		strb	r3, [r4, #37]
 252:Libraries/STM32F4xx_HAL_Driver/Src/stm32f4xx_hal_dcmi.c **** }
 325              		.loc 1 252 3 is_stmt 1 view .LVU117
 253:Libraries/STM32F4xx_HAL_Driver/Src/stm32f4xx_hal_dcmi.c **** 
 326              		.loc 1 253 1 is_stmt 0 view .LVU118
 327 005e 10BD     		pop	{r4, pc}
 328              	.LVL19:
 329              	.L21:
 199:Libraries/STM32F4xx_HAL_Driver/Src/stm32f4xx_hal_dcmi.c ****     /* Init the low level hardware */
 330              		.loc 1 199 5 is_stmt 1 view .LVU119
 199:Libraries/STM32F4xx_HAL_Driver/Src/stm32f4xx_hal_dcmi.c ****     /* Init the low level hardware */
 331              		.loc 1 199 17 is_stmt 0 view .LVU120
 332 0060 80F82430 		strb	r3, [r0, #36]
ARM GAS  C:\Users\yzy\AppData\Local\Temp\ccovssh5.s 			page 28


 217:Libraries/STM32F4xx_HAL_Driver/Src/stm32f4xx_hal_dcmi.c **** #endif /* (USE_HAL_DCMI_REGISTER_CALLBACKS) */
 333              		.loc 1 217 5 is_stmt 1 view .LVU121
 334 0064 FFF7FEFF 		bl	HAL_DCMI_MspInit
 335              	.LVL20:
 219:Libraries/STM32F4xx_HAL_Driver/Src/stm32f4xx_hal_dcmi.c ****   }
 336              		.loc 1 219 5 view .LVU122
 337 0068 2046     		mov	r0, r4
 338 006a FFF7FEFF 		bl	HAL_DCMI_MspInit
 339              	.LVL21:
 340 006e CEE7     		b	.L14
 341              	.L22:
 237:Libraries/STM32F4xx_HAL_Driver/Src/stm32f4xx_hal_dcmi.c ****                              ((uint32_t)hdcmi->Init.SyncroCode.LineStartCode << DCMI_POSITION_ESCR_
 342              		.loc 1 237 5 view .LVU123
 237:Libraries/STM32F4xx_HAL_Driver/Src/stm32f4xx_hal_dcmi.c ****                              ((uint32_t)hdcmi->Init.SyncroCode.LineStartCode << DCMI_POSITION_ESCR_
 343              		.loc 1 237 63 is_stmt 0 view .LVU124
 344 0070 237F     		ldrb	r3, [r4, #28]	@ zero_extendqisi2
 238:Libraries/STM32F4xx_HAL_Driver/Src/stm32f4xx_hal_dcmi.c ****                              ((uint32_t)hdcmi->Init.SyncroCode.LineEndCode << DCMI_POSITION_ESCR_LE
 345              		.loc 1 238 63 view .LVU125
 346 0072 627F     		ldrb	r2, [r4, #29]	@ zero_extendqisi2
 237:Libraries/STM32F4xx_HAL_Driver/Src/stm32f4xx_hal_dcmi.c ****                              ((uint32_t)hdcmi->Init.SyncroCode.LineStartCode << DCMI_POSITION_ESCR_
 347              		.loc 1 237 83 view .LVU126
 348 0074 43EA0223 		orr	r3, r3, r2, lsl #8
 239:Libraries/STM32F4xx_HAL_Driver/Src/stm32f4xx_hal_dcmi.c ****                              ((uint32_t)hdcmi->Init.SyncroCode.FrameEndCode << DCMI_POSITION_ESCR_F
 349              		.loc 1 239 63 view .LVU127
 350 0078 A27F     		ldrb	r2, [r4, #30]	@ zero_extendqisi2
 238:Libraries/STM32F4xx_HAL_Driver/Src/stm32f4xx_hal_dcmi.c ****                              ((uint32_t)hdcmi->Init.SyncroCode.LineEndCode << DCMI_POSITION_ESCR_LE
 351              		.loc 1 238 104 view .LVU128
 352 007a 43EA0243 		orr	r3, r3, r2, lsl #16
 240:Libraries/STM32F4xx_HAL_Driver/Src/stm32f4xx_hal_dcmi.c ****   }
 353              		.loc 1 240 63 view .LVU129
 354 007e E17F     		ldrb	r1, [r4, #31]	@ zero_extendqisi2
 237:Libraries/STM32F4xx_HAL_Driver/Src/stm32f4xx_hal_dcmi.c ****                              ((uint32_t)hdcmi->Init.SyncroCode.LineStartCode << DCMI_POSITION_ESCR_
 355              		.loc 1 237 10 view .LVU130
 356 0080 2268     		ldr	r2, [r4]
 239:Libraries/STM32F4xx_HAL_Driver/Src/stm32f4xx_hal_dcmi.c ****                              ((uint32_t)hdcmi->Init.SyncroCode.FrameEndCode << DCMI_POSITION_ESCR_F
 357              		.loc 1 239 103 view .LVU131
 358 0082 43EA0163 		orr	r3, r3, r1, lsl #24
 237:Libraries/STM32F4xx_HAL_Driver/Src/stm32f4xx_hal_dcmi.c ****                              ((uint32_t)hdcmi->Init.SyncroCode.LineStartCode << DCMI_POSITION_ESCR_
 359              		.loc 1 237 27 view .LVU132
 360 0086 9361     		str	r3, [r2, #24]
 361 0088 DFE7     		b	.L15
 362              	.LVL22:
 363              	.L16:
 364              	.LCFI2:
 365              		.cfi_def_cfa_offset 0
 366              		.cfi_restore 4
 367              		.cfi_restore 14
 183:Libraries/STM32F4xx_HAL_Driver/Src/stm32f4xx_hal_dcmi.c ****   }
 368              		.loc 1 183 13 view .LVU133
 369 008a 0120     		movs	r0, #1
 370              	.LVL23:
 253:Libraries/STM32F4xx_HAL_Driver/Src/stm32f4xx_hal_dcmi.c **** 
 371              		.loc 1 253 1 view .LVU134
 372 008c 7047     		bx	lr
 373              		.cfi_endproc
 374              	.LFE130:
 376              		.section	.text.HAL_DCMI_MspDeInit,"ax",%progbits
ARM GAS  C:\Users\yzy\AppData\Local\Temp\ccovssh5.s 			page 29


 377              		.align	1
 378              		.weak	HAL_DCMI_MspDeInit
 379              		.syntax unified
 380              		.thumb
 381              		.thumb_func
 382              		.fpu softvfp
 384              	HAL_DCMI_MspDeInit:
 385              	.LVL24:
 386              	.LFB133:
 311:Libraries/STM32F4xx_HAL_Driver/Src/stm32f4xx_hal_dcmi.c ****   /* Prevent unused argument(s) compilation warning */
 387              		.loc 1 311 1 is_stmt 1 view -0
 388              		.cfi_startproc
 389              		@ args = 0, pretend = 0, frame = 0
 390              		@ frame_needed = 0, uses_anonymous_args = 0
 391              		@ link register save eliminated.
 313:Libraries/STM32F4xx_HAL_Driver/Src/stm32f4xx_hal_dcmi.c ****   /* NOTE : This function Should not be modified, when the callback is needed,
 392              		.loc 1 313 3 view .LVU136
 317:Libraries/STM32F4xx_HAL_Driver/Src/stm32f4xx_hal_dcmi.c **** 
 393              		.loc 1 317 1 is_stmt 0 view .LVU137
 394 0000 7047     		bx	lr
 395              		.cfi_endproc
 396              	.LFE133:
 398              		.section	.text.HAL_DCMI_DeInit,"ax",%progbits
 399              		.align	1
 400              		.global	HAL_DCMI_DeInit
 401              		.syntax unified
 402              		.thumb
 403              		.thumb_func
 404              		.fpu softvfp
 406              	HAL_DCMI_DeInit:
 407              	.LVL25:
 408              	.LFB131:
 264:Libraries/STM32F4xx_HAL_Driver/Src/stm32f4xx_hal_dcmi.c **** #if (USE_HAL_DCMI_REGISTER_CALLBACKS == 1)  
 409              		.loc 1 264 1 is_stmt 1 view -0
 410              		.cfi_startproc
 411              		@ args = 0, pretend = 0, frame = 0
 412              		@ frame_needed = 0, uses_anonymous_args = 0
 264:Libraries/STM32F4xx_HAL_Driver/Src/stm32f4xx_hal_dcmi.c **** #if (USE_HAL_DCMI_REGISTER_CALLBACKS == 1)  
 413              		.loc 1 264 1 is_stmt 0 view .LVU139
 414 0000 10B5     		push	{r4, lr}
 415              	.LCFI3:
 416              		.cfi_def_cfa_offset 8
 417              		.cfi_offset 4, -8
 418              		.cfi_offset 14, -4
 419 0002 0446     		mov	r4, r0
 274:Libraries/STM32F4xx_HAL_Driver/Src/stm32f4xx_hal_dcmi.c **** #endif /* (USE_HAL_DCMI_REGISTER_CALLBACKS) */
 420              		.loc 1 274 3 is_stmt 1 view .LVU140
 421 0004 FFF7FEFF 		bl	HAL_DCMI_MspDeInit
 422              	.LVL26:
 278:Libraries/STM32F4xx_HAL_Driver/Src/stm32f4xx_hal_dcmi.c **** 
 423              		.loc 1 278 3 view .LVU141
 278:Libraries/STM32F4xx_HAL_Driver/Src/stm32f4xx_hal_dcmi.c **** 
 424              		.loc 1 278 20 is_stmt 0 view .LVU142
 425 0008 0020     		movs	r0, #0
 426 000a E063     		str	r0, [r4, #60]
 281:Libraries/STM32F4xx_HAL_Driver/Src/stm32f4xx_hal_dcmi.c **** 
 427              		.loc 1 281 3 is_stmt 1 view .LVU143
ARM GAS  C:\Users\yzy\AppData\Local\Temp\ccovssh5.s 			page 30


 281:Libraries/STM32F4xx_HAL_Driver/Src/stm32f4xx_hal_dcmi.c **** 
 428              		.loc 1 281 16 is_stmt 0 view .LVU144
 429 000c 84F82500 		strb	r0, [r4, #37]
 284:Libraries/STM32F4xx_HAL_Driver/Src/stm32f4xx_hal_dcmi.c **** 
 430              		.loc 1 284 3 is_stmt 1 view .LVU145
 284:Libraries/STM32F4xx_HAL_Driver/Src/stm32f4xx_hal_dcmi.c **** 
 431              		.loc 1 284 3 view .LVU146
 432 0010 84F82400 		strb	r0, [r4, #36]
 284:Libraries/STM32F4xx_HAL_Driver/Src/stm32f4xx_hal_dcmi.c **** 
 433              		.loc 1 284 3 view .LVU147
 286:Libraries/STM32F4xx_HAL_Driver/Src/stm32f4xx_hal_dcmi.c **** }
 434              		.loc 1 286 3 view .LVU148
 287:Libraries/STM32F4xx_HAL_Driver/Src/stm32f4xx_hal_dcmi.c **** 
 435              		.loc 1 287 1 is_stmt 0 view .LVU149
 436 0014 10BD     		pop	{r4, pc}
 287:Libraries/STM32F4xx_HAL_Driver/Src/stm32f4xx_hal_dcmi.c **** 
 437              		.loc 1 287 1 view .LVU150
 438              		.cfi_endproc
 439              	.LFE131:
 441              		.section	.text.HAL_DCMI_Start_DMA,"ax",%progbits
 442              		.align	1
 443              		.global	HAL_DCMI_Start_DMA
 444              		.syntax unified
 445              		.thumb
 446              		.thumb_func
 447              		.fpu softvfp
 449              	HAL_DCMI_Start_DMA:
 450              	.LVL27:
 451              	.LFB134:
 349:Libraries/STM32F4xx_HAL_Driver/Src/stm32f4xx_hal_dcmi.c ****   /* Initialize the second memory address */
 452              		.loc 1 349 1 is_stmt 1 view -0
 453              		.cfi_startproc
 454              		@ args = 0, pretend = 0, frame = 0
 455              		@ frame_needed = 0, uses_anonymous_args = 0
 349:Libraries/STM32F4xx_HAL_Driver/Src/stm32f4xx_hal_dcmi.c ****   /* Initialize the second memory address */
 456              		.loc 1 349 1 is_stmt 0 view .LVU152
 457 0000 30B5     		push	{r4, r5, lr}
 458              	.LCFI4:
 459              		.cfi_def_cfa_offset 12
 460              		.cfi_offset 4, -12
 461              		.cfi_offset 5, -8
 462              		.cfi_offset 14, -4
 463 0002 83B0     		sub	sp, sp, #12
 464              	.LCFI5:
 465              		.cfi_def_cfa_offset 24
 466 0004 0446     		mov	r4, r0
 351:Libraries/STM32F4xx_HAL_Driver/Src/stm32f4xx_hal_dcmi.c **** 
 467              		.loc 1 351 3 is_stmt 1 view .LVU153
 468              	.LVL28:
 354:Libraries/STM32F4xx_HAL_Driver/Src/stm32f4xx_hal_dcmi.c **** 
 469              		.loc 1 354 3 view .LVU154
 357:Libraries/STM32F4xx_HAL_Driver/Src/stm32f4xx_hal_dcmi.c **** 
 470              		.loc 1 357 3 view .LVU155
 357:Libraries/STM32F4xx_HAL_Driver/Src/stm32f4xx_hal_dcmi.c **** 
 471              		.loc 1 357 3 view .LVU156
 472 0006 90F82400 		ldrb	r0, [r0, #36]	@ zero_extendqisi2
 473              	.LVL29:
ARM GAS  C:\Users\yzy\AppData\Local\Temp\ccovssh5.s 			page 31


 357:Libraries/STM32F4xx_HAL_Driver/Src/stm32f4xx_hal_dcmi.c **** 
 474              		.loc 1 357 3 is_stmt 0 view .LVU157
 475 000a 0128     		cmp	r0, #1
 476 000c 52D0     		beq	.L32
 357:Libraries/STM32F4xx_HAL_Driver/Src/stm32f4xx_hal_dcmi.c **** 
 477              		.loc 1 357 3 is_stmt 1 discriminator 2 view .LVU158
 478 000e 0120     		movs	r0, #1
 479 0010 84F82400 		strb	r0, [r4, #36]
 357:Libraries/STM32F4xx_HAL_Driver/Src/stm32f4xx_hal_dcmi.c **** 
 480              		.loc 1 357 3 discriminator 2 view .LVU159
 360:Libraries/STM32F4xx_HAL_Driver/Src/stm32f4xx_hal_dcmi.c ****   
 481              		.loc 1 360 3 discriminator 2 view .LVU160
 360:Libraries/STM32F4xx_HAL_Driver/Src/stm32f4xx_hal_dcmi.c ****   
 482              		.loc 1 360 16 is_stmt 0 discriminator 2 view .LVU161
 483 0014 0220     		movs	r0, #2
 484 0016 84F82500 		strb	r0, [r4, #37]
 363:Libraries/STM32F4xx_HAL_Driver/Src/stm32f4xx_hal_dcmi.c **** 
 485              		.loc 1 363 3 is_stmt 1 discriminator 2 view .LVU162
 486 001a 2568     		ldr	r5, [r4]
 487 001c 2868     		ldr	r0, [r5]
 488 001e 40F48040 		orr	r0, r0, #16384
 489 0022 2860     		str	r0, [r5]
 366:Libraries/STM32F4xx_HAL_Driver/Src/stm32f4xx_hal_dcmi.c ****   hdcmi->Instance->CR |=  (uint32_t)(DCMI_Mode);
 490              		.loc 1 366 3 discriminator 2 view .LVU163
 366:Libraries/STM32F4xx_HAL_Driver/Src/stm32f4xx_hal_dcmi.c ****   hdcmi->Instance->CR |=  (uint32_t)(DCMI_Mode);
 491              		.loc 1 366 8 is_stmt 0 discriminator 2 view .LVU164
 492 0024 2568     		ldr	r5, [r4]
 366:Libraries/STM32F4xx_HAL_Driver/Src/stm32f4xx_hal_dcmi.c ****   hdcmi->Instance->CR |=  (uint32_t)(DCMI_Mode);
 493              		.loc 1 366 23 discriminator 2 view .LVU165
 494 0026 2868     		ldr	r0, [r5]
 495 0028 20F00200 		bic	r0, r0, #2
 496 002c 2860     		str	r0, [r5]
 367:Libraries/STM32F4xx_HAL_Driver/Src/stm32f4xx_hal_dcmi.c **** 
 497              		.loc 1 367 3 is_stmt 1 discriminator 2 view .LVU166
 367:Libraries/STM32F4xx_HAL_Driver/Src/stm32f4xx_hal_dcmi.c **** 
 498              		.loc 1 367 8 is_stmt 0 discriminator 2 view .LVU167
 499 002e 2568     		ldr	r5, [r4]
 367:Libraries/STM32F4xx_HAL_Driver/Src/stm32f4xx_hal_dcmi.c **** 
 500              		.loc 1 367 23 discriminator 2 view .LVU168
 501 0030 2868     		ldr	r0, [r5]
 502 0032 0143     		orrs	r1, r1, r0
 503              	.LVL30:
 367:Libraries/STM32F4xx_HAL_Driver/Src/stm32f4xx_hal_dcmi.c **** 
 504              		.loc 1 367 23 discriminator 2 view .LVU169
 505 0034 2960     		str	r1, [r5]
 370:Libraries/STM32F4xx_HAL_Driver/Src/stm32f4xx_hal_dcmi.c **** 
 506              		.loc 1 370 3 is_stmt 1 discriminator 2 view .LVU170
 370:Libraries/STM32F4xx_HAL_Driver/Src/stm32f4xx_hal_dcmi.c **** 
 507              		.loc 1 370 8 is_stmt 0 discriminator 2 view .LVU171
 508 0036 A16B     		ldr	r1, [r4, #56]
 370:Libraries/STM32F4xx_HAL_Driver/Src/stm32f4xx_hal_dcmi.c **** 
 509              		.loc 1 370 39 discriminator 2 view .LVU172
 510 0038 1F48     		ldr	r0, .L35
 511 003a C863     		str	r0, [r1, #60]
 373:Libraries/STM32F4xx_HAL_Driver/Src/stm32f4xx_hal_dcmi.c **** 
 512              		.loc 1 373 3 is_stmt 1 discriminator 2 view .LVU173
 373:Libraries/STM32F4xx_HAL_Driver/Src/stm32f4xx_hal_dcmi.c **** 
ARM GAS  C:\Users\yzy\AppData\Local\Temp\ccovssh5.s 			page 32


 513              		.loc 1 373 8 is_stmt 0 discriminator 2 view .LVU174
 514 003c A16B     		ldr	r1, [r4, #56]
 373:Libraries/STM32F4xx_HAL_Driver/Src/stm32f4xx_hal_dcmi.c **** 
 515              		.loc 1 373 40 discriminator 2 view .LVU175
 516 003e 1F48     		ldr	r0, .L35+4
 517 0040 C864     		str	r0, [r1, #76]
 376:Libraries/STM32F4xx_HAL_Driver/Src/stm32f4xx_hal_dcmi.c ****   
 518              		.loc 1 376 3 is_stmt 1 discriminator 2 view .LVU176
 376:Libraries/STM32F4xx_HAL_Driver/Src/stm32f4xx_hal_dcmi.c ****   
 519              		.loc 1 376 8 is_stmt 0 discriminator 2 view .LVU177
 520 0042 A06B     		ldr	r0, [r4, #56]
 376:Libraries/STM32F4xx_HAL_Driver/Src/stm32f4xx_hal_dcmi.c ****   
 521              		.loc 1 376 40 discriminator 2 view .LVU178
 522 0044 0021     		movs	r1, #0
 523 0046 0165     		str	r1, [r0, #80]
 379:Libraries/STM32F4xx_HAL_Driver/Src/stm32f4xx_hal_dcmi.c ****   hdcmi->XferTransferNumber = 0U;
 524              		.loc 1 379 3 is_stmt 1 discriminator 2 view .LVU179
 379:Libraries/STM32F4xx_HAL_Driver/Src/stm32f4xx_hal_dcmi.c ****   hdcmi->XferTransferNumber = 0U;
 525              		.loc 1 379 20 is_stmt 0 discriminator 2 view .LVU180
 526 0048 A162     		str	r1, [r4, #40]
 380:Libraries/STM32F4xx_HAL_Driver/Src/stm32f4xx_hal_dcmi.c **** 
 527              		.loc 1 380 3 is_stmt 1 discriminator 2 view .LVU181
 380:Libraries/STM32F4xx_HAL_Driver/Src/stm32f4xx_hal_dcmi.c **** 
 528              		.loc 1 380 29 is_stmt 0 discriminator 2 view .LVU182
 529 004a 2163     		str	r1, [r4, #48]
 382:Libraries/STM32F4xx_HAL_Driver/Src/stm32f4xx_hal_dcmi.c ****   {
 530              		.loc 1 382 3 is_stmt 1 discriminator 2 view .LVU183
 382:Libraries/STM32F4xx_HAL_Driver/Src/stm32f4xx_hal_dcmi.c ****   {
 531              		.loc 1 382 5 is_stmt 0 discriminator 2 view .LVU184
 532 004c B3F5803F 		cmp	r3, #65536
 533 0050 07D3     		bcc	.L34
 390:Libraries/STM32F4xx_HAL_Driver/Src/stm32f4xx_hal_dcmi.c **** 
 534              		.loc 1 390 5 is_stmt 1 view .LVU185
 390:Libraries/STM32F4xx_HAL_Driver/Src/stm32f4xx_hal_dcmi.c **** 
 535              		.loc 1 390 10 is_stmt 0 view .LVU186
 536 0052 A16B     		ldr	r1, [r4, #56]
 390:Libraries/STM32F4xx_HAL_Driver/Src/stm32f4xx_hal_dcmi.c **** 
 537              		.loc 1 390 43 view .LVU187
 538 0054 1848     		ldr	r0, .L35
 539 0056 4864     		str	r0, [r1, #68]
 393:Libraries/STM32F4xx_HAL_Driver/Src/stm32f4xx_hal_dcmi.c ****     hdcmi->XferSize = Length;
 540              		.loc 1 393 5 is_stmt 1 view .LVU188
 393:Libraries/STM32F4xx_HAL_Driver/Src/stm32f4xx_hal_dcmi.c ****     hdcmi->XferSize = Length;
 541              		.loc 1 393 22 is_stmt 0 view .LVU189
 542 0058 0121     		movs	r1, #1
 543 005a A162     		str	r1, [r4, #40]
 394:Libraries/STM32F4xx_HAL_Driver/Src/stm32f4xx_hal_dcmi.c ****     hdcmi->pBuffPtr = pData;
 544              		.loc 1 394 5 is_stmt 1 view .LVU190
 394:Libraries/STM32F4xx_HAL_Driver/Src/stm32f4xx_hal_dcmi.c ****     hdcmi->pBuffPtr = pData;
 545              		.loc 1 394 21 is_stmt 0 view .LVU191
 546 005c E362     		str	r3, [r4, #44]
 395:Libraries/STM32F4xx_HAL_Driver/Src/stm32f4xx_hal_dcmi.c **** 
 547              		.loc 1 395 5 is_stmt 1 view .LVU192
 395:Libraries/STM32F4xx_HAL_Driver/Src/stm32f4xx_hal_dcmi.c **** 
 548              		.loc 1 395 21 is_stmt 0 view .LVU193
 549 005e 6263     		str	r2, [r4, #52]
 398:Libraries/STM32F4xx_HAL_Driver/Src/stm32f4xx_hal_dcmi.c ****     {
ARM GAS  C:\Users\yzy\AppData\Local\Temp\ccovssh5.s 			page 33


 550              		.loc 1 398 5 is_stmt 1 view .LVU194
 398:Libraries/STM32F4xx_HAL_Driver/Src/stm32f4xx_hal_dcmi.c ****     {
 551              		.loc 1 398 10 is_stmt 0 view .LVU195
 552 0060 0BE0     		b	.L30
 553              	.L34:
 385:Libraries/STM32F4xx_HAL_Driver/Src/stm32f4xx_hal_dcmi.c ****   }
 554              		.loc 1 385 5 is_stmt 1 view .LVU196
 385:Libraries/STM32F4xx_HAL_Driver/Src/stm32f4xx_hal_dcmi.c ****   }
 555              		.loc 1 385 57 is_stmt 0 view .LVU197
 556 0062 2168     		ldr	r1, [r4]
 385:Libraries/STM32F4xx_HAL_Driver/Src/stm32f4xx_hal_dcmi.c ****   }
 557              		.loc 1 385 5 view .LVU198
 558 0064 2831     		adds	r1, r1, #40
 559 0066 A06B     		ldr	r0, [r4, #56]
 560 0068 FFF7FEFF 		bl	HAL_DMA_Start_IT
 561              	.LVL31:
 385:Libraries/STM32F4xx_HAL_Driver/Src/stm32f4xx_hal_dcmi.c ****   }
 562              		.loc 1 385 5 view .LVU199
 563 006c 18E0     		b	.L29
 564              	.LVL32:
 565              	.L31:
 400:Libraries/STM32F4xx_HAL_Driver/Src/stm32f4xx_hal_dcmi.c ****       hdcmi->XferCount = hdcmi->XferCount*2U;
 566              		.loc 1 400 7 is_stmt 1 view .LVU200
 400:Libraries/STM32F4xx_HAL_Driver/Src/stm32f4xx_hal_dcmi.c ****       hdcmi->XferCount = hdcmi->XferCount*2U;
 567              		.loc 1 400 31 is_stmt 0 view .LVU201
 568 006e E36A     		ldr	r3, [r4, #44]
 400:Libraries/STM32F4xx_HAL_Driver/Src/stm32f4xx_hal_dcmi.c ****       hdcmi->XferCount = hdcmi->XferCount*2U;
 569              		.loc 1 400 41 view .LVU202
 570 0070 5B08     		lsrs	r3, r3, #1
 400:Libraries/STM32F4xx_HAL_Driver/Src/stm32f4xx_hal_dcmi.c ****       hdcmi->XferCount = hdcmi->XferCount*2U;
 571              		.loc 1 400 23 view .LVU203
 572 0072 E362     		str	r3, [r4, #44]
 401:Libraries/STM32F4xx_HAL_Driver/Src/stm32f4xx_hal_dcmi.c ****     }
 573              		.loc 1 401 7 is_stmt 1 view .LVU204
 401:Libraries/STM32F4xx_HAL_Driver/Src/stm32f4xx_hal_dcmi.c ****     }
 574              		.loc 1 401 31 is_stmt 0 view .LVU205
 575 0074 A36A     		ldr	r3, [r4, #40]
 401:Libraries/STM32F4xx_HAL_Driver/Src/stm32f4xx_hal_dcmi.c ****     }
 576              		.loc 1 401 42 view .LVU206
 577 0076 5B00     		lsls	r3, r3, #1
 401:Libraries/STM32F4xx_HAL_Driver/Src/stm32f4xx_hal_dcmi.c ****     }
 578              		.loc 1 401 24 view .LVU207
 579 0078 A362     		str	r3, [r4, #40]
 580              	.L30:
 398:Libraries/STM32F4xx_HAL_Driver/Src/stm32f4xx_hal_dcmi.c ****     {
 581              		.loc 1 398 10 is_stmt 1 view .LVU208
 398:Libraries/STM32F4xx_HAL_Driver/Src/stm32f4xx_hal_dcmi.c ****     {
 582              		.loc 1 398 16 is_stmt 0 view .LVU209
 583 007a E36A     		ldr	r3, [r4, #44]
 398:Libraries/STM32F4xx_HAL_Driver/Src/stm32f4xx_hal_dcmi.c ****     {
 584              		.loc 1 398 10 view .LVU210
 585 007c B3F5803F 		cmp	r3, #65536
 586 0080 F5D2     		bcs	.L31
 405:Libraries/STM32F4xx_HAL_Driver/Src/stm32f4xx_hal_dcmi.c ****     hdcmi->XferTransferNumber = hdcmi->XferCount;
 587              		.loc 1 405 5 is_stmt 1 view .LVU211
 405:Libraries/STM32F4xx_HAL_Driver/Src/stm32f4xx_hal_dcmi.c ****     hdcmi->XferTransferNumber = hdcmi->XferCount;
 588              		.loc 1 405 30 is_stmt 0 view .LVU212
ARM GAS  C:\Users\yzy\AppData\Local\Temp\ccovssh5.s 			page 34


 589 0082 A36A     		ldr	r3, [r4, #40]
 405:Libraries/STM32F4xx_HAL_Driver/Src/stm32f4xx_hal_dcmi.c ****     hdcmi->XferTransferNumber = hdcmi->XferCount;
 590              		.loc 1 405 42 view .LVU213
 591 0084 023B     		subs	r3, r3, #2
 405:Libraries/STM32F4xx_HAL_Driver/Src/stm32f4xx_hal_dcmi.c ****     hdcmi->XferTransferNumber = hdcmi->XferCount;
 592              		.loc 1 405 22 view .LVU214
 593 0086 A362     		str	r3, [r4, #40]
 406:Libraries/STM32F4xx_HAL_Driver/Src/stm32f4xx_hal_dcmi.c **** 
 594              		.loc 1 406 5 is_stmt 1 view .LVU215
 406:Libraries/STM32F4xx_HAL_Driver/Src/stm32f4xx_hal_dcmi.c **** 
 595              		.loc 1 406 38 is_stmt 0 view .LVU216
 596 0088 A36A     		ldr	r3, [r4, #40]
 406:Libraries/STM32F4xx_HAL_Driver/Src/stm32f4xx_hal_dcmi.c **** 
 597              		.loc 1 406 31 view .LVU217
 598 008a 2363     		str	r3, [r4, #48]
 409:Libraries/STM32F4xx_HAL_Driver/Src/stm32f4xx_hal_dcmi.c **** 
 599              		.loc 1 409 5 is_stmt 1 view .LVU218
 409:Libraries/STM32F4xx_HAL_Driver/Src/stm32f4xx_hal_dcmi.c **** 
 600              		.loc 1 409 52 is_stmt 0 view .LVU219
 601 008c E36A     		ldr	r3, [r4, #44]
 602              	.LVL33:
 412:Libraries/STM32F4xx_HAL_Driver/Src/stm32f4xx_hal_dcmi.c ****   }
 603              		.loc 1 412 5 is_stmt 1 view .LVU220
 412:Libraries/STM32F4xx_HAL_Driver/Src/stm32f4xx_hal_dcmi.c ****   }
 604              		.loc 1 412 70 is_stmt 0 view .LVU221
 605 008e 2168     		ldr	r1, [r4]
 412:Libraries/STM32F4xx_HAL_Driver/Src/stm32f4xx_hal_dcmi.c ****   }
 606              		.loc 1 412 5 view .LVU222
 607 0090 E06A     		ldr	r0, [r4, #44]
 608 0092 0090     		str	r0, [sp]
 609 0094 02EB8303 		add	r3, r2, r3, lsl #2
 610              	.LVL34:
 412:Libraries/STM32F4xx_HAL_Driver/Src/stm32f4xx_hal_dcmi.c ****   }
 611              		.loc 1 412 5 view .LVU223
 612 0098 2831     		adds	r1, r1, #40
 613 009a A06B     		ldr	r0, [r4, #56]
 614 009c FFF7FEFF 		bl	HAL_DMAEx_MultiBufferStart_IT
 615              	.LVL35:
 616              	.L29:
 416:Libraries/STM32F4xx_HAL_Driver/Src/stm32f4xx_hal_dcmi.c **** 
 617              		.loc 1 416 3 is_stmt 1 view .LVU224
 416:Libraries/STM32F4xx_HAL_Driver/Src/stm32f4xx_hal_dcmi.c **** 
 618              		.loc 1 416 8 is_stmt 0 view .LVU225
 619 00a0 2268     		ldr	r2, [r4]
 416:Libraries/STM32F4xx_HAL_Driver/Src/stm32f4xx_hal_dcmi.c **** 
 620              		.loc 1 416 23 view .LVU226
 621 00a2 1368     		ldr	r3, [r2]
 622 00a4 43F00103 		orr	r3, r3, #1
 623 00a8 1360     		str	r3, [r2]
 419:Libraries/STM32F4xx_HAL_Driver/Src/stm32f4xx_hal_dcmi.c **** 
 624              		.loc 1 419 3 is_stmt 1 view .LVU227
 419:Libraries/STM32F4xx_HAL_Driver/Src/stm32f4xx_hal_dcmi.c **** 
 625              		.loc 1 419 3 view .LVU228
 626 00aa 0020     		movs	r0, #0
 627 00ac 84F82400 		strb	r0, [r4, #36]
 419:Libraries/STM32F4xx_HAL_Driver/Src/stm32f4xx_hal_dcmi.c **** 
 628              		.loc 1 419 3 view .LVU229
ARM GAS  C:\Users\yzy\AppData\Local\Temp\ccovssh5.s 			page 35


 422:Libraries/STM32F4xx_HAL_Driver/Src/stm32f4xx_hal_dcmi.c **** }
 629              		.loc 1 422 3 view .LVU230
 630              	.L27:
 423:Libraries/STM32F4xx_HAL_Driver/Src/stm32f4xx_hal_dcmi.c **** 
 631              		.loc 1 423 1 is_stmt 0 view .LVU231
 632 00b0 03B0     		add	sp, sp, #12
 633              	.LCFI6:
 634              		.cfi_remember_state
 635              		.cfi_def_cfa_offset 12
 636              		@ sp needed
 637 00b2 30BD     		pop	{r4, r5, pc}
 638              	.LVL36:
 639              	.L32:
 640              	.LCFI7:
 641              		.cfi_restore_state
 357:Libraries/STM32F4xx_HAL_Driver/Src/stm32f4xx_hal_dcmi.c **** 
 642              		.loc 1 357 3 view .LVU232
 643 00b4 0220     		movs	r0, #2
 644 00b6 FBE7     		b	.L27
 645              	.L36:
 646              		.align	2
 647              	.L35:
 648 00b8 00000000 		.word	DCMI_DMAXferCplt
 649 00bc 00000000 		.word	DCMI_DMAError
 650              		.cfi_endproc
 651              	.LFE134:
 653              		.section	.text.HAL_DCMI_Stop,"ax",%progbits
 654              		.align	1
 655              		.global	HAL_DCMI_Stop
 656              		.syntax unified
 657              		.thumb
 658              		.thumb_func
 659              		.fpu softvfp
 661              	HAL_DCMI_Stop:
 662              	.LVL37:
 663              	.LFB135:
 432:Libraries/STM32F4xx_HAL_Driver/Src/stm32f4xx_hal_dcmi.c ****   __IO uint32_t count = SystemCoreClock / HAL_TIMEOUT_DCMI_STOP;
 664              		.loc 1 432 1 is_stmt 1 view -0
 665              		.cfi_startproc
 666              		@ args = 0, pretend = 0, frame = 8
 667              		@ frame_needed = 0, uses_anonymous_args = 0
 432:Libraries/STM32F4xx_HAL_Driver/Src/stm32f4xx_hal_dcmi.c ****   __IO uint32_t count = SystemCoreClock / HAL_TIMEOUT_DCMI_STOP;
 668              		.loc 1 432 1 is_stmt 0 view .LVU234
 669 0000 30B5     		push	{r4, r5, lr}
 670              	.LCFI8:
 671              		.cfi_def_cfa_offset 12
 672              		.cfi_offset 4, -12
 673              		.cfi_offset 5, -8
 674              		.cfi_offset 14, -4
 675 0002 83B0     		sub	sp, sp, #12
 676              	.LCFI9:
 677              		.cfi_def_cfa_offset 24
 433:Libraries/STM32F4xx_HAL_Driver/Src/stm32f4xx_hal_dcmi.c ****   HAL_StatusTypeDef status = HAL_OK;
 678              		.loc 1 433 3 is_stmt 1 view .LVU235
 433:Libraries/STM32F4xx_HAL_Driver/Src/stm32f4xx_hal_dcmi.c ****   HAL_StatusTypeDef status = HAL_OK;
 679              		.loc 1 433 41 is_stmt 0 view .LVU236
 680 0004 1E4B     		ldr	r3, .L45
ARM GAS  C:\Users\yzy\AppData\Local\Temp\ccovssh5.s 			page 36


 681 0006 1B68     		ldr	r3, [r3]
 682 0008 5B08     		lsrs	r3, r3, #1
 683 000a 1E4A     		ldr	r2, .L45+4
 684 000c A2FB0323 		umull	r2, r3, r2, r3
 685 0010 9B08     		lsrs	r3, r3, #2
 433:Libraries/STM32F4xx_HAL_Driver/Src/stm32f4xx_hal_dcmi.c ****   HAL_StatusTypeDef status = HAL_OK;
 686              		.loc 1 433 17 view .LVU237
 687 0012 0193     		str	r3, [sp, #4]
 434:Libraries/STM32F4xx_HAL_Driver/Src/stm32f4xx_hal_dcmi.c **** 
 688              		.loc 1 434 3 is_stmt 1 view .LVU238
 689              	.LVL38:
 437:Libraries/STM32F4xx_HAL_Driver/Src/stm32f4xx_hal_dcmi.c ****   
 690              		.loc 1 437 3 view .LVU239
 437:Libraries/STM32F4xx_HAL_Driver/Src/stm32f4xx_hal_dcmi.c ****   
 691              		.loc 1 437 3 view .LVU240
 692 0014 90F82430 		ldrb	r3, [r0, #36]	@ zero_extendqisi2
 693 0018 012B     		cmp	r3, #1
 694 001a 2ED0     		beq	.L42
 695 001c 0446     		mov	r4, r0
 437:Libraries/STM32F4xx_HAL_Driver/Src/stm32f4xx_hal_dcmi.c ****   
 696              		.loc 1 437 3 discriminator 2 view .LVU241
 697 001e 0123     		movs	r3, #1
 698 0020 80F82430 		strb	r3, [r0, #36]
 437:Libraries/STM32F4xx_HAL_Driver/Src/stm32f4xx_hal_dcmi.c ****   
 699              		.loc 1 437 3 discriminator 2 view .LVU242
 440:Libraries/STM32F4xx_HAL_Driver/Src/stm32f4xx_hal_dcmi.c **** 
 700              		.loc 1 440 3 discriminator 2 view .LVU243
 440:Libraries/STM32F4xx_HAL_Driver/Src/stm32f4xx_hal_dcmi.c **** 
 701              		.loc 1 440 16 is_stmt 0 discriminator 2 view .LVU244
 702 0024 0223     		movs	r3, #2
 703 0026 80F82530 		strb	r3, [r0, #37]
 443:Libraries/STM32F4xx_HAL_Driver/Src/stm32f4xx_hal_dcmi.c **** 
 704              		.loc 1 443 3 is_stmt 1 discriminator 2 view .LVU245
 443:Libraries/STM32F4xx_HAL_Driver/Src/stm32f4xx_hal_dcmi.c **** 
 705              		.loc 1 443 8 is_stmt 0 discriminator 2 view .LVU246
 706 002a 0268     		ldr	r2, [r0]
 443:Libraries/STM32F4xx_HAL_Driver/Src/stm32f4xx_hal_dcmi.c **** 
 707              		.loc 1 443 23 discriminator 2 view .LVU247
 708 002c 1368     		ldr	r3, [r2]
 709 002e 23F00103 		bic	r3, r3, #1
 710 0032 1360     		str	r3, [r2]
 711              	.L41:
 446:Libraries/STM32F4xx_HAL_Driver/Src/stm32f4xx_hal_dcmi.c ****   {
 712              		.loc 1 446 3 is_stmt 1 view .LVU248
 448:Libraries/STM32F4xx_HAL_Driver/Src/stm32f4xx_hal_dcmi.c ****     {
 713              		.loc 1 448 5 view .LVU249
 448:Libraries/STM32F4xx_HAL_Driver/Src/stm32f4xx_hal_dcmi.c ****     {
 714              		.loc 1 448 14 is_stmt 0 view .LVU250
 715 0034 019B     		ldr	r3, [sp, #4]
 716 0036 5A1E     		subs	r2, r3, #1
 717 0038 0192     		str	r2, [sp, #4]
 448:Libraries/STM32F4xx_HAL_Driver/Src/stm32f4xx_hal_dcmi.c ****     {
 718              		.loc 1 448 8 view .LVU251
 719 003a 33B1     		cbz	r3, .L44
 457:Libraries/STM32F4xx_HAL_Driver/Src/stm32f4xx_hal_dcmi.c **** 
 720              		.loc 1 457 8 is_stmt 1 view .LVU252
 457:Libraries/STM32F4xx_HAL_Driver/Src/stm32f4xx_hal_dcmi.c **** 
ARM GAS  C:\Users\yzy\AppData\Local\Temp\ccovssh5.s 			page 37


 721              		.loc 1 457 15 is_stmt 0 view .LVU253
 722 003c 2368     		ldr	r3, [r4]
 457:Libraries/STM32F4xx_HAL_Driver/Src/stm32f4xx_hal_dcmi.c **** 
 723              		.loc 1 457 25 view .LVU254
 724 003e 1B68     		ldr	r3, [r3]
 457:Libraries/STM32F4xx_HAL_Driver/Src/stm32f4xx_hal_dcmi.c **** 
 725              		.loc 1 457 3 view .LVU255
 726 0040 13F0010F 		tst	r3, #1
 727 0044 F6D1     		bne	.L41
 434:Libraries/STM32F4xx_HAL_Driver/Src/stm32f4xx_hal_dcmi.c **** 
 728              		.loc 1 434 21 view .LVU256
 729 0046 0025     		movs	r5, #0
 730 0048 04E0     		b	.L40
 731              	.L44:
 451:Libraries/STM32F4xx_HAL_Driver/Src/stm32f4xx_hal_dcmi.c **** 
 732              		.loc 1 451 7 is_stmt 1 view .LVU257
 451:Libraries/STM32F4xx_HAL_Driver/Src/stm32f4xx_hal_dcmi.c **** 
 733              		.loc 1 451 24 is_stmt 0 view .LVU258
 734 004a E36B     		ldr	r3, [r4, #60]
 735 004c 43F02003 		orr	r3, r3, #32
 736 0050 E363     		str	r3, [r4, #60]
 453:Libraries/STM32F4xx_HAL_Driver/Src/stm32f4xx_hal_dcmi.c ****       break;
 737              		.loc 1 453 7 is_stmt 1 view .LVU259
 738              	.LVL39:
 454:Libraries/STM32F4xx_HAL_Driver/Src/stm32f4xx_hal_dcmi.c ****     }
 739              		.loc 1 454 7 view .LVU260
 453:Libraries/STM32F4xx_HAL_Driver/Src/stm32f4xx_hal_dcmi.c ****       break;
 740              		.loc 1 453 14 is_stmt 0 view .LVU261
 741 0052 0325     		movs	r5, #3
 742              	.LVL40:
 743              	.L40:
 460:Libraries/STM32F4xx_HAL_Driver/Src/stm32f4xx_hal_dcmi.c **** 
 744              		.loc 1 460 3 is_stmt 1 view .LVU262
 745 0054 2268     		ldr	r2, [r4]
 746 0056 1368     		ldr	r3, [r2]
 747 0058 23F48043 		bic	r3, r3, #16384
 748 005c 1360     		str	r3, [r2]
 463:Libraries/STM32F4xx_HAL_Driver/Src/stm32f4xx_hal_dcmi.c **** 
 749              		.loc 1 463 3 view .LVU263
 750 005e A06B     		ldr	r0, [r4, #56]
 751              	.LVL41:
 463:Libraries/STM32F4xx_HAL_Driver/Src/stm32f4xx_hal_dcmi.c **** 
 752              		.loc 1 463 3 is_stmt 0 view .LVU264
 753 0060 FFF7FEFF 		bl	HAL_DMA_Abort
 754              	.LVL42:
 466:Libraries/STM32F4xx_HAL_Driver/Src/stm32f4xx_hal_dcmi.c **** 
 755              		.loc 1 466 3 is_stmt 1 view .LVU265
 466:Libraries/STM32F4xx_HAL_Driver/Src/stm32f4xx_hal_dcmi.c **** 
 756              		.loc 1 466 20 is_stmt 0 view .LVU266
 757 0064 E36B     		ldr	r3, [r4, #60]
 758 0066 E363     		str	r3, [r4, #60]
 469:Libraries/STM32F4xx_HAL_Driver/Src/stm32f4xx_hal_dcmi.c **** 
 759              		.loc 1 469 3 is_stmt 1 view .LVU267
 469:Libraries/STM32F4xx_HAL_Driver/Src/stm32f4xx_hal_dcmi.c **** 
 760              		.loc 1 469 16 is_stmt 0 view .LVU268
 761 0068 0123     		movs	r3, #1
 762 006a 84F82530 		strb	r3, [r4, #37]
ARM GAS  C:\Users\yzy\AppData\Local\Temp\ccovssh5.s 			page 38


 472:Libraries/STM32F4xx_HAL_Driver/Src/stm32f4xx_hal_dcmi.c **** 
 763              		.loc 1 472 3 is_stmt 1 view .LVU269
 472:Libraries/STM32F4xx_HAL_Driver/Src/stm32f4xx_hal_dcmi.c **** 
 764              		.loc 1 472 3 view .LVU270
 765 006e 0023     		movs	r3, #0
 766 0070 84F82430 		strb	r3, [r4, #36]
 472:Libraries/STM32F4xx_HAL_Driver/Src/stm32f4xx_hal_dcmi.c **** 
 767              		.loc 1 472 3 view .LVU271
 475:Libraries/STM32F4xx_HAL_Driver/Src/stm32f4xx_hal_dcmi.c **** }
 768              		.loc 1 475 3 view .LVU272
 769              	.LVL43:
 770              	.L38:
 476:Libraries/STM32F4xx_HAL_Driver/Src/stm32f4xx_hal_dcmi.c **** 
 771              		.loc 1 476 1 is_stmt 0 view .LVU273
 772 0074 2846     		mov	r0, r5
 773 0076 03B0     		add	sp, sp, #12
 774              	.LCFI10:
 775              		.cfi_remember_state
 776              		.cfi_def_cfa_offset 12
 777              		@ sp needed
 778 0078 30BD     		pop	{r4, r5, pc}
 779              	.LVL44:
 780              	.L42:
 781              	.LCFI11:
 782              		.cfi_restore_state
 437:Libraries/STM32F4xx_HAL_Driver/Src/stm32f4xx_hal_dcmi.c ****   
 783              		.loc 1 437 3 view .LVU274
 784 007a 0225     		movs	r5, #2
 785 007c FAE7     		b	.L38
 786              	.L46:
 787 007e 00BF     		.align	2
 788              	.L45:
 789 0080 00000000 		.word	SystemCoreClock
 790 0084 93244992 		.word	-1840700269
 791              		.cfi_endproc
 792              	.LFE135:
 794              		.section	.text.HAL_DCMI_Suspend,"ax",%progbits
 795              		.align	1
 796              		.global	HAL_DCMI_Suspend
 797              		.syntax unified
 798              		.thumb
 799              		.thumb_func
 800              		.fpu softvfp
 802              	HAL_DCMI_Suspend:
 803              	.LVL45:
 804              	.LFB136:
 485:Libraries/STM32F4xx_HAL_Driver/Src/stm32f4xx_hal_dcmi.c ****   __IO uint32_t count = SystemCoreClock / HAL_TIMEOUT_DCMI_STOP;
 805              		.loc 1 485 1 is_stmt 1 view -0
 806              		.cfi_startproc
 807              		@ args = 0, pretend = 0, frame = 8
 808              		@ frame_needed = 0, uses_anonymous_args = 0
 809              		@ link register save eliminated.
 485:Libraries/STM32F4xx_HAL_Driver/Src/stm32f4xx_hal_dcmi.c ****   __IO uint32_t count = SystemCoreClock / HAL_TIMEOUT_DCMI_STOP;
 810              		.loc 1 485 1 is_stmt 0 view .LVU276
 811 0000 82B0     		sub	sp, sp, #8
 812              	.LCFI12:
 813              		.cfi_def_cfa_offset 8
ARM GAS  C:\Users\yzy\AppData\Local\Temp\ccovssh5.s 			page 39


 486:Libraries/STM32F4xx_HAL_Driver/Src/stm32f4xx_hal_dcmi.c ****   HAL_StatusTypeDef status = HAL_OK;
 814              		.loc 1 486 3 is_stmt 1 view .LVU277
 486:Libraries/STM32F4xx_HAL_Driver/Src/stm32f4xx_hal_dcmi.c ****   HAL_StatusTypeDef status = HAL_OK;
 815              		.loc 1 486 41 is_stmt 0 view .LVU278
 816 0002 1C4A     		ldr	r2, .L57
 817 0004 1268     		ldr	r2, [r2]
 818 0006 5208     		lsrs	r2, r2, #1
 819 0008 1B49     		ldr	r1, .L57+4
 820 000a A1FB0212 		umull	r1, r2, r1, r2
 821 000e 9208     		lsrs	r2, r2, #2
 486:Libraries/STM32F4xx_HAL_Driver/Src/stm32f4xx_hal_dcmi.c ****   HAL_StatusTypeDef status = HAL_OK;
 822              		.loc 1 486 17 view .LVU279
 823 0010 0192     		str	r2, [sp, #4]
 487:Libraries/STM32F4xx_HAL_Driver/Src/stm32f4xx_hal_dcmi.c **** 
 824              		.loc 1 487 3 is_stmt 1 view .LVU280
 825              	.LVL46:
 490:Libraries/STM32F4xx_HAL_Driver/Src/stm32f4xx_hal_dcmi.c **** 
 826              		.loc 1 490 3 view .LVU281
 490:Libraries/STM32F4xx_HAL_Driver/Src/stm32f4xx_hal_dcmi.c **** 
 827              		.loc 1 490 3 view .LVU282
 828 0012 90F82420 		ldrb	r2, [r0, #36]	@ zero_extendqisi2
 829 0016 012A     		cmp	r2, #1
 830 0018 2AD0     		beq	.L52
 831 001a 0346     		mov	r3, r0
 490:Libraries/STM32F4xx_HAL_Driver/Src/stm32f4xx_hal_dcmi.c **** 
 832              		.loc 1 490 3 discriminator 2 view .LVU283
 833 001c 0122     		movs	r2, #1
 834 001e 80F82420 		strb	r2, [r0, #36]
 490:Libraries/STM32F4xx_HAL_Driver/Src/stm32f4xx_hal_dcmi.c **** 
 835              		.loc 1 490 3 discriminator 2 view .LVU284
 492:Libraries/STM32F4xx_HAL_Driver/Src/stm32f4xx_hal_dcmi.c ****   {
 836              		.loc 1 492 3 discriminator 2 view .LVU285
 492:Libraries/STM32F4xx_HAL_Driver/Src/stm32f4xx_hal_dcmi.c ****   {
 837              		.loc 1 492 11 is_stmt 0 discriminator 2 view .LVU286
 838 0022 90F82520 		ldrb	r2, [r0, #37]	@ zero_extendqisi2
 839 0026 D2B2     		uxtb	r2, r2
 492:Libraries/STM32F4xx_HAL_Driver/Src/stm32f4xx_hal_dcmi.c ****   {
 840              		.loc 1 492 5 discriminator 2 view .LVU287
 841 0028 022A     		cmp	r2, #2
 842 002a 05D0     		beq	.L55
 487:Libraries/STM32F4xx_HAL_Driver/Src/stm32f4xx_hal_dcmi.c **** 
 843              		.loc 1 487 21 view .LVU288
 844 002c 0020     		movs	r0, #0
 845              	.LVL47:
 846              	.L49:
 518:Libraries/STM32F4xx_HAL_Driver/Src/stm32f4xx_hal_dcmi.c ****   
 847              		.loc 1 518 3 is_stmt 1 view .LVU289
 518:Libraries/STM32F4xx_HAL_Driver/Src/stm32f4xx_hal_dcmi.c ****   
 848              		.loc 1 518 3 view .LVU290
 849 002e 0022     		movs	r2, #0
 850 0030 83F82420 		strb	r2, [r3, #36]
 518:Libraries/STM32F4xx_HAL_Driver/Src/stm32f4xx_hal_dcmi.c ****   
 851              		.loc 1 518 3 view .LVU291
 521:Libraries/STM32F4xx_HAL_Driver/Src/stm32f4xx_hal_dcmi.c **** }
 852              		.loc 1 521 3 view .LVU292
 853              	.LVL48:
 854              	.L48:
ARM GAS  C:\Users\yzy\AppData\Local\Temp\ccovssh5.s 			page 40


 522:Libraries/STM32F4xx_HAL_Driver/Src/stm32f4xx_hal_dcmi.c **** 
 855              		.loc 1 522 1 is_stmt 0 view .LVU293
 856 0034 02B0     		add	sp, sp, #8
 857              	.LCFI13:
 858              		.cfi_remember_state
 859              		.cfi_def_cfa_offset 0
 860              		@ sp needed
 861 0036 7047     		bx	lr
 862              	.LVL49:
 863              	.L55:
 864              	.LCFI14:
 865              		.cfi_restore_state
 495:Libraries/STM32F4xx_HAL_Driver/Src/stm32f4xx_hal_dcmi.c **** 
 866              		.loc 1 495 5 is_stmt 1 view .LVU294
 495:Libraries/STM32F4xx_HAL_Driver/Src/stm32f4xx_hal_dcmi.c **** 
 867              		.loc 1 495 18 is_stmt 0 view .LVU295
 868 0038 0522     		movs	r2, #5
 869 003a 80F82520 		strb	r2, [r0, #37]
 498:Libraries/STM32F4xx_HAL_Driver/Src/stm32f4xx_hal_dcmi.c **** 
 870              		.loc 1 498 5 is_stmt 1 view .LVU296
 498:Libraries/STM32F4xx_HAL_Driver/Src/stm32f4xx_hal_dcmi.c **** 
 871              		.loc 1 498 10 is_stmt 0 view .LVU297
 872 003e 0168     		ldr	r1, [r0]
 498:Libraries/STM32F4xx_HAL_Driver/Src/stm32f4xx_hal_dcmi.c **** 
 873              		.loc 1 498 25 view .LVU298
 874 0040 0A68     		ldr	r2, [r1]
 875 0042 22F00102 		bic	r2, r2, #1
 876 0046 0A60     		str	r2, [r1]
 877              	.L51:
 501:Libraries/STM32F4xx_HAL_Driver/Src/stm32f4xx_hal_dcmi.c ****     {
 878              		.loc 1 501 5 is_stmt 1 view .LVU299
 503:Libraries/STM32F4xx_HAL_Driver/Src/stm32f4xx_hal_dcmi.c ****       {        
 879              		.loc 1 503 7 view .LVU300
 503:Libraries/STM32F4xx_HAL_Driver/Src/stm32f4xx_hal_dcmi.c ****       {        
 880              		.loc 1 503 16 is_stmt 0 view .LVU301
 881 0048 019A     		ldr	r2, [sp, #4]
 882 004a 511E     		subs	r1, r2, #1
 883 004c 0191     		str	r1, [sp, #4]
 503:Libraries/STM32F4xx_HAL_Driver/Src/stm32f4xx_hal_dcmi.c ****       {        
 884              		.loc 1 503 10 view .LVU302
 885 004e 32B1     		cbz	r2, .L56
 515:Libraries/STM32F4xx_HAL_Driver/Src/stm32f4xx_hal_dcmi.c ****   }    
 886              		.loc 1 515 10 is_stmt 1 view .LVU303
 515:Libraries/STM32F4xx_HAL_Driver/Src/stm32f4xx_hal_dcmi.c ****   }    
 887              		.loc 1 515 17 is_stmt 0 view .LVU304
 888 0050 1A68     		ldr	r2, [r3]
 515:Libraries/STM32F4xx_HAL_Driver/Src/stm32f4xx_hal_dcmi.c ****   }    
 889              		.loc 1 515 27 view .LVU305
 890 0052 1268     		ldr	r2, [r2]
 515:Libraries/STM32F4xx_HAL_Driver/Src/stm32f4xx_hal_dcmi.c ****   }    
 891              		.loc 1 515 5 view .LVU306
 892 0054 12F0010F 		tst	r2, #1
 893 0058 F6D1     		bne	.L51
 487:Libraries/STM32F4xx_HAL_Driver/Src/stm32f4xx_hal_dcmi.c **** 
 894              		.loc 1 487 21 view .LVU307
 895 005a 0020     		movs	r0, #0
 896              	.LVL50:
ARM GAS  C:\Users\yzy\AppData\Local\Temp\ccovssh5.s 			page 41


 487:Libraries/STM32F4xx_HAL_Driver/Src/stm32f4xx_hal_dcmi.c **** 
 897              		.loc 1 487 21 view .LVU308
 898 005c E7E7     		b	.L49
 899              	.LVL51:
 900              	.L56:
 506:Libraries/STM32F4xx_HAL_Driver/Src/stm32f4xx_hal_dcmi.c ****         
 901              		.loc 1 506 9 is_stmt 1 view .LVU309
 506:Libraries/STM32F4xx_HAL_Driver/Src/stm32f4xx_hal_dcmi.c ****         
 902              		.loc 1 506 26 is_stmt 0 view .LVU310
 903 005e DA6B     		ldr	r2, [r3, #60]
 904 0060 42F02002 		orr	r2, r2, #32
 905 0064 DA63     		str	r2, [r3, #60]
 509:Libraries/STM32F4xx_HAL_Driver/Src/stm32f4xx_hal_dcmi.c ****         
 906              		.loc 1 509 9 is_stmt 1 view .LVU311
 509:Libraries/STM32F4xx_HAL_Driver/Src/stm32f4xx_hal_dcmi.c ****         
 907              		.loc 1 509 22 is_stmt 0 view .LVU312
 908 0066 0122     		movs	r2, #1
 909 0068 83F82520 		strb	r2, [r3, #37]
 511:Libraries/STM32F4xx_HAL_Driver/Src/stm32f4xx_hal_dcmi.c ****         break;
 910              		.loc 1 511 9 is_stmt 1 view .LVU313
 911              	.LVL52:
 512:Libraries/STM32F4xx_HAL_Driver/Src/stm32f4xx_hal_dcmi.c ****       }
 912              		.loc 1 512 9 view .LVU314
 511:Libraries/STM32F4xx_HAL_Driver/Src/stm32f4xx_hal_dcmi.c ****         break;
 913              		.loc 1 511 16 is_stmt 0 view .LVU315
 914 006c 0320     		movs	r0, #3
 915              	.LVL53:
 512:Libraries/STM32F4xx_HAL_Driver/Src/stm32f4xx_hal_dcmi.c ****       }
 916              		.loc 1 512 9 view .LVU316
 917 006e DEE7     		b	.L49
 918              	.LVL54:
 919              	.L52:
 490:Libraries/STM32F4xx_HAL_Driver/Src/stm32f4xx_hal_dcmi.c **** 
 920              		.loc 1 490 3 view .LVU317
 921 0070 0220     		movs	r0, #2
 922              	.LVL55:
 490:Libraries/STM32F4xx_HAL_Driver/Src/stm32f4xx_hal_dcmi.c **** 
 923              		.loc 1 490 3 view .LVU318
 924 0072 DFE7     		b	.L48
 925              	.L58:
 926              		.align	2
 927              	.L57:
 928 0074 00000000 		.word	SystemCoreClock
 929 0078 93244992 		.word	-1840700269
 930              		.cfi_endproc
 931              	.LFE136:
 933              		.section	.text.HAL_DCMI_Resume,"ax",%progbits
 934              		.align	1
 935              		.global	HAL_DCMI_Resume
 936              		.syntax unified
 937              		.thumb
 938              		.thumb_func
 939              		.fpu softvfp
 941              	HAL_DCMI_Resume:
 942              	.LVL56:
 943              	.LFB137:
 531:Libraries/STM32F4xx_HAL_Driver/Src/stm32f4xx_hal_dcmi.c ****   /* Process locked */
ARM GAS  C:\Users\yzy\AppData\Local\Temp\ccovssh5.s 			page 42


 944              		.loc 1 531 1 is_stmt 1 view -0
 945              		.cfi_startproc
 946              		@ args = 0, pretend = 0, frame = 0
 947              		@ frame_needed = 0, uses_anonymous_args = 0
 948              		@ link register save eliminated.
 533:Libraries/STM32F4xx_HAL_Driver/Src/stm32f4xx_hal_dcmi.c ****   
 949              		.loc 1 533 3 view .LVU320
 533:Libraries/STM32F4xx_HAL_Driver/Src/stm32f4xx_hal_dcmi.c ****   
 950              		.loc 1 533 3 view .LVU321
 951 0000 90F82430 		ldrb	r3, [r0, #36]	@ zero_extendqisi2
 952 0004 012B     		cmp	r3, #1
 953 0006 15D0     		beq	.L62
 533:Libraries/STM32F4xx_HAL_Driver/Src/stm32f4xx_hal_dcmi.c ****   
 954              		.loc 1 533 3 discriminator 2 view .LVU322
 955 0008 0123     		movs	r3, #1
 956 000a 80F82430 		strb	r3, [r0, #36]
 533:Libraries/STM32F4xx_HAL_Driver/Src/stm32f4xx_hal_dcmi.c ****   
 957              		.loc 1 533 3 discriminator 2 view .LVU323
 535:Libraries/STM32F4xx_HAL_Driver/Src/stm32f4xx_hal_dcmi.c ****   {
 958              		.loc 1 535 3 discriminator 2 view .LVU324
 535:Libraries/STM32F4xx_HAL_Driver/Src/stm32f4xx_hal_dcmi.c ****   {
 959              		.loc 1 535 11 is_stmt 0 discriminator 2 view .LVU325
 960 000e 90F82530 		ldrb	r3, [r0, #37]	@ zero_extendqisi2
 961 0012 DBB2     		uxtb	r3, r3
 535:Libraries/STM32F4xx_HAL_Driver/Src/stm32f4xx_hal_dcmi.c ****   {
 962              		.loc 1 535 5 discriminator 2 view .LVU326
 963 0014 052B     		cmp	r3, #5
 964 0016 04D0     		beq	.L63
 965              	.L61:
 544:Libraries/STM32F4xx_HAL_Driver/Src/stm32f4xx_hal_dcmi.c ****   
 966              		.loc 1 544 3 is_stmt 1 view .LVU327
 544:Libraries/STM32F4xx_HAL_Driver/Src/stm32f4xx_hal_dcmi.c ****   
 967              		.loc 1 544 3 view .LVU328
 968 0018 0023     		movs	r3, #0
 969 001a 80F82430 		strb	r3, [r0, #36]
 544:Libraries/STM32F4xx_HAL_Driver/Src/stm32f4xx_hal_dcmi.c ****   
 970              		.loc 1 544 3 view .LVU329
 547:Libraries/STM32F4xx_HAL_Driver/Src/stm32f4xx_hal_dcmi.c **** }
 971              		.loc 1 547 3 view .LVU330
 547:Libraries/STM32F4xx_HAL_Driver/Src/stm32f4xx_hal_dcmi.c **** }
 972              		.loc 1 547 10 is_stmt 0 view .LVU331
 973 001e 1846     		mov	r0, r3
 974              	.LVL57:
 547:Libraries/STM32F4xx_HAL_Driver/Src/stm32f4xx_hal_dcmi.c **** }
 975              		.loc 1 547 10 view .LVU332
 976 0020 7047     		bx	lr
 977              	.LVL58:
 978              	.L63:
 538:Libraries/STM32F4xx_HAL_Driver/Src/stm32f4xx_hal_dcmi.c ****     
 979              		.loc 1 538 5 is_stmt 1 view .LVU333
 538:Libraries/STM32F4xx_HAL_Driver/Src/stm32f4xx_hal_dcmi.c ****     
 980              		.loc 1 538 18 is_stmt 0 view .LVU334
 981 0022 0223     		movs	r3, #2
 982 0024 80F82530 		strb	r3, [r0, #37]
 541:Libraries/STM32F4xx_HAL_Driver/Src/stm32f4xx_hal_dcmi.c ****   } 
 983              		.loc 1 541 5 is_stmt 1 view .LVU335
 541:Libraries/STM32F4xx_HAL_Driver/Src/stm32f4xx_hal_dcmi.c ****   } 
ARM GAS  C:\Users\yzy\AppData\Local\Temp\ccovssh5.s 			page 43


 984              		.loc 1 541 10 is_stmt 0 view .LVU336
 985 0028 0268     		ldr	r2, [r0]
 541:Libraries/STM32F4xx_HAL_Driver/Src/stm32f4xx_hal_dcmi.c ****   } 
 986              		.loc 1 541 25 view .LVU337
 987 002a 1368     		ldr	r3, [r2]
 988 002c 43F00103 		orr	r3, r3, #1
 989 0030 1360     		str	r3, [r2]
 990 0032 F1E7     		b	.L61
 991              	.L62:
 533:Libraries/STM32F4xx_HAL_Driver/Src/stm32f4xx_hal_dcmi.c ****   
 992              		.loc 1 533 3 view .LVU338
 993 0034 0220     		movs	r0, #2
 994              	.LVL59:
 548:Libraries/STM32F4xx_HAL_Driver/Src/stm32f4xx_hal_dcmi.c **** 
 995              		.loc 1 548 1 view .LVU339
 996 0036 7047     		bx	lr
 997              		.cfi_endproc
 998              	.LFE137:
 1000              		.section	.text.HAL_DCMI_ErrorCallback,"ax",%progbits
 1001              		.align	1
 1002              		.weak	HAL_DCMI_ErrorCallback
 1003              		.syntax unified
 1004              		.thumb
 1005              		.thumb_func
 1006              		.fpu softvfp
 1008              	HAL_DCMI_ErrorCallback:
 1009              	.LVL60:
 1010              	.LFB139:
 654:Libraries/STM32F4xx_HAL_Driver/Src/stm32f4xx_hal_dcmi.c ****   /* Prevent unused argument(s) compilation warning */
 1011              		.loc 1 654 1 is_stmt 1 view -0
 1012              		.cfi_startproc
 1013              		@ args = 0, pretend = 0, frame = 0
 1014              		@ frame_needed = 0, uses_anonymous_args = 0
 1015              		@ link register save eliminated.
 656:Libraries/STM32F4xx_HAL_Driver/Src/stm32f4xx_hal_dcmi.c ****   /* NOTE : This function Should not be modified, when the callback is needed,
 1016              		.loc 1 656 3 view .LVU341
 660:Libraries/STM32F4xx_HAL_Driver/Src/stm32f4xx_hal_dcmi.c **** 
 1017              		.loc 1 660 1 is_stmt 0 view .LVU342
 1018 0000 7047     		bx	lr
 1019              		.cfi_endproc
 1020              	.LFE139:
 1022              		.section	.text.DCMI_DMAError,"ax",%progbits
 1023              		.align	1
 1024              		.syntax unified
 1025              		.thumb
 1026              		.thumb_func
 1027              		.fpu softvfp
 1029              	DCMI_DMAError:
 1030              	.LVL61:
 1031              	.LFB150:
1118:Libraries/STM32F4xx_HAL_Driver/Src/stm32f4xx_hal_dcmi.c **** 
1119:Libraries/STM32F4xx_HAL_Driver/Src/stm32f4xx_hal_dcmi.c **** /**
1120:Libraries/STM32F4xx_HAL_Driver/Src/stm32f4xx_hal_dcmi.c ****   * @brief  DMA error callback 
1121:Libraries/STM32F4xx_HAL_Driver/Src/stm32f4xx_hal_dcmi.c ****   * @param  hdma pointer to a DMA_HandleTypeDef structure that contains
1122:Libraries/STM32F4xx_HAL_Driver/Src/stm32f4xx_hal_dcmi.c ****   *                the configuration information for the specified DMA module.
1123:Libraries/STM32F4xx_HAL_Driver/Src/stm32f4xx_hal_dcmi.c ****   * @retval None
1124:Libraries/STM32F4xx_HAL_Driver/Src/stm32f4xx_hal_dcmi.c ****   */
ARM GAS  C:\Users\yzy\AppData\Local\Temp\ccovssh5.s 			page 44


1125:Libraries/STM32F4xx_HAL_Driver/Src/stm32f4xx_hal_dcmi.c **** static void DCMI_DMAError(DMA_HandleTypeDef *hdma)
1126:Libraries/STM32F4xx_HAL_Driver/Src/stm32f4xx_hal_dcmi.c **** {
 1032              		.loc 1 1126 1 is_stmt 1 view -0
 1033              		.cfi_startproc
 1034              		@ args = 0, pretend = 0, frame = 0
 1035              		@ frame_needed = 0, uses_anonymous_args = 0
 1036              		.loc 1 1126 1 is_stmt 0 view .LVU344
 1037 0000 08B5     		push	{r3, lr}
 1038              	.LCFI15:
 1039              		.cfi_def_cfa_offset 8
 1040              		.cfi_offset 3, -8
 1041              		.cfi_offset 14, -4
1127:Libraries/STM32F4xx_HAL_Driver/Src/stm32f4xx_hal_dcmi.c ****   DCMI_HandleTypeDef* hdcmi = ( DCMI_HandleTypeDef* )((DMA_HandleTypeDef* )hdma)->Parent;
 1042              		.loc 1 1127 3 is_stmt 1 view .LVU345
 1043              		.loc 1 1127 23 is_stmt 0 view .LVU346
 1044 0002 806B     		ldr	r0, [r0, #56]
 1045              	.LVL62:
1128:Libraries/STM32F4xx_HAL_Driver/Src/stm32f4xx_hal_dcmi.c ****   
1129:Libraries/STM32F4xx_HAL_Driver/Src/stm32f4xx_hal_dcmi.c ****   if(hdcmi->DMA_Handle->ErrorCode != HAL_DMA_ERROR_FE)
 1046              		.loc 1 1129 3 is_stmt 1 view .LVU347
 1047              		.loc 1 1129 11 is_stmt 0 view .LVU348
 1048 0004 836B     		ldr	r3, [r0, #56]
 1049              		.loc 1 1129 23 view .LVU349
 1050 0006 5B6D     		ldr	r3, [r3, #84]
 1051              		.loc 1 1129 5 view .LVU350
 1052 0008 022B     		cmp	r3, #2
 1053 000a 02D0     		beq	.L66
1130:Libraries/STM32F4xx_HAL_Driver/Src/stm32f4xx_hal_dcmi.c ****   {
1131:Libraries/STM32F4xx_HAL_Driver/Src/stm32f4xx_hal_dcmi.c ****     /* Initialize the DCMI state*/
1132:Libraries/STM32F4xx_HAL_Driver/Src/stm32f4xx_hal_dcmi.c ****     hdcmi->State = HAL_DCMI_STATE_READY;
 1054              		.loc 1 1132 5 is_stmt 1 view .LVU351
 1055              		.loc 1 1132 18 is_stmt 0 view .LVU352
 1056 000c 0123     		movs	r3, #1
 1057 000e 80F82530 		strb	r3, [r0, #37]
 1058              	.L66:
1133:Libraries/STM32F4xx_HAL_Driver/Src/stm32f4xx_hal_dcmi.c ****   }
1134:Libraries/STM32F4xx_HAL_Driver/Src/stm32f4xx_hal_dcmi.c **** 
1135:Libraries/STM32F4xx_HAL_Driver/Src/stm32f4xx_hal_dcmi.c ****   /* DCMI error Callback */
1136:Libraries/STM32F4xx_HAL_Driver/Src/stm32f4xx_hal_dcmi.c **** #if (USE_HAL_DCMI_REGISTER_CALLBACKS == 1)
1137:Libraries/STM32F4xx_HAL_Driver/Src/stm32f4xx_hal_dcmi.c ****     /*Call registered DCMI error callback*/
1138:Libraries/STM32F4xx_HAL_Driver/Src/stm32f4xx_hal_dcmi.c ****     hdcmi->ErrorCallback(hdcmi);
1139:Libraries/STM32F4xx_HAL_Driver/Src/stm32f4xx_hal_dcmi.c **** #else  
1140:Libraries/STM32F4xx_HAL_Driver/Src/stm32f4xx_hal_dcmi.c ****   HAL_DCMI_ErrorCallback(hdcmi);
 1059              		.loc 1 1140 3 is_stmt 1 view .LVU353
 1060 0012 FFF7FEFF 		bl	HAL_DCMI_ErrorCallback
 1061              	.LVL63:
1141:Libraries/STM32F4xx_HAL_Driver/Src/stm32f4xx_hal_dcmi.c **** #endif /* USE_HAL_DCMI_REGISTER_CALLBACKS */   
1142:Libraries/STM32F4xx_HAL_Driver/Src/stm32f4xx_hal_dcmi.c **** 
1143:Libraries/STM32F4xx_HAL_Driver/Src/stm32f4xx_hal_dcmi.c **** }
 1062              		.loc 1 1143 1 is_stmt 0 view .LVU354
 1063 0016 08BD     		pop	{r3, pc}
 1064              		.cfi_endproc
 1065              	.LFE150:
 1067              		.section	.text.HAL_DCMI_LineEventCallback,"ax",%progbits
 1068              		.align	1
 1069              		.weak	HAL_DCMI_LineEventCallback
 1070              		.syntax unified
ARM GAS  C:\Users\yzy\AppData\Local\Temp\ccovssh5.s 			page 45


 1071              		.thumb
 1072              		.thumb_func
 1073              		.fpu softvfp
 1075              	HAL_DCMI_LineEventCallback:
 1076              	.LVL64:
 1077              	.LFB140:
 669:Libraries/STM32F4xx_HAL_Driver/Src/stm32f4xx_hal_dcmi.c ****   /* Prevent unused argument(s) compilation warning */
 1078              		.loc 1 669 1 is_stmt 1 view -0
 1079              		.cfi_startproc
 1080              		@ args = 0, pretend = 0, frame = 0
 1081              		@ frame_needed = 0, uses_anonymous_args = 0
 1082              		@ link register save eliminated.
 671:Libraries/STM32F4xx_HAL_Driver/Src/stm32f4xx_hal_dcmi.c ****   /* NOTE : This function Should not be modified, when the callback is needed,
 1083              		.loc 1 671 3 view .LVU356
 675:Libraries/STM32F4xx_HAL_Driver/Src/stm32f4xx_hal_dcmi.c **** 
 1084              		.loc 1 675 1 is_stmt 0 view .LVU357
 1085 0000 7047     		bx	lr
 1086              		.cfi_endproc
 1087              	.LFE140:
 1089              		.section	.text.HAL_DCMI_VsyncEventCallback,"ax",%progbits
 1090              		.align	1
 1091              		.weak	HAL_DCMI_VsyncEventCallback
 1092              		.syntax unified
 1093              		.thumb
 1094              		.thumb_func
 1095              		.fpu softvfp
 1097              	HAL_DCMI_VsyncEventCallback:
 1098              	.LVL65:
 1099              	.LFB141:
 684:Libraries/STM32F4xx_HAL_Driver/Src/stm32f4xx_hal_dcmi.c ****   /* Prevent unused argument(s) compilation warning */
 1100              		.loc 1 684 1 is_stmt 1 view -0
 1101              		.cfi_startproc
 1102              		@ args = 0, pretend = 0, frame = 0
 1103              		@ frame_needed = 0, uses_anonymous_args = 0
 1104              		@ link register save eliminated.
 686:Libraries/STM32F4xx_HAL_Driver/Src/stm32f4xx_hal_dcmi.c ****   /* NOTE : This function Should not be modified, when the callback is needed,
 1105              		.loc 1 686 3 view .LVU359
 690:Libraries/STM32F4xx_HAL_Driver/Src/stm32f4xx_hal_dcmi.c **** 
 1106              		.loc 1 690 1 is_stmt 0 view .LVU360
 1107 0000 7047     		bx	lr
 1108              		.cfi_endproc
 1109              	.LFE141:
 1111              		.section	.text.HAL_DCMI_FrameEventCallback,"ax",%progbits
 1112              		.align	1
 1113              		.weak	HAL_DCMI_FrameEventCallback
 1114              		.syntax unified
 1115              		.thumb
 1116              		.thumb_func
 1117              		.fpu softvfp
 1119              	HAL_DCMI_FrameEventCallback:
 1120              	.LVL66:
 1121              	.LFB142:
 699:Libraries/STM32F4xx_HAL_Driver/Src/stm32f4xx_hal_dcmi.c ****   /* Prevent unused argument(s) compilation warning */
 1122              		.loc 1 699 1 is_stmt 1 view -0
 1123              		.cfi_startproc
 1124              		@ args = 0, pretend = 0, frame = 0
 1125              		@ frame_needed = 0, uses_anonymous_args = 0
ARM GAS  C:\Users\yzy\AppData\Local\Temp\ccovssh5.s 			page 46


 1126              		@ link register save eliminated.
 701:Libraries/STM32F4xx_HAL_Driver/Src/stm32f4xx_hal_dcmi.c ****   /* NOTE : This function Should not be modified, when the callback is needed,
 1127              		.loc 1 701 3 view .LVU362
 705:Libraries/STM32F4xx_HAL_Driver/Src/stm32f4xx_hal_dcmi.c **** 
 1128              		.loc 1 705 1 is_stmt 0 view .LVU363
 1129 0000 7047     		bx	lr
 1130              		.cfi_endproc
 1131              	.LFE142:
 1133              		.section	.text.HAL_DCMI_IRQHandler,"ax",%progbits
 1134              		.align	1
 1135              		.global	HAL_DCMI_IRQHandler
 1136              		.syntax unified
 1137              		.thumb
 1138              		.thumb_func
 1139              		.fpu softvfp
 1141              	HAL_DCMI_IRQHandler:
 1142              	.LVL67:
 1143              	.LFB138:
 557:Libraries/STM32F4xx_HAL_Driver/Src/stm32f4xx_hal_dcmi.c ****   uint32_t isr_value = READ_REG(hdcmi->Instance->MISR);
 1144              		.loc 1 557 1 is_stmt 1 view -0
 1145              		.cfi_startproc
 1146              		@ args = 0, pretend = 0, frame = 0
 1147              		@ frame_needed = 0, uses_anonymous_args = 0
 557:Libraries/STM32F4xx_HAL_Driver/Src/stm32f4xx_hal_dcmi.c ****   uint32_t isr_value = READ_REG(hdcmi->Instance->MISR);
 1148              		.loc 1 557 1 is_stmt 0 view .LVU365
 1149 0000 38B5     		push	{r3, r4, r5, lr}
 1150              	.LCFI16:
 1151              		.cfi_def_cfa_offset 16
 1152              		.cfi_offset 3, -16
 1153              		.cfi_offset 4, -12
 1154              		.cfi_offset 5, -8
 1155              		.cfi_offset 14, -4
 1156 0002 0446     		mov	r4, r0
 558:Libraries/STM32F4xx_HAL_Driver/Src/stm32f4xx_hal_dcmi.c **** 
 1157              		.loc 1 558 3 is_stmt 1 view .LVU366
 558:Libraries/STM32F4xx_HAL_Driver/Src/stm32f4xx_hal_dcmi.c **** 
 1158              		.loc 1 558 24 is_stmt 0 view .LVU367
 1159 0004 0368     		ldr	r3, [r0]
 558:Libraries/STM32F4xx_HAL_Driver/Src/stm32f4xx_hal_dcmi.c **** 
 1160              		.loc 1 558 12 view .LVU368
 1161 0006 1D69     		ldr	r5, [r3, #16]
 1162              	.LVL68:
 561:Libraries/STM32F4xx_HAL_Driver/Src/stm32f4xx_hal_dcmi.c ****   {
 1163              		.loc 1 561 3 is_stmt 1 view .LVU369
 561:Libraries/STM32F4xx_HAL_Driver/Src/stm32f4xx_hal_dcmi.c ****   {
 1164              		.loc 1 561 5 is_stmt 0 view .LVU370
 1165 0008 15F0040F 		tst	r5, #4
 1166 000c 1DD1     		bne	.L79
 1167              	.LVL69:
 1168              	.L72:
 579:Libraries/STM32F4xx_HAL_Driver/Src/stm32f4xx_hal_dcmi.c ****   {
 1169              		.loc 1 579 3 is_stmt 1 view .LVU371
 579:Libraries/STM32F4xx_HAL_Driver/Src/stm32f4xx_hal_dcmi.c ****   {
 1170              		.loc 1 579 5 is_stmt 0 view .LVU372
 1171 000e 15F0020F 		tst	r5, #2
 1172 0012 29D1     		bne	.L80
 1173              	.L73:
ARM GAS  C:\Users\yzy\AppData\Local\Temp\ccovssh5.s 			page 47


 597:Libraries/STM32F4xx_HAL_Driver/Src/stm32f4xx_hal_dcmi.c ****   {
 1174              		.loc 1 597 3 is_stmt 1 view .LVU373
 597:Libraries/STM32F4xx_HAL_Driver/Src/stm32f4xx_hal_dcmi.c ****   {
 1175              		.loc 1 597 5 is_stmt 0 view .LVU374
 1176 0014 15F0100F 		tst	r5, #16
 1177 0018 37D1     		bne	.L81
 1178              	.L74:
 611:Libraries/STM32F4xx_HAL_Driver/Src/stm32f4xx_hal_dcmi.c ****   {
 1179              		.loc 1 611 3 is_stmt 1 view .LVU375
 611:Libraries/STM32F4xx_HAL_Driver/Src/stm32f4xx_hal_dcmi.c ****   {
 1180              		.loc 1 611 5 is_stmt 0 view .LVU376
 1181 001a 15F0080F 		tst	r5, #8
 1182 001e 3BD1     		bne	.L82
 1183              	.L75:
 625:Libraries/STM32F4xx_HAL_Driver/Src/stm32f4xx_hal_dcmi.c ****   {
 1184              		.loc 1 625 3 is_stmt 1 view .LVU377
 625:Libraries/STM32F4xx_HAL_Driver/Src/stm32f4xx_hal_dcmi.c ****   {
 1185              		.loc 1 625 5 is_stmt 0 view .LVU378
 1186 0020 15F0010F 		tst	r5, #1
 1187 0024 10D0     		beq	.L71
 628:Libraries/STM32F4xx_HAL_Driver/Src/stm32f4xx_hal_dcmi.c ****     { 
 1188              		.loc 1 628 5 is_stmt 1 view .LVU379
 628:Libraries/STM32F4xx_HAL_Driver/Src/stm32f4xx_hal_dcmi.c ****     { 
 1189              		.loc 1 628 14 is_stmt 0 view .LVU380
 1190 0026 2368     		ldr	r3, [r4]
 628:Libraries/STM32F4xx_HAL_Driver/Src/stm32f4xx_hal_dcmi.c ****     { 
 1191              		.loc 1 628 24 view .LVU381
 1192 0028 1A68     		ldr	r2, [r3]
 628:Libraries/STM32F4xx_HAL_Driver/Src/stm32f4xx_hal_dcmi.c ****     { 
 1193              		.loc 1 628 7 view .LVU382
 1194 002a 12F0020F 		tst	r2, #2
 1195 002e 03D0     		beq	.L77
 631:Libraries/STM32F4xx_HAL_Driver/Src/stm32f4xx_hal_dcmi.c ****     }
 1196              		.loc 1 631 7 is_stmt 1 view .LVU383
 1197 0030 DA68     		ldr	r2, [r3, #12]
 1198 0032 22F01E02 		bic	r2, r2, #30
 1199 0036 DA60     		str	r2, [r3, #12]
 1200              	.L77:
 635:Libraries/STM32F4xx_HAL_Driver/Src/stm32f4xx_hal_dcmi.c **** 
 1201              		.loc 1 635 5 view .LVU384
 1202 0038 2268     		ldr	r2, [r4]
 1203 003a D368     		ldr	r3, [r2, #12]
 1204 003c 23F00103 		bic	r3, r3, #1
 1205 0040 D360     		str	r3, [r2, #12]
 642:Libraries/STM32F4xx_HAL_Driver/Src/stm32f4xx_hal_dcmi.c **** #endif /* USE_HAL_DCMI_REGISTER_CALLBACKS */      
 1206              		.loc 1 642 5 view .LVU385
 1207 0042 2046     		mov	r0, r4
 1208 0044 FFF7FEFF 		bl	HAL_DCMI_FrameEventCallback
 1209              	.LVL70:
 1210              	.L71:
 645:Libraries/STM32F4xx_HAL_Driver/Src/stm32f4xx_hal_dcmi.c **** 
 1211              		.loc 1 645 1 is_stmt 0 view .LVU386
 1212 0048 38BD     		pop	{r3, r4, r5, pc}
 1213              	.LVL71:
 1214              	.L79:
 564:Libraries/STM32F4xx_HAL_Driver/Src/stm32f4xx_hal_dcmi.c **** 
 1215              		.loc 1 564 5 is_stmt 1 view .LVU387
ARM GAS  C:\Users\yzy\AppData\Local\Temp\ccovssh5.s 			page 48


 1216 004a 0422     		movs	r2, #4
 1217 004c 5A61     		str	r2, [r3, #20]
 567:Libraries/STM32F4xx_HAL_Driver/Src/stm32f4xx_hal_dcmi.c **** 
 1218              		.loc 1 567 5 view .LVU388
 567:Libraries/STM32F4xx_HAL_Driver/Src/stm32f4xx_hal_dcmi.c **** 
 1219              		.loc 1 567 22 is_stmt 0 view .LVU389
 1220 004e C36B     		ldr	r3, [r0, #60]
 1221 0050 43F00203 		orr	r3, r3, #2
 1222 0054 C363     		str	r3, [r0, #60]
 570:Libraries/STM32F4xx_HAL_Driver/Src/stm32f4xx_hal_dcmi.c ****     
 1223              		.loc 1 570 5 is_stmt 1 view .LVU390
 570:Libraries/STM32F4xx_HAL_Driver/Src/stm32f4xx_hal_dcmi.c ****     
 1224              		.loc 1 570 18 is_stmt 0 view .LVU391
 1225 0056 80F82520 		strb	r2, [r0, #37]
 573:Libraries/STM32F4xx_HAL_Driver/Src/stm32f4xx_hal_dcmi.c **** 
 1226              		.loc 1 573 5 is_stmt 1 view .LVU392
 573:Libraries/STM32F4xx_HAL_Driver/Src/stm32f4xx_hal_dcmi.c **** 
 1227              		.loc 1 573 10 is_stmt 0 view .LVU393
 1228 005a 836B     		ldr	r3, [r0, #56]
 573:Libraries/STM32F4xx_HAL_Driver/Src/stm32f4xx_hal_dcmi.c **** 
 1229              		.loc 1 573 42 view .LVU394
 1230 005c 124A     		ldr	r2, .L83
 1231 005e 1A65     		str	r2, [r3, #80]
 576:Libraries/STM32F4xx_HAL_Driver/Src/stm32f4xx_hal_dcmi.c ****   }
 1232              		.loc 1 576 5 is_stmt 1 view .LVU395
 1233 0060 806B     		ldr	r0, [r0, #56]
 1234              	.LVL72:
 576:Libraries/STM32F4xx_HAL_Driver/Src/stm32f4xx_hal_dcmi.c ****   }
 1235              		.loc 1 576 5 is_stmt 0 view .LVU396
 1236 0062 FFF7FEFF 		bl	HAL_DMA_Abort_IT
 1237              	.LVL73:
 1238 0066 D2E7     		b	.L72
 1239              	.L80:
 582:Libraries/STM32F4xx_HAL_Driver/Src/stm32f4xx_hal_dcmi.c **** 
 1240              		.loc 1 582 5 is_stmt 1 view .LVU397
 1241 0068 2368     		ldr	r3, [r4]
 1242 006a 0222     		movs	r2, #2
 1243 006c 5A61     		str	r2, [r3, #20]
 585:Libraries/STM32F4xx_HAL_Driver/Src/stm32f4xx_hal_dcmi.c **** 
 1244              		.loc 1 585 5 view .LVU398
 585:Libraries/STM32F4xx_HAL_Driver/Src/stm32f4xx_hal_dcmi.c **** 
 1245              		.loc 1 585 22 is_stmt 0 view .LVU399
 1246 006e E36B     		ldr	r3, [r4, #60]
 1247 0070 43F00103 		orr	r3, r3, #1
 1248 0074 E363     		str	r3, [r4, #60]
 588:Libraries/STM32F4xx_HAL_Driver/Src/stm32f4xx_hal_dcmi.c ****     
 1249              		.loc 1 588 5 is_stmt 1 view .LVU400
 588:Libraries/STM32F4xx_HAL_Driver/Src/stm32f4xx_hal_dcmi.c ****     
 1250              		.loc 1 588 18 is_stmt 0 view .LVU401
 1251 0076 0423     		movs	r3, #4
 1252 0078 84F82530 		strb	r3, [r4, #37]
 591:Libraries/STM32F4xx_HAL_Driver/Src/stm32f4xx_hal_dcmi.c **** 
 1253              		.loc 1 591 5 is_stmt 1 view .LVU402
 591:Libraries/STM32F4xx_HAL_Driver/Src/stm32f4xx_hal_dcmi.c **** 
 1254              		.loc 1 591 10 is_stmt 0 view .LVU403
 1255 007c A36B     		ldr	r3, [r4, #56]
 591:Libraries/STM32F4xx_HAL_Driver/Src/stm32f4xx_hal_dcmi.c **** 
ARM GAS  C:\Users\yzy\AppData\Local\Temp\ccovssh5.s 			page 49


 1256              		.loc 1 591 42 view .LVU404
 1257 007e 0A4A     		ldr	r2, .L83
 1258 0080 1A65     		str	r2, [r3, #80]
 594:Libraries/STM32F4xx_HAL_Driver/Src/stm32f4xx_hal_dcmi.c ****   }
 1259              		.loc 1 594 5 is_stmt 1 view .LVU405
 1260 0082 A06B     		ldr	r0, [r4, #56]
 1261 0084 FFF7FEFF 		bl	HAL_DMA_Abort_IT
 1262              	.LVL74:
 1263 0088 C4E7     		b	.L73
 1264              	.L81:
 600:Libraries/STM32F4xx_HAL_Driver/Src/stm32f4xx_hal_dcmi.c ****     
 1265              		.loc 1 600 5 view .LVU406
 1266 008a 2368     		ldr	r3, [r4]
 1267 008c 1022     		movs	r2, #16
 1268 008e 5A61     		str	r2, [r3, #20]
 607:Libraries/STM32F4xx_HAL_Driver/Src/stm32f4xx_hal_dcmi.c **** #endif /* USE_HAL_DCMI_REGISTER_CALLBACKS */     
 1269              		.loc 1 607 5 view .LVU407
 1270 0090 2046     		mov	r0, r4
 1271 0092 FFF7FEFF 		bl	HAL_DCMI_LineEventCallback
 1272              	.LVL75:
 1273 0096 C0E7     		b	.L74
 1274              	.L82:
 614:Libraries/STM32F4xx_HAL_Driver/Src/stm32f4xx_hal_dcmi.c ****     
 1275              		.loc 1 614 5 view .LVU408
 1276 0098 2368     		ldr	r3, [r4]
 1277 009a 0822     		movs	r2, #8
 1278 009c 5A61     		str	r2, [r3, #20]
 621:Libraries/STM32F4xx_HAL_Driver/Src/stm32f4xx_hal_dcmi.c **** #endif /* USE_HAL_DCMI_REGISTER_CALLBACKS */ 
 1279              		.loc 1 621 5 view .LVU409
 1280 009e 2046     		mov	r0, r4
 1281 00a0 FFF7FEFF 		bl	HAL_DCMI_VsyncEventCallback
 1282              	.LVL76:
 1283 00a4 BCE7     		b	.L75
 1284              	.L84:
 1285 00a6 00BF     		.align	2
 1286              	.L83:
 1287 00a8 00000000 		.word	DCMI_DMAError
 1288              		.cfi_endproc
 1289              	.LFE138:
 1291              		.section	.text.HAL_DCMI_ConfigCrop,"ax",%progbits
 1292              		.align	1
 1293              		.global	HAL_DCMI_ConfigCrop
 1294              		.syntax unified
 1295              		.thumb
 1296              		.thumb_func
 1297              		.fpu softvfp
 1299              	HAL_DCMI_ConfigCrop:
 1300              	.LVL77:
 1301              	.LFB143:
 737:Libraries/STM32F4xx_HAL_Driver/Src/stm32f4xx_hal_dcmi.c ****   /* Process Locked */
 1302              		.loc 1 737 1 view -0
 1303              		.cfi_startproc
 1304              		@ args = 4, pretend = 0, frame = 0
 1305              		@ frame_needed = 0, uses_anonymous_args = 0
 1306              		@ link register save eliminated.
 737:Libraries/STM32F4xx_HAL_Driver/Src/stm32f4xx_hal_dcmi.c ****   /* Process Locked */
 1307              		.loc 1 737 1 is_stmt 0 view .LVU411
ARM GAS  C:\Users\yzy\AppData\Local\Temp\ccovssh5.s 			page 50


 1308 0000 30B4     		push	{r4, r5}
 1309              	.LCFI17:
 1310              		.cfi_def_cfa_offset 8
 1311              		.cfi_offset 4, -8
 1312              		.cfi_offset 5, -4
 739:Libraries/STM32F4xx_HAL_Driver/Src/stm32f4xx_hal_dcmi.c **** 
 1313              		.loc 1 739 3 is_stmt 1 view .LVU412
 739:Libraries/STM32F4xx_HAL_Driver/Src/stm32f4xx_hal_dcmi.c **** 
 1314              		.loc 1 739 3 view .LVU413
 1315 0002 90F82440 		ldrb	r4, [r0, #36]	@ zero_extendqisi2
 1316 0006 012C     		cmp	r4, #1
 1317 0008 14D0     		beq	.L87
 739:Libraries/STM32F4xx_HAL_Driver/Src/stm32f4xx_hal_dcmi.c **** 
 1318              		.loc 1 739 3 discriminator 2 view .LVU414
 739:Libraries/STM32F4xx_HAL_Driver/Src/stm32f4xx_hal_dcmi.c **** 
 1319              		.loc 1 739 3 discriminator 2 view .LVU415
 742:Libraries/STM32F4xx_HAL_Driver/Src/stm32f4xx_hal_dcmi.c **** 
 1320              		.loc 1 742 3 discriminator 2 view .LVU416
 742:Libraries/STM32F4xx_HAL_Driver/Src/stm32f4xx_hal_dcmi.c **** 
 1321              		.loc 1 742 16 is_stmt 0 discriminator 2 view .LVU417
 1322 000a 0224     		movs	r4, #2
 1323 000c 80F82540 		strb	r4, [r0, #37]
 745:Libraries/STM32F4xx_HAL_Driver/Src/stm32f4xx_hal_dcmi.c ****   assert_param(IS_DCMI_WINDOW_COORDINATE(YSize));
 1324              		.loc 1 745 3 is_stmt 1 discriminator 2 view .LVU418
 746:Libraries/STM32F4xx_HAL_Driver/Src/stm32f4xx_hal_dcmi.c ****   assert_param(IS_DCMI_WINDOW_COORDINATE(XSize));
 1325              		.loc 1 746 3 discriminator 2 view .LVU419
 747:Libraries/STM32F4xx_HAL_Driver/Src/stm32f4xx_hal_dcmi.c ****   assert_param(IS_DCMI_WINDOW_HEIGHT(Y0));
 1326              		.loc 1 747 3 discriminator 2 view .LVU420
 748:Libraries/STM32F4xx_HAL_Driver/Src/stm32f4xx_hal_dcmi.c **** 
 1327              		.loc 1 748 3 discriminator 2 view .LVU421
 751:Libraries/STM32F4xx_HAL_Driver/Src/stm32f4xx_hal_dcmi.c ****   hdcmi->Instance->CWSTRTR = (X0 | (Y0 << DCMI_POSITION_CWSTRT_VST));
 1328              		.loc 1 751 3 discriminator 2 view .LVU422
 751:Libraries/STM32F4xx_HAL_Driver/Src/stm32f4xx_hal_dcmi.c ****   hdcmi->Instance->CWSTRTR = (X0 | (Y0 << DCMI_POSITION_CWSTRT_VST));
 1329              		.loc 1 751 8 is_stmt 0 discriminator 2 view .LVU423
 1330 0010 0468     		ldr	r4, [r0]
 751:Libraries/STM32F4xx_HAL_Driver/Src/stm32f4xx_hal_dcmi.c ****   hdcmi->Instance->CWSTRTR = (X0 | (Y0 << DCMI_POSITION_CWSTRT_VST));
 1331              		.loc 1 751 37 discriminator 2 view .LVU424
 1332 0012 029D     		ldr	r5, [sp, #8]
 1333 0014 43EA0543 		orr	r3, r3, r5, lsl #16
 1334              	.LVL78:
 751:Libraries/STM32F4xx_HAL_Driver/Src/stm32f4xx_hal_dcmi.c ****   hdcmi->Instance->CWSTRTR = (X0 | (Y0 << DCMI_POSITION_CWSTRT_VST));
 1335              		.loc 1 751 28 discriminator 2 view .LVU425
 1336 0018 6362     		str	r3, [r4, #36]
 752:Libraries/STM32F4xx_HAL_Driver/Src/stm32f4xx_hal_dcmi.c **** 
 1337              		.loc 1 752 3 is_stmt 1 discriminator 2 view .LVU426
 752:Libraries/STM32F4xx_HAL_Driver/Src/stm32f4xx_hal_dcmi.c **** 
 1338              		.loc 1 752 8 is_stmt 0 discriminator 2 view .LVU427
 1339 001a 0368     		ldr	r3, [r0]
 752:Libraries/STM32F4xx_HAL_Driver/Src/stm32f4xx_hal_dcmi.c **** 
 1340              		.loc 1 752 34 discriminator 2 view .LVU428
 1341 001c 41EA0241 		orr	r1, r1, r2, lsl #16
 1342              	.LVL79:
 752:Libraries/STM32F4xx_HAL_Driver/Src/stm32f4xx_hal_dcmi.c **** 
 1343              		.loc 1 752 28 discriminator 2 view .LVU429
 1344 0020 1962     		str	r1, [r3, #32]
 755:Libraries/STM32F4xx_HAL_Driver/Src/stm32f4xx_hal_dcmi.c **** 
 1345              		.loc 1 755 3 is_stmt 1 discriminator 2 view .LVU430
ARM GAS  C:\Users\yzy\AppData\Local\Temp\ccovssh5.s 			page 51


 755:Libraries/STM32F4xx_HAL_Driver/Src/stm32f4xx_hal_dcmi.c **** 
 1346              		.loc 1 755 17 is_stmt 0 discriminator 2 view .LVU431
 1347 0022 0123     		movs	r3, #1
 1348 0024 80F82530 		strb	r3, [r0, #37]
 758:Libraries/STM32F4xx_HAL_Driver/Src/stm32f4xx_hal_dcmi.c **** 
 1349              		.loc 1 758 3 is_stmt 1 discriminator 2 view .LVU432
 758:Libraries/STM32F4xx_HAL_Driver/Src/stm32f4xx_hal_dcmi.c **** 
 1350              		.loc 1 758 3 discriminator 2 view .LVU433
 1351 0028 0023     		movs	r3, #0
 1352 002a 80F82430 		strb	r3, [r0, #36]
 758:Libraries/STM32F4xx_HAL_Driver/Src/stm32f4xx_hal_dcmi.c **** 
 1353              		.loc 1 758 3 discriminator 2 view .LVU434
 760:Libraries/STM32F4xx_HAL_Driver/Src/stm32f4xx_hal_dcmi.c **** }
 1354              		.loc 1 760 3 discriminator 2 view .LVU435
 760:Libraries/STM32F4xx_HAL_Driver/Src/stm32f4xx_hal_dcmi.c **** }
 1355              		.loc 1 760 10 is_stmt 0 discriminator 2 view .LVU436
 1356 002e 1846     		mov	r0, r3
 1357              	.LVL80:
 1358              	.L86:
 761:Libraries/STM32F4xx_HAL_Driver/Src/stm32f4xx_hal_dcmi.c **** 
 1359              		.loc 1 761 1 view .LVU437
 1360 0030 30BC     		pop	{r4, r5}
 1361              	.LCFI18:
 1362              		.cfi_remember_state
 1363              		.cfi_restore 5
 1364              		.cfi_restore 4
 1365              		.cfi_def_cfa_offset 0
 1366              	.LVL81:
 761:Libraries/STM32F4xx_HAL_Driver/Src/stm32f4xx_hal_dcmi.c **** 
 1367              		.loc 1 761 1 view .LVU438
 1368 0032 7047     		bx	lr
 1369              	.LVL82:
 1370              	.L87:
 1371              	.LCFI19:
 1372              		.cfi_restore_state
 739:Libraries/STM32F4xx_HAL_Driver/Src/stm32f4xx_hal_dcmi.c **** 
 1373              		.loc 1 739 3 view .LVU439
 1374 0034 0220     		movs	r0, #2
 1375              	.LVL83:
 739:Libraries/STM32F4xx_HAL_Driver/Src/stm32f4xx_hal_dcmi.c **** 
 1376              		.loc 1 739 3 view .LVU440
 1377 0036 FBE7     		b	.L86
 1378              		.cfi_endproc
 1379              	.LFE143:
 1381              		.section	.text.HAL_DCMI_DisableCrop,"ax",%progbits
 1382              		.align	1
 1383              		.global	HAL_DCMI_DisableCrop
 1384              		.syntax unified
 1385              		.thumb
 1386              		.thumb_func
 1387              		.fpu softvfp
 1389              	HAL_DCMI_DisableCrop:
 1390              	.LVL84:
 1391              	.LFB144:
 770:Libraries/STM32F4xx_HAL_Driver/Src/stm32f4xx_hal_dcmi.c ****   /* Process Locked */
 1392              		.loc 1 770 1 is_stmt 1 view -0
 1393              		.cfi_startproc
ARM GAS  C:\Users\yzy\AppData\Local\Temp\ccovssh5.s 			page 52


 1394              		@ args = 0, pretend = 0, frame = 0
 1395              		@ frame_needed = 0, uses_anonymous_args = 0
 1396              		@ link register save eliminated.
 772:Libraries/STM32F4xx_HAL_Driver/Src/stm32f4xx_hal_dcmi.c **** 
 1397              		.loc 1 772 3 view .LVU442
 772:Libraries/STM32F4xx_HAL_Driver/Src/stm32f4xx_hal_dcmi.c **** 
 1398              		.loc 1 772 3 view .LVU443
 1399 0000 90F82430 		ldrb	r3, [r0, #36]	@ zero_extendqisi2
 1400 0004 012B     		cmp	r3, #1
 1401 0006 11D0     		beq	.L91
 772:Libraries/STM32F4xx_HAL_Driver/Src/stm32f4xx_hal_dcmi.c **** 
 1402              		.loc 1 772 3 discriminator 2 view .LVU444
 1403 0008 0122     		movs	r2, #1
 1404 000a 80F82420 		strb	r2, [r0, #36]
 772:Libraries/STM32F4xx_HAL_Driver/Src/stm32f4xx_hal_dcmi.c **** 
 1405              		.loc 1 772 3 discriminator 2 view .LVU445
 775:Libraries/STM32F4xx_HAL_Driver/Src/stm32f4xx_hal_dcmi.c **** 
 1406              		.loc 1 775 3 discriminator 2 view .LVU446
 775:Libraries/STM32F4xx_HAL_Driver/Src/stm32f4xx_hal_dcmi.c **** 
 1407              		.loc 1 775 16 is_stmt 0 discriminator 2 view .LVU447
 1408 000e 0223     		movs	r3, #2
 1409 0010 80F82530 		strb	r3, [r0, #37]
 778:Libraries/STM32F4xx_HAL_Driver/Src/stm32f4xx_hal_dcmi.c **** 
 1410              		.loc 1 778 3 is_stmt 1 discriminator 2 view .LVU448
 778:Libraries/STM32F4xx_HAL_Driver/Src/stm32f4xx_hal_dcmi.c **** 
 1411              		.loc 1 778 8 is_stmt 0 discriminator 2 view .LVU449
 1412 0014 0168     		ldr	r1, [r0]
 778:Libraries/STM32F4xx_HAL_Driver/Src/stm32f4xx_hal_dcmi.c **** 
 1413              		.loc 1 778 23 discriminator 2 view .LVU450
 1414 0016 0B68     		ldr	r3, [r1]
 1415 0018 23F00403 		bic	r3, r3, #4
 1416 001c 0B60     		str	r3, [r1]
 781:Libraries/STM32F4xx_HAL_Driver/Src/stm32f4xx_hal_dcmi.c **** 
 1417              		.loc 1 781 3 is_stmt 1 discriminator 2 view .LVU451
 781:Libraries/STM32F4xx_HAL_Driver/Src/stm32f4xx_hal_dcmi.c **** 
 1418              		.loc 1 781 16 is_stmt 0 discriminator 2 view .LVU452
 1419 001e 80F82520 		strb	r2, [r0, #37]
 784:Libraries/STM32F4xx_HAL_Driver/Src/stm32f4xx_hal_dcmi.c **** 
 1420              		.loc 1 784 3 is_stmt 1 discriminator 2 view .LVU453
 784:Libraries/STM32F4xx_HAL_Driver/Src/stm32f4xx_hal_dcmi.c **** 
 1421              		.loc 1 784 3 discriminator 2 view .LVU454
 1422 0022 0023     		movs	r3, #0
 1423 0024 80F82430 		strb	r3, [r0, #36]
 784:Libraries/STM32F4xx_HAL_Driver/Src/stm32f4xx_hal_dcmi.c **** 
 1424              		.loc 1 784 3 discriminator 2 view .LVU455
 786:Libraries/STM32F4xx_HAL_Driver/Src/stm32f4xx_hal_dcmi.c **** }
 1425              		.loc 1 786 3 discriminator 2 view .LVU456
 786:Libraries/STM32F4xx_HAL_Driver/Src/stm32f4xx_hal_dcmi.c **** }
 1426              		.loc 1 786 10 is_stmt 0 discriminator 2 view .LVU457
 1427 0028 1846     		mov	r0, r3
 1428              	.LVL85:
 786:Libraries/STM32F4xx_HAL_Driver/Src/stm32f4xx_hal_dcmi.c **** }
 1429              		.loc 1 786 10 discriminator 2 view .LVU458
 1430 002a 7047     		bx	lr
 1431              	.LVL86:
 1432              	.L91:
 772:Libraries/STM32F4xx_HAL_Driver/Src/stm32f4xx_hal_dcmi.c **** 
ARM GAS  C:\Users\yzy\AppData\Local\Temp\ccovssh5.s 			page 53


 1433              		.loc 1 772 3 view .LVU459
 1434 002c 0220     		movs	r0, #2
 1435              	.LVL87:
 787:Libraries/STM32F4xx_HAL_Driver/Src/stm32f4xx_hal_dcmi.c **** 
 1436              		.loc 1 787 1 view .LVU460
 1437 002e 7047     		bx	lr
 1438              		.cfi_endproc
 1439              	.LFE144:
 1441              		.section	.text.HAL_DCMI_EnableCrop,"ax",%progbits
 1442              		.align	1
 1443              		.global	HAL_DCMI_EnableCrop
 1444              		.syntax unified
 1445              		.thumb
 1446              		.thumb_func
 1447              		.fpu softvfp
 1449              	HAL_DCMI_EnableCrop:
 1450              	.LVL88:
 1451              	.LFB145:
 796:Libraries/STM32F4xx_HAL_Driver/Src/stm32f4xx_hal_dcmi.c ****   /* Process Locked */
 1452              		.loc 1 796 1 is_stmt 1 view -0
 1453              		.cfi_startproc
 1454              		@ args = 0, pretend = 0, frame = 0
 1455              		@ frame_needed = 0, uses_anonymous_args = 0
 1456              		@ link register save eliminated.
 798:Libraries/STM32F4xx_HAL_Driver/Src/stm32f4xx_hal_dcmi.c **** 
 1457              		.loc 1 798 3 view .LVU462
 798:Libraries/STM32F4xx_HAL_Driver/Src/stm32f4xx_hal_dcmi.c **** 
 1458              		.loc 1 798 3 view .LVU463
 1459 0000 90F82430 		ldrb	r3, [r0, #36]	@ zero_extendqisi2
 1460 0004 012B     		cmp	r3, #1
 1461 0006 11D0     		beq	.L94
 798:Libraries/STM32F4xx_HAL_Driver/Src/stm32f4xx_hal_dcmi.c **** 
 1462              		.loc 1 798 3 discriminator 2 view .LVU464
 1463 0008 0122     		movs	r2, #1
 1464 000a 80F82420 		strb	r2, [r0, #36]
 798:Libraries/STM32F4xx_HAL_Driver/Src/stm32f4xx_hal_dcmi.c **** 
 1465              		.loc 1 798 3 discriminator 2 view .LVU465
 801:Libraries/STM32F4xx_HAL_Driver/Src/stm32f4xx_hal_dcmi.c **** 
 1466              		.loc 1 801 3 discriminator 2 view .LVU466
 801:Libraries/STM32F4xx_HAL_Driver/Src/stm32f4xx_hal_dcmi.c **** 
 1467              		.loc 1 801 16 is_stmt 0 discriminator 2 view .LVU467
 1468 000e 0223     		movs	r3, #2
 1469 0010 80F82530 		strb	r3, [r0, #37]
 804:Libraries/STM32F4xx_HAL_Driver/Src/stm32f4xx_hal_dcmi.c **** 
 1470              		.loc 1 804 3 is_stmt 1 discriminator 2 view .LVU468
 804:Libraries/STM32F4xx_HAL_Driver/Src/stm32f4xx_hal_dcmi.c **** 
 1471              		.loc 1 804 8 is_stmt 0 discriminator 2 view .LVU469
 1472 0014 0168     		ldr	r1, [r0]
 804:Libraries/STM32F4xx_HAL_Driver/Src/stm32f4xx_hal_dcmi.c **** 
 1473              		.loc 1 804 23 discriminator 2 view .LVU470
 1474 0016 0B68     		ldr	r3, [r1]
 1475 0018 43F00403 		orr	r3, r3, #4
 1476 001c 0B60     		str	r3, [r1]
 807:Libraries/STM32F4xx_HAL_Driver/Src/stm32f4xx_hal_dcmi.c **** 
 1477              		.loc 1 807 3 is_stmt 1 discriminator 2 view .LVU471
 807:Libraries/STM32F4xx_HAL_Driver/Src/stm32f4xx_hal_dcmi.c **** 
 1478              		.loc 1 807 16 is_stmt 0 discriminator 2 view .LVU472
ARM GAS  C:\Users\yzy\AppData\Local\Temp\ccovssh5.s 			page 54


 1479 001e 80F82520 		strb	r2, [r0, #37]
 810:Libraries/STM32F4xx_HAL_Driver/Src/stm32f4xx_hal_dcmi.c **** 
 1480              		.loc 1 810 3 is_stmt 1 discriminator 2 view .LVU473
 810:Libraries/STM32F4xx_HAL_Driver/Src/stm32f4xx_hal_dcmi.c **** 
 1481              		.loc 1 810 3 discriminator 2 view .LVU474
 1482 0022 0023     		movs	r3, #0
 1483 0024 80F82430 		strb	r3, [r0, #36]
 810:Libraries/STM32F4xx_HAL_Driver/Src/stm32f4xx_hal_dcmi.c **** 
 1484              		.loc 1 810 3 discriminator 2 view .LVU475
 812:Libraries/STM32F4xx_HAL_Driver/Src/stm32f4xx_hal_dcmi.c **** }
 1485              		.loc 1 812 3 discriminator 2 view .LVU476
 812:Libraries/STM32F4xx_HAL_Driver/Src/stm32f4xx_hal_dcmi.c **** }
 1486              		.loc 1 812 10 is_stmt 0 discriminator 2 view .LVU477
 1487 0028 1846     		mov	r0, r3
 1488              	.LVL89:
 812:Libraries/STM32F4xx_HAL_Driver/Src/stm32f4xx_hal_dcmi.c **** }
 1489              		.loc 1 812 10 discriminator 2 view .LVU478
 1490 002a 7047     		bx	lr
 1491              	.LVL90:
 1492              	.L94:
 798:Libraries/STM32F4xx_HAL_Driver/Src/stm32f4xx_hal_dcmi.c **** 
 1493              		.loc 1 798 3 view .LVU479
 1494 002c 0220     		movs	r0, #2
 1495              	.LVL91:
 813:Libraries/STM32F4xx_HAL_Driver/Src/stm32f4xx_hal_dcmi.c **** 
 1496              		.loc 1 813 1 view .LVU480
 1497 002e 7047     		bx	lr
 1498              		.cfi_endproc
 1499              	.LFE145:
 1501              		.section	.text.HAL_DCMI_ConfigSyncUnmask,"ax",%progbits
 1502              		.align	1
 1503              		.global	HAL_DCMI_ConfigSyncUnmask
 1504              		.syntax unified
 1505              		.thumb
 1506              		.thumb_func
 1507              		.fpu softvfp
 1509              	HAL_DCMI_ConfigSyncUnmask:
 1510              	.LVL92:
 1511              	.LFB146:
 824:Libraries/STM32F4xx_HAL_Driver/Src/stm32f4xx_hal_dcmi.c ****   /* Process Locked */
 1512              		.loc 1 824 1 is_stmt 1 view -0
 1513              		.cfi_startproc
 1514              		@ args = 0, pretend = 0, frame = 0
 1515              		@ frame_needed = 0, uses_anonymous_args = 0
 1516              		@ link register save eliminated.
 826:Libraries/STM32F4xx_HAL_Driver/Src/stm32f4xx_hal_dcmi.c **** 
 1517              		.loc 1 826 3 view .LVU482
 826:Libraries/STM32F4xx_HAL_Driver/Src/stm32f4xx_hal_dcmi.c **** 
 1518              		.loc 1 826 3 view .LVU483
 1519 0000 90F82430 		ldrb	r3, [r0, #36]	@ zero_extendqisi2
 1520 0004 012B     		cmp	r3, #1
 1521 0006 1AD0     		beq	.L97
 824:Libraries/STM32F4xx_HAL_Driver/Src/stm32f4xx_hal_dcmi.c ****   /* Process Locked */
 1522              		.loc 1 824 1 is_stmt 0 discriminator 2 view .LVU484
 1523 0008 10B4     		push	{r4}
 1524              	.LCFI20:
 1525              		.cfi_def_cfa_offset 4
ARM GAS  C:\Users\yzy\AppData\Local\Temp\ccovssh5.s 			page 55


 1526              		.cfi_offset 4, -4
 826:Libraries/STM32F4xx_HAL_Driver/Src/stm32f4xx_hal_dcmi.c **** 
 1527              		.loc 1 826 3 is_stmt 1 discriminator 2 view .LVU485
 1528 000a 0122     		movs	r2, #1
 1529 000c 80F82420 		strb	r2, [r0, #36]
 826:Libraries/STM32F4xx_HAL_Driver/Src/stm32f4xx_hal_dcmi.c **** 
 1530              		.loc 1 826 3 discriminator 2 view .LVU486
 829:Libraries/STM32F4xx_HAL_Driver/Src/stm32f4xx_hal_dcmi.c **** 
 1531              		.loc 1 829 3 discriminator 2 view .LVU487
 829:Libraries/STM32F4xx_HAL_Driver/Src/stm32f4xx_hal_dcmi.c **** 
 1532              		.loc 1 829 16 is_stmt 0 discriminator 2 view .LVU488
 1533 0010 0223     		movs	r3, #2
 1534 0012 80F82530 		strb	r3, [r0, #37]
 832:Libraries/STM32F4xx_HAL_Driver/Src/stm32f4xx_hal_dcmi.c ****                            ((uint32_t)SyncUnmask->LineStartUnmask << DCMI_ESUR_LSU_Pos)|\
 1535              		.loc 1 832 3 is_stmt 1 discriminator 2 view .LVU489
 832:Libraries/STM32F4xx_HAL_Driver/Src/stm32f4xx_hal_dcmi.c ****                            ((uint32_t)SyncUnmask->LineStartUnmask << DCMI_ESUR_LSU_Pos)|\
 1536              		.loc 1 832 49 is_stmt 0 discriminator 2 view .LVU490
 1537 0016 0B78     		ldrb	r3, [r1]	@ zero_extendqisi2
 833:Libraries/STM32F4xx_HAL_Driver/Src/stm32f4xx_hal_dcmi.c ****                            ((uint32_t)SyncUnmask->LineEndUnmask << DCMI_ESUR_LEU_Pos)|\
 1538              		.loc 1 833 49 discriminator 2 view .LVU491
 1539 0018 4C78     		ldrb	r4, [r1, #1]	@ zero_extendqisi2
 832:Libraries/STM32F4xx_HAL_Driver/Src/stm32f4xx_hal_dcmi.c ****                            ((uint32_t)SyncUnmask->LineStartUnmask << DCMI_ESUR_LSU_Pos)|\
 1540              		.loc 1 832 69 discriminator 2 view .LVU492
 1541 001a 43EA0423 		orr	r3, r3, r4, lsl #8
 834:Libraries/STM32F4xx_HAL_Driver/Src/stm32f4xx_hal_dcmi.c ****                            ((uint32_t)SyncUnmask->FrameEndUnmask << DCMI_ESUR_FEU_Pos));
 1542              		.loc 1 834 49 discriminator 2 view .LVU493
 1543 001e 8C78     		ldrb	r4, [r1, #2]	@ zero_extendqisi2
 833:Libraries/STM32F4xx_HAL_Driver/Src/stm32f4xx_hal_dcmi.c ****                            ((uint32_t)SyncUnmask->LineEndUnmask << DCMI_ESUR_LEU_Pos)|\
 1544              		.loc 1 833 88 discriminator 2 view .LVU494
 1545 0020 43EA0443 		orr	r3, r3, r4, lsl #16
 835:Libraries/STM32F4xx_HAL_Driver/Src/stm32f4xx_hal_dcmi.c **** 
 1546              		.loc 1 835 49 discriminator 2 view .LVU495
 1547 0024 CC78     		ldrb	r4, [r1, #3]	@ zero_extendqisi2
 832:Libraries/STM32F4xx_HAL_Driver/Src/stm32f4xx_hal_dcmi.c ****                            ((uint32_t)SyncUnmask->LineStartUnmask << DCMI_ESUR_LSU_Pos)|\
 1548              		.loc 1 832 8 discriminator 2 view .LVU496
 1549 0026 0168     		ldr	r1, [r0]
 1550              	.LVL93:
 834:Libraries/STM32F4xx_HAL_Driver/Src/stm32f4xx_hal_dcmi.c ****                            ((uint32_t)SyncUnmask->FrameEndUnmask << DCMI_ESUR_FEU_Pos));
 1551              		.loc 1 834 86 discriminator 2 view .LVU497
 1552 0028 43EA0463 		orr	r3, r3, r4, lsl #24
 832:Libraries/STM32F4xx_HAL_Driver/Src/stm32f4xx_hal_dcmi.c ****                            ((uint32_t)SyncUnmask->LineStartUnmask << DCMI_ESUR_LSU_Pos)|\
 1553              		.loc 1 832 25 discriminator 2 view .LVU498
 1554 002c CB61     		str	r3, [r1, #28]
 838:Libraries/STM32F4xx_HAL_Driver/Src/stm32f4xx_hal_dcmi.c **** 
 1555              		.loc 1 838 3 is_stmt 1 discriminator 2 view .LVU499
 838:Libraries/STM32F4xx_HAL_Driver/Src/stm32f4xx_hal_dcmi.c **** 
 1556              		.loc 1 838 16 is_stmt 0 discriminator 2 view .LVU500
 1557 002e 80F82520 		strb	r2, [r0, #37]
 841:Libraries/STM32F4xx_HAL_Driver/Src/stm32f4xx_hal_dcmi.c **** 
 1558              		.loc 1 841 3 is_stmt 1 discriminator 2 view .LVU501
 841:Libraries/STM32F4xx_HAL_Driver/Src/stm32f4xx_hal_dcmi.c **** 
 1559              		.loc 1 841 3 discriminator 2 view .LVU502
 1560 0032 0023     		movs	r3, #0
 1561 0034 80F82430 		strb	r3, [r0, #36]
 841:Libraries/STM32F4xx_HAL_Driver/Src/stm32f4xx_hal_dcmi.c **** 
 1562              		.loc 1 841 3 discriminator 2 view .LVU503
 843:Libraries/STM32F4xx_HAL_Driver/Src/stm32f4xx_hal_dcmi.c **** }
ARM GAS  C:\Users\yzy\AppData\Local\Temp\ccovssh5.s 			page 56


 1563              		.loc 1 843 3 discriminator 2 view .LVU504
 843:Libraries/STM32F4xx_HAL_Driver/Src/stm32f4xx_hal_dcmi.c **** }
 1564              		.loc 1 843 10 is_stmt 0 discriminator 2 view .LVU505
 1565 0038 1846     		mov	r0, r3
 1566              	.LVL94:
 844:Libraries/STM32F4xx_HAL_Driver/Src/stm32f4xx_hal_dcmi.c **** 
 1567              		.loc 1 844 1 discriminator 2 view .LVU506
 1568 003a 10BC     		pop	{r4}
 1569              	.LCFI21:
 1570              		.cfi_restore 4
 1571              		.cfi_def_cfa_offset 0
 1572 003c 7047     		bx	lr
 1573              	.LVL95:
 1574              	.L97:
 826:Libraries/STM32F4xx_HAL_Driver/Src/stm32f4xx_hal_dcmi.c **** 
 1575              		.loc 1 826 3 view .LVU507
 1576 003e 0220     		movs	r0, #2
 1577              	.LVL96:
 844:Libraries/STM32F4xx_HAL_Driver/Src/stm32f4xx_hal_dcmi.c **** 
 1578              		.loc 1 844 1 view .LVU508
 1579 0040 7047     		bx	lr
 1580              		.cfi_endproc
 1581              	.LFE146:
 1583              		.section	.text.HAL_DCMI_GetState,"ax",%progbits
 1584              		.align	1
 1585              		.global	HAL_DCMI_GetState
 1586              		.syntax unified
 1587              		.thumb
 1588              		.thumb_func
 1589              		.fpu softvfp
 1591              	HAL_DCMI_GetState:
 1592              	.LVL97:
 1593              	.LFB147:
 873:Libraries/STM32F4xx_HAL_Driver/Src/stm32f4xx_hal_dcmi.c ****   return hdcmi->State;
 1594              		.loc 1 873 1 is_stmt 1 view -0
 1595              		.cfi_startproc
 1596              		@ args = 0, pretend = 0, frame = 0
 1597              		@ frame_needed = 0, uses_anonymous_args = 0
 1598              		@ link register save eliminated.
 874:Libraries/STM32F4xx_HAL_Driver/Src/stm32f4xx_hal_dcmi.c **** }
 1599              		.loc 1 874 3 view .LVU510
 874:Libraries/STM32F4xx_HAL_Driver/Src/stm32f4xx_hal_dcmi.c **** }
 1600              		.loc 1 874 15 is_stmt 0 view .LVU511
 1601 0000 90F82500 		ldrb	r0, [r0, #37]	@ zero_extendqisi2
 1602              	.LVL98:
 875:Libraries/STM32F4xx_HAL_Driver/Src/stm32f4xx_hal_dcmi.c **** 
 1603              		.loc 1 875 1 view .LVU512
 1604 0004 7047     		bx	lr
 1605              		.cfi_endproc
 1606              	.LFE147:
 1608              		.section	.text.HAL_DCMI_GetError,"ax",%progbits
 1609              		.align	1
 1610              		.global	HAL_DCMI_GetError
 1611              		.syntax unified
 1612              		.thumb
 1613              		.thumb_func
 1614              		.fpu softvfp
ARM GAS  C:\Users\yzy\AppData\Local\Temp\ccovssh5.s 			page 57


 1616              	HAL_DCMI_GetError:
 1617              	.LVL99:
 1618              	.LFB148:
 884:Libraries/STM32F4xx_HAL_Driver/Src/stm32f4xx_hal_dcmi.c ****   return hdcmi->ErrorCode;
 1619              		.loc 1 884 1 is_stmt 1 view -0
 1620              		.cfi_startproc
 1621              		@ args = 0, pretend = 0, frame = 0
 1622              		@ frame_needed = 0, uses_anonymous_args = 0
 1623              		@ link register save eliminated.
 885:Libraries/STM32F4xx_HAL_Driver/Src/stm32f4xx_hal_dcmi.c **** }
 1624              		.loc 1 885 3 view .LVU514
 885:Libraries/STM32F4xx_HAL_Driver/Src/stm32f4xx_hal_dcmi.c **** }
 1625              		.loc 1 885 15 is_stmt 0 view .LVU515
 1626 0000 C06B     		ldr	r0, [r0, #60]
 1627              	.LVL100:
 886:Libraries/STM32F4xx_HAL_Driver/Src/stm32f4xx_hal_dcmi.c **** 
 1628              		.loc 1 886 1 view .LVU516
 1629 0002 7047     		bx	lr
 1630              		.cfi_endproc
 1631              	.LFE148:
 1633              		.text
 1634              	.Letext0:
 1635              		.file 2 "c:\\program files (x86)\\gnu arm embedded toolchain\\2020-q2-update\\arm-none-eabi\\inclu
 1636              		.file 3 "c:\\program files (x86)\\gnu arm embedded toolchain\\2020-q2-update\\arm-none-eabi\\inclu
 1637              		.file 4 "Libraries/CMSIS/Include/core_cm4.h"
 1638              		.file 5 "Libraries/CMSIS/Device/ST/STM32F4xx/Include/system_stm32f4xx.h"
 1639              		.file 6 "Libraries/CMSIS/Device/ST/STM32F4xx/Include/stm32f407xx.h"
 1640              		.file 7 "Libraries/STM32F4xx_HAL_Driver/Inc/stm32f4xx_hal_def.h"
 1641              		.file 8 "Libraries/STM32F4xx_HAL_Driver/Inc/stm32f4xx_hal_dma.h"
 1642              		.file 9 "Libraries/STM32F4xx_HAL_Driver/Inc/stm32f4xx_hal_dma_ex.h"
 1643              		.file 10 "Libraries/STM32F4xx_HAL_Driver/Inc/stm32f4xx_hal_dcmi_ex.h"
 1644              		.file 11 "Libraries/STM32F4xx_HAL_Driver/Inc/stm32f4xx_hal_dcmi.h"
 1645              		.file 12 "Libraries/STM32F4xx_HAL_Driver/Inc/stm32f4xx_hal.h"
ARM GAS  C:\Users\yzy\AppData\Local\Temp\ccovssh5.s 			page 58


DEFINED SYMBOLS
                            *ABS*:00000000 stm32f4xx_hal_dcmi.c
C:\Users\yzy\AppData\Local\Temp\ccovssh5.s:16     .text.DCMI_DMAXferCplt:00000000 $t
C:\Users\yzy\AppData\Local\Temp\ccovssh5.s:23     .text.DCMI_DMAXferCplt:00000000 DCMI_DMAXferCplt
C:\Users\yzy\AppData\Local\Temp\ccovssh5.s:197    .text.HAL_DCMI_MspInit:00000000 $t
C:\Users\yzy\AppData\Local\Temp\ccovssh5.s:204    .text.HAL_DCMI_MspInit:00000000 HAL_DCMI_MspInit
C:\Users\yzy\AppData\Local\Temp\ccovssh5.s:219    .text.HAL_DCMI_Init:00000000 $t
C:\Users\yzy\AppData\Local\Temp\ccovssh5.s:226    .text.HAL_DCMI_Init:00000000 HAL_DCMI_Init
C:\Users\yzy\AppData\Local\Temp\ccovssh5.s:377    .text.HAL_DCMI_MspDeInit:00000000 $t
C:\Users\yzy\AppData\Local\Temp\ccovssh5.s:384    .text.HAL_DCMI_MspDeInit:00000000 HAL_DCMI_MspDeInit
C:\Users\yzy\AppData\Local\Temp\ccovssh5.s:399    .text.HAL_DCMI_DeInit:00000000 $t
C:\Users\yzy\AppData\Local\Temp\ccovssh5.s:406    .text.HAL_DCMI_DeInit:00000000 HAL_DCMI_DeInit
C:\Users\yzy\AppData\Local\Temp\ccovssh5.s:442    .text.HAL_DCMI_Start_DMA:00000000 $t
C:\Users\yzy\AppData\Local\Temp\ccovssh5.s:449    .text.HAL_DCMI_Start_DMA:00000000 HAL_DCMI_Start_DMA
C:\Users\yzy\AppData\Local\Temp\ccovssh5.s:648    .text.HAL_DCMI_Start_DMA:000000b8 $d
C:\Users\yzy\AppData\Local\Temp\ccovssh5.s:1029   .text.DCMI_DMAError:00000000 DCMI_DMAError
C:\Users\yzy\AppData\Local\Temp\ccovssh5.s:654    .text.HAL_DCMI_Stop:00000000 $t
C:\Users\yzy\AppData\Local\Temp\ccovssh5.s:661    .text.HAL_DCMI_Stop:00000000 HAL_DCMI_Stop
C:\Users\yzy\AppData\Local\Temp\ccovssh5.s:789    .text.HAL_DCMI_Stop:00000080 $d
C:\Users\yzy\AppData\Local\Temp\ccovssh5.s:795    .text.HAL_DCMI_Suspend:00000000 $t
C:\Users\yzy\AppData\Local\Temp\ccovssh5.s:802    .text.HAL_DCMI_Suspend:00000000 HAL_DCMI_Suspend
C:\Users\yzy\AppData\Local\Temp\ccovssh5.s:928    .text.HAL_DCMI_Suspend:00000074 $d
C:\Users\yzy\AppData\Local\Temp\ccovssh5.s:934    .text.HAL_DCMI_Resume:00000000 $t
C:\Users\yzy\AppData\Local\Temp\ccovssh5.s:941    .text.HAL_DCMI_Resume:00000000 HAL_DCMI_Resume
C:\Users\yzy\AppData\Local\Temp\ccovssh5.s:1001   .text.HAL_DCMI_ErrorCallback:00000000 $t
C:\Users\yzy\AppData\Local\Temp\ccovssh5.s:1008   .text.HAL_DCMI_ErrorCallback:00000000 HAL_DCMI_ErrorCallback
C:\Users\yzy\AppData\Local\Temp\ccovssh5.s:1023   .text.DCMI_DMAError:00000000 $t
C:\Users\yzy\AppData\Local\Temp\ccovssh5.s:1068   .text.HAL_DCMI_LineEventCallback:00000000 $t
C:\Users\yzy\AppData\Local\Temp\ccovssh5.s:1075   .text.HAL_DCMI_LineEventCallback:00000000 HAL_DCMI_LineEventCallback
C:\Users\yzy\AppData\Local\Temp\ccovssh5.s:1090   .text.HAL_DCMI_VsyncEventCallback:00000000 $t
C:\Users\yzy\AppData\Local\Temp\ccovssh5.s:1097   .text.HAL_DCMI_VsyncEventCallback:00000000 HAL_DCMI_VsyncEventCallback
C:\Users\yzy\AppData\Local\Temp\ccovssh5.s:1112   .text.HAL_DCMI_FrameEventCallback:00000000 $t
C:\Users\yzy\AppData\Local\Temp\ccovssh5.s:1119   .text.HAL_DCMI_FrameEventCallback:00000000 HAL_DCMI_FrameEventCallback
C:\Users\yzy\AppData\Local\Temp\ccovssh5.s:1134   .text.HAL_DCMI_IRQHandler:00000000 $t
C:\Users\yzy\AppData\Local\Temp\ccovssh5.s:1141   .text.HAL_DCMI_IRQHandler:00000000 HAL_DCMI_IRQHandler
C:\Users\yzy\AppData\Local\Temp\ccovssh5.s:1287   .text.HAL_DCMI_IRQHandler:000000a8 $d
C:\Users\yzy\AppData\Local\Temp\ccovssh5.s:1292   .text.HAL_DCMI_ConfigCrop:00000000 $t
C:\Users\yzy\AppData\Local\Temp\ccovssh5.s:1299   .text.HAL_DCMI_ConfigCrop:00000000 HAL_DCMI_ConfigCrop
C:\Users\yzy\AppData\Local\Temp\ccovssh5.s:1382   .text.HAL_DCMI_DisableCrop:00000000 $t
C:\Users\yzy\AppData\Local\Temp\ccovssh5.s:1389   .text.HAL_DCMI_DisableCrop:00000000 HAL_DCMI_DisableCrop
C:\Users\yzy\AppData\Local\Temp\ccovssh5.s:1442   .text.HAL_DCMI_EnableCrop:00000000 $t
C:\Users\yzy\AppData\Local\Temp\ccovssh5.s:1449   .text.HAL_DCMI_EnableCrop:00000000 HAL_DCMI_EnableCrop
C:\Users\yzy\AppData\Local\Temp\ccovssh5.s:1502   .text.HAL_DCMI_ConfigSyncUnmask:00000000 $t
C:\Users\yzy\AppData\Local\Temp\ccovssh5.s:1509   .text.HAL_DCMI_ConfigSyncUnmask:00000000 HAL_DCMI_ConfigSyncUnmask
C:\Users\yzy\AppData\Local\Temp\ccovssh5.s:1584   .text.HAL_DCMI_GetState:00000000 $t
C:\Users\yzy\AppData\Local\Temp\ccovssh5.s:1591   .text.HAL_DCMI_GetState:00000000 HAL_DCMI_GetState
C:\Users\yzy\AppData\Local\Temp\ccovssh5.s:1609   .text.HAL_DCMI_GetError:00000000 $t
C:\Users\yzy\AppData\Local\Temp\ccovssh5.s:1616   .text.HAL_DCMI_GetError:00000000 HAL_DCMI_GetError

UNDEFINED SYMBOLS
HAL_DMAEx_ChangeMemory
HAL_DMA_Start_IT
HAL_DMAEx_MultiBufferStart_IT
HAL_DMA_Abort
SystemCoreClock
HAL_DMA_Abort_IT
